 simpleua

 Timestamp is 5ce480f2 (Wed May 22 07:51:30 2019)

 Preferred load address is 00400000

 Start         Length     Name                   Class
 0001:00000000 00056a42H .text$mn                CODE
 0002:00000000 0000029cH .idata$5                DATA
 0002:0000029c 00000004H .00cfg                  DATA
 0002:000002a0 00000004H .CRT$XCA                DATA
 0002:000002a4 00000004H .CRT$XCAA               DATA
 0002:000002a8 00000004H .CRT$XCZ                DATA
 0002:000002ac 00000004H .CRT$XIA                DATA
 0002:000002b0 00000004H .CRT$XIAA               DATA
 0002:000002b4 00000004H .CRT$XIAC               DATA
 0002:000002b8 00000004H .CRT$XIZ                DATA
 0002:000002bc 00000004H .CRT$XPA                DATA
 0002:000002c0 00000004H .CRT$XPZ                DATA
 0002:000002c4 00000004H .CRT$XTA                DATA
 0002:000002c8 00000008H .CRT$XTZ                DATA
 0002:000002cc 00000000H .gfids$y                DATA
 0002:000002d0 00016180H .rdata                  DATA
 0002:00016450 00000004H .rdata$sxdata           DATA
 0002:00016454 0000023cH .rdata$zzzdbg           DATA
 0002:00016690 00000004H .rtc$IAA                DATA
 0002:00016694 00000004H .rtc$IZZ                DATA
 0002:00016698 00000004H .rtc$TAA                DATA
 0002:0001669c 00000004H .rtc$TZZ                DATA
 0002:000166a0 0000003cH .xdata$x                DATA
 0002:000166dc 00000000H .edata                  DATA
 0002:000166dc 00000104H .idata$2                DATA
 0002:000167e0 00000014H .idata$3                DATA
 0002:000167f4 0000029cH .idata$4                DATA
 0002:00016a90 00000a92H .idata$6                DATA
 0003:00000000 000016e0H .data                   DATA
 0003:000016e0 00005e10H .bss                    DATA
 0004:00000000 000005e0H _RDATA                  DATA

  Address         Publics by Value              Rva+Base       Lib:Object

 0000:00000000       ___guard_iat_table         00000000     <absolute>
 0000:00000000       ___hybrid_auxiliary_iat    00000000     <absolute>
 0000:00000000       ___guard_longjmp_count     00000000     <absolute>
 0000:00000000       ___dynamic_value_reloc_table 00000000     <absolute>
 0000:00000000       ___enclave_config          00000000     <absolute>
 0000:00000000       ___guard_fids_table        00000000     <absolute>
 0000:00000000       ___guard_iat_count         00000000     <absolute>
 0000:00000000       ___volatile_metadata       00000000     <absolute>
 0000:00000000       ___hybrid_code_map_count   00000000     <absolute>
 0000:00000000       ___guard_longjmp_table     00000000     <absolute>
 0000:00000000       ___guard_fids_count        00000000     <absolute>
 0000:00000000       ___hybrid_code_map         00000000     <absolute>
 0000:00000001       ___safe_se_handler_count   00000001     <absolute>
 0000:00000100       ___guard_flags             00000100     <absolute>
 0000:00000000       ___ImageBase               00400000     <linker-defined>
 0001:00000250       _get_snd_options           00401250 f   simpleua.obj
 0001:00000640       _dump_pool_usage           00401640 f   simpleua.obj
 0001:00000ce0       _main                      00401ce0 f   simpleua.obj
 0001:000011f0       ___local_stdio_printf_options 004021f0 f i simpleua.obj
 0001:00001200       _sprintf                   00402200 f i simpleua.obj
 0001:000012f0       ___scrt_initialize_winrt   004022f0 f   MSVCRT:utility_desktop.obj
 0001:000012f0       __get_startup_commit_mode  004022f0 f   MSVCRT:commit_mode.obj
 0001:000012f0       __get_startup_thread_locale_mode 004022f0 f   MSVCRT:thread_locale.obj
 0001:000012f0       ___scrt_exe_initialize_mta 004022f0 f   MSVCRT:utility_desktop.obj
 0001:000012f0       __matherr                  004022f0 f   MSVCRT:matherr.obj
 0001:000012f0       _srtp_ekt_stream_init_from_policy 004022f0 f   libsrtp-i386-win32-vc8-release-dynamic:ekt.obj
 0001:000012f0       _pjmedia_wsola_destroy     004022f0 f   pjmedia-i386-win32-vc8-release-dynamic:wsola.obj
 0001:000012f0       ___scrt_stub_for_initialize_mta 004022f0 f   MSVCRT:utility_desktop.obj
 0001:000012f0       __get_startup_new_mode     004022f0 f   MSVCRT:new_mode.obj
 0001:000012f0       _echo_supp_destroy         004022f0 f   pjmedia-i386-win32-vc8-release-dynamic:echo_suppress.obj
 0001:00002950       __snprintf                 00403950 f i pjsip-ua-i386-win32-vc8-release-dynamic:sip_inv.obj
 0001:000042f0       _pjsip_create_sdp_body     004052f0 f   pjsip-ua-i386-win32-vc8-release-dynamic:sip_inv.obj
 0001:00004370       _pjsip_inv_add_ref         00405370 f   pjsip-ua-i386-win32-vc8-release-dynamic:sip_inv.obj
 0001:000043a0       _pjsip_inv_answer          004053a0 f   pjsip-ua-i386-win32-vc8-release-dynamic:sip_inv.obj
 0001:000044b0       _pjsip_inv_create_uac      004054b0 f   pjsip-ua-i386-win32-vc8-release-dynamic:sip_inv.obj
 0001:00004650       _pjsip_inv_create_uas      00405650 f   pjsip-ua-i386-win32-vc8-release-dynamic:sip_inv.obj
 0001:000048a0       _pjsip_inv_end_session     004058a0 f   pjsip-ua-i386-win32-vc8-release-dynamic:sip_inv.obj
 0001:00004b30       _pjsip_inv_initial_answer  00405b30 f   pjsip-ua-i386-win32-vc8-release-dynamic:sip_inv.obj
 0001:00004c70       _pjsip_inv_invite          00405c70 f   pjsip-ua-i386-win32-vc8-release-dynamic:sip_inv.obj
 0001:00004ed0       _pjsip_inv_process_redirect 00405ed0 f   pjsip-ua-i386-win32-vc8-release-dynamic:sip_inv.obj
 0001:00005200       _pjsip_inv_send_msg        00406200 f   pjsip-ua-i386-win32-vc8-release-dynamic:sip_inv.obj
 0001:00005460       _pjsip_inv_state_name      00406460 f   pjsip-ua-i386-win32-vc8-release-dynamic:sip_inv.obj
 0001:00005480       _pjsip_inv_uac_restart     00406480 f   pjsip-ua-i386-win32-vc8-release-dynamic:sip_inv.obj
 0001:000054f0       _pjsip_inv_update          004064f0 f   pjsip-ua-i386-win32-vc8-release-dynamic:sip_inv.obj
 0001:00005710       _pjsip_inv_usage_init      00406710 f   pjsip-ua-i386-win32-vc8-release-dynamic:sip_inv.obj
 0001:00005770       _pjsip_inv_verify_request  00406770 f   pjsip-ua-i386-win32-vc8-release-dynamic:sip_inv.obj
 0001:000057a0       _pjsip_inv_verify_request3 004067a0 f   pjsip-ua-i386-win32-vc8-release-dynamic:sip_inv.obj
 0001:00006220       _pjsip_rdata_get_sdp_info  00407220 f   pjsip-ua-i386-win32-vc8-release-dynamic:sip_inv.obj
 0001:00006810       _pjsip_100rel_attach       00407810 f   pjsip-ua-i386-win32-vc8-release-dynamic:sip_100rel.obj
 0001:00006880       _pjsip_100rel_create_prack 00407880 f   pjsip-ua-i386-win32-vc8-release-dynamic:sip_100rel.obj
 0001:00006b60       _pjsip_100rel_end_session  00407b60 f   pjsip-ua-i386-win32-vc8-release-dynamic:sip_100rel.obj
 0001:00006bc0       _pjsip_100rel_init_module  00407bc0 f   pjsip-ua-i386-win32-vc8-release-dynamic:sip_100rel.obj
 0001:00006bf0       _pjsip_100rel_is_reliable  00407bf0 f   pjsip-ua-i386-win32-vc8-release-dynamic:sip_100rel.obj
 0001:00006c30       _pjsip_100rel_on_rx_prack  00407c30 f   pjsip-ua-i386-win32-vc8-release-dynamic:sip_100rel.obj
 0001:00006e70       _pjsip_100rel_send_prack   00407e70 f   pjsip-ua-i386-win32-vc8-release-dynamic:sip_100rel.obj
 0001:00006eb0       _pjsip_100rel_tx_response  00407eb0 f   pjsip-ua-i386-win32-vc8-release-dynamic:sip_100rel.obj
 0001:000076a0       _pjsip_sess_expires_hdr_create 004086a0 f   pjsip-ua-i386-win32-vc8-release-dynamic:sip_timer.obj
 0001:00007700       _pjsip_timer_end_session   00408700 f   pjsip-ua-i386-win32-vc8-release-dynamic:sip_timer.obj
 0001:00007730       _pjsip_timer_handle_refresh_error 00408730 f   pjsip-ua-i386-win32-vc8-release-dynamic:sip_timer.obj
 0001:000078b0       _pjsip_timer_init_session  004088b0 f   pjsip-ua-i386-win32-vc8-release-dynamic:sip_timer.obj
 0001:00007940       _pjsip_timer_process_req   00408940 f   pjsip-ua-i386-win32-vc8-release-dynamic:sip_timer.obj
 0001:00007b40       _pjsip_timer_process_resp  00408b40 f   pjsip-ua-i386-win32-vc8-release-dynamic:sip_timer.obj
 0001:00007f10       _pjsip_timer_update_req    00408f10 f   pjsip-ua-i386-win32-vc8-release-dynamic:sip_timer.obj
 0001:00007fa0       _pjsip_timer_update_resp   00408fa0 f   pjsip-ua-i386-win32-vc8-release-dynamic:sip_timer.obj
 0001:00009e10       _pjsip_accept_hdr_create   0040ae10 f   pjsip-core-i386-win32-vc8-release-dynamic:sip_msg.obj
 0001:00009e60       _pjsip_allow_hdr_create    0040ae60 f   pjsip-core-i386-win32-vc8-release-dynamic:sip_msg.obj
 0001:00009eb0       _pjsip_cid_hdr_create      0040aeb0 f   pjsip-core-i386-win32-vc8-release-dynamic:sip_msg.obj
 0001:00009f20       _pjsip_clen_hdr_create     0040af20 f   pjsip-core-i386-win32-vc8-release-dynamic:sip_msg.obj
 0001:00009f80       _pjsip_clone_text_data     0040af80 f   pjsip-core-i386-win32-vc8-release-dynamic:sip_msg.obj
 0001:00009fc0       _pjsip_contact_hdr_create  0040afc0 f   pjsip-core-i386-win32-vc8-release-dynamic:sip_msg.obj
 0001:0000a040       _pjsip_cseq_hdr_create     0040b040 f   pjsip-core-i386-win32-vc8-release-dynamic:sip_msg.obj
 0001:0000a0a0       _pjsip_ctype_hdr_create    0040b0a0 f   pjsip-core-i386-win32-vc8-release-dynamic:sip_msg.obj
 0001:0000a110       _pjsip_expires_hdr_create  0040b110 f   pjsip-core-i386-win32-vc8-release-dynamic:sip_msg.obj
 0001:0000a160       _pjsip_from_hdr_create     0040b160 f   pjsip-core-i386-win32-vc8-release-dynamic:sip_msg.obj
 0001:0000a230       _pjsip_fromto_hdr_set_from 0040b230 f   pjsip-core-i386-win32-vc8-release-dynamic:sip_msg.obj
 0001:0000a260       _pjsip_fromto_hdr_set_to   0040b260 f   pjsip-core-i386-win32-vc8-release-dynamic:sip_msg.obj
 0001:0000a290       _pjsip_generic_array_hdr_init 0040b290 f   pjsip-core-i386-win32-vc8-release-dynamic:sip_msg.obj
 0001:0000a300       _pjsip_generic_string_hdr_create 0040b300 f   pjsip-core-i386-win32-vc8-release-dynamic:sip_msg.obj
 0001:0000a390       _pjsip_get_ack_method      0040b390 f   pjsip-core-i386-win32-vc8-release-dynamic:sip_msg.obj
 0001:0000a3a0       _pjsip_get_bye_method      0040b3a0 f   pjsip-core-i386-win32-vc8-release-dynamic:sip_msg.obj
 0001:0000a3b0       _pjsip_get_cancel_method   0040b3b0 f   pjsip-core-i386-win32-vc8-release-dynamic:sip_msg.obj
 0001:0000a3c0       _pjsip_get_invite_method   0040b3c0 f   pjsip-core-i386-win32-vc8-release-dynamic:sip_msg.obj
 0001:0000a3d0       _pjsip_get_status_text     0040b3d0 f   pjsip-core-i386-win32-vc8-release-dynamic:sip_msg.obj
 0001:0000a410       _pjsip_hdr_clone           0040b410 f   pjsip-core-i386-win32-vc8-release-dynamic:sip_msg.obj
 0001:0000a430       _pjsip_hdr_print_on        0040b430 f   pjsip-core-i386-win32-vc8-release-dynamic:sip_msg.obj
 0001:0000a450       _pjsip_hdr_shallow_clone   0040b450 f   pjsip-core-i386-win32-vc8-release-dynamic:sip_msg.obj
 0001:0000a470       _pjsip_max_fwd_hdr_create  0040b470 f   pjsip-core-i386-win32-vc8-release-dynamic:sip_msg.obj
 0001:0000a4c0       _pjsip_media_type_cmp      0040b4c0 f   pjsip-core-i386-win32-vc8-release-dynamic:sip_msg.obj
 0001:0000a520       _pjsip_media_type_cp       0040b520 f   pjsip-core-i386-win32-vc8-release-dynamic:sip_msg.obj
 0001:0000a570       _pjsip_media_type_init     0040b570 f   pjsip-core-i386-win32-vc8-release-dynamic:sip_msg.obj
 0001:0000a5c0       _pjsip_media_type_init2    0040b5c0 f   pjsip-core-i386-win32-vc8-release-dynamic:sip_msg.obj
 0001:0000a640       _pjsip_media_type_print    0040b640 f   pjsip-core-i386-win32-vc8-release-dynamic:sip_msg.obj
 0001:0000a650       _pjsip_method_cmp          0040b650 f   pjsip-core-i386-win32-vc8-release-dynamic:sip_msg.obj
 0001:0000a690       _pjsip_method_copy         0040b690 f   pjsip-core-i386-win32-vc8-release-dynamic:sip_msg.obj
 0001:0000a6d0       _pjsip_method_init_np      0040b6d0 f   pjsip-core-i386-win32-vc8-release-dynamic:sip_msg.obj
 0001:0000a740       _pjsip_min_expires_hdr_create 0040b740 f   pjsip-core-i386-win32-vc8-release-dynamic:sip_msg.obj
 0001:0000a790       _pjsip_msg_body_clone      0040b790 f   pjsip-core-i386-win32-vc8-release-dynamic:sip_msg.obj
 0001:0000a830       _pjsip_msg_create          0040b830 f   pjsip-core-i386-win32-vc8-release-dynamic:sip_msg.obj
 0001:0000a860       _pjsip_msg_find_hdr        0040b860 f   pjsip-core-i386-win32-vc8-release-dynamic:sip_msg.obj
 0001:0000a890       _pjsip_msg_find_hdr_by_name 0040b890 f   pjsip-core-i386-win32-vc8-release-dynamic:sip_msg.obj
 0001:0000a8e0       _pjsip_msg_find_hdr_by_names 0040b8e0 f   pjsip-core-i386-win32-vc8-release-dynamic:sip_msg.obj
 0001:0000a940       _pjsip_msg_print           0040b940 f   pjsip-core-i386-win32-vc8-release-dynamic:sip_msg.obj
 0001:0000ac60       _pjsip_print_text_body     0040bc60 f   pjsip-core-i386-win32-vc8-release-dynamic:sip_msg.obj
 0001:0000ac90       _pjsip_require_hdr_create  0040bc90 f   pjsip-core-i386-win32-vc8-release-dynamic:sip_msg.obj
 0001:0000ace0       _pjsip_retry_after_hdr_create 0040bce0 f   pjsip-core-i386-win32-vc8-release-dynamic:sip_msg.obj
 0001:0000ad40       _pjsip_route_hdr_create    0040bd40 f   pjsip-core-i386-win32-vc8-release-dynamic:sip_msg.obj
 0001:0000ada0       _pjsip_routing_hdr_set_route 0040bda0 f   pjsip-core-i386-win32-vc8-release-dynamic:sip_msg.obj
 0001:0000add0       _pjsip_rr_hdr_create       0040bdd0 f   pjsip-core-i386-win32-vc8-release-dynamic:sip_msg.obj
 0001:0000ae30       _pjsip_supported_hdr_create 0040be30 f   pjsip-core-i386-win32-vc8-release-dynamic:sip_msg.obj
 0001:0000aea0       _pjsip_to_hdr_create       0040bea0 f   pjsip-core-i386-win32-vc8-release-dynamic:sip_msg.obj
 0001:0000af70       _pjsip_unsupported_hdr_create 0040bf70 f   pjsip-core-i386-win32-vc8-release-dynamic:sip_msg.obj
 0001:0000afc0       _pjsip_via_hdr_create      0040bfc0 f   pjsip-core-i386-win32-vc8-release-dynamic:sip_msg.obj
 0001:0000b040       _pjsip_warning_hdr_create  0040c040 f   pjsip-core-i386-win32-vc8-release-dynamic:sip_msg.obj
 0001:0000b100       _pjsip_warning_hdr_create_from_status 0040c100 f   pjsip-core-i386-win32-vc8-release-dynamic:sip_msg.obj
 0001:0000b450       _pjsip_rx_data_get_info    0040c450 f   pjsip-core-i386-win32-vc8-release-dynamic:sip_transport.obj
 0001:0000b4e0       _pjsip_tpmgr_acquire_transport2 0040c4e0 f   pjsip-core-i386-win32-vc8-release-dynamic:sip_transport.obj
 0001:0000b7d0       _pjsip_tpmgr_create        0040c7d0 f   pjsip-core-i386-win32-vc8-release-dynamic:sip_transport.obj
 0001:0000b8c0       _pjsip_tpmgr_destroy       0040c8c0 f   pjsip-core-i386-win32-vc8-release-dynamic:sip_transport.obj
 0001:0000ba00       _pjsip_tpmgr_receive_packet 0040ca00 f   pjsip-core-i386-win32-vc8-release-dynamic:sip_transport.obj
 0001:0000bec0       _pjsip_tpselector_add_ref  0040cec0 f   pjsip-core-i386-win32-vc8-release-dynamic:sip_transport.obj
 0001:0000bee0       _pjsip_tpselector_dec_ref  0040cee0 f   pjsip-core-i386-win32-vc8-release-dynamic:sip_transport.obj
 0001:0000bf00       _pjsip_transport_add_ref   0040cf00 f   pjsip-core-i386-win32-vc8-release-dynamic:sip_transport.obj
 0001:0000bfd0       _pjsip_transport_add_state_listener 0040cfd0 f   pjsip-core-i386-win32-vc8-release-dynamic:sip_transport.obj
 0001:0000c090       _pjsip_transport_dec_ref   0040d090 f   pjsip-core-i386-win32-vc8-release-dynamic:sip_transport.obj
 0001:0000c190       _pjsip_transport_destroy   0040d190 f   pjsip-core-i386-win32-vc8-release-dynamic:sip_transport.obj
 0001:0000c200       _pjsip_transport_get_default_port_for_type 0040d200 f   pjsip-core-i386-win32-vc8-release-dynamic:sip_transport.obj
 0001:0000c240       _pjsip_transport_get_flag_from_type 0040d240 f   pjsip-core-i386-win32-vc8-release-dynamic:sip_transport.obj
 0001:0000c280       _pjsip_transport_get_type_desc 0040d280 f   pjsip-core-i386-win32-vc8-release-dynamic:sip_transport.obj
 0001:0000c2c0       _pjsip_transport_get_type_from_flag 0040d2c0 f   pjsip-core-i386-win32-vc8-release-dynamic:sip_transport.obj
 0001:0000c300       _pjsip_transport_get_type_from_name 0040d300 f   pjsip-core-i386-win32-vc8-release-dynamic:sip_transport.obj
 0001:0000c350       _pjsip_transport_get_type_name 0040d350 f   pjsip-core-i386-win32-vc8-release-dynamic:sip_transport.obj
 0001:0000c390       _pjsip_transport_register  0040d390 f   pjsip-core-i386-win32-vc8-release-dynamic:sip_transport.obj
 0001:0000c470       _pjsip_transport_remove_state_listener 0040d470 f   pjsip-core-i386-win32-vc8-release-dynamic:sip_transport.obj
 0001:0000c510       _pjsip_transport_send      0040d510 f   pjsip-core-i386-win32-vc8-release-dynamic:sip_transport.obj
 0001:0000c670       _pjsip_tx_data_add_ref     0040d670 f   pjsip-core-i386-win32-vc8-release-dynamic:sip_transport.obj
 0001:0000c690       _pjsip_tx_data_clone       0040d690 f   pjsip-core-i386-win32-vc8-release-dynamic:sip_transport.obj
 0001:0000c8a0       _pjsip_tx_data_create      0040d8a0 f   pjsip-core-i386-win32-vc8-release-dynamic:sip_transport.obj
 0001:0000c9b0       _pjsip_tx_data_dec_ref     0040d9b0 f   pjsip-core-i386-win32-vc8-release-dynamic:sip_transport.obj
 0001:0000c9f0       _pjsip_tx_data_encode      0040d9f0 f   pjsip-core-i386-win32-vc8-release-dynamic:sip_transport.obj
 0001:0000cae0       _pjsip_tx_data_get_info    0040dae0 f   pjsip-core-i386-win32-vc8-release-dynamic:sip_transport.obj
 0001:0000cb40       _pjsip_tx_data_invalidate_msg 0040db40 f   pjsip-core-i386-win32-vc8-release-dynamic:sip_transport.obj
 0001:0000cb60       _pjsip_tx_data_set_transport 0040db60 f   pjsip-core-i386-win32-vc8-release-dynamic:sip_transport.obj
 0001:0000d080       _pjsip_endpt_acquire_transport2 0040e080 f   pjsip-core-i386-win32-vc8-release-dynamic:sip_endpoint.obj
 0001:0000d0b0       _pjsip_endpt_add_capability 0040e0b0 f   pjsip-core-i386-win32-vc8-release-dynamic:sip_endpoint.obj
 0001:0000d1a0       _pjsip_endpt_atexit        0040e1a0 f   pjsip-core-i386-win32-vc8-release-dynamic:sip_endpoint.obj
 0001:0000d200       _pjsip_endpt_cancel_timer  0040e200 f   pjsip-core-i386-win32-vc8-release-dynamic:sip_endpoint.obj
 0001:0000d220       _pjsip_endpt_create        0040e220 f   pjsip-core-i386-win32-vc8-release-dynamic:sip_endpoint.obj
 0001:0000d4e0       _pjsip_endpt_create_pool   0040e4e0 f   pjsip-core-i386-win32-vc8-release-dynamic:sip_endpoint.obj
 0001:0000d530       _pjsip_endpt_create_tdata  0040e530 f   pjsip-core-i386-win32-vc8-release-dynamic:sip_endpoint.obj
 0001:0000d550       _pjsip_endpt_destroy       0040e550 f   pjsip-core-i386-win32-vc8-release-dynamic:sip_endpoint.obj
 0001:0000d690       _pjsip_endpt_get_capability 0040e690 f   pjsip-core-i386-win32-vc8-release-dynamic:sip_endpoint.obj
 0001:0000d6c0       _pjsip_endpt_get_ioqueue   0040e6c0 f   pjsip-core-i386-win32-vc8-release-dynamic:sip_endpoint.obj
 0001:0000d6d0       _pjsip_endpt_get_request_headers 0040e6d0 f   pjsip-core-i386-win32-vc8-release-dynamic:sip_endpoint.obj
 0001:0000d6e0       _pjsip_endpt_get_timer_heap 0040e6e0 f   pjsip-core-i386-win32-vc8-release-dynamic:sip_endpoint.obj
 0001:0000d6f0       _pjsip_endpt_get_tpmgr     0040e6f0 f   pjsip-core-i386-win32-vc8-release-dynamic:sip_endpoint.obj
 0001:0000d700       _pjsip_endpt_handle_events 0040e700 f   pjsip-core-i386-win32-vc8-release-dynamic:sip_endpoint.obj
 0001:0000d7d0       _pjsip_endpt_has_capability 0040e7d0 f   pjsip-core-i386-win32-vc8-release-dynamic:sip_endpoint.obj
 0001:0000d840       _pjsip_endpt_log_error     0040e840 f   pjsip-core-i386-win32-vc8-release-dynamic:sip_endpoint.obj
 0001:0000d920       _pjsip_endpt_name          0040e920 f   pjsip-core-i386-win32-vc8-release-dynamic:sip_endpoint.obj
 0001:0000d930       _pjsip_endpt_process_rx_data 0040e930 f   pjsip-core-i386-win32-vc8-release-dynamic:sip_endpoint.obj
 0001:0000dac0       _pjsip_endpt_register_module 0040eac0 f   pjsip-core-i386-win32-vc8-release-dynamic:sip_endpoint.obj
 0001:0000dbe0       _pjsip_endpt_release_pool  0040ebe0 f   pjsip-core-i386-win32-vc8-release-dynamic:sip_endpoint.obj
 0001:0000dc00       _pjsip_endpt_resolve       0040ec00 f   pjsip-core-i386-win32-vc8-release-dynamic:sip_endpoint.obj
 0001:0000dc20       _pjsip_endpt_schedule_timer 0040ec20 f   pjsip-core-i386-win32-vc8-release-dynamic:sip_endpoint.obj
 0001:0000dc40       _pjsip_endpt_unregister_module 0040ec40 f   pjsip-core-i386-win32-vc8-release-dynamic:sip_endpoint.obj
 0001:0000df60       _pjsip_endpt_create_ack    0040ef60 f   pjsip-core-i386-win32-vc8-release-dynamic:sip_util.obj
 0001:0000e110       _pjsip_endpt_create_cancel 0040f110 f   pjsip-core-i386-win32-vc8-release-dynamic:sip_util.obj
 0001:0000e320       _pjsip_endpt_create_request_from_hdr 0040f320 f   pjsip-core-i386-win32-vc8-release-dynamic:sip_util.obj
 0001:0000e540       _pjsip_endpt_create_response 0040f540 f   pjsip-core-i386-win32-vc8-release-dynamic:sip_util.obj
 0001:0000e7a0       _pjsip_endpt_respond_stateless 0040f7a0 f   pjsip-core-i386-win32-vc8-release-dynamic:sip_util.obj
 0001:0000e920       _pjsip_endpt_send_request_stateless 0040f920 f   pjsip-core-i386-win32-vc8-release-dynamic:sip_util.obj
 0001:0000ea00       _pjsip_endpt_send_response 0040fa00 f   pjsip-core-i386-win32-vc8-release-dynamic:sip_util.obj
 0001:0000eaf0       _pjsip_event_str           0040faf0 f   pjsip-core-i386-win32-vc8-release-dynamic:sip_util.obj
 0001:0000eb00       _pjsip_get_dest_info       0040fb00 f   pjsip-core-i386-win32-vc8-release-dynamic:sip_util.obj
 0001:0000eca0       _pjsip_get_request_dest    0040fca0 f   pjsip-core-i386-win32-vc8-release-dynamic:sip_util.obj
 0001:0000ed10       _pjsip_get_response_addr   0040fd10 f   pjsip-core-i386-win32-vc8-release-dynamic:sip_util.obj
 0001:0000ee40       _pjsip_process_route_set   0040fe40 f   pjsip-core-i386-win32-vc8-release-dynamic:sip_util.obj
 0001:0000f080       _pjsip_restore_strict_route_set 00410080 f   pjsip-core-i386-win32-vc8-release-dynamic:sip_util.obj
 0001:0000f120       _pjsip_target_assign_status 00410120 f   pjsip-core-i386-win32-vc8-release-dynamic:sip_util.obj
 0001:0000f160       _pjsip_target_set_add_from_msg 00410160 f   pjsip-core-i386-win32-vc8-release-dynamic:sip_util.obj
 0001:0000f2a0       _pjsip_target_set_add_uri  004102a0 f   pjsip-core-i386-win32-vc8-release-dynamic:sip_util.obj
 0001:0000f370       _pjsip_target_set_get_next 00410370 f   pjsip-core-i386-win32-vc8-release-dynamic:sip_util.obj
 0001:0000f3c0       _pjsip_target_set_set_current 004103c0 f   pjsip-core-i386-win32-vc8-release-dynamic:sip_util.obj
 0001:0000fc30       _pjsip_udp_transport_start 00410c30 f   pjsip-core-i386-win32-vc8-release-dynamic:sip_transport_udp.obj
 0001:0000fcf0       _pjsip_udp_transport_start2 00410cf0 f   pjsip-core-i386-win32-vc8-release-dynamic:sip_transport_udp.obj
 0001:000122e0       _pjsip_rdata_get_tsx       004132e0 f   pjsip-core-i386-win32-vc8-release-dynamic:sip_transaction.obj
 0001:00012300       _pjsip_tsx_create_key      00413300 f   pjsip-core-i386-win32-vc8-release-dynamic:sip_transaction.obj
 0001:00012370       _pjsip_tsx_create_uac      00413370 f   pjsip-core-i386-win32-vc8-release-dynamic:sip_transaction.obj
 0001:00012390       _pjsip_tsx_create_uac2     00413390 f   pjsip-core-i386-win32-vc8-release-dynamic:sip_transaction.obj
 0001:000125e0       _pjsip_tsx_create_uas      004135e0 f   pjsip-core-i386-win32-vc8-release-dynamic:sip_transaction.obj
 0001:00012600       _pjsip_tsx_create_uas2     00413600 f   pjsip-core-i386-win32-vc8-release-dynamic:sip_transaction.obj
 0001:00012830       _pjsip_tsx_layer_find_tsx2 00413830 f   pjsip-core-i386-win32-vc8-release-dynamic:sip_transaction.obj
 0001:000128a0       _pjsip_tsx_layer_init_module 004138a0 f   pjsip-core-i386-win32-vc8-release-dynamic:sip_transaction.obj
 0001:00012a20       _pjsip_tsx_recv_msg        00413a20 f   pjsip-core-i386-win32-vc8-release-dynamic:sip_transaction.obj
 0001:00012aa0       _pjsip_tsx_retransmit_no_state 00413aa0 f   pjsip-core-i386-win32-vc8-release-dynamic:sip_transaction.obj
 0001:00012b00       _pjsip_tsx_send_msg        00413b00 f   pjsip-core-i386-win32-vc8-release-dynamic:sip_transaction.obj
 0001:00012bb0       _pjsip_tsx_set_timeout     00413bb0 f   pjsip-core-i386-win32-vc8-release-dynamic:sip_transaction.obj
 0001:00012c80       _pjsip_tsx_set_transport   00413c80 f   pjsip-core-i386-win32-vc8-release-dynamic:sip_transaction.obj
 0001:00012ce0       _pjsip_tsx_state_str       00413ce0 f   pjsip-core-i386-win32-vc8-release-dynamic:sip_transaction.obj
 0001:00012cf0       _pjsip_tsx_terminate       00413cf0 f   pjsip-core-i386-win32-vc8-release-dynamic:sip_transaction.obj
 0001:00014520       _pjsip_rdata_get_dlg       00415520 f   pjsip-core-i386-win32-vc8-release-dynamic:sip_ua_layer.obj
 0001:00014540       _pjsip_tsx_get_dlg         00415540 f   pjsip-core-i386-win32-vc8-release-dynamic:sip_ua_layer.obj
 0001:00014560       _pjsip_ua_get_endpt        00415560 f   pjsip-core-i386-win32-vc8-release-dynamic:sip_ua_layer.obj
 0001:00014570       _pjsip_ua_init_module      00415570 f   pjsip-core-i386-win32-vc8-release-dynamic:sip_ua_layer.obj
 0001:000145a0       _pjsip_ua_instance         004155a0 f   pjsip-core-i386-win32-vc8-release-dynamic:sip_ua_layer.obj
 0001:000145b0       _pjsip_ua_register_dlg     004155b0 f   pjsip-core-i386-win32-vc8-release-dynamic:sip_ua_layer.obj
 0001:000146a0       _pjsip_ua_unregister_dlg   004156a0 f   pjsip-core-i386-win32-vc8-release-dynamic:sip_ua_layer.obj
 0001:000148a0       _create_uas_dialog         004158a0 f   pjsip-core-i386-win32-vc8-release-dynamic:sip_dialog.obj
 0001:000150c0       _pjsip_dlg_add_usage       004160c0 f   pjsip-core-i386-win32-vc8-release-dynamic:sip_dialog.obj
 0001:000151f0       _pjsip_dlg_create_request  004161f0 f   pjsip-core-i386-win32-vc8-release-dynamic:sip_dialog.obj
 0001:000153c0       _pjsip_dlg_create_response 004163c0 f   pjsip-core-i386-win32-vc8-release-dynamic:sip_dialog.obj
 0001:00015480       _pjsip_dlg_create_uac      00416480 f   pjsip-core-i386-win32-vc8-release-dynamic:sip_dialog.obj
 0001:00015850       _pjsip_dlg_create_uas_and_inc_lock 00416850 f   pjsip-core-i386-win32-vc8-release-dynamic:sip_dialog.obj
 0001:00015870       _pjsip_dlg_dec_lock        00416870 f   pjsip-core-i386-win32-vc8-release-dynamic:sip_dialog.obj
 0001:000158d0       _pjsip_dlg_dec_session     004168d0 f   pjsip-core-i386-win32-vc8-release-dynamic:sip_dialog.obj
 0001:00015950       _pjsip_dlg_get_remote_cap_hdr 00416950 f   pjsip-core-i386-win32-vc8-release-dynamic:sip_dialog.obj
 0001:00015a00       _pjsip_dlg_inc_lock        00416a00 f   pjsip-core-i386-win32-vc8-release-dynamic:sip_dialog.obj
 0001:00015a30       _pjsip_dlg_inc_session     00416a30 f   pjsip-core-i386-win32-vc8-release-dynamic:sip_dialog.obj
 0001:00015ab0       _pjsip_dlg_modify_response 00416ab0 f   pjsip-core-i386-win32-vc8-release-dynamic:sip_dialog.obj
 0001:00015ba0       _pjsip_dlg_on_rx_request   00416ba0 f   pjsip-core-i386-win32-vc8-release-dynamic:sip_dialog.obj
 0001:00015e90       _pjsip_dlg_on_rx_response  00416e90 f   pjsip-core-i386-win32-vc8-release-dynamic:sip_dialog.obj
 0001:00016230       _pjsip_dlg_on_tsx_state    00417230 f   pjsip-core-i386-win32-vc8-release-dynamic:sip_dialog.obj
 0001:00016340       _pjsip_dlg_remote_has_cap  00417340 f   pjsip-core-i386-win32-vc8-release-dynamic:sip_dialog.obj
 0001:00016430       _pjsip_dlg_send_request    00417430 f   pjsip-core-i386-win32-vc8-release-dynamic:sip_dialog.obj
 0001:00016620       _pjsip_dlg_send_response   00417620 f   pjsip-core-i386-win32-vc8-release-dynamic:sip_dialog.obj
 0001:00016730       _pjsip_dlg_try_inc_lock    00417730 f   pjsip-core-i386-win32-vc8-release-dynamic:sip_dialog.obj
 0001:00016770       _pjsip_dlg_update_remote_cap 00417770 f   pjsip-core-i386-win32-vc8-release-dynamic:sip_dialog.obj
 0001:00016ad0       _pjsip_method_creates_dialog 00417ad0 f   pjsip-core-i386-win32-vc8-release-dynamic:sip_dialog.obj
 0001:00016f40       _pjsip_auth_clt_deinit     00417f40 f   pjsip-core-i386-win32-vc8-release-dynamic:sip_auth_client.obj
 0001:00016f90       _pjsip_auth_clt_init       00417f90 f   pjsip-core-i386-win32-vc8-release-dynamic:sip_auth_client.obj
 0001:00016fe0       _pjsip_auth_clt_init_req   00417fe0 f   pjsip-core-i386-win32-vc8-release-dynamic:sip_auth_client.obj
 0001:000171d0       _pjsip_auth_clt_reinit_req 004181d0 f   pjsip-core-i386-win32-vc8-release-dynamic:sip_auth_client.obj
 0001:000174a0       _pjsip_auth_create_digest  004184a0 f   pjsip-core-i386-win32-vc8-release-dynamic:sip_auth_client.obj
 0001:00017c10       _deinit_sip_parser         00418c10 f   pjsip-core-i386-win32-vc8-release-dynamic:sip_parser.obj
 0001:000184f0       _init_sip_parser           004194f0 f   pjsip-core-i386-win32-vc8-release-dynamic:sip_parser.obj
 0001:0001abe0       _pjsip_find_msg            0041bbe0 f   pjsip-core-i386-win32-vc8-release-dynamic:sip_parser.obj
 0001:0001af00       _pjsip_parse_end_hdr_imp   0041bf00 f   pjsip-core-i386-win32-vc8-release-dynamic:sip_parser.obj
 0001:0001af30       _pjsip_parse_hdr           0041bf30 f   pjsip-core-i386-win32-vc8-release-dynamic:sip_parser.obj
 0001:0001b020       _pjsip_parse_headers       0041c020 f   pjsip-core-i386-win32-vc8-release-dynamic:sip_parser.obj
 0001:0001b300       _pjsip_parse_param_imp     0041c300 f   pjsip-core-i386-win32-vc8-release-dynamic:sip_parser.obj
 0001:0001b330       _pjsip_parse_rdata         0041c330 f   pjsip-core-i386-win32-vc8-release-dynamic:sip_parser.obj
 0001:0001b390       _pjsip_parse_uri           0041c390 f   pjsip-core-i386-win32-vc8-release-dynamic:sip_parser.obj
 0001:0001b450       _pjsip_parser_const        0041c450 f   pjsip-core-i386-win32-vc8-release-dynamic:sip_parser.obj
 0001:0001b460       _pjsip_register_hdr_parser 0041c460 f   pjsip-core-i386-win32-vc8-release-dynamic:sip_parser.obj
 0001:0001b550       _pjsip_register_uri_parser 0041c550 f   pjsip-core-i386-win32-vc8-release-dynamic:sip_parser.obj
 0001:0001bad0       _pjsip_multipart_find_part 0041cad0 f   pjsip-core-i386-win32-vc8-release-dynamic:sip_multipart.obj
 0001:0001bb30       _pjsip_multipart_parse     0041cb30 f   pjsip-core-i386-win32-vc8-release-dynamic:sip_multipart.obj
 0001:0001c9c0       _pjsip_name_addr_assign    0041d9c0 f   pjsip-core-i386-win32-vc8-release-dynamic:sip_uri.obj
 0001:0001ca00       _pjsip_name_addr_create    0041da00 f   pjsip-core-i386-win32-vc8-release-dynamic:sip_uri.obj
 0001:0001ca30       _pjsip_name_addr_init      0041da30 f   pjsip-core-i386-win32-vc8-release-dynamic:sip_uri.obj
 0001:0001ca60       _pjsip_other_uri_create    0041da60 f   pjsip-core-i386-win32-vc8-release-dynamic:sip_uri.obj
 0001:0001ca80       _pjsip_param_clone         0041da80 f   pjsip-core-i386-win32-vc8-release-dynamic:sip_uri.obj
 0001:0001caf0       _pjsip_param_cmp           0041daf0 f   pjsip-core-i386-win32-vc8-release-dynamic:sip_uri.obj
 0001:0001cb90       _pjsip_param_find          0041db90 f   pjsip-core-i386-win32-vc8-release-dynamic:sip_uri.obj
 0001:0001cbd0       _pjsip_param_print_on      0041dbd0 f   pjsip-core-i386-win32-vc8-release-dynamic:sip_uri.obj
 0001:0001ccd0       _pjsip_param_shallow_clone 0041dcd0 f   pjsip-core-i386-win32-vc8-release-dynamic:sip_uri.obj
 0001:0001cd30       _pjsip_sip_uri_create      0041dd30 f   pjsip-core-i386-win32-vc8-release-dynamic:sip_uri.obj
 0001:0001d060       _pjsip_resolve             0041e060 f   pjsip-core-i386-win32-vc8-release-dynamic:sip_resolve.obj
 0001:0001d710       _pjsip_resolver_create     0041e710 f   pjsip-core-i386-win32-vc8-release-dynamic:sip_resolve.obj
 0001:0001d740       _pjsip_resolver_destroy    0041e740 f   pjsip-core-i386-win32-vc8-release-dynamic:sip_resolve.obj
 0001:0001d950       _pjsip_strerror            0041e950 f   pjsip-core-i386-win32-vc8-release-dynamic:sip_errno.obj
 0001:0001ddc0       _pjsip_tel_nb_cmp          0041edc0 f   pjsip-core-i386-win32-vc8-release-dynamic:sip_tel_uri.obj
 0001:0001dee0       _pjsip_tel_uri_subsys_init 0041eee0 f   pjsip-core-i386-win32-vc8-release-dynamic:sip_tel_uri.obj
 0001:0001e860       _pjsip_authorization_hdr_create 0041f860 f   pjsip-core-i386-win32-vc8-release-dynamic:sip_auth_msg.obj
 0001:0001e8d0       _pjsip_proxy_authenticate_hdr_create 0041f8d0 f   pjsip-core-i386-win32-vc8-release-dynamic:sip_auth_msg.obj
 0001:0001e940       _pjsip_proxy_authorization_hdr_create 0041f940 f   pjsip-core-i386-win32-vc8-release-dynamic:sip_auth_msg.obj
 0001:0001e9b0       _pjsip_www_authenticate_hdr_create 0041f9b0 f   pjsip-core-i386-win32-vc8-release-dynamic:sip_auth_msg.obj
 0001:0001f730       _pjsip_auth_init_parser    00420730 f   pjsip-core-i386-win32-vc8-release-dynamic:sip_auth_parser.obj
 0001:0001f790       _pjmedia_aud_subsys_init   00420790 f   pjmedia-audiodev-i386-win32-vc8-release-dynamic:audiodev.obj
 0001:0001f830       _pjmedia_aud_subsys_shutdown 00420830 f   pjmedia-audiodev-i386-win32-vc8-release-dynamic:audiodev.obj
 0001:0001f870       _pjmedia_audiodev_strerror 00420870 f   pjmedia-audiodev-i386-win32-vc8-release-dynamic:errno.obj
 0001:00020bc0       _pjmedia_wmme_factory      00421bc0 f   pjmedia-audiodev-i386-win32-vc8-release-dynamic:wmme_dev.obj
 0001:00021110       _pjmedia_endpt_create2     00422110 f   pjmedia-i386-win32-vc8-release-dynamic:endpoint.obj
 0001:000212d0       _pjmedia_endpt_create_audio_sdp 004222d0 f   pjmedia-i386-win32-vc8-release-dynamic:endpoint.obj
 0001:00021880       _pjmedia_endpt_create_pool 00422880 f   pjmedia-i386-win32-vc8-release-dynamic:endpoint.obj
 0001:000218a0       _pjmedia_endpt_create_sdp  004228a0 f   pjmedia-i386-win32-vc8-release-dynamic:endpoint.obj
 0001:00021a40       _pjmedia_endpt_destroy2    00422a40 f   pjmedia-i386-win32-vc8-release-dynamic:endpoint.obj
 0001:00021b00       _pj_pool_getobjname        00422b00 f   pjlib-i386-win32-vc8-release-dynamic:pool.obj
 0001:00021b00       _pjmedia_endpt_get_codec_mgr 00422b00 f   pjmedia-i386-win32-vc8-release-dynamic:endpoint.obj
 0001:00021b10       _pjmedia_endpt_get_ioqueue 00422b10 f   pjmedia-i386-win32-vc8-release-dynamic:endpoint.obj
 0001:00021b80       _pjmedia_codec_g711_deinit 00422b80 f   pjmedia-i386-win32-vc8-release-dynamic:g711.obj
 0001:00022260       _pjmedia_codec_g711_init   00423260 f   pjmedia-i386-win32-vc8-release-dynamic:g711.obj
 0001:00022cb0       _pjmedia_sdp_neg_cancel_offer 00423cb0 f   pjmedia-i386-win32-vc8-release-dynamic:sdp_neg.obj
 0001:00022d20       _pjmedia_sdp_neg_create_w_local_offer 00423d20 f   pjmedia-i386-win32-vc8-release-dynamic:sdp_neg.obj
 0001:00022db0       _pjmedia_sdp_neg_create_w_remote_offer 00423db0 f   pjmedia-i386-win32-vc8-release-dynamic:sdp_neg.obj
 0001:00022e80       _pjmedia_sdp_neg_fmt_match 00423e80 f   pjmedia-i386-win32-vc8-release-dynamic:sdp_neg.obj
 0001:00022fb0       _pjmedia_sdp_neg_get_active_local 00423fb0 f   pjmedia-i386-win32-vc8-release-dynamic:sdp_neg.obj
 0001:00022fe0       _pjmedia_sdp_neg_get_active_remote 00423fe0 f   pjmedia-i386-win32-vc8-release-dynamic:sdp_neg.obj
 0001:00023010       _pjmedia_sdp_neg_get_neg_local 00424010 f   pjmedia-i386-win32-vc8-release-dynamic:sdp_neg.obj
 0001:00023040       _pjmedia_sdp_neg_get_state 00424040 f   pjmedia-i386-win32-vc8-release-dynamic:sdp_neg.obj
 0001:00023050       _pjmedia_sdp_neg_has_local_answer 00424050 f   pjmedia-i386-win32-vc8-release-dynamic:sdp_neg.obj
 0001:00023060       _pjmedia_sdp_neg_modify_local_offer2 00424060 f   pjmedia-i386-win32-vc8-release-dynamic:sdp_neg.obj
 0001:00023280       _pjmedia_sdp_neg_negotiate 00424280 f   pjmedia-i386-win32-vc8-release-dynamic:sdp_neg.obj
 0001:00023630       _pjmedia_sdp_neg_send_local_offer 00424630 f   pjmedia-i386-win32-vc8-release-dynamic:sdp_neg.obj
 0001:000236c0       _pjmedia_sdp_neg_set_local_answer 004246c0 f   pjmedia-i386-win32-vc8-release-dynamic:sdp_neg.obj
 0001:00023750       _pjmedia_sdp_neg_set_remote_answer 00424750 f   pjmedia-i386-win32-vc8-release-dynamic:sdp_neg.obj
 0001:000237a0       _pjmedia_sdp_neg_set_remote_offer 004247a0 f   pjmedia-i386-win32-vc8-release-dynamic:sdp_neg.obj
 0001:000237f0       _pjmedia_sdp_neg_state_str 004247f0 f   pjmedia-i386-win32-vc8-release-dynamic:sdp_neg.obj
 0001:00023f50       _pjmedia_snd_port_connect  00424f50 f   pjmedia-i386-win32-vc8-release-dynamic:sound_port.obj
 0001:00024020       _pjmedia_snd_port_create   00425020 f   pjmedia-i386-win32-vc8-release-dynamic:sound_port.obj
 0001:000240e0       _pjmedia_snd_port_create2  004250e0 f   pjmedia-i386-win32-vc8-release-dynamic:sound_port.obj
 0001:00024250       _pjmedia_snd_port_destroy  00425250 f   pjmedia-i386-win32-vc8-release-dynamic:sound_port.obj
 0001:000242b0       _pjmedia_snd_port_set_ec   004252b0 f   pjmedia-i386-win32-vc8-release-dynamic:sound_port.obj
 0001:00025010       _pjmedia_stream_info_from_sdp 00426010 f   pjmedia-i386-win32-vc8-release-dynamic:stream_info.obj
 0001:00026ef0       _pjmedia_stream_create     00427ef0 f   pjmedia-i386-win32-vc8-release-dynamic:stream.obj
 0001:000279c0       _pjmedia_stream_destroy    004289c0 f   pjmedia-i386-win32-vc8-release-dynamic:stream.obj
 0001:00027b90       _pjmedia_stream_get_port   00428b90 f   pjmedia-i386-win32-vc8-release-dynamic:stream.obj
 0001:00027bb0       _pjmedia_stream_start      00428bb0 f   pjmedia-i386-win32-vc8-release-dynamic:stream.obj
 0001:00029100       _pjmedia_transport_udp_attach 0042a100 f   pjmedia-i386-win32-vc8-release-dynamic:transport_udp.obj
 0001:00029450       _pjmedia_transport_udp_create3 0042a450 f   pjmedia-i386-win32-vc8-release-dynamic:transport_udp.obj
 0001:000298c0       _pjmedia_sdp_attr_add      0042a8c0 f   pjmedia-i386-win32-vc8-release-dynamic:sdp.obj
 0001:00029900       _pjmedia_sdp_attr_create   0042a900 f   pjmedia-i386-win32-vc8-release-dynamic:sdp.obj
 0001:00029960       _pjmedia_sdp_attr_create_rtcp 0042a960 f   pjmedia-i386-win32-vc8-release-dynamic:sdp.obj
 0001:00029a30       _pjmedia_sdp_attr_find     0042aa30 f   pjmedia-i386-win32-vc8-release-dynamic:sdp.obj
 0001:00029ab0       _pjmedia_sdp_attr_find2    0042aab0 f   pjmedia-i386-win32-vc8-release-dynamic:sdp.obj
 0001:00029af0       _pjmedia_sdp_attr_get_fmtp 0042aaf0 f   pjmedia-i386-win32-vc8-release-dynamic:sdp.obj
 0001:00029b90       _pjmedia_sdp_attr_get_rtcp 0042ab90 f   pjmedia-i386-win32-vc8-release-dynamic:sdp.obj
 0001:00029cd0       _pjmedia_sdp_attr_get_rtpmap 0042acd0 f   pjmedia-i386-win32-vc8-release-dynamic:sdp.obj
 0001:00029e90       _pjmedia_sdp_attr_get_ssrc 0042ae90 f   pjmedia-i386-win32-vc8-release-dynamic:sdp.obj
 0001:00029ff0       _pjmedia_sdp_attr_remove   0042aff0 f   pjmedia-i386-win32-vc8-release-dynamic:sdp.obj
 0001:0002a080       _pjmedia_sdp_attr_remove_all 0042b080 f   pjmedia-i386-win32-vc8-release-dynamic:sdp.obj
 0001:0002a110       _pjmedia_sdp_attr_to_rtpmap 0042b110 f   pjmedia-i386-win32-vc8-release-dynamic:sdp.obj
 0001:0002a160       _pjmedia_sdp_conn_clone    0042b160 f   pjmedia-i386-win32-vc8-release-dynamic:sdp.obj
 0001:0002a1d0       _pjmedia_sdp_media_add_attr 0042b1d0 f   pjmedia-i386-win32-vc8-release-dynamic:sdp.obj
 0001:0002a210       _pjmedia_sdp_media_clone   0042b210 f   pjmedia-i386-win32-vc8-release-dynamic:sdp.obj
 0001:0002a400       _pjmedia_sdp_media_clone_deactivate 0042b400 f   pjmedia-i386-win32-vc8-release-dynamic:sdp.obj
 0001:0002a560       _pjmedia_sdp_media_deactivate 0042b560 f   pjmedia-i386-win32-vc8-release-dynamic:sdp.obj
 0001:0002a590       _pjmedia_sdp_media_find_attr 0042b590 f   pjmedia-i386-win32-vc8-release-dynamic:sdp.obj
 0001:0002a5c0       _pjmedia_sdp_media_find_attr2 0042b5c0 f   pjmedia-i386-win32-vc8-release-dynamic:sdp.obj
 0001:0002a620       _pjmedia_sdp_media_remove_all_attr 0042b620 f   pjmedia-i386-win32-vc8-release-dynamic:sdp.obj
 0001:0002a6c0       _pjmedia_sdp_media_remove_attr 0042b6c0 f   pjmedia-i386-win32-vc8-release-dynamic:sdp.obj
 0001:0002a6f0       _pjmedia_sdp_parse         0042b6f0 f   pjmedia-i386-win32-vc8-release-dynamic:sdp.obj
 0001:0002b2b0       _pjmedia_sdp_print         0042c2b0 f   pjmedia-i386-win32-vc8-release-dynamic:sdp.obj
 0001:0002b2c0       _pjmedia_sdp_rtpmap_to_attr 0042c2c0 f   pjmedia-i386-win32-vc8-release-dynamic:sdp.obj
 0001:0002b410       _pjmedia_sdp_session_clone 0042c410 f   pjmedia-i386-win32-vc8-release-dynamic:sdp.obj
 0001:0002b610       _pjmedia_sdp_transport_cmp 0042c610 f   pjmedia-i386-win32-vc8-release-dynamic:sdp.obj
 0001:0002b660       _pjmedia_sdp_transport_get_proto 0042c660 f   pjmedia-i386-win32-vc8-release-dynamic:sdp.obj
 0001:0002b7a0       _pjmedia_sdp_validate      0042c7a0 f   pjmedia-i386-win32-vc8-release-dynamic:sdp.obj
 0001:0002b7c0       _pjmedia_sdp_validate2     0042c7c0 f   pjmedia-i386-win32-vc8-release-dynamic:sdp.obj
 0001:0002c0c0       _pjmedia_aud_dev_default_param 0042d0c0 f   pjmedia-i386-win32-vc8-release-dynamic:audiodev.obj
 0001:0002c140       _pjmedia_aud_dev_get_info  0042d140 f   pjmedia-i386-win32-vc8-release-dynamic:audiodev.obj
 0001:0002c1a0       _pjmedia_aud_driver_deinit 0042d1a0 f   pjmedia-i386-win32-vc8-release-dynamic:audiodev.obj
 0001:0002c270       _pjmedia_aud_driver_init   0042d270 f   pjmedia-i386-win32-vc8-release-dynamic:audiodev.obj
 0001:0002c4f0       _pjmedia_aud_stream_create 0042d4f0 f   pjmedia-i386-win32-vc8-release-dynamic:audiodev.obj
 0001:0002c6a0       _pjmedia_aud_stream_destroy 0042d6a0 f   pjmedia-i386-win32-vc8-release-dynamic:audiodev.obj
 0001:0002c6c0       _pjmedia_aud_stream_get_cap 0042d6c0 f   pjmedia-i386-win32-vc8-release-dynamic:audiodev.obj
 0001:0002c6e0       _pjmedia_aud_stream_get_param 0042d6e0 f   pjmedia-i386-win32-vc8-release-dynamic:audiodev.obj
 0001:0002c740       _pjmedia_aud_stream_set_cap 0042d740 f   pjmedia-i386-win32-vc8-release-dynamic:audiodev.obj
 0001:0002c760       _pjmedia_aud_stream_start  0042d760 f   pjmedia-i386-win32-vc8-release-dynamic:audiodev.obj
 0001:0002c780       _pjmedia_aud_stream_stop   0042d780 f   pjmedia-i386-win32-vc8-release-dynamic:audiodev.obj
 0001:0002c7a0       _pjmedia_get_aud_subsys    0042d7a0 f   pjmedia-i386-win32-vc8-release-dynamic:audiodev.obj
 0001:0002c7b0       _pjmedia_codec_info_to_id  0042d7b0 f   pjmedia-i386-win32-vc8-release-dynamic:codec.obj
 0001:0002c800       _pjmedia_codec_mgr_alloc_codec 0042d800 f   pjmedia-i386-win32-vc8-release-dynamic:codec.obj
 0001:0002c8a0       _pjmedia_codec_mgr_dealloc_codec 0042d8a0 f   pjmedia-i386-win32-vc8-release-dynamic:codec.obj
 0001:0002c8d0       _pjmedia_codec_mgr_destroy 0042d8d0 f   pjmedia-i386-win32-vc8-release-dynamic:codec.obj
 0001:0002c960       _pjmedia_codec_mgr_find_codecs_by_id 0042d960 f   pjmedia-i386-win32-vc8-release-dynamic:codec.obj
 0001:0002ca40       _pjmedia_codec_mgr_get_codec_info 0042da40 f   pjmedia-i386-win32-vc8-release-dynamic:codec.obj
 0001:0002cac0       _pjmedia_codec_mgr_get_default_param 0042dac0 f   pjmedia-i386-win32-vc8-release-dynamic:codec.obj
 0001:0002cc30       _pjmedia_codec_mgr_init    0042dc30 f   pjmedia-i386-win32-vc8-release-dynamic:codec.obj
 0001:0002cca0       _pjmedia_codec_mgr_register_factory 0042dca0 f   pjmedia-i386-win32-vc8-release-dynamic:codec.obj
 0001:0002ce60       _pjmedia_codec_mgr_unregister_factory 0042de60 f   pjmedia-i386-win32-vc8-release-dynamic:codec.obj
 0001:0002cf20       _pjmedia_codec_param_clone 0042df20 f   pjmedia-i386-win32-vc8-release-dynamic:codec.obj
 0001:0002d100       _pjmedia_strerror          0042e100 f   pjmedia-i386-win32-vc8-release-dynamic:errno.obj
 0001:0002d2a0       _pjmedia_plc_create        0042e2a0 f   pjmedia-i386-win32-vc8-release-dynamic:plc_common.obj
 0001:0002d300       _pjmedia_plc_generate      0042e300 f   pjmedia-i386-win32-vc8-release-dynamic:plc_common.obj
 0001:0002d330       _pjmedia_plc_save          0042e330 f   pjmedia-i386-win32-vc8-release-dynamic:plc_common.obj
 0001:0002d360       _pjmedia_calc_avg_signal   0042e360 f   pjmedia-i386-win32-vc8-release-dynamic:silencedet.obj
 0001:0002d3b0       _pjmedia_silence_det_apply 0042e3b0 f   pjmedia-i386-win32-vc8-release-dynamic:silencedet.obj
 0001:0002d590       _pjmedia_silence_det_create 0042e590 f   pjmedia-i386-win32-vc8-release-dynamic:silencedet.obj
 0001:0002d610       _pjmedia_silence_det_detect 0042e610 f   pjmedia-i386-win32-vc8-release-dynamic:silencedet.obj
 0001:0002d670       _pjmedia_format_get_audio_format_detail 0042e670 f   pjmedia-i386-win32-vc8-release-dynamic:format.obj
 0001:0002d690       _pjmedia_clock_src_init    0042e690 f   pjmedia-i386-win32-vc8-release-dynamic:clock_thread.obj
 0001:0002d6d0       _pjmedia_clock_src_update  0042e6d0 f   pjmedia-i386-win32-vc8-release-dynamic:clock_thread.obj
 0001:0002d710       _pjmedia_port_get_frame    0042e710 f   pjmedia-i386-win32-vc8-release-dynamic:port.obj
 0001:0002d750       _pjmedia_port_info_init    0042e750 f   pjmedia-i386-win32-vc8-release-dynamic:port.obj
 0001:0002d820       _pjmedia_port_put_frame    0042e820 f   pjmedia-i386-win32-vc8-release-dynamic:port.obj
 0001:0002d850       _pjmedia_echo_capture      0042e850 f   pjmedia-i386-win32-vc8-release-dynamic:echo_common.obj
 0001:0002d910       _pjmedia_echo_create2      0042e910 f   pjmedia-i386-win32-vc8-release-dynamic:echo_common.obj
 0001:0002dad0       _pjmedia_echo_destroy      0042ead0 f   pjmedia-i386-win32-vc8-release-dynamic:echo_common.obj
 0001:0002db10       _pjmedia_echo_playback     0042eb10 f   pjmedia-i386-win32-vc8-release-dynamic:echo_common.obj
 0001:0002dce0       _pjmedia_rtcp_fb_build_nack 0042ece0 f   pjmedia-i386-win32-vc8-release-dynamic:rtcp_fb.obj
 0001:0002ddc0       _pjmedia_rtcp_fb_decode_sdp 0042edc0 f   pjmedia-i386-win32-vc8-release-dynamic:rtcp_fb.obj
 0001:0002e0f0       _pjmedia_rtcp_fb_info_dup  0042f0f0 f   pjmedia-i386-win32-vc8-release-dynamic:rtcp_fb.obj
 0001:0002e180       _pjmedia_rtcp_fb_parse_nack 0042f180 f   pjmedia-i386-win32-vc8-release-dynamic:rtcp_fb.obj
 0001:0002e250       _pjmedia_stream_info_parse_fmtp 0042f250 f   pjmedia-i386-win32-vc8-release-dynamic:stream_common.obj
 0001:0002e5a0       _pjmedia_event_init        0042f5a0 f   pjmedia-i386-win32-vc8-release-dynamic:event.obj
 0001:0002e5e0       _pjmedia_event_publish     0042f5e0 f   pjmedia-i386-win32-vc8-release-dynamic:event.obj
 0001:0002e710       _pjmedia_event_subscribe   0042f710 f   pjmedia-i386-win32-vc8-release-dynamic:event.obj
 0001:0002e7f0       _pjmedia_event_unsubscribe 0042f7f0 f   pjmedia-i386-win32-vc8-release-dynamic:event.obj
 0001:0002efd0       _pjmedia_jbuf_create       0042ffd0 f   pjmedia-i386-win32-vc8-release-dynamic:jbuf.obj
 0001:0002f200       _pjmedia_jbuf_destroy      00430200 f   pjmedia-i386-win32-vc8-release-dynamic:jbuf.obj
 0001:0002f340       _pjmedia_jbuf_get_frame2   00430340 f   pjmedia-i386-win32-vc8-release-dynamic:jbuf.obj
 0001:0002f360       _pjmedia_jbuf_get_frame3   00430360 f   pjmedia-i386-win32-vc8-release-dynamic:jbuf.obj
 0001:0002f480       _pjmedia_jbuf_get_state    00430480 f   pjmedia-i386-win32-vc8-release-dynamic:jbuf.obj
 0001:0002f520       _pjmedia_jbuf_put_frame2   00430520 f   pjmedia-i386-win32-vc8-release-dynamic:jbuf.obj
 0001:0002f550       _pjmedia_jbuf_put_frame3   00430550 f   pjmedia-i386-win32-vc8-release-dynamic:jbuf.obj
 0001:0002f680       _pjmedia_jbuf_reset        00430680 f   pjmedia-i386-win32-vc8-release-dynamic:jbuf.obj
 0001:0002f710       _pjmedia_jbuf_set_adaptive 00430710 f   pjmedia-i386-win32-vc8-release-dynamic:jbuf.obj
 0001:0002f750       _pjmedia_jbuf_set_ptime    00430750 f   pjmedia-i386-win32-vc8-release-dynamic:jbuf.obj
 0001:0002f7a0       _pjmedia_rtp_decode_rtp    004307a0 f   pjmedia-i386-win32-vc8-release-dynamic:rtp.obj
 0001:0002f830       _pjmedia_rtp_encode_rtp    00430830 f   pjmedia-i386-win32-vc8-release-dynamic:rtp.obj
 0001:0002f8c0       _pjmedia_rtp_seq_init      004308c0 f   pjmedia-i386-win32-vc8-release-dynamic:rtp.obj
 0001:0002f8f0       _pjmedia_rtp_seq_update    004308f0 f   pjmedia-i386-win32-vc8-release-dynamic:rtp.obj
 0001:0002f9f0       _pjmedia_rtp_session_init2 004309f0 f   pjmedia-i386-win32-vc8-release-dynamic:rtp.obj
 0001:0002faf0       _pjmedia_rtp_session_update2 00430af0 f   pjmedia-i386-win32-vc8-release-dynamic:rtp.obj
 0001:0002ffd0       _pjmedia_rtcp_build_rtcp   00430fd0 f   pjmedia-i386-win32-vc8-release-dynamic:rtcp.obj
 0001:00030210       _pjmedia_rtcp_build_rtcp_bye 00431210 f   pjmedia-i386-win32-vc8-release-dynamic:rtcp.obj
 0001:00030310       _pjmedia_rtcp_build_rtcp_sdes 00431310 f   pjmedia-i386-win32-vc8-release-dynamic:rtcp.obj
 0001:00030580       _pjmedia_rtcp_get_ntp_time 00431580 f   pjmedia-i386-win32-vc8-release-dynamic:rtcp.obj
 0001:00030700       _pjmedia_rtcp_init2        00431700 f   pjmedia-i386-win32-vc8-release-dynamic:rtcp.obj
 0001:00030800       _pjmedia_rtcp_rx_rtcp      00431800 f   pjmedia-i386-win32-vc8-release-dynamic:rtcp.obj
 0001:00030ad0       _pjmedia_rtcp_rx_rtp2      00431ad0 f   pjmedia-i386-win32-vc8-release-dynamic:rtcp.obj
 0001:00030ca0       _pjmedia_rtcp_session_setting_default 00431ca0 f   pjmedia-i386-win32-vc8-release-dynamic:rtcp.obj
 0001:00030cc0       _pjmedia_rtcp_tx_rtp       00431cc0 f   pjmedia-i386-win32-vc8-release-dynamic:rtcp.obj
 0001:00032ae0       _get_libsrtp_errstr        00433ae0 f   pjmedia-i386-win32-vc8-release-dynamic:transport_srtp.obj
 0001:00032d90       _pjmedia_transport_srtp_start 00433d90 f   pjmedia-i386-win32-vc8-release-dynamic:transport_srtp.obj
 0001:00033430       _pjmedia_transport_srtp_stop 00434430 f   pjmedia-i386-win32-vc8-release-dynamic:transport_srtp.obj
 0001:00034270       _pjmedia_wsola_create      00435270 f   pjmedia-i386-win32-vc8-release-dynamic:wsola.obj
 0001:000345c0       _pjmedia_wsola_discard     004355c0 f   pjmedia-i386-win32-vc8-release-dynamic:wsola.obj
 0001:00034810       _pjmedia_wsola_generate    00435810 f   pjmedia-i386-win32-vc8-release-dynamic:wsola.obj
 0001:000348e0       _pjmedia_wsola_save        004358e0 f   pjmedia-i386-win32-vc8-release-dynamic:wsola.obj
 0001:00034d70       _echo_supp_cancel_echo     00435d70 f   pjmedia-i386-win32-vc8-release-dynamic:echo_suppress.obj
 0001:000350f0       _echo_supp_create          004360f0 f   pjmedia-i386-win32-vc8-release-dynamic:echo_suppress.obj
 0001:000352c0       _echo_supp_reset           004362c0 f   pjmedia-i386-win32-vc8-release-dynamic:echo_suppress.obj
 0001:00035a00       _speex_aec_cancel_echo     00436a00 f   pjmedia-i386-win32-vc8-release-dynamic:echo_speex.obj
 0001:00035a60       _speex_aec_capture         00436a60 f   pjmedia-i386-win32-vc8-release-dynamic:echo_speex.obj
 0001:00035ab0       _speex_aec_create          00436ab0 f   pjmedia-i386-win32-vc8-release-dynamic:echo_speex.obj
 0001:00035bd0       _speex_aec_destroy         00436bd0 f   pjmedia-i386-win32-vc8-release-dynamic:echo_speex.obj
 0001:00035c20       _speex_aec_playback        00436c20 f   pjmedia-i386-win32-vc8-release-dynamic:echo_speex.obj
 0001:00035c50       _speex_aec_reset           00436c50 f   pjmedia-i386-win32-vc8-release-dynamic:echo_speex.obj
 0001:00035e10       _pjmedia_delay_buf_create  00436e10 f   pjmedia-i386-win32-vc8-release-dynamic:delaybuf.obj
 0001:00035f70       _pjmedia_delay_buf_destroy 00436f70 f   pjmedia-i386-win32-vc8-release-dynamic:delaybuf.obj
 0001:00035fd0       _pjmedia_delay_buf_get     00436fd0 f   pjmedia-i386-win32-vc8-release-dynamic:delaybuf.obj
 0001:00036110       _pjmedia_delay_buf_put     00437110 f   pjmedia-i386-win32-vc8-release-dynamic:delaybuf.obj
 0001:000363a0       _pjlib_util_init           004373a0 f   pjlib-util-i386-win32-vc8-release-dynamic:errno.obj
 0001:000363c0       _pjlib_util_strerror       004373c0 f   pjlib-util-i386-win32-vc8-release-dynamic:errno.obj
 0001:00036d40       _pj_getopt_long            00437d40 f   pjlib-util-i386-win32-vc8-release-dynamic:getopt.obj
 0001:00036d60       _pj_cis_add_alpha          00437d60 f   pjlib-util-i386-win32-vc8-release-dynamic:scanner.obj
 0001:00036db0       _pj_cis_add_cis            00437db0 f   pjlib-util-i386-win32-vc8-release-dynamic:scanner.obj
 0001:00036df0       _pj_cis_add_num            00437df0 f   pjlib-util-i386-win32-vc8-release-dynamic:scanner.obj
 0001:00036e20       _pj_cis_add_str            00437e20 f   pjlib-util-i386-win32-vc8-release-dynamic:scanner.obj
 0001:00036e50       _pj_cis_buf_init           00437e50 f   pjlib-util-i386-win32-vc8-release-dynamic:scanner.obj
 0001:00036e80       _pj_cis_del_str            00437e80 f   pjlib-util-i386-win32-vc8-release-dynamic:scanner.obj
 0001:00036eb0       _pj_cis_dup                00437eb0 f   pjlib-util-i386-win32-vc8-release-dynamic:scanner.obj
 0001:00036f40       _pj_cis_init               00437f40 f   pjlib-util-i386-win32-vc8-release-dynamic:scanner.obj
 0001:00036f90       _pj_cis_invert             00437f90 f   pjlib-util-i386-win32-vc8-release-dynamic:scanner.obj
 0001:00036fd0       _pj_scan_advance_n         00437fd0 f   pjlib-util-i386-win32-vc8-release-dynamic:scanner.obj
 0001:00037010       _pj_scan_fini              00438010 f   pjlib-util-i386-win32-vc8-release-dynamic:scanner.obj
 0001:00037030       _pj_scan_get               00438030 f   pjlib-util-i386-win32-vc8-release-dynamic:scanner.obj
 0001:000370a0       _pj_scan_get_char          004380a0 f   pjlib-util-i386-win32-vc8-release-dynamic:scanner.obj
 0001:000370e0       _pj_scan_get_n             004380e0 f   pjlib-util-i386-win32-vc8-release-dynamic:scanner.obj
 0001:00037130       _pj_scan_get_newline       00438130 f   pjlib-util-i386-win32-vc8-release-dynamic:scanner.obj
 0001:00037170       _pj_scan_get_quote         00438170 f   pjlib-util-i386-win32-vc8-release-dynamic:scanner.obj
 0001:00037240       _pj_scan_get_until_ch      00438240 f   pjlib-util-i386-win32-vc8-release-dynamic:scanner.obj
 0001:000372a0       _pj_scan_get_until_chr     004382a0 f   pjlib-util-i386-win32-vc8-release-dynamic:scanner.obj
 0001:00037330       _pj_scan_init              00438330 f   pjlib-util-i386-win32-vc8-release-dynamic:scanner.obj
 0001:00037380       _pj_scan_peek              00438380 f   pjlib-util-i386-win32-vc8-release-dynamic:scanner.obj
 0001:000373e0       _pj_scan_skip_line         004383e0 f   pjlib-util-i386-win32-vc8-release-dynamic:scanner.obj
 0001:00037410       _pj_scan_skip_whitespace   00438410 f   pjlib-util-i386-win32-vc8-release-dynamic:scanner.obj
 0001:00037500       _pj_str_unescape           00438500 f   pjlib-util-i386-win32-vc8-release-dynamic:string.obj
 0001:000375e0       _pj_strncpy2_escape        004385e0 f   pjlib-util-i386-win32-vc8-release-dynamic:string.obj
 0001:00037930       _pj_dns_parse_addr_response 00438930 f   pjlib-util-i386-win32-vc8-release-dynamic:resolver.obj
 0001:00037c00       _pj_dns_resolver_cancel_query 00438c00 f   pjlib-util-i386-win32-vc8-release-dynamic:resolver.obj
 0001:00037c80       _pj_dns_resolver_destroy   00438c80 f   pjlib-util-i386-win32-vc8-release-dynamic:resolver.obj
 0001:00037e20       _pj_dns_resolver_start_query 00438e20 f   pjlib-util-i386-win32-vc8-release-dynamic:resolver.obj
 0001:00038d00       _pj_md5_final              00439d00 f   pjlib-util-i386-win32-vc8-release-dynamic:md5.obj
 0001:00038d90       _pj_md5_init               00439d90 f   pjlib-util-i386-win32-vc8-release-dynamic:md5.obj
 0001:00038dd0       _pj_md5_update             00439dd0 f   pjlib-util-i386-win32-vc8-release-dynamic:md5.obj
 0001:00038ea0       _pj_dns_get_type_name      00439ea0 f   pjlib-util-i386-win32-vc8-release-dynamic:dns.obj
 0001:00038f50       _pj_dns_make_query         00439f50 f   pjlib-util-i386-win32-vc8-release-dynamic:dns.obj
 0001:00039ee0       _pj_dns_srv_resolve        0043aee0 f   pjlib-util-i386-win32-vc8-release-dynamic:srv_resolver.obj
 0001:0003a060       _pj_base64_decode          0043b060 f   pjlib-util-i386-win32-vc8-release-dynamic:base64.obj
 0001:0003a250       _pj_base64_encode          0043b250 f   pjlib-util-i386-win32-vc8-release-dynamic:base64.obj
 0001:0003a450       _pj_atexit                 0043b450 f   pjlib-i386-win32-vc8-release-dynamic:os_core_win32.obj
 0001:0003a480       _pj_atomic_create          0043b480 f   pjlib-i386-win32-vc8-release-dynamic:os_core_win32.obj
 0001:0003a4b0       _pj_atomic_dec_and_get     0043b4b0 f   pjlib-i386-win32-vc8-release-dynamic:os_core_win32.obj
 0001:0003a500       _pj_atomic_destroy         0043b500 f   pjlib-i386-win32-vc8-release-dynamic:os_core_win32.obj
 0001:0003a520       _pj_atomic_get             0043b520 f   pjlib-i386-win32-vc8-release-dynamic:os_core_win32.obj
 0001:0003a570       _pj_atomic_inc             0043b570 f   pjlib-i386-win32-vc8-release-dynamic:os_core_win32.obj
 0001:0003a5c0       _pj_atomic_inc_and_get     0043b5c0 f   pjlib-i386-win32-vc8-release-dynamic:os_core_win32.obj
 0001:0003a610       _pj_atomic_set             0043b610 f   pjlib-i386-win32-vc8-release-dynamic:os_core_win32.obj
 0001:0003a660       _pj_enter_critical_section 0043b660 f   pjlib-i386-win32-vc8-release-dynamic:os_core_win32.obj
 0001:0003a6c0       _pj_init                   0043b6c0 f   pjlib-i386-win32-vc8-release-dynamic:os_core_win32.obj
 0001:0003a8d0       _pj_leave_critical_section 0043b8d0 f   pjlib-i386-win32-vc8-release-dynamic:os_core_win32.obj
 0001:0003a930       _pj_mutex_create           0043b930 f   pjlib-i386-win32-vc8-release-dynamic:os_core_win32.obj
 0001:0003a980       _pj_mutex_create_simple    0043b980 f   pjlib-i386-win32-vc8-release-dynamic:os_core_win32.obj
 0001:0003a980       _pj_mutex_create_recursive 0043b980 f   pjlib-i386-win32-vc8-release-dynamic:os_core_win32.obj
 0001:0003a9d0       _pj_mutex_destroy          0043b9d0 f   pjlib-i386-win32-vc8-release-dynamic:os_core_win32.obj
 0001:0003aa40       _pj_mutex_lock             0043ba40 f   pjlib-i386-win32-vc8-release-dynamic:os_core_win32.obj
 0001:0003aab0       _pj_mutex_trylock          0043bab0 f   pjlib-i386-win32-vc8-release-dynamic:os_core_win32.obj
 0001:0003ab30       _pj_mutex_unlock           0043bb30 f   pjlib-i386-win32-vc8-release-dynamic:os_core_win32.obj
 0001:0003aba0       _pj_rwmutex_create         0043bba0 f   pjlib-i386-win32-vc8-release-dynamic:os_core_win32.obj
 0001:0003ad40       _pj_rwmutex_destroy        0043bd40 f   pjlib-i386-win32-vc8-release-dynamic:os_core_win32.obj
 0001:0003add0       _pj_rwmutex_lock_read      0043bdd0 f   pjlib-i386-win32-vc8-release-dynamic:os_core_win32.obj
 0001:0003ae20       _pj_rwmutex_lock_write     0043be20 f   pjlib-i386-win32-vc8-release-dynamic:os_core_win32.obj
 0001:0003ae40       _pj_rwmutex_unlock_read    0043be40 f   pjlib-i386-win32-vc8-release-dynamic:os_core_win32.obj
 0001:0003ae80       _pj_rwmutex_unlock_write   0043be80 f   pjlib-i386-win32-vc8-release-dynamic:os_core_win32.obj
 0001:0003aea0       _pj_sem_destroy            0043bea0 f   pjlib-i386-win32-vc8-release-dynamic:os_core_win32.obj
 0001:0003af30       _pj_sem_post               0043bf30 f   pjlib-i386-win32-vc8-release-dynamic:os_core_win32.obj
 0001:0003afd0       _pj_sem_trywait            0043bfd0 f   pjlib-i386-win32-vc8-release-dynamic:os_core_win32.obj
 0001:0003b030       _pj_sem_wait               0043c030 f   pjlib-i386-win32-vc8-release-dynamic:os_core_win32.obj
 0001:0003b140       _pj_term_set_color         0043c140 f   pjlib-i386-win32-vc8-release-dynamic:os_core_win32.obj
 0001:0003b210       _pj_thread_check_stack     0043c210 f   pjlib-i386-win32-vc8-release-dynamic:os_core_win32.obj
 0001:0003b260       _pj_thread_create          0043c260 f   pjlib-i386-win32-vc8-release-dynamic:os_core_win32.obj
 0001:0003b3b0       _pj_thread_destroy         0043c3b0 f   pjlib-i386-win32-vc8-release-dynamic:os_core_win32.obj
 0001:0003b440       _pj_thread_get_name        0043c440 f   pjlib-i386-win32-vc8-release-dynamic:os_core_win32.obj
 0001:0003b490       _pj_thread_join            0043c490 f   pjlib-i386-win32-vc8-release-dynamic:os_core_win32.obj
 0001:0003b550       _pj_thread_local_alloc     0043c550 f   pjlib-i386-win32-vc8-release-dynamic:os_core_win32.obj
 0001:0003b5a0       _pj_thread_local_free      0043c5a0 f   pjlib-i386-win32-vc8-release-dynamic:os_core_win32.obj
 0001:0003b5f0       _pj_thread_local_get       0043c5f0 f   pjlib-i386-win32-vc8-release-dynamic:os_core_win32.obj
 0001:0003b600       _pj_thread_local_set       0043c600 f   pjlib-i386-win32-vc8-release-dynamic:os_core_win32.obj
 0001:0003b640       _pj_thread_sleep           0043c640 f   pjlib-i386-win32-vc8-release-dynamic:os_core_win32.obj
 0001:0003b690       _pj_thread_this            0043c690 f   pjlib-i386-win32-vc8-release-dynamic:os_core_win32.obj
 0001:0003b740       _pj_perror                 0043c740 f   pjlib-i386-win32-vc8-release-dynamic:errno.obj
 0001:0003b760       _pj_perror_1               0043c760 f   pjlib-i386-win32-vc8-release-dynamic:errno.obj
 0001:0003b780       _pj_perror_2               0043c780 f   pjlib-i386-win32-vc8-release-dynamic:errno.obj
 0001:0003b7a0       _pj_perror_3               0043c7a0 f   pjlib-i386-win32-vc8-release-dynamic:errno.obj
 0001:0003b7c0       _pj_perror_4               0043c7c0 f   pjlib-i386-win32-vc8-release-dynamic:errno.obj
 0001:0003b9b0       _pj_register_strerror      0043c9b0 f   pjlib-i386-win32-vc8-release-dynamic:errno.obj
 0001:0003ba80       _pj_strerror               0043ca80 f   pjlib-i386-win32-vc8-release-dynamic:errno.obj
 0001:0003bbc0       _pj_addr_str_print         0043cbc0 f   pjlib-i386-win32-vc8-release-dynamic:sock_common.obj
 0001:0003bc90       _pj_gethostip              0043cc90 f   pjlib-i386-win32-vc8-release-dynamic:sock_common.obj
 0001:0003c650       _pj_getipinterface         0043d650 f   pjlib-i386-win32-vc8-release-dynamic:sock_common.obj
 0001:0003c860       _pj_sockaddr_cmp           0043d860 f   pjlib-i386-win32-vc8-release-dynamic:sock_common.obj
 0001:0003c9e0       _pj_sockaddr_cp            0043d9e0 f   pjlib-i386-win32-vc8-release-dynamic:sock_common.obj
 0001:0003ca40       _pj_sockaddr_get_addr      0043da40 f   pjlib-i386-win32-vc8-release-dynamic:sock_common.obj
 0001:0003ca80       _pj_sockaddr_get_addr_len  0043da80 f   pjlib-i386-win32-vc8-release-dynamic:sock_common.obj
 0001:0003cac0       _pj_sockaddr_get_len       0043dac0 f   pjlib-i386-win32-vc8-release-dynamic:sock_common.obj
 0001:0003cb00       _pj_sockaddr_get_port      0043db00 f   pjlib-i386-win32-vc8-release-dynamic:sock_common.obj
 0001:0003cb30       _pj_sockaddr_has_addr      0043db30 f   pjlib-i386-win32-vc8-release-dynamic:sock_common.obj
 0001:0003cbe0       _pj_sockaddr_in_init       0043dbe0 f   pjlib-i386-win32-vc8-release-dynamic:sock_common.obj
 0001:0003cc30       _pj_sockaddr_in_set_str_addr 0043dc30 f   pjlib-i386-win32-vc8-release-dynamic:sock_common.obj
 0001:0003cd20       _pj_sockaddr_init          0043dd20 f   pjlib-i386-win32-vc8-release-dynamic:sock_common.obj
 0001:0003cec0       _pj_sockaddr_print         0043dec0 f   pjlib-i386-win32-vc8-release-dynamic:sock_common.obj
 0001:0003cfd0       _pj_sockaddr_set_port      0043dfd0 f   pjlib-i386-win32-vc8-release-dynamic:sock_common.obj
 0001:0003d010       _pj_sockaddr_synthesize    0043e010 f   pjlib-i386-win32-vc8-release-dynamic:sock_common.obj
 0001:0003d170       _pj_gethostname            0043e170 f   pjlib-i386-win32-vc8-release-dynamic:sock_bsd.obj
 0001:0003d1f0       _pj_htonl                  0043e1f0 f   pjlib-i386-win32-vc8-release-dynamic:sock_bsd.obj
 0001:0003d200       _pj_htons                  0043e200 f   pjlib-i386-win32-vc8-release-dynamic:sock_bsd.obj
 0001:0003d210       _pj_inet_aton              0043e210 f   pjlib-i386-win32-vc8-release-dynamic:sock_bsd.obj
 0001:0003d2a0       _pj_inet_ntop              0043e2a0 f   pjlib-i386-win32-vc8-release-dynamic:sock_bsd.obj
 0001:0003d3c0       _pj_inet_pton              0043e3c0 f   pjlib-i386-win32-vc8-release-dynamic:sock_bsd.obj
 0001:0003d520       _pj_ntohl                  0043e520 f   pjlib-i386-win32-vc8-release-dynamic:sock_bsd.obj
 0001:0003d530       _pj_ntohs                  0043e530 f   pjlib-i386-win32-vc8-release-dynamic:sock_bsd.obj
 0001:0003d540       _pj_sock_accept            0043e540 f   pjlib-i386-win32-vc8-release-dynamic:sock_bsd.obj
 0001:0003d5b0       _pj_sock_bind              0043e5b0 f   pjlib-i386-win32-vc8-release-dynamic:sock_bsd.obj
 0001:0003d620       _pj_sock_close             0043e620 f   pjlib-i386-win32-vc8-release-dynamic:sock_bsd.obj
 0001:0003d670       _pj_sock_connect           0043e670 f   pjlib-i386-win32-vc8-release-dynamic:sock_bsd.obj
 0001:0003d6d0       _pj_sock_getsockname       0043e6d0 f   pjlib-i386-win32-vc8-release-dynamic:sock_bsd.obj
 0001:0003d730       _pj_sock_getsockopt        0043e730 f   pjlib-i386-win32-vc8-release-dynamic:sock_bsd.obj
 0001:0003d7a0       _pj_sock_recv              0043e7a0 f   pjlib-i386-win32-vc8-release-dynamic:sock_bsd.obj
 0001:0003d810       _pj_sock_recvfrom          0043e810 f   pjlib-i386-win32-vc8-release-dynamic:sock_bsd.obj
 0001:0003d880       _pj_sock_send              0043e880 f   pjlib-i386-win32-vc8-release-dynamic:sock_bsd.obj
 0001:0003d8f0       _pj_sock_sendto            0043e8f0 f   pjlib-i386-win32-vc8-release-dynamic:sock_bsd.obj
 0001:0003d960       _pj_sock_setsockopt        0043e960 f   pjlib-i386-win32-vc8-release-dynamic:sock_bsd.obj
 0001:0003d9e0       _pj_sock_setsockopt_params 0043e9e0 f   pjlib-i386-win32-vc8-release-dynamic:sock_bsd.obj
 0001:0003daf0       _pj_sock_socket            0043eaf0 f   pjlib-i386-win32-vc8-release-dynamic:sock_bsd.obj
 0001:0003dba0       _pj_NO_MEMORY_EXCEPTION    0043eba0 f   pjlib-i386-win32-vc8-release-dynamic:pool.obj
 0001:0003dbb0       _pj_pool_alloc             0043ebb0 f   pjlib-i386-win32-vc8-release-dynamic:pool.obj
 0001:0003dd20       _pj_pool_calloc            0043ed20 f   pjlib-i386-win32-vc8-release-dynamic:pool.obj
 0001:0003dd50       _pj_pool_create            0043ed50 f   pjlib-i386-win32-vc8-release-dynamic:pool.obj
 0001:0003dd60       _pj_pool_create_int        0043ed60 f   pjlib-i386-win32-vc8-release-dynamic:pool.obj
 0001:0003de70       _pj_pool_destroy_int       0043ee70 f   pjlib-i386-win32-vc8-release-dynamic:pool.obj
 0001:0003deb0       _pj_pool_get_capacity      0043eeb0 f   pjlib-i386-win32-vc8-release-dynamic:pool.obj
 0001:0003dec0       _pj_pool_get_used_size     0043eec0 f   pjlib-i386-win32-vc8-release-dynamic:pool.obj
 0001:0003def0       _pj_pool_init_int          0043eef0 f   pjlib-i386-win32-vc8-release-dynamic:pool.obj
 0001:0003df60       _pj_pool_release           0043ef60 f   pjlib-i386-win32-vc8-release-dynamic:pool.obj
 0001:0003df80       _pj_pool_reset             0043ef80 f   pjlib-i386-win32-vc8-release-dynamic:pool.obj
 0001:0003df90       _pj_pool_safe_release      0043ef90 f   pjlib-i386-win32-vc8-release-dynamic:pool.obj
 0001:0003e3c0       _pj_caching_pool_init      0043f3c0 f   pjlib-i386-win32-vc8-release-dynamic:pool_caching.obj
 0001:0003e480       _pj_create_random_string   0043f480 f   pjlib-i386-win32-vc8-release-dynamic:string.obj
 0001:0003e590       _pj_str                    0043f590 f   pjlib-i386-win32-vc8-release-dynamic:string.obj
 0001:0003e5b0       _pj_strassign              0043f5b0 f   pjlib-i386-win32-vc8-release-dynamic:string.obj
 0001:0003e5d0       _pj_strcat                 0043f5d0 f   pjlib-i386-win32-vc8-release-dynamic:string.obj
 0001:0003e600       _pj_strcat2                0043f600 f   pjlib-i386-win32-vc8-release-dynamic:string.obj
 0001:0003e640       _pj_strcmp                 0043f640 f   pjlib-i386-win32-vc8-release-dynamic:string.obj
 0001:0003e6f0       _pj_strcmp2                0043f6f0 f   pjlib-i386-win32-vc8-release-dynamic:string.obj
 0001:0003e750       _pj_strcpy                 0043f750 f   pjlib-i386-win32-vc8-release-dynamic:string.obj
 0001:0003e780       _pj_strcpy2                0043f780 f   pjlib-i386-win32-vc8-release-dynamic:string.obj
 0001:0003e7c0       _pj_strdup                 0043f7c0 f   pjlib-i386-win32-vc8-release-dynamic:string.obj
 0001:0003e800       _pj_strdup2                0043f800 f   pjlib-i386-win32-vc8-release-dynamic:string.obj
 0001:0003e860       _pj_strdup2_with_null      0043f860 f   pjlib-i386-win32-vc8-release-dynamic:string.obj
 0001:0003e8c0       _pj_strdup3                0043f8c0 f   pjlib-i386-win32-vc8-release-dynamic:string.obj
 0001:0003e910       _pj_strdup_with_null       0043f910 f   pjlib-i386-win32-vc8-release-dynamic:string.obj
 0001:0003e960       _pj_stricmp                0043f960 f   pjlib-i386-win32-vc8-release-dynamic:string.obj
 0001:0003e9c0       _pj_stricmp2               0043f9c0 f   pjlib-i386-win32-vc8-release-dynamic:string.obj
 0001:0003ea30       _pj_strltrim               0043fa30 f   pjlib-i386-win32-vc8-release-dynamic:string.obj
 0001:0003ea70       _pj_strncpy                0043fa70 f   pjlib-i386-win32-vc8-release-dynamic:string.obj
 0001:0003eab0       _pj_strncpy_with_null      0043fab0 f   pjlib-i386-win32-vc8-release-dynamic:string.obj
 0001:0003eaf0       _pj_strnicmp               0043faf0 f   pjlib-i386-win32-vc8-release-dynamic:string.obj
 0001:0003eb30       _pj_strnicmp2              0043fb30 f   pjlib-i386-win32-vc8-release-dynamic:string.obj
 0001:0003eba0       _pj_strstr                 0043fba0 f   pjlib-i386-win32-vc8-release-dynamic:string.obj
 0001:0003ebf0       _pj_strtok                 0043fbf0 f   pjlib-i386-win32-vc8-release-dynamic:string.obj
 0001:0003ece0       _pj_strtok2                0043fce0 f   pjlib-i386-win32-vc8-release-dynamic:string.obj
 0001:0003edc0       _pj_strtol2                0043fdc0 f   pjlib-i386-win32-vc8-release-dynamic:string.obj
 0001:0003ef40       _pj_strtoul                0043ff40 f   pjlib-i386-win32-vc8-release-dynamic:string.obj
 0001:0003efa0       _pj_strtoul2               0043ffa0 f   pjlib-i386-win32-vc8-release-dynamic:string.obj
 0001:0003f050       _pj_strtoul3               00440050 f   pjlib-i386-win32-vc8-release-dynamic:string.obj
 0001:0003f1d0       _pj_strtrim                004401d0 f   pjlib-i386-win32-vc8-release-dynamic:string.obj
 0001:0003f250       _pj_utoa                   00440250 f   pjlib-i386-win32-vc8-release-dynamic:string.obj
 0001:0003f2d0       _pj_utoa_pad               004402d0 f   pjlib-i386-win32-vc8-release-dynamic:string.obj
 0001:0003f3b0       _pj_log                    004403b0 f   pjlib-i386-win32-vc8-release-dynamic:log.obj
 0001:0003f8b0       _pj_log_1                  004408b0 f   pjlib-i386-win32-vc8-release-dynamic:log.obj
 0001:0003f8d0       _pj_log_2                  004408d0 f   pjlib-i386-win32-vc8-release-dynamic:log.obj
 0001:0003f8f0       _pj_log_3                  004408f0 f   pjlib-i386-win32-vc8-release-dynamic:log.obj
 0001:0003f910       _pj_log_4                  00440910 f   pjlib-i386-win32-vc8-release-dynamic:log.obj
 0001:0003f930       _pj_log_5                  00440930 f   pjlib-i386-win32-vc8-release-dynamic:log.obj
 0001:0003f950       _pj_log_get_color          00440950 f   pjlib-i386-win32-vc8-release-dynamic:log.obj
 0001:0003f9c0       _pj_log_get_decor          004409c0 f   pjlib-i386-win32-vc8-release-dynamic:log.obj
 0001:0003f9d0       _pj_log_get_level          004409d0 f   pjlib-i386-win32-vc8-release-dynamic:log.obj
 0001:0003f9e0       _pj_log_init               004409e0 f   pjlib-i386-win32-vc8-release-dynamic:log.obj
 0001:0003fa50       _pj_log_pop_indent         00440a50 f   pjlib-i386-win32-vc8-release-dynamic:log.obj
 0001:0003fa80       _pj_log_push_indent        00440a80 f   pjlib-i386-win32-vc8-release-dynamic:log.obj
 0001:0003fab0       _pj_log_set_level          00440ab0 f   pjlib-i386-win32-vc8-release-dynamic:log.obj
 0001:0003fb80       _pj_list_erase             00440b80 f   pjlib-i386-win32-vc8-release-dynamic:list.obj
 0001:0003fba0       _pj_list_find_node         00440ba0 f   pjlib-i386-win32-vc8-release-dynamic:list.obj
 0001:0003fbd0       _pj_list_insert_after      00440bd0 f   pjlib-i386-win32-vc8-release-dynamic:list.obj
 0001:0003fbf0       _pj_list_insert_before     00440bf0 f   pjlib-i386-win32-vc8-release-dynamic:list.obj
 0001:0003fc10       _pj_list_insert_nodes_before 00440c10 f   pjlib-i386-win32-vc8-release-dynamic:list.obj
 0001:0003fc30       _pj_list_search            00440c30 f   pjlib-i386-win32-vc8-release-dynamic:list.obj
 0001:0003fc70       _pj_list_size              00440c70 f   pjlib-i386-win32-vc8-release-dynamic:list.obj
 0001:0003ff40       _pj_grp_lock_acquire       00440f40 f   pjlib-i386-win32-vc8-release-dynamic:lock.obj
 0001:0003ff50       _pj_grp_lock_add_handler   00440f50 f   pjlib-i386-win32-vc8-release-dynamic:lock.obj
 0001:0003ffa0       _pj_grp_lock_add_ref       00440fa0 f   pjlib-i386-win32-vc8-release-dynamic:lock.obj
 0001:0003ffc0       _pj_grp_lock_create        00440fc0 f   pjlib-i386-win32-vc8-release-dynamic:lock.obj
 0001:000400b0       _pj_grp_lock_create_w_handler 004410b0 f   pjlib-i386-win32-vc8-release-dynamic:lock.obj
 0001:000401d0       _pj_grp_lock_dec_ref       004411d0 f   pjlib-i386-win32-vc8-release-dynamic:lock.obj
 0001:00040200       _pj_grp_lock_release       00441200 f   pjlib-i386-win32-vc8-release-dynamic:lock.obj
 0001:00040210       _pj_grp_lock_tryacquire    00441210 f   pjlib-i386-win32-vc8-release-dynamic:lock.obj
 0001:00040220       _pj_lock_acquire           00441220 f   pjlib-i386-win32-vc8-release-dynamic:lock.obj
 0001:00040240       _pj_lock_create_null_mutex 00441240 f   pjlib-i386-win32-vc8-release-dynamic:lock.obj
 0001:00040260       _pj_lock_create_recursive_mutex 00441260 f   pjlib-i386-win32-vc8-release-dynamic:lock.obj
 0001:00040280       _pj_lock_create_simple_mutex 00441280 f   pjlib-i386-win32-vc8-release-dynamic:lock.obj
 0001:000402a0       _pj_lock_destroy           004412a0 f   pjlib-i386-win32-vc8-release-dynamic:lock.obj
 0001:000402c0       _pj_lock_release           004412c0 f   pjlib-i386-win32-vc8-release-dynamic:lock.obj
 0001:000402e0       _pj_lock_tryacquire        004412e0 f   pjlib-i386-win32-vc8-release-dynamic:lock.obj
 0001:00040300       _pj_array_erase            00441300 f   pjlib-i386-win32-vc8-release-dynamic:array.obj
 0001:00040340       _pj_array_insert           00441340 f   pjlib-i386-win32-vc8-release-dynamic:array.obj
 0001:00040390       _pj_rand                   00441390 f   pjlib-i386-win32-vc8-release-dynamic:rand.obj
 0001:000403c0       _pj_time_val_normalize     004413c0 f   pjlib-i386-win32-vc8-release-dynamic:types.obj
 0001:00040510       _pj_timer_entry_init       00441510 f   pjlib-i386-win32-vc8-release-dynamic:timer.obj
 0001:00040540       _pj_timer_entry_running    00441540 f   pjlib-i386-win32-vc8-release-dynamic:timer.obj
 0001:00040560       _pj_timer_heap_cancel      00441560 f   pjlib-i386-win32-vc8-release-dynamic:timer.obj
 0001:00040580       _pj_timer_heap_cancel_if_active 00441580 f   pjlib-i386-win32-vc8-release-dynamic:timer.obj
 0001:000405a0       _pj_timer_heap_create      004415a0 f   pjlib-i386-win32-vc8-release-dynamic:timer.obj
 0001:00040750       _pj_timer_heap_destroy     00441750 f   pjlib-i386-win32-vc8-release-dynamic:timer.obj
 0001:00040780       _pj_timer_heap_poll        00441780 f   pjlib-i386-win32-vc8-release-dynamic:timer.obj
 0001:00040950       _pj_timer_heap_schedule    00441950 f   pjlib-i386-win32-vc8-release-dynamic:timer.obj
 0001:00040970       _pj_timer_heap_schedule_w_grp_lock 00441970 f   pjlib-i386-win32-vc8-release-dynamic:timer.obj
 0001:00040990       _pj_timer_heap_set_lock    00441990 f   pjlib-i386-win32-vc8-release-dynamic:timer.obj
 0001:000409c0       _pj_timer_heap_set_max_timed_out_per_poll 004419c0 f   pjlib-i386-win32-vc8-release-dynamic:timer.obj
 0001:00040da0       _pj_gettimeofday           00441da0 f   pjlib-i386-win32-vc8-release-dynamic:os_time_win32.obj
 0001:00040e50       _pj_time_decode            00441e50 f   pjlib-i386-win32-vc8-release-dynamic:os_time_win32.obj
 0001:00040fc0       _ioqueue_dispatch_read_event 00441fc0 f   pjlib-i386-win32-vc8-release-dynamic:ioqueue_select.obj
 0001:000411d0       _ioqueue_dispatch_write_event 004421d0 f   pjlib-i386-win32-vc8-release-dynamic:ioqueue_select.obj
 0001:00041460       _pj_ioqueue_create         00442460 f   pjlib-i386-win32-vc8-release-dynamic:ioqueue_select.obj
 0001:00041630       _pj_ioqueue_destroy        00442630 f   pjlib-i386-win32-vc8-release-dynamic:ioqueue_select.obj
 0001:000416f0       _pj_ioqueue_get_user_data  004426f0 f   pjlib-i386-win32-vc8-release-dynamic:ioqueue_select.obj
 0001:00041710       _pj_ioqueue_is_pending     00442710 f   pjlib-i386-win32-vc8-release-dynamic:ioqueue_select.obj
 0001:00041720       _pj_ioqueue_lock_key       00442720 f   pjlib-i386-win32-vc8-release-dynamic:ioqueue_select.obj
 0001:00041750       _pj_ioqueue_op_key_init    00442750 f   pjlib-i386-win32-vc8-release-dynamic:ioqueue_select.obj
 0001:00041770       _pj_ioqueue_poll           00442770 f   pjlib-i386-win32-vc8-release-dynamic:ioqueue_select.obj
 0001:00041c50       _pj_ioqueue_post_completion 00442c50 f   pjlib-i386-win32-vc8-release-dynamic:ioqueue_select.obj
 0001:00041dc0       _pj_ioqueue_recvfrom       00442dc0 f   pjlib-i386-win32-vc8-release-dynamic:ioqueue_select.obj
 0001:00041ef0       _pj_ioqueue_register_sock  00442ef0 f   pjlib-i386-win32-vc8-release-dynamic:ioqueue_select.obj
 0001:00041f30       _pj_ioqueue_register_sock2 00442f30 f   pjlib-i386-win32-vc8-release-dynamic:ioqueue_select.obj
 0001:000420c0       _pj_ioqueue_sendto         004430c0 f   pjlib-i386-win32-vc8-release-dynamic:ioqueue_select.obj
 0001:00042260       _pj_ioqueue_set_concurrency 00443260 f   pjlib-i386-win32-vc8-release-dynamic:ioqueue_select.obj
 0001:00042280       _pj_ioqueue_unlock_key     00443280 f   pjlib-i386-win32-vc8-release-dynamic:ioqueue_select.obj
 0001:000422b0       _pj_ioqueue_unregister     004432b0 f   pjlib-i386-win32-vc8-release-dynamic:ioqueue_select.obj
 0001:000424b0       _pj_exception_id_alloc     004434b0 f   pjlib-i386-win32-vc8-release-dynamic:except.obj
 0001:00042500       _pj_exception_id_free      00443500 f   pjlib-i386-win32-vc8-release-dynamic:except.obj
 0001:00042540       _pj_exception_id_name      00443540 f   pjlib-i386-win32-vc8-release-dynamic:except.obj
 0001:00042580       _pj_pop_exception_handler_ 00443580 f   pjlib-i386-win32-vc8-release-dynamic:except.obj
 0001:000425b0       _pj_push_exception_handler_ 004435b0 f   pjlib-i386-win32-vc8-release-dynamic:except.obj
 0001:00042600       _pj_throw_exception_       00443600 f   pjlib-i386-win32-vc8-release-dynamic:except.obj
 0001:00042680       _pj_get_timestamp          00443680 f   pjlib-i386-win32-vc8-release-dynamic:os_timestamp_win32.obj
 0001:000426e0       _pj_get_timestamp_freq     004436e0 f   pjlib-i386-win32-vc8-release-dynamic:os_timestamp_win32.obj
 0001:00042950       _pj_hash_calc              00443950 f   pjlib-i386-win32-vc8-release-dynamic:hash.obj
 0001:000429e0       _pj_hash_calc_tolower      004439e0 f   pjlib-i386-win32-vc8-release-dynamic:hash.obj
 0001:00042a30       _pj_hash_count             00443a30 f   pjlib-i386-win32-vc8-release-dynamic:hash.obj
 0001:00042a40       _pj_hash_create            00443a40 f   pjlib-i386-win32-vc8-release-dynamic:hash.obj
 0001:00042a90       _pj_hash_first             00443a90 f   pjlib-i386-win32-vc8-release-dynamic:hash.obj
 0001:00042ad0       _pj_hash_get               00443ad0 f   pjlib-i386-win32-vc8-release-dynamic:hash.obj
 0001:00042b00       _pj_hash_get_lower         00443b00 f   pjlib-i386-win32-vc8-release-dynamic:hash.obj
 0001:00042b30       _pj_hash_next              00443b30 f   pjlib-i386-win32-vc8-release-dynamic:hash.obj
 0001:00042b80       _pj_hash_set               00443b80 f   pjlib-i386-win32-vc8-release-dynamic:hash.obj
 0001:00042be0       _pj_hash_set_lower         00443be0 f   pjlib-i386-win32-vc8-release-dynamic:hash.obj
 0001:00042c40       _pj_hash_set_np            00443c40 f   pjlib-i386-win32-vc8-release-dynamic:hash.obj
 0001:00042ca0       _pj_hash_set_np_lower      00443ca0 f   pjlib-i386-win32-vc8-release-dynamic:hash.obj
 0001:00042d00       _pj_hash_this              00443d00 f   pjlib-i386-win32-vc8-release-dynamic:hash.obj
 0001:00042d20       _pj_get_netos_error        00443d20 f   pjlib-i386-win32-vc8-release-dynamic:os_error_win32.obj
 0001:00042d40       _pj_get_os_error           00443d40 f   pjlib-i386-win32-vc8-release-dynamic:os_error_win32.obj
 0001:00042d60       _platform_strerror         00443d60 f   pjlib-i386-win32-vc8-release-dynamic:os_error_win32.obj
 0001:00042e40       _pj_GUID_STRING_LENGTH     00443e40 f   pjlib-i386-win32-vc8-release-dynamic:guid_win32.obj
 0001:00042e50       _pj_generate_unique_string 00443e50 f   pjlib-i386-win32-vc8-release-dynamic:guid_win32.obj
 0001:00042f00       _pj_create_unique_string   00443f00 f   pjlib-i386-win32-vc8-release-dynamic:guid.obj
 0001:00042f30       _pj_qos_get_params         00443f30 f   pjlib-i386-win32-vc8-release-dynamic:sock_qos_common.obj
 0001:00042f60       _pj_sock_apply_qos2        00443f60 f   pjlib-i386-win32-vc8-release-dynamic:sock_qos_common.obj
 0001:00043030       _pj_getaddrinfo            00444030 f   pjlib-i386-win32-vc8-release-dynamic:addr_resolv_sock.obj
 0001:000431f0       _pj_gettickcount           004441f0 f   pjlib-i386-win32-vc8-release-dynamic:os_timestamp_common.obj
 0001:000432c0       _pj_pool_create_on_buf     004442c0 f   pjlib-i386-win32-vc8-release-dynamic:pool_buf.obj
 0001:00043710       _pj_enum_ip_interface      00444710 f   pjlib-i386-win32-vc8-release-dynamic:ip_helper_win32.obj
 0001:000439a0       _pj_log_write              004449a0 f   pjlib-i386-win32-vc8-release-dynamic:log_writer_stdout.obj
 0001:00043a00       _printf                    00444a00 f i pjlib-i386-win32-vc8-release-dynamic:log_writer_stdout.obj
 0001:00043a30       _PJ_FD_CLR                 00444a30 f   pjlib-i386-win32-vc8-release-dynamic:sock_select.obj
 0001:00043ab0       _srtp_rdb_get_value        00444ab0 f   libsrtp-i386-win32-vc8-release-dynamic:rdb.obj
 0001:00043ab0       _PJ_FD_COUNT               00444ab0 f   pjlib-i386-win32-vc8-release-dynamic:sock_select.obj
 0001:00043ac0       _PJ_FD_ISSET               00444ac0 f   pjlib-i386-win32-vc8-release-dynamic:sock_select.obj
 0001:00043af0       _PJ_FD_SET                 00444af0 f   pjlib-i386-win32-vc8-release-dynamic:sock_select.obj
 0001:00043b60       _PJ_FD_ZERO                00444b60 f   pjlib-i386-win32-vc8-release-dynamic:sock_select.obj
 0001:00043b90       _pj_sock_select            00444b90 f   pjlib-i386-win32-vc8-release-dynamic:sock_select.obj
 0001:00043c00       _pj_sock_set_qos_params    00444c00 f   pjlib-i386-win32-vc8-release-dynamic:sock_qos_bsd.obj
 0001:00043d20       _pj_sock_set_qos_type      00444d20 f   pjlib-i386-win32-vc8-release-dynamic:sock_qos_bsd.obj
 0001:00044230       _speex_echo_cancellation   00445230 f   libspeex-i386-win32-vc8-release-dynamic:mdf.obj
 0001:000456b0       _speex_echo_capture        004466b0 f   libspeex-i386-win32-vc8-release-dynamic:mdf.obj
 0001:000457a0       _speex_echo_ctl            004467a0 f   libspeex-i386-win32-vc8-release-dynamic:mdf.obj
 0001:00045880       _speex_echo_get_residual   00446880 f   libspeex-i386-win32-vc8-release-dynamic:mdf.obj
 0001:00045b10       _speex_echo_playback       00446b10 f   libspeex-i386-win32-vc8-release-dynamic:mdf.obj
 0001:00045c10       _speex_echo_state_destroy  00446c10 f   libspeex-i386-win32-vc8-release-dynamic:mdf.obj
 0001:00045cc0       _speex_echo_state_init     00446cc0 f   libspeex-i386-win32-vc8-release-dynamic:mdf.obj
 0001:00046200       _speex_echo_state_reset    00447200 f   libspeex-i386-win32-vc8-release-dynamic:mdf.obj
 0001:00047120       _speex_preprocess_ctl      00448120 f   libspeex-i386-win32-vc8-release-dynamic:preprocess.obj
 0001:000477b0       _speex_preprocess_run      004487b0 f   libspeex-i386-win32-vc8-release-dynamic:preprocess.obj
 0001:000490e0       _speex_preprocess_state_destroy 0044a0e0 f   libspeex-i386-win32-vc8-release-dynamic:preprocess.obj
 0001:000491a0       _speex_preprocess_state_init 0044a1a0 f   libspeex-i386-win32-vc8-release-dynamic:preprocess.obj
 0001:00049f70       _spx_fft                   0044af70 f   libspeex-i386-win32-vc8-release-dynamic:fftwrap.obj
 0001:0004a030       _spx_fft_destroy           0044b030 f   libspeex-i386-win32-vc8-release-dynamic:fftwrap.obj
 0001:0004a050       _spx_fft_init              0044b050 f   libspeex-i386-win32-vc8-release-dynamic:fftwrap.obj
 0001:0004a080       _spx_ifft                  0044b080 f   libspeex-i386-win32-vc8-release-dynamic:fftwrap.obj
 0001:0004a0f0       _filterbank_compute_bank32 0044b0f0 f   libspeex-i386-win32-vc8-release-dynamic:filterbank.obj
 0001:0004a170       _filterbank_compute_psd16  0044b170 f   libspeex-i386-win32-vc8-release-dynamic:filterbank.obj
 0001:0004a1c0       _filterbank_destroy        0044b1c0 f   libspeex-i386-win32-vc8-release-dynamic:filterbank.obj
 0001:0004a1f0       _filterbank_new            0044b1f0 f   libspeex-i386-win32-vc8-release-dynamic:filterbank.obj
 0001:0004d780       _spx_drft_backward         0044e780 f   libspeex-i386-win32-vc8-release-dynamic:smallft.obj
 0001:0004d7b0       _spx_drft_clear            0044e7b0 f   libspeex-i386-win32-vc8-release-dynamic:smallft.obj
 0001:0004d7f0       _spx_drft_forward          0044e7f0 f   libspeex-i386-win32-vc8-release-dynamic:smallft.obj
 0001:0004d820       _spx_drft_init             0044e820 f   libspeex-i386-win32-vc8-release-dynamic:smallft.obj
 0001:0004d870       _srtp_event_reporter       0044e870 f   libsrtp-i386-win32-vc8-release-dynamic:srtp.obj
 0001:0004d910       ___local_stdio_scanf_options 0044e910 f i libsrtp-i386-win32-vc8-release-dynamic:srtp.obj
 0001:0004d9a0       _srtp_add_stream           0044e9a0 f   libsrtp-i386-win32-vc8-release-dynamic:srtp.obj
 0001:0004dc50       _srtp_create               0044ec50 f   libsrtp-i386-win32-vc8-release-dynamic:srtp.obj
 0001:0004dcd0       _srtp_crypto_policy_set_aes_cm_256_hmac_sha1_32 0044ecd0 f   libsrtp-i386-win32-vc8-release-dynamic:srtp.obj
 0001:0004dd10       _srtp_crypto_policy_set_aes_cm_256_hmac_sha1_80 0044ed10 f   libsrtp-i386-win32-vc8-release-dynamic:srtp.obj
 0001:0004dd50       _srtp_dealloc              0044ed50 f   libsrtp-i386-win32-vc8-release-dynamic:srtp.obj
 0001:0004e030       _srtp_get_session_keys     0044f030 f   libsrtp-i386-win32-vc8-release-dynamic:srtp.obj
 0001:0004e140       _srtp_inject_mki           0044f140 f   libsrtp-i386-win32-vc8-release-dynamic:srtp.obj
 0001:0004e490       _srtp_protect              0044f490 f   libsrtp-i386-win32-vc8-release-dynamic:srtp.obj
 0001:0004e7c0       _srtp_protect_mki          0044f7c0 f   libsrtp-i386-win32-vc8-release-dynamic:srtp.obj
 0001:0004ed70       _srtp_protect_rtcp         0044fd70 f   libsrtp-i386-win32-vc8-release-dynamic:srtp.obj
 0001:0004efa0       _srtp_protect_rtcp_mki     0044ffa0 f   libsrtp-i386-win32-vc8-release-dynamic:srtp.obj
 0001:0004f350       _srtp_stream_alloc         00450350 f   libsrtp-i386-win32-vc8-release-dynamic:srtp.obj
 0001:0004f5e0       _srtp_stream_clone         004505e0 f   libsrtp-i386-win32-vc8-release-dynamic:srtp.obj
 0001:0004f800       _srtp_stream_dealloc       00450800 f   libsrtp-i386-win32-vc8-release-dynamic:srtp.obj
 0001:0004fa80       _srtp_stream_init          00450a80 f   libsrtp-i386-win32-vc8-release-dynamic:srtp.obj
 0001:0004fc00       _srtp_stream_init_keys     00450c00 f   libsrtp-i386-win32-vc8-release-dynamic:srtp.obj
 0001:00050420       _srtp_unprotect            00451420 f   libsrtp-i386-win32-vc8-release-dynamic:srtp.obj
 0001:00050740       _srtp_unprotect_mki        00451740 f   libsrtp-i386-win32-vc8-release-dynamic:srtp.obj
 0001:00050d90       _srtp_unprotect_rtcp       00451d90 f   libsrtp-i386-win32-vc8-release-dynamic:srtp.obj
 0001:00051010       _srtp_unprotect_rtcp_mki   00452010 f   libsrtp-i386-win32-vc8-release-dynamic:srtp.obj
 0001:00051500       _srtp_validate_policy_master_keys 00452500 f   libsrtp-i386-win32-vc8-release-dynamic:srtp.obj
 0001:000515b0       _srtp_crypto_alloc         004525b0 f   libsrtp-i386-win32-vc8-release-dynamic:alloc.obj
 0001:00051610       _srtp_crypto_free          00452610 f   libsrtp-i386-win32-vc8-release-dynamic:alloc.obj
 0001:00051640       _bitvector_alloc           00452640 f   libsrtp-i386-win32-vc8-release-dynamic:datatypes.obj
 0001:000516a0       _bitvector_dealloc         004526a0 f   libsrtp-i386-win32-vc8-release-dynamic:datatypes.obj
 0001:000516d0       _bitvector_left_shift      004526d0 f   libsrtp-i386-win32-vc8-release-dynamic:datatypes.obj
 0001:00051830       _bitvector_set_to_zero     00452830 f   libsrtp-i386-win32-vc8-release-dynamic:datatypes.obj
 0001:00051850       _octet_string_is_eq        00452850 f   libsrtp-i386-win32-vc8-release-dynamic:datatypes.obj
 0001:00051920       _octet_string_set_to_zero  00452920 f   libsrtp-i386-win32-vc8-release-dynamic:datatypes.obj
 0001:00051940       _srtp_octet_string_hex_string 00452940 f   libsrtp-i386-win32-vc8-release-dynamic:datatypes.obj
 0001:000519e0       _v128_copy_octet_string    004529e0 f   libsrtp-i386-win32-vc8-release-dynamic:datatypes.obj
 0001:00051a60       _v128_hex_string           00452a60 f   libsrtp-i386-win32-vc8-release-dynamic:datatypes.obj
 0001:00051af0       _v128_left_shift           00452af0 f   libsrtp-i386-win32-vc8-release-dynamic:datatypes.obj
 0001:00051bd0       _srtp_err_report           00452bd0 f   libsrtp-i386-win32-vc8-release-dynamic:srtp_err.obj
 0001:00051c00       _srtp_rdbx_add_index       00452c00 f   libsrtp-i386-win32-vc8-release-dynamic:rdbx.obj
 0001:00051c50       _srtp_rdbx_check           00452c50 f   libsrtp-i386-win32-vc8-release-dynamic:rdbx.obj
 0001:00051c90       _srtp_rdbx_dealloc         00452c90 f   libsrtp-i386-win32-vc8-release-dynamic:rdbx.obj
 0001:00051cb0       _srtp_rdbx_estimate_index  00452cb0 f   libsrtp-i386-win32-vc8-release-dynamic:rdbx.obj
 0001:00051d60       _srtp_rdbx_get_packet_index 00452d60 f   libsrtp-i386-win32-vc8-release-dynamic:rdbx.obj
 0001:00051d70       _srtp_cipher_get_key_length 00452d70 f   libsrtp-i386-win32-vc8-release-dynamic:cipher.obj
 0001:00051d70       _srtp_auth_get_tag_length  00452d70 f   libsrtp-i386-win32-vc8-release-dynamic:auth.obj
 0001:00051d70       _srtp_rdbx_get_window_size 00452d70 f   libsrtp-i386-win32-vc8-release-dynamic:rdbx.obj
 0001:00051d80       _srtp_rdbx_init            00452d80 f   libsrtp-i386-win32-vc8-release-dynamic:rdbx.obj
 0001:00051dc0       _srtp_rdbx_set_roc         00452dc0 f   libsrtp-i386-win32-vc8-release-dynamic:rdbx.obj
 0001:00051e20       _srtp_rdbx_set_roc_seq     00452e20 f   libsrtp-i386-win32-vc8-release-dynamic:rdbx.obj
 0001:00051e80       _srtp_rdb_add_index        00452e80 f   libsrtp-i386-win32-vc8-release-dynamic:rdb.obj
 0001:00051ed0       _srtp_rdb_check            00452ed0 f   libsrtp-i386-win32-vc8-release-dynamic:rdb.obj
 0001:00051f20       _srtp_rdb_increment        00452f20 f   libsrtp-i386-win32-vc8-release-dynamic:rdb.obj
 0001:00051f40       _srtp_rdb_init             00452f40 f   libsrtp-i386-win32-vc8-release-dynamic:rdb.obj
 0001:00051f70       _srtp_cipher_dealloc       00452f70 f   libsrtp-i386-win32-vc8-release-dynamic:cipher.obj
 0001:00051f90       _srtp_cipher_decrypt       00452f90 f   libsrtp-i386-win32-vc8-release-dynamic:cipher.obj
 0001:00051fc0       _srtp_cipher_encrypt       00452fc0 f   libsrtp-i386-win32-vc8-release-dynamic:cipher.obj
 0001:00051ff0       _srtp_cipher_get_tag       00452ff0 f   libsrtp-i386-win32-vc8-release-dynamic:cipher.obj
 0001:00052030       _srtp_cipher_init          00453030 f   libsrtp-i386-win32-vc8-release-dynamic:cipher.obj
 0001:00052060       _srtp_cipher_output        00453060 f   libsrtp-i386-win32-vc8-release-dynamic:cipher.obj
 0001:00052090       _srtp_cipher_set_aad       00453090 f   libsrtp-i386-win32-vc8-release-dynamic:cipher.obj
 0001:000520d0       _srtp_cipher_set_iv        004530d0 f   libsrtp-i386-win32-vc8-release-dynamic:cipher.obj
 0001:00052100       _srtp_auth_get_key_length  00453100 f   libsrtp-i386-win32-vc8-release-dynamic:auth.obj
 0001:00052110       _srtp_auth_get_prefix_length 00453110 f   libsrtp-i386-win32-vc8-release-dynamic:auth.obj
 0001:00052120       _srtp_key_limit_clone      00453120 f   libsrtp-i386-win32-vc8-release-dynamic:key.obj
 0001:00052140       _srtp_key_limit_set        00453140 f   libsrtp-i386-win32-vc8-release-dynamic:key.obj
 0001:00052180       _srtp_key_limit_update     00453180 f   libsrtp-i386-win32-vc8-release-dynamic:key.obj
 0001:000521e0       _srtp_crypto_kernel_alloc_auth 004531e0 f   libsrtp-i386-win32-vc8-release-dynamic:crypto_kernel.obj
 0001:00052230       _srtp_crypto_kernel_alloc_cipher 00453230 f   libsrtp-i386-win32-vc8-release-dynamic:crypto_kernel.obj
 0001:00052280       _srtp_ekt_alloc            00453280 f   libsrtp-i386-win32-vc8-release-dynamic:ekt.obj
 0001:00052290       _srtp_ekt_octets_after_base_tag 00453290 f   libsrtp-i386-win32-vc8-release-dynamic:ekt.obj
 0001:000522b0       _srtp_ekt_write_data       004532b0 f   libsrtp-i386-win32-vc8-release-dynamic:ekt.obj
 0001:00052400       _srtp_stream_init_from_ekt 00453400 f   libsrtp-i386-win32-vc8-release-dynamic:ekt.obj
 0001:000538c0       _srtp_aes_decrypt          004548c0 f   libsrtp-i386-win32-vc8-release-dynamic:aes.obj
 0001:000539f0       _srtp_aes_encrypt          004549f0 f   libsrtp-i386-win32-vc8-release-dynamic:aes.obj
 0001:00053b20       _srtp_aes_expand_decryption_key 00454b20 f   libsrtp-i386-win32-vc8-release-dynamic:aes.obj
 0001:00053e20       _srtp_aes_expand_encryption_key 00454e20 f   libsrtp-i386-win32-vc8-release-dynamic:aes.obj
 0001:00053f60       _srtp_sha1_core            00454f60 f   libsrtp-i386-win32-vc8-release-dynamic:sha1.obj
 0001:000544b0       _srtp_sha1_final           004554b0 f   libsrtp-i386-win32-vc8-release-dynamic:sha1.obj
 0001:00054af0       _srtp_sha1_init            00455af0 f   libsrtp-i386-win32-vc8-release-dynamic:sha1.obj
 0001:00054b30       _srtp_sha1_update          00455b30 f   libsrtp-i386-win32-vc8-release-dynamic:sha1.obj
 0001:00054c05       ___WSAFDIsSet@8            00455c05 f   ws2_32:WS2_32.dll
 0001:00054c0b       @__security_check_cookie@4 00455c0b f   MSVCRT:secchk.obj
 0001:00054c20       __aulldiv                  00455c20 f   MSVCRT:ulldiv.obj
 0001:00054ecf       _mainCRTStartup            00455ecf f   MSVCRT:exe_main.obj
 0001:00054ed9       ___raise_securityfailure   00455ed9 f   MSVCRT:gs_report.obj
 0001:00054f01       ___report_gsfailure        00455f01 f   MSVCRT:gs_report.obj
 0001:00054ffa       ___report_rangecheckfailure 00455ffa f   MSVCRT:gs_report.obj
 0001:00055006       ___report_securityfailure  00456006 f   MSVCRT:gs_report.obj
 0001:000550d4       ___isa_available_init      004560d4 f   MSVCRT:cpu_disp.obj
 0001:00055270       __ftoui3                   00456270 f   MSVCRT:ftol3.obj
 0001:0005527f       __ftoul3                   0045627f f   MSVCRT:ftol3.obj
 0001:0005528e       __ftol3                    0045628e f   MSVCRT:ftol3.obj
 0001:0005529b       __ftol3_NaN                0045629b f   MSVCRT:ftol3.obj
 0001:000552b3       __ftol3_work               004562b3 f   MSVCRT:ftol3.obj
 0001:00055339       __ftol3_common             00456339 f   MSVCRT:ftol3.obj
 0001:000553fb       __ftol3_arg_error          004563fb f   MSVCRT:ftol3.obj
 0001:0005540d       __ftol3_except             0045640d f   MSVCRT:ftol3.obj
 0001:00055451       __dtoui3                   00456451 f   MSVCRT:ftol3.obj
 0001:00055460       __dtoul3                   00456460 f   MSVCRT:ftol3.obj
 0001:0005546f       __dtol3                    0045646f f   MSVCRT:ftol3.obj
 0001:0005547c       __dtol3_NaN                0045647c f   MSVCRT:ftol3.obj
 0001:00055499       __dtol3_work               00456499 f   MSVCRT:ftol3.obj
 0001:00055580       __ultod3                   00456580 f   MSVCRT:ftol3.obj
 0001:000555c0       __ltod3                    004565c0 f   MSVCRT:ftol3.obj
 0001:000555f0       __aullrem                  004565f0 f   MSVCRT:ullrem.obj
 0001:00055670       ___vdecl_cos2              00456670 f   MSVCRT:svml_dcos2_dispatch.obj
 0001:00055680       __alldiv                   00456680 f   MSVCRT:lldiv.obj
 0001:00055730       __allmul                   00456730 f   MSVCRT:llmul.obj
 0001:00055770       __ftol2_sse                00456770 f   MSVCRT:ftol2.obj
 0001:00055779       __ftol2_pentium4           00456779 f   MSVCRT:ftol2.obj
 0001:0005578c       __ftol2_sse_excpt          0045678c f   MSVCRT:ftol2.obj
 0001:000557b0       __ftol2                    004567b0 f   MSVCRT:ftol2.obj
 0001:00055869       ___scrt_acquire_startup_lock 00456869 f   MSVCRT:utility.obj
 0001:0005589b       ___scrt_initialize_crt     0045689b f   MSVCRT:utility.obj
 0001:000558d4       ___scrt_initialize_onexit_tables 004568d4 f   MSVCRT:utility.obj
 0001:00055979       ___scrt_is_nonwritable_in_current_image 00456979 f   MSVCRT:utility.obj
 0001:00055a0d       ___scrt_release_startup_lock 00456a0d f   MSVCRT:utility.obj
 0001:00055a2a       ___scrt_uninitialize_crt   00456a2a f   MSVCRT:utility.obj
 0001:00055a52       __onexit                   00456a52 f   MSVCRT:utility.obj
 0001:00055a8d       _atexit                    00456a8d f   MSVCRT:utility.obj
 0001:00055aef       ___security_init_cookie    00456aef f   MSVCRT:gs_support.obj
 0001:00055b3a       __get_startup_argv_mode    00456b3a f   MSVCRT:argv_mode.obj
 0001:00055b3e       __get_startup_file_mode    00456b3e f   MSVCRT:file_mode.obj
 0001:00055b44       ?__scrt_initialize_type_info@@YAXXZ 00456b44 f   MSVCRT:tncleanup.obj
 0001:00055b50       ___acrt_initialize         00456b50 f   MSVCRT:ucrt_stubs.obj
 0001:00055b50       ___vcrt_initialize         00456b50 f   MSVCRT:ucrt_stubs.obj
 0001:00055b50       ___scrt_stub_for_acrt_uninitialize 00456b50 f   MSVCRT:ucrt_stubs.obj
 0001:00055b50       ___scrt_stub_for_acrt_initialize 00456b50 f   MSVCRT:ucrt_stubs.obj
 0001:00055b50       ___vcrt_uninitialize       00456b50 f   MSVCRT:ucrt_stubs.obj
 0001:00055b50       __should_initialize_environment 00456b50 f   MSVCRT:env_mode.obj
 0001:00055b50       ___acrt_uninitialize       00456b50 f   MSVCRT:ucrt_stubs.obj
 0001:00055b53       __initialize_default_precision 00456b53 f   MSVCRT:default_precision.obj
 0001:00055b74       __initialize_invalid_parameter_handler 00456b74 f   MSVCRT:invalid_parameter_handler.obj
 0001:00055b74       @_guard_check_icall_nop@4  00456b74 f   MSVCRT:guard_support.obj
 0001:00055b74       __initialize_denormal_control 00456b74 f   MSVCRT:denormal_control.obj
 0001:00055b75       ___scrt_initialize_default_local_stdio_options 00456b75 f   MSVCRT:default_local_stdio_options.obj
 0001:00055b92       ___scrt_is_user_matherr_present 00456b92 f   MSVCRT:matherr_detection.obj
 0001:00055b9e       ___scrt_get_dyn_tls_init_callback 00456b9e f   MSVCRT:dyn_tls_init.obj
 0001:00055ba4       ___scrt_get_dyn_tls_dtor_callback 00456ba4 f   MSVCRT:dyn_tls_dtor.obj
 0001:00055baa       ___scrt_fastfail           00456baa f   MSVCRT:utility_desktop.obj
 0001:00055cc4       ___scrt_initialize_mta     00456cc4 f   MSVCRT:utility_desktop.obj
 0001:00055cc9       ___scrt_is_managed_app     00456cc9 f   MSVCRT:utility_desktop.obj
 0001:00055d0c       ___scrt_set_unhandled_exception_filter 00456d0c f   MSVCRT:utility_desktop.obj
 0001:00055d18       ___scrt_unhandled_exception_filter@4 00456d18 f   MSVCRT:utility_desktop.obj
 0001:00055d59       __crt_debugger_hook        00456d59 f   MSVCRT:utility_desktop.obj
 0001:00055d61       __RTC_Initialize           00456d61 f   MSVCRT:initsect.obj
 0001:00055d8d       __RTC_Terminate            00456d8d f   MSVCRT:initsect.obj
 0001:00055dc0       __SEH_prolog4              00456dc0 f   MSVCRT:sehprolg4.obj
 0001:00055e06       __SEH_epilog4              00456e06 f   MSVCRT:sehprolg4.obj
 0001:00055e1b       __except_handler4          00456e1b f   MSVCRT:chandler4gs.obj
 0001:00055e40       ___sse2_cos2               00456e40 f   MSVCRT:svml_dcos2_sse2.obj
 0001:00055fe0       ___scrt_is_ucrt_dll_in_use 00456fe0 f   MSVCRT:ucrt_detection.obj
 0001:00055ff0       ___common_sin_reduction_LA 00456ff0 f   MSVCRT:svml_dtrig.obj
 0001:00056340       ___common_cos_reduction_LA 00457340 f   MSVCRT:svml_dtrig.obj
 0001:00056630       ___common_pi04_reduction_LA 00457630 f   MSVCRT:svml_dtrig.obj
 0001:00056940       _IsProcessorFeaturePresent@4 00457940 f   kernel32:KERNEL32.dll
 0001:00056946       _memcpy                    00457946 f   vcruntime:VCRUNTIME140.dll
 0001:0005694c       _memset                    0045794c f   vcruntime:VCRUNTIME140.dll
 0001:00056952       _memchr                    00457952 f   vcruntime:VCRUNTIME140.dll
 0001:00056958       __setjmp3                  00457958 f   vcruntime:VCRUNTIME140.dll
 0001:0005695e       _memmove                   0045795e f   vcruntime:VCRUNTIME140.dll
 0001:00056964       _strchr                    00457964 f   vcruntime:VCRUNTIME140.dll
 0001:0005696a       _longjmp                   0045796a f   vcruntime:VCRUNTIME140.dll
 0001:00056970       __except_handler4_common   00457970 f   vcruntime:VCRUNTIME140.dll
 0001:00056976       __libm_sse2_cos_precise    00457976 f   ucrt:api-ms-win-crt-math-l1-1-0.dll
 0001:0005697c       __CIfmod                   0045797c f   ucrt:api-ms-win-crt-math-l1-1-0.dll
 0001:00056982       __libm_sse2_exp_precise    00457982 f   ucrt:api-ms-win-crt-math-l1-1-0.dll
 0001:00056988       __libm_sse2_sqrt_precise   00457988 f   ucrt:api-ms-win-crt-math-l1-1-0.dll
 0001:0005698e       __libm_sse2_log_precise    0045798e f   ucrt:api-ms-win-crt-math-l1-1-0.dll
 0001:00056994       __libm_sse2_pow_precise    00457994 f   ucrt:api-ms-win-crt-math-l1-1-0.dll
 0001:0005699a       _floor                     0045799a f   ucrt:api-ms-win-crt-math-l1-1-0.dll
 0001:000569a0       __libm_sse2_atan_precise   004579a0 f   ucrt:api-ms-win-crt-math-l1-1-0.dll
 0001:000569a6       __libm_sse2_sin_precise    004579a6 f   ucrt:api-ms-win-crt-math-l1-1-0.dll
 0001:000569ac       _exit                      004579ac f   ucrt:api-ms-win-crt-runtime-l1-1-0.dll
 0001:000569b2       __seh_filter_exe           004579b2 f   ucrt:api-ms-win-crt-runtime-l1-1-0.dll
 0001:000569b8       __set_app_type             004579b8 f   ucrt:api-ms-win-crt-runtime-l1-1-0.dll
 0001:000569be       ___setusermatherr          004579be f   ucrt:api-ms-win-crt-math-l1-1-0.dll
 0001:000569c4       __configure_narrow_argv    004579c4 f   ucrt:api-ms-win-crt-runtime-l1-1-0.dll
 0001:000569ca       __initialize_narrow_environment 004579ca f   ucrt:api-ms-win-crt-runtime-l1-1-0.dll
 0001:000569d0       __get_initial_narrow_environment 004579d0 f   ucrt:api-ms-win-crt-runtime-l1-1-0.dll
 0001:000569d6       __initterm                 004579d6 f   ucrt:api-ms-win-crt-runtime-l1-1-0.dll
 0001:000569dc       __initterm_e               004579dc f   ucrt:api-ms-win-crt-runtime-l1-1-0.dll
 0001:000569e2       __exit                     004579e2 f   ucrt:api-ms-win-crt-runtime-l1-1-0.dll
 0001:000569e8       __set_fmode                004579e8 f   ucrt:api-ms-win-crt-stdio-l1-1-0.dll
 0001:000569ee       ___p___argc                004579ee f   ucrt:api-ms-win-crt-runtime-l1-1-0.dll
 0001:000569f4       ___p___argv                004579f4 f   ucrt:api-ms-win-crt-runtime-l1-1-0.dll
 0001:000569fa       __cexit                    004579fa f   ucrt:api-ms-win-crt-runtime-l1-1-0.dll
 0001:00056a00       __c_exit                   00457a00 f   ucrt:api-ms-win-crt-runtime-l1-1-0.dll
 0001:00056a06       __register_thread_local_exe_atexit_callback 00457a06 f   ucrt:api-ms-win-crt-runtime-l1-1-0.dll
 0001:00056a0c       __configthreadlocale       00457a0c f   ucrt:api-ms-win-crt-locale-l1-1-0.dll
 0001:00056a12       __set_new_mode             00457a12 f   ucrt:api-ms-win-crt-heap-l1-1-0.dll
 0001:00056a18       ___p__commode              00457a18 f   ucrt:api-ms-win-crt-stdio-l1-1-0.dll
 0001:00056a1e       __except1                  00457a1e f   ucrt:api-ms-win-crt-math-l1-1-0.dll
 0001:00056a24       __initialize_onexit_table  00457a24 f   ucrt:api-ms-win-crt-runtime-l1-1-0.dll
 0001:00056a2a       __register_onexit_function 00457a2a f   ucrt:api-ms-win-crt-runtime-l1-1-0.dll
 0001:00056a30       __crt_atexit               00457a30 f   ucrt:api-ms-win-crt-runtime-l1-1-0.dll
 0001:00056a36       __controlfp_s              00457a36 f   ucrt:api-ms-win-crt-runtime-l1-1-0.dll
 0001:00056a3c       _terminate                 00457a3c f   ucrt:api-ms-win-crt-runtime-l1-1-0.dll
 0002:00000000       __imp__QueryPerformanceCounter@4 00458000     kernel32:KERNEL32.dll
 0002:00000004       __imp__GetModuleHandleW@4  00458004     kernel32:KERNEL32.dll
 0002:00000008       __imp__IsDebuggerPresent@0 00458008     kernel32:KERNEL32.dll
 0002:0000000c       __imp__InitializeSListHead@4 0045800c     kernel32:KERNEL32.dll
 0002:00000010       __imp__GetSystemTimeAsFileTime@4 00458010     kernel32:KERNEL32.dll
 0002:00000014       __imp__IsProcessorFeaturePresent@4 00458014     kernel32:KERNEL32.dll
 0002:00000018       __imp__TerminateProcess@8  00458018     kernel32:KERNEL32.dll
 0002:0000001c       __imp__GetCurrentProcess@0 0045801c     kernel32:KERNEL32.dll
 0002:00000020       __imp__SetUnhandledExceptionFilter@4 00458020     kernel32:KERNEL32.dll
 0002:00000024       __imp__UnhandledExceptionFilter@4 00458024     kernel32:KERNEL32.dll
 0002:00000028       __imp__LoadLibraryA@4      00458028     kernel32:KERNEL32.dll
 0002:0000002c       __imp__GetProcAddress@8    0045802c     kernel32:KERNEL32.dll
 0002:00000030       __imp__FreeLibrary@4       00458030     kernel32:KERNEL32.dll
 0002:00000034       __imp__FormatMessageA@28   00458034     kernel32:KERNEL32.dll
 0002:00000038       __imp__QueryPerformanceFrequency@4 00458038     kernel32:KERNEL32.dll
 0002:0000003c       __imp__SystemTimeToFileTime@8 0045803c     kernel32:KERNEL32.dll
 0002:00000040       __imp__FileTimeToSystemTime@8 00458040     kernel32:KERNEL32.dll
 0002:00000044       __imp__GetLocalTime@4      00458044     kernel32:KERNEL32.dll
 0002:00000048       __imp__SetConsoleTextAttribute@8 00458048     kernel32:KERNEL32.dll
 0002:0000004c       __imp__CreateSemaphoreA@16 0045804c     kernel32:KERNEL32.dll
 0002:00000050       __imp__TlsFree@4           00458050     kernel32:KERNEL32.dll
 0002:00000054       __imp__TlsSetValue@8       00458054     kernel32:KERNEL32.dll
 0002:00000058       __imp__TlsGetValue@4       00458058     kernel32:KERNEL32.dll
 0002:0000005c       __imp__TlsAlloc@0          0045805c     kernel32:KERNEL32.dll
 0002:00000060       __imp__GetCurrentThreadId@0 00458060     kernel32:KERNEL32.dll
 0002:00000064       __imp__CreateThread@24     00458064     kernel32:KERNEL32.dll
 0002:00000068       __imp__GetCurrentProcessId@0 00458068     kernel32:KERNEL32.dll
 0002:0000006c       __imp__Sleep@4             0045806c     kernel32:KERNEL32.dll
 0002:00000070       __imp__WaitForSingleObject@8 00458070     kernel32:KERNEL32.dll
 0002:00000074       __imp__ReleaseSemaphore@12 00458074     kernel32:KERNEL32.dll
 0002:00000078       __imp__DeleteCriticalSection@4 00458078     kernel32:KERNEL32.dll
 0002:0000007c       __imp__TryEnterCriticalSection@4 0045807c     kernel32:KERNEL32.dll
 0002:00000080       __imp__LeaveCriticalSection@4 00458080     kernel32:KERNEL32.dll
 0002:00000084       __imp__EnterCriticalSection@4 00458084     kernel32:KERNEL32.dll
 0002:00000088       __imp__InitializeCriticalSection@4 00458088     kernel32:KERNEL32.dll
 0002:0000008c       __imp__GetLastError@0      0045808c     kernel32:KERNEL32.dll
 0002:00000090       __imp__GetStdHandle@4      00458090     kernel32:KERNEL32.dll
 0002:00000094       __imp__WaitForMultipleObjects@16 00458094     kernel32:KERNEL32.dll
 0002:00000098       __imp__SetThreadPriority@8 00458098     kernel32:KERNEL32.dll
 0002:0000009c       __imp__GetCurrentThread@0  0045809c     kernel32:KERNEL32.dll
 0002:000000a0       __imp__CreateEventA@16     004580a0     kernel32:KERNEL32.dll
 0002:000000a4       __imp__SetEvent@4          004580a4     kernel32:KERNEL32.dll
 0002:000000a8       __imp__CloseHandle@4       004580a8     kernel32:KERNEL32.dll
 0002:000000ac       \177KERNEL32_NULL_THUNK_DATA 004580ac     kernel32:KERNEL32.dll
 0002:000000b0       __imp__longjmp             004580b0     vcruntime:VCRUNTIME140.dll
 0002:000000b4       __imp__memcpy              004580b4     vcruntime:VCRUNTIME140.dll
 0002:000000b8       __imp__memset              004580b8     vcruntime:VCRUNTIME140.dll
 0002:000000bc       __imp__memchr              004580bc     vcruntime:VCRUNTIME140.dll
 0002:000000c0       __imp___setjmp3            004580c0     vcruntime:VCRUNTIME140.dll
 0002:000000c4       __imp__memmove             004580c4     vcruntime:VCRUNTIME140.dll
 0002:000000c8       __imp___except_handler4_common 004580c8     vcruntime:VCRUNTIME140.dll
 0002:000000cc       __imp__strchr              004580cc     vcruntime:VCRUNTIME140.dll
 0002:000000d0       \177VCRUNTIME140_NULL_THUNK_DATA 004580d0     vcruntime:VCRUNTIME140.dll
 0002:000000d4       __imp__waveOutReset@4      004580d4     winmm:WINMM.dll
 0002:000000d8       __imp__waveOutRestart@4    004580d8     winmm:WINMM.dll
 0002:000000dc       __imp__waveOutPause@4      004580dc     winmm:WINMM.dll
 0002:000000e0       __imp__waveOutWrite@12     004580e0     winmm:WINMM.dll
 0002:000000e4       __imp__waveOutUnprepareHeader@12 004580e4     winmm:WINMM.dll
 0002:000000e8       __imp__waveOutPrepareHeader@12 004580e8     winmm:WINMM.dll
 0002:000000ec       __imp__waveInStop@4        004580ec     winmm:WINMM.dll
 0002:000000f0       __imp__waveOutOpen@24      004580f0     winmm:WINMM.dll
 0002:000000f4       __imp__waveOutSetVolume@8  004580f4     winmm:WINMM.dll
 0002:000000f8       __imp__waveOutGetVolume@8  004580f8     winmm:WINMM.dll
 0002:000000fc       __imp__waveOutGetDevCapsA@12 004580fc     winmm:WINMM.dll
 0002:00000100       __imp__waveOutGetNumDevs@0 00458100     winmm:WINMM.dll
 0002:00000104       __imp__waveInGetErrorTextA@12 00458104     winmm:WINMM.dll
 0002:00000108       __imp__waveOutGetErrorTextA@12 00458108     winmm:WINMM.dll
 0002:0000010c       __imp__waveInReset@4       0045810c     winmm:WINMM.dll
 0002:00000110       __imp__waveInStart@4       00458110     winmm:WINMM.dll
 0002:00000114       __imp__waveInAddBuffer@12  00458114     winmm:WINMM.dll
 0002:00000118       __imp__waveInUnprepareHeader@12 00458118     winmm:WINMM.dll
 0002:0000011c       __imp__waveInPrepareHeader@12 0045811c     winmm:WINMM.dll
 0002:00000120       __imp__waveInClose@4       00458120     winmm:WINMM.dll
 0002:00000124       __imp__waveInOpen@24       00458124     winmm:WINMM.dll
 0002:00000128       __imp__waveInGetDevCapsA@12 00458128     winmm:WINMM.dll
 0002:0000012c       __imp__waveOutClose@4      0045812c     winmm:WINMM.dll
 0002:00000130       __imp__waveInGetNumDevs@0  00458130     winmm:WINMM.dll
 0002:00000134       \177WINMM_NULL_THUNK_DATA  00458134     winmm:WINMM.dll
 0002:00000138       __imp__setsockopt@20       00458138     ws2_32:WS2_32.dll
 0002:0000013c       __imp__sendto@24           0045813c     ws2_32:WS2_32.dll
 0002:00000140       __imp__send@16             00458140     ws2_32:WS2_32.dll
 0002:00000144       __imp__recvfrom@24         00458144     ws2_32:WS2_32.dll
 0002:00000148       __imp__recv@16             00458148     ws2_32:WS2_32.dll
 0002:0000014c       __imp__ntohs@4             0045814c     ws2_32:WS2_32.dll
 0002:00000150       __imp__ntohl@4             00458150     ws2_32:WS2_32.dll
 0002:00000154       __imp__WSASocketA@24       00458154     ws2_32:WS2_32.dll
 0002:00000158       __imp__inet_addr@4         00458158     ws2_32:WS2_32.dll
 0002:0000015c       __imp__htons@4             0045815c     ws2_32:WS2_32.dll
 0002:00000160       __imp__htonl@4             00458160     ws2_32:WS2_32.dll
 0002:00000164       __imp__getsockopt@20       00458164     ws2_32:WS2_32.dll
 0002:00000168       __imp__getsockname@12      00458168     ws2_32:WS2_32.dll
 0002:0000016c       __imp__connect@12          0045816c     ws2_32:WS2_32.dll
 0002:00000170       __imp__closesocket@4       00458170     ws2_32:WS2_32.dll
 0002:00000174       __imp__bind@12             00458174     ws2_32:WS2_32.dll
 0002:00000178       __imp__accept@12           00458178     ws2_32:WS2_32.dll
 0002:0000017c       __imp__WSAGetLastError@0   0045817c     ws2_32:WS2_32.dll
 0002:00000180       __imp__WSAStartup@8        00458180     ws2_32:WS2_32.dll
 0002:00000184       __imp__WSAAddressToStringA@20 00458184     ws2_32:WS2_32.dll
 0002:00000188       __imp__WSAStringToAddressA@20 00458188     ws2_32:WS2_32.dll
 0002:0000018c       __imp__ioctlsocket@12      0045818c     ws2_32:WS2_32.dll
 0002:00000190       __imp__gethostbyname@4     00458190     ws2_32:WS2_32.dll
 0002:00000194       __imp____WSAFDIsSet@8      00458194     ws2_32:WS2_32.dll
 0002:00000198       __imp__select@20           00458198     ws2_32:WS2_32.dll
 0002:0000019c       __imp__gethostname@8       0045819c     ws2_32:WS2_32.dll
 0002:000001a0       __imp__WSAIoctl@36         004581a0     ws2_32:WS2_32.dll
 0002:000001a4       \177WS2_32_NULL_THUNK_DATA 004581a4     ws2_32:WS2_32.dll
 0002:000001a8       __imp__strtol              004581a8     ucrt:api-ms-win-crt-convert-l1-1-0.dll
 0002:000001ac       \177api-ms-win-crt-convert-l1-1-0_NULL_THUNK_DATA 004581ac     ucrt:api-ms-win-crt-convert-l1-1-0.dll
 0002:000001b0       __imp__malloc              004581b0     ucrt:api-ms-win-crt-heap-l1-1-0.dll
 0002:000001b4       __imp___set_new_mode       004581b4     ucrt:api-ms-win-crt-heap-l1-1-0.dll
 0002:000001b8       __imp__free                004581b8     ucrt:api-ms-win-crt-heap-l1-1-0.dll
 0002:000001bc       __imp__calloc              004581bc     ucrt:api-ms-win-crt-heap-l1-1-0.dll
 0002:000001c0       \177api-ms-win-crt-heap-l1-1-0_NULL_THUNK_DATA 004581c0     ucrt:api-ms-win-crt-heap-l1-1-0.dll
 0002:000001c4       __imp___configthreadlocale 004581c4     ucrt:api-ms-win-crt-locale-l1-1-0.dll
 0002:000001c8       \177api-ms-win-crt-locale-l1-1-0_NULL_THUNK_DATA 004581c8     ucrt:api-ms-win-crt-locale-l1-1-0.dll
 0002:000001cc       __imp____setusermatherr    004581cc     ucrt:api-ms-win-crt-math-l1-1-0.dll
 0002:000001d0       __imp___libm_sse2_atan_precise 004581d0     ucrt:api-ms-win-crt-math-l1-1-0.dll
 0002:000001d4       __imp___libm_sse2_cos_precise 004581d4     ucrt:api-ms-win-crt-math-l1-1-0.dll
 0002:000001d8       __imp__floor               004581d8     ucrt:api-ms-win-crt-math-l1-1-0.dll
 0002:000001dc       __imp___libm_sse2_pow_precise 004581dc     ucrt:api-ms-win-crt-math-l1-1-0.dll
 0002:000001e0       __imp___libm_sse2_log_precise 004581e0     ucrt:api-ms-win-crt-math-l1-1-0.dll
 0002:000001e4       __imp___libm_sse2_sqrt_precise 004581e4     ucrt:api-ms-win-crt-math-l1-1-0.dll
 0002:000001e8       __imp___libm_sse2_exp_precise 004581e8     ucrt:api-ms-win-crt-math-l1-1-0.dll
 0002:000001ec       __imp___except1            004581ec     ucrt:api-ms-win-crt-math-l1-1-0.dll
 0002:000001f0       __imp___CIfmod             004581f0     ucrt:api-ms-win-crt-math-l1-1-0.dll
 0002:000001f4       __imp___libm_sse2_sin_precise 004581f4     ucrt:api-ms-win-crt-math-l1-1-0.dll
 0002:000001f8       \177api-ms-win-crt-math-l1-1-0_NULL_THUNK_DATA 004581f8     ucrt:api-ms-win-crt-math-l1-1-0.dll
 0002:000001fc       __imp___register_onexit_function 004581fc     ucrt:api-ms-win-crt-runtime-l1-1-0.dll
 0002:00000200       __imp___crt_atexit         00458200     ucrt:api-ms-win-crt-runtime-l1-1-0.dll
 0002:00000204       __imp___controlfp_s        00458204     ucrt:api-ms-win-crt-runtime-l1-1-0.dll
 0002:00000208       __imp__terminate           00458208     ucrt:api-ms-win-crt-runtime-l1-1-0.dll
 0002:0000020c       __imp___initialize_onexit_table 0045820c     ucrt:api-ms-win-crt-runtime-l1-1-0.dll
 0002:00000210       __imp___register_thread_local_exe_atexit_callback 00458210     ucrt:api-ms-win-crt-runtime-l1-1-0.dll
 0002:00000214       __imp___c_exit             00458214     ucrt:api-ms-win-crt-runtime-l1-1-0.dll
 0002:00000218       __imp__exit                00458218     ucrt:api-ms-win-crt-runtime-l1-1-0.dll
 0002:0000021c       __imp___seh_filter_exe     0045821c     ucrt:api-ms-win-crt-runtime-l1-1-0.dll
 0002:00000220       __imp___set_app_type       00458220     ucrt:api-ms-win-crt-runtime-l1-1-0.dll
 0002:00000224       __imp___initterm           00458224     ucrt:api-ms-win-crt-runtime-l1-1-0.dll
 0002:00000228       __imp___configure_narrow_argv 00458228     ucrt:api-ms-win-crt-runtime-l1-1-0.dll
 0002:0000022c       __imp___initialize_narrow_environment 0045822c     ucrt:api-ms-win-crt-runtime-l1-1-0.dll
 0002:00000230       __imp___get_initial_narrow_environment 00458230     ucrt:api-ms-win-crt-runtime-l1-1-0.dll
 0002:00000234       __imp___cexit              00458234     ucrt:api-ms-win-crt-runtime-l1-1-0.dll
 0002:00000238       __imp___initterm_e         00458238     ucrt:api-ms-win-crt-runtime-l1-1-0.dll
 0002:0000023c       __imp___exit               0045823c     ucrt:api-ms-win-crt-runtime-l1-1-0.dll
 0002:00000240       __imp____p___argv          00458240     ucrt:api-ms-win-crt-runtime-l1-1-0.dll
 0002:00000244       __imp____p___argc          00458244     ucrt:api-ms-win-crt-runtime-l1-1-0.dll
 0002:00000248       \177api-ms-win-crt-runtime-l1-1-0_NULL_THUNK_DATA 00458248     ucrt:api-ms-win-crt-runtime-l1-1-0.dll
 0002:0000024c       __imp___set_fmode          0045824c     ucrt:api-ms-win-crt-stdio-l1-1-0.dll
 0002:00000250       __imp____stdio_common_vsprintf 00458250     ucrt:api-ms-win-crt-stdio-l1-1-0.dll
 0002:00000254       __imp____acrt_iob_func     00458254     ucrt:api-ms-win-crt-stdio-l1-1-0.dll
 0002:00000258       __imp____stdio_common_vfprintf 00458258     ucrt:api-ms-win-crt-stdio-l1-1-0.dll
 0002:0000025c       __imp____p__commode        0045825c     ucrt:api-ms-win-crt-stdio-l1-1-0.dll
 0002:00000260       \177api-ms-win-crt-stdio-l1-1-0_NULL_THUNK_DATA 00458260     ucrt:api-ms-win-crt-stdio-l1-1-0.dll
 0002:00000264       __imp__isdigit             00458264     ucrt:api-ms-win-crt-string-l1-1-0.dll
 0002:00000268       __imp__strncpy             00458268     ucrt:api-ms-win-crt-string-l1-1-0.dll
 0002:0000026c       __imp__isspace             0045826c     ucrt:api-ms-win-crt-string-l1-1-0.dll
 0002:00000270       __imp__tolower             00458270     ucrt:api-ms-win-crt-string-l1-1-0.dll
 0002:00000274       __imp___strnicmp           00458274     ucrt:api-ms-win-crt-string-l1-1-0.dll
 0002:00000278       __imp__isxdigit            00458278     ucrt:api-ms-win-crt-string-l1-1-0.dll
 0002:0000027c       __imp__strncmp             0045827c     ucrt:api-ms-win-crt-string-l1-1-0.dll
 0002:00000280       __imp___stricmp            00458280     ucrt:api-ms-win-crt-string-l1-1-0.dll
 0002:00000284       __imp__toupper             00458284     ucrt:api-ms-win-crt-string-l1-1-0.dll
 0002:00000288       \177api-ms-win-crt-string-l1-1-0_NULL_THUNK_DATA 00458288     ucrt:api-ms-win-crt-string-l1-1-0.dll
 0002:0000028c       __imp__rand                0045828c     ucrt:api-ms-win-crt-utility-l1-1-0.dll
 0002:00000290       \177api-ms-win-crt-utility-l1-1-0_NULL_THUNK_DATA 00458290     ucrt:api-ms-win-crt-utility-l1-1-0.dll
 0002:00000294       __imp__CoCreateGuid@4      00458294     ole32:ole32.dll
 0002:00000298       \177ole32_NULL_THUNK_DATA  00458298     ole32:ole32.dll
 0002:0000029c       ___guard_check_icall_fptr  0045829c     MSVCRT:guard_support.obj
 0002:000002a0       ___xc_a                    004582a0     MSVCRT:initializers.obj
 0002:000002a8       ___xc_z                    004582a8     MSVCRT:initializers.obj
 0002:000002ac       ___xi_a                    004582ac     MSVCRT:initializers.obj
 0002:000002b8       ___xi_z                    004582b8     MSVCRT:initializers.obj
 0002:000002bc       ___xp_a                    004582bc     MSVCRT:initializers.obj
 0002:000002c0       ___xp_z                    004582c0     MSVCRT:initializers.obj
 0002:000002c4       ___xt_a                    004582c4     MSVCRT:initializers.obj
 0002:000002c8       ___xt_z                    004582c8     MSVCRT:initializers.obj
 0002:000002d0       __xmm@00000000000000620000000000000001 004582d0     simpleua.obj
 0002:000002e0       ??_C@_04HIBGFPH@NULL@      004582e0     pjsip-ua-i386-win32-vc8-release-dynamic:sip_inv.obj
 0002:000002e8       ??_C@_07BJAKIKLF@CALLING@  004582e8     pjsip-ua-i386-win32-vc8-release-dynamic:sip_inv.obj
 0002:000002f0       ??_C@_08FPHOKLMI@INCOMING@ 004582f0     pjsip-ua-i386-win32-vc8-release-dynamic:sip_inv.obj
 0002:000002fc       ??_C@_05HMGOBOK@EARLY@     004582fc     pjsip-ua-i386-win32-vc8-release-dynamic:sip_inv.obj
 0002:00000304       ??_C@_0L@OPGIEADC@CONNECTING@ 00458304     pjsip-ua-i386-win32-vc8-release-dynamic:sip_inv.obj
 0002:00000310       ??_C@_09JCKBPFKF@CONFIRMED@ 00458310     pjsip-ua-i386-win32-vc8-release-dynamic:sip_inv.obj
 0002:0000031c       ??_C@_0L@GKFIMDLD@DISCONNCTD@ 0045831c     pjsip-ua-i386-win32-vc8-release-dynamic:sip_inv.obj
 0002:00000328       ??_C@_0L@ONMJOFAN@TERMINATED@ 00458328     pjsip-ua-i386-win32-vc8-release-dynamic:sip_inv.obj
 0002:00000340       ??_C@_06HHJABCJL@UPDATE@   00458340     pjsip-ua-i386-win32-vc8-release-dynamic:sip_inv.obj
 0002:00000348       ??_C@_0L@BLDGPIGK@mod?9invite@ 00458348     pjsip-ua-i386-win32-vc8-release-dynamic:sip_inv.obj
 0002:00000354       ??_C@_06DBKGGLMH@INVITE@   00458354     pjsip-ua-i386-win32-vc8-release-dynamic:sip_inv.obj
 0002:0000035c       ??_C@_03JMECLKOM@ACK@      0045835c     pjsip-ua-i386-win32-vc8-release-dynamic:sip_inv.obj
 0002:00000360       ??_C@_03BMFBOCK@BYE@       00458360     pjsip-ua-i386-win32-vc8-release-dynamic:sip_inv.obj
 0002:00000364       ??_C@_06JHILMIHF@CANCEL@   00458364     pjsip-ua-i386-win32-vc8-release-dynamic:sip_inv.obj
 0002:0000036c       ??_C@_0BA@MJOOLNNM@application?1sdp@ 0045836c     pjsip-ua-i386-win32-vc8-release-dynamic:sip_inv.obj
 0002:0000037c       ??_C@_0BE@OEKCNCCE@Sending?5pending?5BYE@ 0045837c     pjsip-ua-i386-win32-vc8-release-dynamic:sip_inv.obj
 0002:00000390       ??_C@_0BL@KNCDOFEH@Failed?5sending?5pending?5BYE@ 00458390     pjsip-ua-i386-win32-vc8-release-dynamic:sip_inv.obj
 0002:000003ac       ??_C@_0BJ@DIELNPDA@Received?5?$CFs?0?5sending?5ACK@ 004583ac     pjsip-ua-i386-win32-vc8-release-dynamic:sip_inv.obj
 0002:000003c8       ??_C@_0CM@GCDEGPO@Received?5?$CFs?0?5notifying?5applicat@ 004583c8     pjsip-ua-i386-win32-vc8-release-dynamic:sip_inv.obj
 0002:000003f4       ??_C@_09LDKIKNFD@sip_inv?4c@ 004583f4     pjsip-ua-i386-win32-vc8-release-dynamic:sip_inv.obj
 0002:00000400       ??_C@_04JBGCGIBB@sips@     00458400     pjsip-ua-i386-win32-vc8-release-dynamic:sip_inv.obj
 0002:00000408       ??_C@_03MPAIKGMI@sip@      00458408     pjsip-ua-i386-win32-vc8-release-dynamic:sip_inv.obj
 0002:0000040c       ??_C@_03HPDJAPFJ@tls@      0045840c     pjsip-ua-i386-win32-vc8-release-dynamic:sip_inv.obj
 0002:00000410       ??_C@_0O@BCIKELEF@SIPS?5Required@ 00458410     pjsip-ua-i386-win32-vc8-release-dynamic:sip_inv.obj
 0002:00000420       ??_C@_05MMFAAGKE@early@    00458420     pjsip-ua-i386-win32-vc8-release-dynamic:sip_inv.obj
 0002:00000428       ??_C@_05FPBGKCKL@final@    00458428     pjsip-ua-i386-win32-vc8-release-dynamic:sip_inv.obj
 0002:00000430       ??_C@_0FN@JNKNAMO@Received?5?$CFs?5response?5after?5SDP?5@ 00458430     pjsip-ua-i386-win32-vc8-release-dynamic:sip_inv.obj
 0002:00000490       ??_C@_0EA@DMMNFDGN@Error?5updating?5local?5offer?5for?5@ 00458490     pjsip-ua-i386-win32-vc8-release-dynamic:sip_inv.obj
 0002:000004d0       ??_C@_0CO@JFCENHLK@SDP?5negotiation?5done?0?5message?5b@ 004584d0     pjsip-ua-i386-win32-vc8-release-dynamic:sip_inv.obj
 0002:00000500       ??_C@_0BI@BGFFELKE@Error?5parsing?5SDP?5in?5?$CFs@ 00458500     pjsip-ua-i386-win32-vc8-release-dynamic:sip_inv.obj
 0002:00000518       ??_C@_0BE@EPLINLEA@Got?5SDP?5offer?5in?5?$CFs@ 00458518     pjsip-ua-i386-win32-vc8-release-dynamic:sip_inv.obj
 0002:0000052c       ??_C@_0CA@NKIPLGEL@Error?5processing?5SDP?5offer?5in?5?$CF@ 0045852c     pjsip-ua-i386-win32-vc8-release-dynamic:sip_inv.obj
 0002:00000550       ??_C@_0EG@MIAPKNNJ@Ignoring?5on_rx_offer?$CI?$CJ?5status?5b@ 00458550     pjsip-ua-i386-win32-vc8-release-dynamic:sip_inv.obj
 0002:00000598       ??_C@_0BF@NJIJAPGF@Got?5SDP?5answer?5in?5?$CFs@ 00458598     pjsip-ua-i386-win32-vc8-release-dynamic:sip_inv.obj
 0002:000005b0       ??_C@_0CC@MICCHKNP@Error?5processing?5SDP?5answer?5in?5@ 004585b0     pjsip-ua-i386-win32-vc8-release-dynamic:sip_inv.obj
 0002:000005d4       ??_C@_0CK@CNMHAOHC@Ignored?5SDP?5in?5?$CFs?3?5negotiator?5s@ 004585d4     pjsip-ua-i386-win32-vc8-release-dynamic:sip_inv.obj
 0002:00000600       ??_C@_0DG@BKONCIHK@Ignored?5message?5body?5in?5?$CFs?5as?5n@ 00458600     pjsip-ua-i386-win32-vc8-release-dynamic:sip_inv.obj
 0002:00000638       ??_C@_0FL@EKGBDOF@Secure?5dialog?5requires?5SIPS?5sch@ 00458638     pjsip-ua-i386-win32-vc8-release-dynamic:sip_inv.obj
 0002:00000698       ??_C@_0FH@KHNGIOMA@Secure?5dialog?5requires?5SIPS?5sch@ 00458698     pjsip-ua-i386-win32-vc8-release-dynamic:sip_inv.obj
 0002:000006f0       ??_C@_0CH@BBKLGGDE@Another?5INVITE?5transaction?5in?5p@ 004586f0     pjsip-ua-i386-win32-vc8-release-dynamic:sip_inv.obj
 0002:00000718       ??_C@_0BM@KEOGGKDD@on_rx_reinvite?$CI?$CJ?5returns?5?$CFd@ 00458718     pjsip-ua-i386-win32-vc8-release-dynamic:sip_inv.obj
 0002:00000734       ??_C@_0BH@GJLJMANH@SDP?5negotiation?5failed@ 00458734     pjsip-ua-i386-win32-vc8-release-dynamic:sip_inv.obj
 0002:0000074c       ??_C@_0DA@CNKPLCJK@SDP?5offer?1answer?5incomplete?0?5en@ 0045874c     pjsip-ua-i386-win32-vc8-release-dynamic:sip_inv.obj
 0002:0000077c       ??_C@_0BF@HOOGIPCC@Normal?5call?5clearing@ 0045877c     pjsip-ua-i386-win32-vc8-release-dynamic:sip_inv.obj
 0002:00000794       ??_C@_03MHNADFJL@sdp@      00458794     pjsip-ua-i386-win32-vc8-release-dynamic:sip_inv.obj
 0002:00000798       ??_C@_0M@MBDKLJIJ@application@ 00458798     pjsip-ua-i386-win32-vc8-release-dynamic:sip_inv.obj
 0002:000007a4       ??_C@_09FEKOPBOI@multipart@ 004587a4     pjsip-ua-i386-win32-vc8-release-dynamic:sip_inv.obj
 0002:000007b0       ??_C@_05IPHDHIPP@mixed@    004587b0     pjsip-ua-i386-win32-vc8-release-dynamic:sip_inv.obj
 0002:000007b8       ??_C@_0M@HAJLPECN@alternative@ 004587b8     pjsip-ua-i386-win32-vc8-release-dynamic:sip_inv.obj
 0002:000007c4       ??_C@_02HHFHKOHM@?$DP?$DP@ 004587c4     pjsip-ua-i386-win32-vc8-release-dynamic:sip_inv.obj
 0002:000007c8       ??_C@_05BICJMLFP@inv?$CFp@ 004587c8     pjsip-ua-i386-win32-vc8-release-dynamic:sip_inv.obj
 0002:000007d0       ??_C@_0CJ@HLKGBANI@UAC?5invite?5session?5created?5for?5@ 004587d0     pjsip-ua-i386-win32-vc8-release-dynamic:sip_inv.obj
 0002:000007fc       ??_C@_0CC@MAIPFFMN@Error?5parsing?1validating?5SDP?5bo@ 004587fc     pjsip-ua-i386-win32-vc8-release-dynamic:sip_inv.obj
 0002:00000820       ??_C@_0BL@BJMNFGKN@Bad?1missing?5Contact?5header@ 00458820     pjsip-ua-i386-win32-vc8-release-dynamic:sip_inv.obj
 0002:0000083c       ??_C@_06IPLOHEDL@100rel@   0045883c     pjsip-ua-i386-win32-vc8-release-dynamic:sip_inv.obj
 0002:00000844       ??_C@_05NAPFDJNG@timer@    00458844     pjsip-ua-i386-win32-vc8-release-dynamic:sip_inv.obj
 0002:0000084c       ??_C@_03MKIOHCPB@ice@      0045884c     pjsip-ua-i386-win32-vc8-release-dynamic:sip_inv.obj
 0002:00000850       ??_C@_08LDJJEDJ@replaces@  00458850     pjsip-ua-i386-win32-vc8-release-dynamic:sip_inv.obj
 0002:0000085c       ??_C@_0CJ@EIBALPMO@UAS?5invite?5session?5created?5for?5@ 0045885c     pjsip-ua-i386-win32-vc8-release-dynamic:sip_inv.obj
 0002:00000888       ??_C@_05ECJJFAAP@PRACK@    00458888     pjsip-ua-i386-win32-vc8-release-dynamic:sip_inv.obj
 0002:00000890       ??_C@_0CA@LPJKLBPC@SDP?5negotiation?5done?0?5status?$DN?$CFd@ 00458890     pjsip-ua-i386-win32-vc8-release-dynamic:sip_inv.obj
 0002:000008b0       ??_C@_0BC@DKICHHDF@Initial?5answer?5?$CFs@ 004588b0     pjsip-ua-i386-win32-vc8-release-dynamic:sip_inv.obj
 0002:000008c4       ??_C@_0DO@HEALFLEC@Delaying?5CANCEL?5since?5no?5provis@ 004588c4     pjsip-ua-i386-win32-vc8-release-dynamic:sip_inv.obj
 0002:00000904       ??_C@_0BI@DIMJOHLK@?$DM?9error?3?5uri?5too?5long?9?$DO@ 00458904     pjsip-ua-i386-win32-vc8-release-dynamic:sip_inv.obj
 0002:0000091c       ??_C@_07PMMFKIFM@Contact@  0045891c     pjsip-ua-i386-win32-vc8-release-dynamic:sip_inv.obj
 0002:00000924       ??_C@_0CK@INPGLEAA@Invalid?5SDP?5offer?1answer?5state?5@ 00458924     pjsip-ua-i386-win32-vc8-release-dynamic:sip_inv.obj
 0002:00000950       ??_C@_0L@BPIOADDE@Sending?5?$CFs@ 00458950     pjsip-ua-i386-win32-vc8-release-dynamic:sip_inv.obj
 0002:0000095c       ??_C@_0CL@IIMHLPDD@Delaying?5BYE?5request?5until?5ACK?5@ 0045895c     pjsip-ua-i386-win32-vc8-release-dynamic:sip_inv.obj
 0002:00000990       __xmm@00000000000000000000000000000006 00458990     pjsip-ua-i386-win32-vc8-release-dynamic:sip_inv.obj
 0002:000009b8       _pjsip_prack_method        004589b8     pjsip-ua-i386-win32-vc8-release-dynamic:sip_100rel.obj
 0002:000009c4       ??_C@_04NKIOHFHJ@RSeq@     004589c4     pjsip-ua-i386-win32-vc8-release-dynamic:sip_100rel.obj
 0002:000009cc       ??_C@_04JEDOGMAE@RAck@     004589cc     pjsip-ua-i386-win32-vc8-release-dynamic:sip_100rel.obj
 0002:000009d4       ??_C@_0L@KBAFDJEE@mod?9100rel@ 004589d4     pjsip-ua-i386-win32-vc8-release-dynamic:sip_100rel.obj
 0002:000009e0       ??_C@_0BH@ONPFCEOK@100rel?5module?5attached@ 004589e0     pjsip-ua-i386-win32-vc8-release-dynamic:sip_100rel.obj
 0002:000009f8       ??_C@_0CN@FOEJAHIE@Ignoring?5100rel?5response?5with?5n@ 004589f8     pjsip-ua-i386-win32-vc8-release-dynamic:sip_100rel.obj
 0002:00000a28       ??_C@_0EC@BLMHGGJH@Ignoring?5100rel?5response?5becaus@ 00458a28     pjsip-ua-i386-win32-vc8-release-dynamic:sip_100rel.obj
 0002:00000a6c       ??_C@_0DL@FCLLNCLO@Ignoring?5100rel?5response?5with?5n@ 00458a6c     pjsip-ua-i386-win32-vc8-release-dynamic:sip_100rel.obj
 0002:00000aa8       ??_C@_0L@IBEMKGAL@?$CFu?5?$CFu?5?$CF?4?$CKs@ 00458aa8     pjsip-ua-i386-win32-vc8-release-dynamic:sip_100rel.obj
 0002:00000ab4       ??_C@_0BB@IEDINMFC@Unexpected?5PRACK@ 00458ab4     pjsip-ua-i386-win32-vc8-release-dynamic:sip_100rel.obj
 0002:00000ac8       ??_C@_0CE@PLNFEICH@PRACK?5ignored?5?9?5no?5pending?5resp@ 00458ac8     pjsip-ua-i386-win32-vc8-release-dynamic:sip_100rel.obj
 0002:00000aec       ??_C@_0P@BPOGJPKH@No?5RAck?5header@ 00458aec     pjsip-ua-i386-win32-vc8-release-dynamic:sip_100rel.obj
 0002:00000afc       ??_C@_0CM@DOMMHELC@Rx?5PRACK?5with?5no?5matching?5relia@ 00458afc     pjsip-ua-i386-win32-vc8-release-dynamic:sip_100rel.obj
 0002:00000b28       ??_C@_0BM@HPALGIGM@Reliable?5response?5timed?5out@ 00458b28     pjsip-ua-i386-win32-vc8-release-dynamic:sip_100rel.obj
 0002:00000b44       ??_C@_0CG@JIMKEDOL@2xx?5response?5will?5be?5sent?5after@ 00458b44     pjsip-ua-i386-win32-vc8-release-dynamic:sip_100rel.obj
 0002:00000b6c       ??_C@_0CE@BEBCMEH@No?5SDP?5sent?5so?5far?0?5sending?52xx@ 00458b6c     pjsip-ua-i386-win32-vc8-release-dynamic:sip_100rel.obj
 0002:00000b90       ??_C@_02GMHACPFF@?$CFu@    00458b90     pjsip-ua-i386-win32-vc8-release-dynamic:sip_100rel.obj
 0002:00000b94       ??_C@_0CL@JLPOAJFO@Reliable?5?$CFd?5response?5enqueued?5?$CI@ 00458b94     pjsip-ua-i386-win32-vc8-release-dynamic:sip_100rel.obj
 0002:00000bf8       _pjsip_update_method       00458bf8     pjsip-ua-i386-win32-vc8-release-dynamic:sip_timer.obj
 0002:00000c04       ??_C@_0BA@HCNJNBAB@Session?9Expires@ 00458c04     pjsip-ua-i386-win32-vc8-release-dynamic:sip_timer.obj
 0002:00000c14       ??_C@_01FJMABOPO@x@        00458c14     pjsip-ua-i386-win32-vc8-release-dynamic:sip_timer.obj
 0002:00000c18       ??_C@_06PPBKPPMM@Min?9SE@  00458c18     pjsip-ua-i386-win32-vc8-release-dynamic:sip_timer.obj
 0002:00000c20       ??_C@_09NOICKHFM@refresher@ 00458c20     pjsip-ua-i386-win32-vc8-release-dynamic:sip_timer.obj
 0002:00000c2c       ??_C@_03IFJPOJDO@uac@      00458c2c     pjsip-ua-i386-win32-vc8-release-dynamic:sip_timer.obj
 0002:00000c30       ??_C@_03MPFNPLGP@uas@      00458c30     pjsip-ua-i386-win32-vc8-release-dynamic:sip_timer.obj
 0002:00000c34       ??_C@_0DF@MFNPLMLE@Refreshing?5session?5after?5?$CFds?5?$CIe@ 00458c34     pjsip-ua-i386-win32-vc8-release-dynamic:sip_timer.obj
 0002:00000c6c       ??_C@_0BB@FFFNADMG@refresh?5response@ 00458c6c     pjsip-ua-i386-win32-vc8-release-dynamic:sip_timer.obj
 0002:00000c80       ??_C@_07HPCLKEG@refresh@   00458c80     pjsip-ua-i386-win32-vc8-release-dynamic:sip_timer.obj
 0002:00000c88       ??_C@_0FA@NNHOKPAC@No?5session?5?$CFs?5received?5after?5?$CFd@ 00458c88     pjsip-ua-i386-win32-vc8-release-dynamic:sip_timer.obj
 0002:00000cd8       ??_C@_0L@BHFFIHLE@refreshing@ 00458cd8     pjsip-ua-i386-win32-vc8-release-dynamic:sip_timer.obj
 0002:00000ce4       ??_C@_0M@CIHJDPCM@terminating@ 00458ce4     pjsip-ua-i386-win32-vc8-release-dynamic:sip_timer.obj
 0002:00000cf0       ??_C@_0BK@JNGKHHHE@Error?5in?5?$CFs?5session?5timer@ 00458cf0     pjsip-ua-i386-win32-vc8-release-dynamic:sip_timer.obj
 0002:00000d10       ??_C@_0EK@JCMLCMLM@Received?5422?5?$CISession?5Interval?5@ 00458d10     pjsip-ua-i386-win32-vc8-release-dynamic:sip_timer.obj
 0002:00000d60       ??_C@_0IG@FLJLCDDH@Peer?5responds?5with?5bad?5Session?9@ 00458d60     pjsip-ua-i386-win32-vc8-release-dynamic:sip_timer.obj
 0002:00000de8       ??_C@_0DC@MANPDFEB@Receive?5error?5?$CFd?5for?5refresh?5re@ 00458de8     pjsip-ua-i386-win32-vc8-release-dynamic:sip_timer.obj
 0002:00000e1c       ??_C@_0DH@MMOHCGLD@Scheduling?5to?5retry?5refresh?5req@ 00458e1c     pjsip-ua-i386-win32-vc8-release-dynamic:sip_timer.obj
 0002:00000e54       ??_C@_0BD@KGAJMAJC@Ending?5session?5now@ 00458e54     pjsip-ua-i386-win32-vc8-release-dynamic:sip_timer.obj
 0002:00000e68       ??_C@_08BMKPPPGG@SIP?12?40?1@ 00458e68     pjsip-core-i386-win32-vc8-release-dynamic:sip_msg.obj
 0002:00000e71       ??_C@_00CNPNBAHC@@         00458e71     pjsip-core-i386-win32-vc8-release-dynamic:sip_msg.obj
 0002:00000e74       ??_C@_05ODKKKCAM@?$DLttl?$DN@ 00458e74     pjsip-core-i386-win32-vc8-release-dynamic:sip_msg.obj
 0002:00000e7c       ??_C@_06IKMHKLF@?$DLrport@ 00458e7c     pjsip-core-i386-win32-vc8-release-dynamic:sip_msg.obj
 0002:00000e84       ??_C@_07IONINLDO@?$DLmaddr?$DN@ 00458e84     pjsip-core-i386-win32-vc8-release-dynamic:sip_msg.obj
 0002:00000e8c       ??_C@_0L@IMDGLAJB@?$DLreceived?$DN@ 00458e8c     pjsip-core-i386-win32-vc8-release-dynamic:sip_msg.obj
 0002:00000e98       ??_C@_08LMLOEMIC@?$DLbranch?$DN@ 00458e98     pjsip-core-i386-win32-vc8-release-dynamic:sip_msg.obj
 0002:00000ea8       _pjsip_invite_method       00458ea8     pjsip-core-i386-win32-vc8-release-dynamic:sip_msg.obj
 0002:00000eb4       _pjsip_cancel_method       00458eb4     pjsip-core-i386-win32-vc8-release-dynamic:sip_msg.obj
 0002:00000ec0       _pjsip_ack_method          00458ec0     pjsip-core-i386-win32-vc8-release-dynamic:sip_msg.obj
 0002:00000ecc       _pjsip_bye_method          00458ecc     pjsip-core-i386-win32-vc8-release-dynamic:sip_msg.obj
 0002:00000ed8       _pjsip_register_method     00458ed8     pjsip-core-i386-win32-vc8-release-dynamic:sip_msg.obj
 0002:00000ee4       _pjsip_options_method      00458ee4     pjsip-core-i386-win32-vc8-release-dynamic:sip_msg.obj
 0002:00000ef0       _pjsip_hdr_names           00458ef0     pjsip-core-i386-win32-vc8-release-dynamic:sip_msg.obj
 0002:0000110c       ??_C@_08EINEADGI@REGISTER@ 0045910c     pjsip-core-i386-win32-vc8-release-dynamic:sip_msg.obj
 0002:00001118       ??_C@_07KDKMIPIP@OPTIONS@  00459118     pjsip-core-i386-win32-vc8-release-dynamic:sip_msg.obj
 0002:00001120       ??_C@_06MDEHPNLG@Accept@   00459120     pjsip-core-i386-win32-vc8-release-dynamic:sip_msg.obj
 0002:00001128       ??_C@_0BA@KDJCHKHJ@Accept?9Encoding@ 00459128     pjsip-core-i386-win32-vc8-release-dynamic:sip_msg.obj
 0002:00001138       ??_C@_0BA@POEGPCPD@Accept?9Language@ 00459138     pjsip-core-i386-win32-vc8-release-dynamic:sip_msg.obj
 0002:00001148       ??_C@_0L@DDNEKGOG@Alert?9Info@ 00459148     pjsip-core-i386-win32-vc8-release-dynamic:sip_msg.obj
 0002:00001154       ??_C@_05IEPODGEO@Allow@    00459154     pjsip-core-i386-win32-vc8-release-dynamic:sip_msg.obj
 0002:0000115c       ??_C@_0BE@KPJFGFDH@Authentication?9Info@ 0045915c     pjsip-core-i386-win32-vc8-release-dynamic:sip_msg.obj
 0002:00001170       ??_C@_0O@NAFGPKMI@Authorization@ 00459170     pjsip-core-i386-win32-vc8-release-dynamic:sip_msg.obj
 0002:00001180       ??_C@_07IKPMLMAJ@Call?9ID@ 00459180     pjsip-core-i386-win32-vc8-release-dynamic:sip_msg.obj
 0002:00001188       ??_C@_01KBJDNOO@i@         00459188     pjsip-core-i386-win32-vc8-release-dynamic:sip_msg.obj
 0002:0000118c       ??_C@_09HCKFEBLC@Call?9Info@ 0045918c     pjsip-core-i386-win32-vc8-release-dynamic:sip_msg.obj
 0002:00001198       ??_C@_01GOHFPIOK@m@        00459198     pjsip-core-i386-win32-vc8-release-dynamic:sip_msg.obj
 0002:0000119c       ??_C@_0BE@LMOOGHBG@Content?9Disposition@ 0045919c     pjsip-core-i386-win32-vc8-release-dynamic:sip_msg.obj
 0002:000011b0       ??_C@_0BB@KFPPKJHF@Content?9Encoding@ 004591b0     pjsip-core-i386-win32-vc8-release-dynamic:sip_msg.obj
 0002:000011c4       ??_C@_01KGKMHCOC@e@        004591c4     pjsip-core-i386-win32-vc8-release-dynamic:sip_msg.obj
 0002:000011c8       ??_C@_0BB@PICLCBPP@Content?9Language@ 004591c8     pjsip-core-i386-win32-vc8-release-dynamic:sip_msg.obj
 0002:000011dc       ??_C@_0P@HOJGPHBA@Content?9Length@ 004591dc     pjsip-core-i386-win32-vc8-release-dynamic:sip_msg.obj
 0002:000011ec       ??_C@_01HHGOMJKL@l@        004591ec     pjsip-core-i386-win32-vc8-release-dynamic:sip_msg.obj
 0002:000011f0       ??_C@_0N@LAFFMKKA@Content?9Type@ 004591f0     pjsip-core-i386-win32-vc8-release-dynamic:sip_msg.obj
 0002:00001200       ??_C@_01PAPGNFGE@c@        00459200     pjsip-core-i386-win32-vc8-release-dynamic:sip_msg.obj
 0002:00001204       ??_C@_04IHAOMLEL@CSeq@     00459204     pjsip-core-i386-win32-vc8-release-dynamic:sip_msg.obj
 0002:0000120c       ??_C@_04FMEGDJGD@Date@     0045920c     pjsip-core-i386-win32-vc8-release-dynamic:sip_msg.obj
 0002:00001214       ??_C@_0L@PGKFFKEH@Error?9Info@ 00459214     pjsip-core-i386-win32-vc8-release-dynamic:sip_msg.obj
 0002:00001220       ??_C@_07DABPCBEH@Expires@  00459220     pjsip-core-i386-win32-vc8-release-dynamic:sip_msg.obj
 0002:00001228       ??_C@_04LMIAFEOL@From@     00459228     pjsip-core-i386-win32-vc8-release-dynamic:sip_msg.obj
 0002:00001230       ??_C@_01INIBCBCB@f@        00459230     pjsip-core-i386-win32-vc8-release-dynamic:sip_msg.obj
 0002:00001234       ??_C@_0M@OJFKFNND@In?9Reply?9To@ 00459234     pjsip-core-i386-win32-vc8-release-dynamic:sip_msg.obj
 0002:00001240       ??_C@_0N@KAKEBINL@Max?9Forwards@ 00459240     pjsip-core-i386-win32-vc8-release-dynamic:sip_msg.obj
 0002:00001250       ??_C@_0N@PNJFOFFK@MIME?9Version@ 00459250     pjsip-core-i386-win32-vc8-release-dynamic:sip_msg.obj
 0002:00001260       ??_C@_0M@BHCNHHNF@Min?9Expires@ 00459260     pjsip-core-i386-win32-vc8-release-dynamic:sip_msg.obj
 0002:0000126c       ??_C@_0N@MHPBIIPD@Organization@ 0045926c     pjsip-core-i386-win32-vc8-release-dynamic:sip_msg.obj
 0002:0000127c       ??_C@_08KGEIBGG@Priority@  0045927c     pjsip-core-i386-win32-vc8-release-dynamic:sip_msg.obj
 0002:00001288       ??_C@_0BD@GKJFGNG@Proxy?9Authenticate@ 00459288     pjsip-core-i386-win32-vc8-release-dynamic:sip_msg.obj
 0002:0000129c       ??_C@_0BE@DCLKKIPG@Proxy?9Authorization@ 0045929c     pjsip-core-i386-win32-vc8-release-dynamic:sip_msg.obj
 0002:000012b0       ??_C@_0O@ICDCLCHE@Proxy?9Require@ 004592b0     pjsip-core-i386-win32-vc8-release-dynamic:sip_msg.obj
 0002:000012c0       ??_C@_0N@KJFPNEHF@Record?9Route@ 004592c0     pjsip-core-i386-win32-vc8-release-dynamic:sip_msg.obj
 0002:000012d0       ??_C@_08GBENDHCN@Reply?9To@ 004592d0     pjsip-core-i386-win32-vc8-release-dynamic:sip_msg.obj
 0002:000012dc       ??_C@_07KMMNJNOB@Require@  004592dc     pjsip-core-i386-win32-vc8-release-dynamic:sip_msg.obj
 0002:000012e4       ??_C@_0M@CMFFKFHP@Retry?9After@ 004592e4     pjsip-core-i386-win32-vc8-release-dynamic:sip_msg.obj
 0002:000012f0       ??_C@_05DIKBIPM@Route@     004592f0     pjsip-core-i386-win32-vc8-release-dynamic:sip_msg.obj
 0002:000012f8       ??_C@_06LGMEBDBC@Server@   004592f8     pjsip-core-i386-win32-vc8-release-dynamic:sip_msg.obj
 0002:00001300       ??_C@_07GEKACEDI@Subject@  00459300     pjsip-core-i386-win32-vc8-release-dynamic:sip_msg.obj
 0002:00001308       ??_C@_01LKDEMHDF@s@        00459308     pjsip-core-i386-win32-vc8-release-dynamic:sip_msg.obj
 0002:0000130c       ??_C@_09GFDKPDGA@Supported@ 0045930c     pjsip-core-i386-win32-vc8-release-dynamic:sip_msg.obj
 0002:00001318       ??_C@_01DICPFPGM@k@        00459318     pjsip-core-i386-win32-vc8-release-dynamic:sip_msg.obj
 0002:0000131c       ??_C@_09KDGENIOP@Timestamp@ 0045931c     pjsip-core-i386-win32-vc8-release-dynamic:sip_msg.obj
 0002:00001328       ??_C@_02IJGONHOJ@To@       00459328     pjsip-core-i386-win32-vc8-release-dynamic:sip_msg.obj
 0002:0000132c       ??_C@_01PFHFFBPC@t@        0045932c     pjsip-core-i386-win32-vc8-release-dynamic:sip_msg.obj
 0002:00001330       ??_C@_0M@BEECMOIL@Unsupported@ 00459330     pjsip-core-i386-win32-vc8-release-dynamic:sip_msg.obj
 0002:0000133c       ??_C@_0L@DMPACEMJ@User?9Agent@ 0045933c     pjsip-core-i386-win32-vc8-release-dynamic:sip_msg.obj
 0002:00001348       ??_C@_03LDNNKNE@Via@       00459348     pjsip-core-i386-win32-vc8-release-dynamic:sip_msg.obj
 0002:0000134c       ??_C@_01MHEDDDHA@v@        0045934c     pjsip-core-i386-win32-vc8-release-dynamic:sip_msg.obj
 0002:00001350       ??_C@_07KGMMFLDN@Warning@  00459350     pjsip-core-i386-win32-vc8-release-dynamic:sip_msg.obj
 0002:00001358       ??_C@_0BB@KEDJJIFI@WWW?9Authenticate@ 00459358     pjsip-core-i386-win32-vc8-release-dynamic:sip_msg.obj
 0002:0000136c       ??_C@_0BA@MKEDBJEA@_Unknown?9Header@ 0045936c     pjsip-core-i386-win32-vc8-release-dynamic:sip_msg.obj
 0002:0000137c       ??_C@_02KEGNLNML@?0?5@     0045937c     pjsip-core-i386-win32-vc8-release-dynamic:sip_msg.obj
 0002:00001380       ??_C@_03MGEKBFJK@?$DLq?$DN@ 00459380     pjsip-core-i386-win32-vc8-release-dynamic:sip_msg.obj
 0002:00001384       ??_C@_09JFABAEBI@?$DLexpires?$DN@ 00459384     pjsip-core-i386-win32-vc8-release-dynamic:sip_msg.obj
 0002:00001390       ??_C@_05IIDIOKEA@?$DLtag?$DN@ 00459390     pjsip-core-i386-win32-vc8-release-dynamic:sip_msg.obj
 0002:00001398       ??_C@_04IBOFHAPJ@hide@     00459398     pjsip-core-i386-win32-vc8-release-dynamic:sip_msg.obj
 0002:000013a0       ??_C@_0BH@JEAOBKFE@Default?5status?5message@ 004593a0     pjsip-core-i386-win32-vc8-release-dynamic:sip_msg.obj
 0002:000013b8       ??_C@_06CJPKGAJC@Trying@   004593b8     pjsip-core-i386-win32-vc8-release-dynamic:sip_msg.obj
 0002:000013c0       ??_C@_07KEMHLLKP@Ringing@  004593c0     pjsip-core-i386-win32-vc8-release-dynamic:sip_msg.obj
 0002:000013c8       ??_C@_0BI@HBFDMPGA@Call?5Is?5Being?5Forwarded@ 004593c8     pjsip-core-i386-win32-vc8-release-dynamic:sip_msg.obj
 0002:000013e0       ??_C@_06POGAFBAL@Queued@   004593e0     pjsip-core-i386-win32-vc8-release-dynamic:sip_msg.obj
 0002:000013e8       ??_C@_0BB@FKJCNOGD@Session?5Progress@ 004593e8     pjsip-core-i386-win32-vc8-release-dynamic:sip_msg.obj
 0002:000013fc       ??_C@_02GIPFHKNO@OK@       004593fc     pjsip-core-i386-win32-vc8-release-dynamic:sip_msg.obj
 0002:00001400       ??_C@_08DOBOODLA@Accepted@ 00459400     pjsip-core-i386-win32-vc8-release-dynamic:sip_msg.obj
 0002:0000140c       ??_C@_0BB@HLFEHKPE@Multiple?5Choices@ 0045940c     pjsip-core-i386-win32-vc8-release-dynamic:sip_msg.obj
 0002:00001420       ??_C@_0BC@BPBCNFPI@Moved?5Permanently@ 00459420     pjsip-core-i386-win32-vc8-release-dynamic:sip_msg.obj
 0002:00001434       ??_C@_0BC@LODIMCJL@Moved?5Temporarily@ 00459434     pjsip-core-i386-win32-vc8-release-dynamic:sip_msg.obj
 0002:00001448       ??_C@_09JFBGBFIM@Use?5Proxy@ 00459448     pjsip-core-i386-win32-vc8-release-dynamic:sip_msg.obj
 0002:00001454       ??_C@_0BE@MCFGMBHK@Alternative?5Service@ 00459454     pjsip-core-i386-win32-vc8-release-dynamic:sip_msg.obj
 0002:00001468       ??_C@_0M@LNAIDEEG@Bad?5Request@ 00459468     pjsip-core-i386-win32-vc8-release-dynamic:sip_msg.obj
 0002:00001474       ??_C@_0N@OOAPMOJA@Unauthorized@ 00459474     pjsip-core-i386-win32-vc8-release-dynamic:sip_msg.obj
 0002:00001484       ??_C@_0BB@LMPIHCBH@Payment?5Required@ 00459484     pjsip-core-i386-win32-vc8-release-dynamic:sip_msg.obj
 0002:00001498       ??_C@_09LMDIMFJD@Forbidden@ 00459498     pjsip-core-i386-win32-vc8-release-dynamic:sip_msg.obj
 0002:000014a4       ??_C@_09CFCBFJND@Not?5Found@ 004594a4     pjsip-core-i386-win32-vc8-release-dynamic:sip_msg.obj
 0002:000014b0       ??_C@_0BD@CCIPIALO@Method?5Not?5Allowed@ 004594b0     pjsip-core-i386-win32-vc8-release-dynamic:sip_msg.obj
 0002:000014c4       ??_C@_0P@HHIDFAOI@Not?5Acceptable@ 004594c4     pjsip-core-i386-win32-vc8-release-dynamic:sip_msg.obj
 0002:000014d4       ??_C@_0BO@ONPAAOGI@Proxy?5Authentication?5Required@ 004594d4     pjsip-core-i386-win32-vc8-release-dynamic:sip_msg.obj
 0002:000014f4       ??_C@_0BA@HALFGGF@Request?5Timeout@ 004594f4     pjsip-core-i386-win32-vc8-release-dynamic:sip_msg.obj
 0002:00001504       ??_C@_04OKIIBCCG@Gone@     00459504     pjsip-core-i386-win32-vc8-release-dynamic:sip_msg.obj
 0002:0000150c       ??_C@_0BJ@MMEIEOIG@Request?5Entity?5Too?5Large@ 0045950c     pjsip-core-i386-win32-vc8-release-dynamic:sip_msg.obj
 0002:00001528       ??_C@_0BF@LPICFNOC@Request?5URI?5Too?5Long@ 00459528     pjsip-core-i386-win32-vc8-release-dynamic:sip_msg.obj
 0002:00001540       ??_C@_0BH@HLJJIAEN@Unsupported?5Media?5Type@ 00459540     pjsip-core-i386-win32-vc8-release-dynamic:sip_msg.obj
 0002:00001558       ??_C@_0BH@HMDPMBIK@Unsupported?5URI?5Scheme@ 00459558     pjsip-core-i386-win32-vc8-release-dynamic:sip_msg.obj
 0002:00001570       ??_C@_0O@EABFLJJG@Bad?5Extension@ 00459570     pjsip-core-i386-win32-vc8-release-dynamic:sip_msg.obj
 0002:00001580       ??_C@_0BD@LEDCNIMD@Extension?5Required@ 00459580     pjsip-core-i386-win32-vc8-release-dynamic:sip_msg.obj
 0002:00001594       ??_C@_0BI@DEDCGMIH@Session?5Timer?5Too?5Small@ 00459594     pjsip-core-i386-win32-vc8-release-dynamic:sip_msg.obj
 0002:000015ac       ??_C@_0BD@NHGMJMLN@Interval?5Too?5Brief@ 004595ac     pjsip-core-i386-win32-vc8-release-dynamic:sip_msg.obj
 0002:000015c0       ??_C@_0BI@JBJKOKGE@Temporarily?5Unavailable@ 004595c0     pjsip-core-i386-win32-vc8-release-dynamic:sip_msg.obj
 0002:000015d8       ??_C@_0CA@DPKMEAMP@Call?1Transaction?5Does?5Not?5Exist@ 004595d8     pjsip-core-i386-win32-vc8-release-dynamic:sip_msg.obj
 0002:000015f8       ??_C@_0O@KJBLEGOO@Loop?5Detected@ 004595f8     pjsip-core-i386-win32-vc8-release-dynamic:sip_msg.obj
 0002:00001608       ??_C@_0O@CFHODMHD@Too?5Many?5Hops@ 00459608     pjsip-core-i386-win32-vc8-release-dynamic:sip_msg.obj
 0002:00001618       ??_C@_0BD@HOIPLGB@Address?5Incomplete@ 00459618     pjsip-core-i386-win32-vc8-release-dynamic:sip_msg.obj
 0002:0000162c       ??_C@_09FNGPAEJC@Ambiguous@ 0045962c     pjsip-core-i386-win32-vc8-release-dynamic:sip_msg.obj
 0002:00001638       ??_C@_09ELAJPHFG@Busy?5Here@ 00459638     pjsip-core-i386-win32-vc8-release-dynamic:sip_msg.obj
 0002:00001644       ??_C@_0BD@IGJOBDDO@Request?5Terminated@ 00459644     pjsip-core-i386-win32-vc8-release-dynamic:sip_msg.obj
 0002:00001658       ??_C@_0BE@HMIMPLAH@Not?5Acceptable?5Here@ 00459658     pjsip-core-i386-win32-vc8-release-dynamic:sip_msg.obj
 0002:0000166c       ??_C@_09HKNLJBHH@Bad?5Event@ 0045966c     pjsip-core-i386-win32-vc8-release-dynamic:sip_msg.obj
 0002:00001678       ??_C@_0BA@DKJEBJFB@Request?5Updated@ 00459678     pjsip-core-i386-win32-vc8-release-dynamic:sip_msg.obj
 0002:00001688       ??_C@_0BA@KLOCDLCK@Request?5Pending@ 00459688     pjsip-core-i386-win32-vc8-release-dynamic:sip_msg.obj
 0002:00001698       ??_C@_0P@EIPIHDNL@Undecipherable@ 00459698     pjsip-core-i386-win32-vc8-release-dynamic:sip_msg.obj
 0002:000016a8       ??_C@_0BG@NJGANGCC@Internal?5Server?5Error@ 004596a8     pjsip-core-i386-win32-vc8-release-dynamic:sip_msg.obj
 0002:000016c0       ??_C@_0BA@JGKGKAME@Not?5Implemented@ 004596c0     pjsip-core-i386-win32-vc8-release-dynamic:sip_msg.obj
 0002:000016d0       ??_C@_0M@BNCNLPGM@Bad?5Gateway@ 004596d0     pjsip-core-i386-win32-vc8-release-dynamic:sip_msg.obj
 0002:000016dc       ??_C@_0BE@NGHLFKBN@Service?5Unavailable@ 004596dc     pjsip-core-i386-win32-vc8-release-dynamic:sip_msg.obj
 0002:000016f0       ??_C@_0P@KPHBHCBP@Server?5Timeout@ 004596f0     pjsip-core-i386-win32-vc8-release-dynamic:sip_msg.obj
 0002:00001700       ??_C@_0BG@DGJHJFEF@Version?5Not?5Supported@ 00459700     pjsip-core-i386-win32-vc8-release-dynamic:sip_msg.obj
 0002:00001718       ??_C@_0BC@FOIGPIGF@Message?5Too?5Large@ 00459718     pjsip-core-i386-win32-vc8-release-dynamic:sip_msg.obj
 0002:0000172c       ??_C@_0BF@PJIFKKPF@Precondition?5Failure@ 0045972c     pjsip-core-i386-win32-vc8-release-dynamic:sip_msg.obj
 0002:00001744       ??_C@_0BA@BNEEJKIK@Busy?5Everywhere@ 00459744     pjsip-core-i386-win32-vc8-release-dynamic:sip_msg.obj
 0002:00001754       ??_C@_07CAMLKJDK@Decline@  00459754     pjsip-core-i386-win32-vc8-release-dynamic:sip_msg.obj
 0002:0000175c       ??_C@_0BI@JILKKJAA@Does?5Not?5Exist?5Anywhere@ 0045975c     pjsip-core-i386-win32-vc8-release-dynamic:sip_msg.obj
 0002:00001774       ??_C@_0CE@LJDLADFN@No?5response?5from?5destination?5se@ 00459774     pjsip-core-i386-win32-vc8-release-dynamic:sip_msg.obj
 0002:00001798       ??_C@_0CF@KIECMFPG@Unable?5to?5resolve?5destination?5s@ 00459798     pjsip-core-i386-win32-vc8-release-dynamic:sip_msg.obj
 0002:000017c0       ??_C@_0CM@KOHFAKJI@Error?5sending?5message?5to?5destin@ 004597c0     pjsip-core-i386-win32-vc8-release-dynamic:sip_msg.obj
 0002:000017ec       ??_C@_0BB@NFGDEPJM@Content?9Length?3?5@ 004597ec     pjsip-core-i386-win32-vc8-release-dynamic:sip_msg.obj
 0002:00001800       ??_C@_03BDDDCMLM@l?3?5@    00459800     pjsip-core-i386-win32-vc8-release-dynamic:sip_msg.obj
 0002:00001804       ??_C@_0L@GLHKEHNL@?5SIP?12?40?$AN?6@ 00459804     pjsip-core-i386-win32-vc8-release-dynamic:sip_msg.obj
 0002:00001810       ??_C@_08JLDHODKJ@SIP?12?40?5@ 00459810     pjsip-core-i386-win32-vc8-release-dynamic:sip_msg.obj
 0002:0000181c       ??_C@_0DH@DHKJLILJ@Header?5with?5no?5vptr?5encountered@ 0045981c     pjsip-core-i386-win32-vc8-release-dynamic:sip_msg.obj
 0002:00001854       ??_C@_07KCAKOOLP@sip_msg@  00459854     pjsip-core-i386-win32-vc8-release-dynamic:sip_msg.obj
 0002:0000185c       ??_C@_0P@GJMOGDPG@Content?9Type?3?5@ 0045985c     pjsip-core-i386-win32-vc8-release-dynamic:sip_msg.obj
 0002:0000186c       ??_C@_03ELFADMOK@c?3?5@    0045986c     pjsip-core-i386-win32-vc8-release-dynamic:sip_msg.obj
 0002:00001870       ??_C@_0P@DNLLBOJA@?$CFu?5?$CF?4?$CKs?5?$CC?$CF?4?$CKs?$CC@ 00459870     pjsip-core-i386-win32-vc8-release-dynamic:sip_msg.obj
 0002:00001880       ??_C@_0O@EMLDOJH@mod?9msg?9print@ 00459880     pjsip-core-i386-win32-vc8-release-dynamic:sip_transport.obj
 0002:00001890       ??_C@_0M@NNPCGPMF@Unspecified@ 00459890     pjsip-core-i386-win32-vc8-release-dynamic:sip_transport.obj
 0002:0000189c       ??_C@_03OPEAKHDL@UDP@      0045989c     pjsip-core-i386-win32-vc8-release-dynamic:sip_transport.obj
 0002:000018a0       ??_C@_0O@KHAHCMDL@UDP?5transport@ 004598a0     pjsip-core-i386-win32-vc8-release-dynamic:sip_transport.obj
 0002:000018b0       ??_C@_03FCLDNGNL@TCP@      004598b0     pjsip-core-i386-win32-vc8-release-dynamic:sip_transport.obj
 0002:000018b4       ??_C@_0O@EHHLMLBF@TCP?5transport@ 004598b4     pjsip-core-i386-win32-vc8-release-dynamic:sip_transport.obj
 0002:000018c4       ??_C@_03HCMCMCCF@TLS@      004598c4     pjsip-core-i386-win32-vc8-release-dynamic:sip_transport.obj
 0002:000018c8       ??_C@_0O@BHJFMMNA@TLS?5transport@ 004598c8     pjsip-core-i386-win32-vc8-release-dynamic:sip_transport.obj
 0002:000018d8       ??_C@_04BOMBJBBC@SCTP@     004598d8     pjsip-core-i386-win32-vc8-release-dynamic:sip_transport.obj
 0002:000018e0       ??_C@_0P@BEPMAJFA@SCTP?5transport@ 004598e0     pjsip-core-i386-win32-vc8-release-dynamic:sip_transport.obj
 0002:000018f0       ??_C@_04KGNEGCGI@LOOP@     004598f0     pjsip-core-i386-win32-vc8-release-dynamic:sip_transport.obj
 0002:000018f8       ??_C@_0BD@IJLEDLFM@Loopback?5transport@ 004598f8     pjsip-core-i386-win32-vc8-release-dynamic:sip_transport.obj
 0002:0000190c       ??_C@_0L@PGGNCDOP@LOOP?9DGRAM@ 0045990c     pjsip-core-i386-win32-vc8-release-dynamic:sip_transport.obj
 0002:00001918       ??_C@_0BM@JFHDLEFO@Loopback?5datagram?5transport@ 00459918     pjsip-core-i386-win32-vc8-release-dynamic:sip_transport.obj
 0002:00001934       ??_C@_0BD@LIBJHFGK@UDP?5IPv6?5transport@ 00459934     pjsip-core-i386-win32-vc8-release-dynamic:sip_transport.obj
 0002:00001948       ??_C@_0BD@IONFPPFG@TCP?5IPv6?5transport@ 00459948     pjsip-core-i386-win32-vc8-release-dynamic:sip_transport.obj
 0002:0000195c       ??_C@_0BD@CLDAAALK@TLS?5IPv6?5transport@ 0045995c     pjsip-core-i386-win32-vc8-release-dynamic:sip_transport.obj
 0002:00001970       ??_C@_06HHKALCGB@tdta?$CFp@ 00459970     pjsip-core-i386-win32-vc8-release-dynamic:sip_transport.obj
 0002:00001978       ??_C@_0BF@FNAOFPOF@Destroying?5txdata?5?$CFs@ 00459978     pjsip-core-i386-win32-vc8-release-dynamic:sip_transport.obj
 0002:00001990       ??_C@_0M@JCCICOOO@INVALID?5MSG@ 00459990     pjsip-core-i386-win32-vc8-release-dynamic:sip_transport.obj
 0002:0000199c       ??_C@_0BO@FBJFIDDA@Request?5msg?5?$CF?4?$CKs?1cseq?$DN?$CFd?5?$CI?$CFs?$CJ@ 0045999c     pjsip-core-i386-win32-vc8-release-dynamic:sip_transport.obj
 0002:000019bc       ??_C@_0CC@DIPPPFIF@Response?5msg?5?$CFd?1?$CF?4?$CKs?1cseq?$DN?$CFd?5?$CI?$CF@ 004599bc     pjsip-core-i386-win32-vc8-release-dynamic:sip_transport.obj
 0002:000019e0       ??_C@_0BC@NHBNMNGO@Tx?5data?5?$CFs?5cloned@ 004599e0     pjsip-core-i386-win32-vc8-release-dynamic:sip_transport.obj
 0002:000019f4       ??_C@_0BA@BCOMPIDA@sip_transport?4c@ 004599f4     pjsip-core-i386-win32-vc8-release-dynamic:sip_transport.obj
 0002:00001a04       ??_C@_05MIOBCJBH@rdata@    00459a04     pjsip-core-i386-win32-vc8-release-dynamic:sip_transport.obj
 0002:00001a0c       ??_C@_02BBAHNLBA@?$CFp@    00459a0c     pjsip-core-i386-win32-vc8-release-dynamic:sip_transport.obj
 0002:00001a10       ??_C@_05KBHICJDA@rtd?$CFp@ 00459a10     pjsip-core-i386-win32-vc8-release-dynamic:sip_transport.obj
 0002:00001a18       ??_C@_0CG@GHPNJCCG@Unable?5to?5send?5?$CFs?3?5message?5is?5p@ 00459a18     pjsip-core-i386-win32-vc8-release-dynamic:sip_transport.obj
 0002:00001a40       ??_C@_06DFEDPGIK@tmgr?$CFp@ 00459a40     pjsip-core-i386-win32-vc8-release-dynamic:sip_transport.obj
 0002:00001a48       ??_C@_0BL@FCLJOKON@Transport?5manager?5created?4@ 00459a48     pjsip-core-i386-win32-vc8-release-dynamic:sip_transport.obj
 0002:00001a64       ??_C@_0BN@ICLNKKAJ@Destroying?5transport?5manager@ 00459a64     pjsip-core-i386-win32-vc8-release-dynamic:sip_transport.obj
 0002:00001a84       ??_C@_0CI@HJKHOKAG@Cleaned?5up?5dangling?5transmit?5bu@ 00459a84     pjsip-core-i386-win32-vc8-release-dynamic:sip_transport.obj
 0002:00001aac       ??_C@_0DM@LJBJFPEI@?3?5?$CFs?5exception?5when?5parsing?5?8?$CF?4@ 00459aac     pjsip-core-i386-win32-vc8-release-dynamic:sip_transport.obj
 0002:00001ae8       ??_C@_0EM@JMILNFHN@Error?5processing?5?$CFd?5bytes?5packe@ 00459ae8     pjsip-core-i386-win32-vc8-release-dynamic:sip_transport.obj
 0002:00001b34       ??_C@_0DG@FPJFHIHG@Specified?5factory?5for?5creating?5@ 00459b34     pjsip-core-i386-win32-vc8-release-dynamic:sip_transport.obj
 0002:00001b6c       ??_C@_0BJ@MGECBGBK@Module?5?$CC?$CF?4?$CKs?$CC?5registered@ 00459b6c     pjsip-core-i386-win32-vc8-release-dynamic:sip_endpoint.obj
 0002:00001b88       ??_C@_0P@EGLGAFCL@sip_endpoint?4c@ 00459b88     pjsip-core-i386-win32-vc8-release-dynamic:sip_endpoint.obj
 0002:00001b98       ??_C@_0CK@DNCAODEI@Module?5?$CC?$CF?4?$CKs?$CC?5can?5not?5be?5unregi@ 00459b98     pjsip-core-i386-win32-vc8-release-dynamic:sip_endpoint.obj
 0002:00001bc4       ??_C@_0BL@HDLPHBNM@Module?5?$CC?$CF?4?$CKs?$CC?5unregistered@ 00459bc4     pjsip-core-i386-win32-vc8-release-dynamic:sip_endpoint.obj
 0002:00001be0       ??_C@_0BO@COOMMINE@Creating?5endpoint?5instance?4?4?4@ 00459be0     pjsip-core-i386-win32-vc8-release-dynamic:sip_endpoint.obj
 0002:00001c00       ??_C@_06NKPEEELK@pept?$CFp@ 00459c00     pjsip-core-i386-win32-vc8-release-dynamic:sip_endpoint.obj
 0002:00001c08       ??_C@_05BKDCOKEM@ept?$CFp@ 00459c08     pjsip-core-i386-win32-vc8-release-dynamic:sip_endpoint.obj
 0002:00001c10       ??_C@_06CEEOCEHG@edpt?$CFp@ 00459c10     pjsip-core-i386-win32-vc8-release-dynamic:sip_endpoint.obj
 0002:00001c18       ??_C@_0CB@HGCDKNNC@Error?5creating?5resolver?5instanc@ 00459c18     pjsip-core-i386-win32-vc8-release-dynamic:sip_endpoint.obj
 0002:00001c3c       ??_C@_0BI@MLLMLNGM@Error?5creating?5endpoint@ 00459c3c     pjsip-core-i386-win32-vc8-release-dynamic:sip_endpoint.obj
 0002:00001c54       ??_C@_0BP@COABEKEP@Destroying?5endpoing?5instance?4?4@ 00459c54     pjsip-core-i386-win32-vc8-release-dynamic:sip_endpoint.obj
 0002:00001c74       ??_C@_0BG@NIAFLHGE@Endpoint?5?$CFp?5destroyed@ 00459c74     pjsip-core-i386-win32-vc8-release-dynamic:sip_endpoint.obj
 0002:00001c8c       ??_C@_0BK@KKFMILKM@Unable?5to?5create?5pool?5?$CFs?$CB@ 00459c8c     pjsip-core-i386-win32-vc8-release-dynamic:sip_endpoint.obj
 0002:00001ca8       ??_C@_0CC@POJNFGFL@Distributing?5rdata?5to?5modules?3?5@ 00459ca8     pjsip-core-i386-win32-vc8-release-dynamic:sip_endpoint.obj
 0002:00001ccc       ??_C@_05MMMMAHGD@?5From@   00459ccc     pjsip-core-i386-win32-vc8-release-dynamic:sip_endpoint.obj
 0002:00001cd4       ??_C@_03PHFJHONJ@?5To@     00459cd4     pjsip-core-i386-win32-vc8-release-dynamic:sip_endpoint.obj
 0002:00001cd8       ??_C@_04CNJKNNNB@?5Via@    00459cd8     pjsip-core-i386-win32-vc8-release-dynamic:sip_endpoint.obj
 0002:00001ce0       ??_C@_05PHECJIMD@?5CSeq@   00459ce0     pjsip-core-i386-win32-vc8-release-dynamic:sip_endpoint.obj
 0002:00001ce8       ??_C@_0EM@MDGMOKGH@Error?5processing?5packet?5from?5?$CFs@ 00459ce8     pjsip-core-i386-win32-vc8-release-dynamic:sip_endpoint.obj
 0002:00001d34       ??_C@_0CA@HOLDFAO@Processing?5incoming?5message?3?5?$CFs@ 00459d34     pjsip-core-i386-win32-vc8-release-dynamic:sip_endpoint.obj
 0002:00001d54       ??_C@_0DD@CJCKLIHE@?$CFs?5from?5?$CFs?3?$CFd?5was?5dropped?1unhan@ 00459d54     pjsip-core-i386-win32-vc8-release-dynamic:sip_endpoint.obj
 0002:00001d88       ??_C@_0M@HFADNKMO@?3?5?$FLerr?5?$CFd?$FN?5@ 00459d88     pjsip-core-i386-win32-vc8-release-dynamic:sip_endpoint.obj
 0002:00001d94       ??_C@_0N@IDBMKGKC@UNIDENTIFIED@ 00459d94     pjsip-core-i386-win32-vc8-release-dynamic:sip_util.obj
 0002:00001da4       ??_C@_05BLGDNOJI@TIMER@    00459da4     pjsip-core-i386-win32-vc8-release-dynamic:sip_util.obj
 0002:00001dac       ??_C@_06FHCLPGGO@TX_MSG@   00459dac     pjsip-core-i386-win32-vc8-release-dynamic:sip_util.obj
 0002:00001db4       ??_C@_06DEPLMDFE@RX_MSG@   00459db4     pjsip-core-i386-win32-vc8-release-dynamic:sip_util.obj
 0002:00001dbc       ??_C@_0BA@DJFINPGH@TRANSPORT_ERROR@ 00459dbc     pjsip-core-i386-win32-vc8-release-dynamic:sip_util.obj
 0002:00001dcc       ??_C@_09DGJBKMAD@TSX_STATE@ 00459dcc     pjsip-core-i386-win32-vc8-release-dynamic:sip_util.obj
 0002:00001dd8       ??_C@_04OOEKJIOI@USER@     00459dd8     pjsip-core-i386-win32-vc8-release-dynamic:sip_util.obj
 0002:00001de0       ??_C@_04CIMGMMMG@text@     00459de0     pjsip-core-i386-win32-vc8-release-dynamic:sip_util.obj
 0002:00001de8       ??_C@_05CGDPOPDB@plain@    00459de8     pjsip-core-i386-win32-vc8-release-dynamic:sip_util.obj
 0002:00001df0       ??_C@_0M@PJOLBNIF@?$CFs?5created?4@ 00459df0     pjsip-core-i386-win32-vc8-release-dynamic:sip_util.obj
 0002:00001dfc       ??_C@_08OKOOPKMJ@endpoint@ 00459dfc     pjsip-core-i386-win32-vc8-release-dynamic:sip_util.obj
 0002:00001e08       ??_C@_0L@IOBEOHFD@?$CFs?5created@ 00459e08     pjsip-core-i386-win32-vc8-release-dynamic:sip_util.obj
 0002:00001e18       ??_C@_0ED@BNKEGDBC@Automatic?5switch?5to?5TLS?5transpo@ 00459e18     pjsip-core-i386-win32-vc8-release-dynamic:sip_util.obj
 0002:00001e5c       ??_C@_07LDFFKCFH@z9hG4bK@  00459e5c     pjsip-core-i386-win32-vc8-release-dynamic:sip_util.obj
 0002:00001e64       ??_C@_05NKHOCLEE@alias@    00459e64     pjsip-core-i386-win32-vc8-release-dynamic:sip_util.obj
 0002:00001e6c       ??_C@_0DF@HEHPNNHP@?$CFs?5exceeds?5UDP?5size?5threshold?5?$CI@ 00459e6c     pjsip-core-i386-win32-vc8-release-dynamic:sip_util.obj
 0002:00001ea4       ??_C@_0DO@JCGKHENM@?$CFs?3?5skipping?5target?5resolution?5@ 00459ea4     pjsip-core-i386-win32-vc8-release-dynamic:sip_util.obj
 0002:00001ee4       ??_C@_0BN@BEFELMIM@Warning?3?5pj_ioqueue_recvfrom@ 00459ee4     pjsip-core-i386-win32-vc8-release-dynamic:sip_transport_udp.obj
 0002:00001f08       ??_C@_0EC@ICGMJAB@FATAL?3?5pj_ioqueue_recvfrom?$CI?$CJ?5er@ 00459f08     pjsip-core-i386-win32-vc8-release-dynamic:sip_transport_udp.obj
 0002:00001f4c       ??_C@_0BM@INPFFNPD@SIP?5UDP?5transport?5destroyed@ 00459f4c     pjsip-core-i386-win32-vc8-release-dynamic:sip_transport_udp.obj
 0002:00001f68       ??_C@_0BJ@MMFAKBFN@udp?5?$CFs?5?$FLpublished?5as?5?$CFs?$FN@ 00459f68     pjsip-core-i386-win32-vc8-release-dynamic:sip_transport_udp.obj
 0002:00001f84       ??_C@_07LINNJFLK@udpv6?$CFp@ 00459f84     pjsip-core-i386-win32-vc8-release-dynamic:sip_transport_udp.obj
 0002:00001f8c       ??_C@_01OHGJGJJP@?$FL@     00459f8c     pjsip-core-i386-win32-vc8-release-dynamic:sip_transport_udp.obj
 0002:00001f90       ??_C@_01LBDDMOBJ@?$FN@     00459f90     pjsip-core-i386-win32-vc8-release-dynamic:sip_transport_udp.obj
 0002:00001f94       ??_C@_05DOGEOMC@udp?$CFp@  00459f94     pjsip-core-i386-win32-vc8-release-dynamic:sip_transport_udp.obj
 0002:00001f9c       ??_C@_07OHKHACFK@0?40?40?40@ 00459f9c     pjsip-core-i386-win32-vc8-release-dynamic:sip_transport_udp.obj
 0002:00001fa4       ??_C@_03LHJHGOJD@?3?30@    00459fa4     pjsip-core-i386-win32-vc8-release-dynamic:sip_transport_udp.obj
 0002:00001fa8       ??_C@_0DB@MDELAJDF@SIP?5?$CFs?5started?0?5published?5addre@ 00459fa8     pjsip-core-i386-win32-vc8-release-dynamic:sip_transport_udp.obj
 0002:00001fdc       ??_C@_0BC@BDGDHMHI@SIP?5UDP?5transport@ 00459fdc     pjsip-core-i386-win32-vc8-release-dynamic:sip_transport_udp.obj
 0002:00001ff0       ??_C@_0BE@KOJAAPOH@sip_transport_udp?4c@ 00459ff0     pjsip-core-i386-win32-vc8-release-dynamic:sip_transport_udp.obj
 0002:00002004       ??_C@_0O@CDKJIHHI@mod?9tsx?9layer@ 0045a004     pjsip-core-i386-win32-vc8-release-dynamic:sip_transaction.obj
 0002:00002014       ??_C@_04KHKKIIL@Null@      0045a014     pjsip-core-i386-win32-vc8-release-dynamic:sip_transaction.obj
 0002:0000201c       ??_C@_07BNCBFEGH@Calling@  0045a01c     pjsip-core-i386-win32-vc8-release-dynamic:sip_transaction.obj
 0002:00002024       ??_C@_0L@BKKAFK@Proceeding@ 0045a024     pjsip-core-i386-win32-vc8-release-dynamic:sip_transaction.obj
 0002:00002030       ??_C@_09MIJAKHKB@Completed@ 0045a030     pjsip-core-i386-win32-vc8-release-dynamic:sip_transaction.obj
 0002:0000203c       ??_C@_09ONANMLIC@Confirmed@ 0045a03c     pjsip-core-i386-win32-vc8-release-dynamic:sip_transaction.obj
 0002:00002048       ??_C@_0L@NNDINIPK@Terminated@ 0045a048     pjsip-core-i386-win32-vc8-release-dynamic:sip_transaction.obj
 0002:00002054       ??_C@_09KDBKJCNL@Destroyed@ 0045a054     pjsip-core-i386-win32-vc8-release-dynamic:sip_transaction.obj
 0002:00002060       ??_C@_03IIGECEEC@UAC@      0045a060     pjsip-core-i386-win32-vc8-release-dynamic:sip_transaction.obj
 0002:00002064       ??_C@_03MCKGDGBD@UAS@      0045a064     pjsip-core-i386-win32-vc8-release-dynamic:sip_transaction.obj
 0002:00002068       ??_C@_0BC@LHFGMDJJ@sip_transaction?4c@ 0045a068     pjsip-core-i386-win32-vc8-release-dynamic:sip_transaction.obj
 0002:0000207c       ??_C@_0CC@CEIKILH@Stopping?5transaction?5layer?5modu@ 0045a07c     pjsip-core-i386-win32-vc8-release-dynamic:sip_transaction.obj
 0002:000020a0       ??_C@_0CB@HOMFNBLL@Stopped?5transaction?5layer?5modul@ 0045a0a0     pjsip-core-i386-win32-vc8-release-dynamic:sip_transaction.obj
 0002:000020c4       ??_C@_0CD@MKMHPCL@Transaction?5layer?5module?5destro@ 0045a0c4     pjsip-core-i386-win32-vc8-release-dynamic:sip_transaction.obj
 0002:000020e8       ??_C@_0DF@EFJDAPKP@Failed?5to?5register?5transaction?5@ 0045a0e8     pjsip-core-i386-win32-vc8-release-dynamic:sip_transaction.obj
 0002:00002120       ??_C@_0CI@CEFAFFOL@Retransmiting?5?$CFs?0?5count?$DN?$CFd?0?5res@ 0045a120     pjsip-core-i386-win32-vc8-release-dynamic:sip_transaction.obj
 0002:00002148       ??_C@_0CK@BFJIAGKI@Received?5illegal?5ACK?5for?5?$CF?4?$CKs?5t@ 0045a148     pjsip-core-i386-win32-vc8-release-dynamic:sip_transaction.obj
 0002:00002174       ??_C@_08NHKHBNMC@tsxlayer@ 0045a174     pjsip-core-i386-win32-vc8-release-dynamic:sip_transaction.obj
 0002:00002180       ??_C@_0DB@ELBLLJGF@Unable?5to?5register?5?$CF?4?$CKs?5transac@ 0045a180     pjsip-core-i386-win32-vc8-release-dynamic:sip_transaction.obj
 0002:000021b4       ??_C@_03ILLHDCNP@tsx@      0045a1b4     pjsip-core-i386-win32-vc8-release-dynamic:sip_transaction.obj
 0002:000021b8       ??_C@_05NPMOPOBK@tsx?$CFp@ 0045a1b8     pjsip-core-i386-win32-vc8-release-dynamic:sip_transaction.obj
 0002:000021c0       ??_C@_0BH@PDBDIMMK@Transaction?5destroyed?$CB@ 0045a1c0     pjsip-core-i386-win32-vc8-release-dynamic:sip_transaction.obj
 0002:000021d8       ??_C@_0DE@PFNICBJL@Will?5destroy?5later?5because?5tran@ 0045a1d8     pjsip-core-i386-win32-vc8-release-dynamic:sip_transaction.obj
 0002:0000220c       ??_C@_0L@KEAKDBBB@Retransmit@ 0045a20c     pjsip-core-i386-win32-vc8-release-dynamic:sip_transaction.obj
 0002:00002218       ??_C@_07MKALMBDJ@Timeout@  0045a218     pjsip-core-i386-win32-vc8-release-dynamic:sip_transaction.obj
 0002:00002220       ??_C@_0P@ICKHIBGF@?$CFs?5timer?5event@ 0045a220     pjsip-core-i386-win32-vc8-release-dynamic:sip_transaction.obj
 0002:00002230       ??_C@_0CG@BHDJKKPD@State?5changed?5from?5?$CFs?5to?5?$CFs?0?5ev@ 0045a230     pjsip-core-i386-win32-vc8-release-dynamic:sip_transaction.obj
 0002:00002258       ??_C@_0BL@NELPIPFA@Transaction?5created?5for?5?$CFs@ 0045a258     pjsip-core-i386-win32-vc8-release-dynamic:sip_transaction.obj
 0002:00002278       ??_C@_0ED@IJNOFMME@Error?3?5CSeq?5header?5contains?5dif@ 0045a278     pjsip-core-i386-win32-vc8-release-dynamic:sip_transaction.obj
 0002:000022bc       ??_C@_0CB@LPCILHMH@Request?5to?5terminate?5transactio@ 0045a2bc     pjsip-core-i386-win32-vc8-release-dynamic:sip_transaction.obj
 0002:000022e0       ??_C@_0BH@NJDAONCL@Sending?5?$CFs?5in?5state?5?$CFs@ 0045a2e0     pjsip-core-i386-win32-vc8-release-dynamic:sip_transaction.obj
 0002:000022f8       ??_C@_0BI@PADDBGDM@Incoming?5?$CFs?5in?5state?5?$CFs@ 0045a2f8     pjsip-core-i386-win32-vc8-release-dynamic:sip_transaction.obj
 0002:00002310       ??_C@_0BP@MFDMMFDJ@Failed?5to?5send?5?$CFs?$CB?5err?$DN?$CFd?5?$CI?$CFs?$CJ@ 0045a310     pjsip-core-i386-win32-vc8-release-dynamic:sip_transaction.obj
 0002:00002330       ??_C@_0DG@HCJJGEJB@Temporary?5failure?5in?5sending?5?$CFs@ 0045a330     pjsip-core-i386-win32-vc8-release-dynamic:sip_transaction.obj
 0002:00002368       ??_C@_0CJ@CBOMABNM@Transport?5failed?5to?5send?5?$CFs?$CB?5Er@ 0045a368     pjsip-core-i386-win32-vc8-release-dynamic:sip_transaction.obj
 0002:00002394       ??_C@_0BB@HMFOJBGF@Error?5sending?5?$CFs@ 0045a394     pjsip-core-i386-win32-vc8-release-dynamic:sip_transaction.obj
 0002:000023a8       ??_C@_0DG@EDJHIGCF@Transport?5error?0?5terminating?5tr@ 0045a3a8     pjsip-core-i386-win32-vc8-release-dynamic:sip_transaction.obj
 0002:000023e0       ??_C@_06GBGGOGBI@mod?9ua@  0045a3e0     pjsip-core-i386-win32-vc8-release-dynamic:sip_ua_layer.obj
 0002:000023e8       ??_C@_04JKMMAKMG@ua?$CFp@  0045a3e8     pjsip-core-i386-win32-vc8-release-dynamic:sip_ua_layer.obj
 0002:000023f0       ??_C@_05OKIAFJEO@?5ua?$CFp@ 0045a3f0     pjsip-core-i386-win32-vc8-release-dynamic:sip_ua_layer.obj
 0002:000023f8       ??_C@_0DE@OALAGOOG@Unable?5to?5find?5dialogset?5for?5?$CFs@ 0045a3f8     pjsip-core-i386-win32-vc8-release-dynamic:sip_ua_layer.obj
 0002:0000242c       ??_C@_0P@JPGJPHAN@sip_ua_layer?4c@ 0045a42c     pjsip-core-i386-win32-vc8-release-dynamic:sip_ua_layer.obj
 0002:0000243c       ??_C@_0DB@GAIHGHNL@Unable?5to?5find?5dialog?5for?5?$CFs?0?5a@ 0045a43c     pjsip-core-i386-win32-vc8-release-dynamic:sip_ua_layer.obj
 0002:00002470       ??_C@_0BN@IDPPCIAF@Unable?5to?5find?5dialog?5for?5?$CFs@ 0045a470     pjsip-core-i386-win32-vc8-release-dynamic:sip_ua_layer.obj
 0002:00002490       ??_C@_0EC@DDCMMPIA@Received?5strayed?52xx?5response?5?$CI@ 0045a490     pjsip-core-i386-win32-vc8-release-dynamic:sip_ua_layer.obj
 0002:000024d4       ??_C@_0CK@KFGINAJM@Received?5forked?5?$CFs?5for?5existing@ 0045a4d4     pjsip-core-i386-win32-vc8-release-dynamic:sip_ua_layer.obj
 0002:00002500       ??_C@_0FB@ELNGKJEC@Unhandled?5forked?5?$CFs?5from?5?$CFs?3?$CFd?0@ 0045a500     pjsip-core-i386-win32-vc8-release-dynamic:sip_ua_layer.obj
 0002:00002554       ??_C@_02DKCKIIND@?$CFs@    0045a554     pjsip-core-i386-win32-vc8-release-dynamic:sip_ua_layer.obj
 0002:00002560       ??_C@_09NMAFIJHB@SUBSCRIBE@ 0045a560     pjsip-core-i386-win32-vc8-release-dynamic:sip_dialog.obj
 0002:0000256c       ??_C@_05NPMLFHIF@REFER@    0045a56c     pjsip-core-i386-win32-vc8-release-dynamic:sip_dialog.obj
 0002:00002574       ??_C@_06LMEIPPMP@NOTIFY@   0045a574     pjsip-core-i386-win32-vc8-release-dynamic:sip_dialog.obj
 0002:0000257c       ??_C@_05DGNCLLBL@dlg?$CFp@ 0045a57c     pjsip-core-i386-win32-vc8-release-dynamic:sip_dialog.obj
 0002:00002584       ??_C@_0BD@BNDBFEIG@UAC?5dialog?5created@ 0045a584     pjsip-core-i386-win32-vc8-release-dynamic:sip_dialog.obj
 0002:00002598       ??_C@_0BD@KGAMNPL@UAS?5dialog?5created@ 0045a598     pjsip-core-i386-win32-vc8-release-dynamic:sip_dialog.obj
 0002:000025ac       ??_C@_0BB@KCGOEMJG@Dialog?5destroyed@ 0045a5ac     pjsip-core-i386-win32-vc8-release-dynamic:sip_dialog.obj
 0002:000025c0       ??_C@_0CA@PEKDEADC@Session?5count?5inc?5to?5?$CFd?5by?5?$CF?4?$CKs@ 0045a5c0     pjsip-core-i386-win32-vc8-release-dynamic:sip_dialog.obj
 0002:000025e0       ??_C@_0CA@LCICJLMD@Session?5count?5dec?5to?5?$CFd?5by?5?$CF?4?$CKs@ 0045a5e0     pjsip-core-i386-win32-vc8-release-dynamic:sip_dialog.obj
 0002:00002600       ??_C@_0CL@CCAGPMOP@Module?5?$CF?4?$CKs?5added?5as?5dialog?5usa@ 0045a600     pjsip-core-i386-win32-vc8-release-dynamic:sip_dialog.obj
 0002:00002630       ??_C@_0EF@MJEHGCLG@Module?5?$CF?4?$CKs?5already?5registered?5@ 0045a630     pjsip-core-i386-win32-vc8-release-dynamic:sip_dialog.obj
 0002:00002678       ??_C@_0M@LHPMKMAE@Received?5?$CFs@ 0045a678     pjsip-core-i386-win32-vc8-release-dynamic:sip_dialog.obj
 0002:00002684       ??_C@_0N@JADHANJP@Invalid?5CSeq@ 0045a684     pjsip-core-i386-win32-vc8-release-dynamic:sip_dialog.obj
 0002:00002694       ??_C@_0BL@HAJOOCAF@Unhandled?5by?5dialog?5usages@ 0045a694     pjsip-core-i386-win32-vc8-release-dynamic:sip_dialog.obj
 0002:000026b0       ??_C@_0DI@GPBFFFGN@?$CFs?5was?5unhandled?5by?5dialog?5usag@ 0045a6b0     pjsip-core-i386-win32-vc8-release-dynamic:sip_dialog.obj
 0002:000026e8       ??_C@_0BC@PCHBAKGP@Route?9set?5updated@ 0045a6e8     pjsip-core-i386-win32-vc8-release-dynamic:sip_dialog.obj
 0002:000026fc       ??_C@_0BB@EMPDFCEJ@Route?9set?5frozen@ 0045a6fc     pjsip-core-i386-win32-vc8-release-dynamic:sip_dialog.obj
 0002:00002710       ??_C@_0CD@PIHECLAB@Transaction?5?$CFs?5state?5changed?5to@ 0045a710     pjsip-core-i386-win32-vc8-release-dynamic:sip_dialog.obj
 0002:00002734       ??_C@_0BB@JCEFLFJE@0123456789abcdef@ 0045a734     pjsip-core-i386-win32-vc8-release-dynamic:sip_auth_client.obj
 0002:00002748       ??_C@_01JLIPDDHJ@?3@       0045a748     pjsip-core-i386-win32-vc8-release-dynamic:sip_auth_client.obj
 0002:0000274c       ??_C@_09BBOOBJFI@AKAv1?9MD5@ 0045a74c     pjsip-core-i386-win32-vc8-release-dynamic:sip_auth_client.obj
 0002:00002758       ??_C@_0CE@PAGGDDKM@Unsupported?5digest?5algorithm?5?$CC?$CF@ 0045a758     pjsip-core-i386-win32-vc8-release-dynamic:sip_auth_client.obj
 0002:0000277c       ??_C@_0BC@IFICLNCF@sip_auth_client?4c@ 0045a77c     pjsip-core-i386-win32-vc8-release-dynamic:sip_auth_client.obj
 0002:00002790       ??_C@_04LIOHGJKM@?$CF08u@  0045a790     pjsip-core-i386-win32-vc8-release-dynamic:sip_auth_client.obj
 0002:00002798       ??_C@_06DKDPJBDF@b39971@   0045a798     pjsip-core-i386-win32-vc8-release-dynamic:sip_auth_client.obj
 0002:000027a0       ??_C@_0BL@DHABBKFJ@Unsupported?5qop?5offer?5?$CF?4?$CKs@ 0045a7a0     pjsip-core-i386-win32-vc8-release-dynamic:sip_auth_client.obj
 0002:000027bc       ??_C@_0L@OLKLFLHC@auth_cli?$CFp@ 0045a7bc     pjsip-core-i386-win32-vc8-release-dynamic:sip_auth_client.obj
 0002:000027c8       ??_C@_0EF@GMAJJJPM@Authorization?5failed?5for?5?$CF?4?$CKs?$EA?$CF@ 0045a7c8     pjsip-core-i386-win32-vc8-release-dynamic:sip_auth_client.obj
 0002:00002810       ??_C@_0EN@FFFABAE@Authorization?5failed?5for?5?$CF?4?$CKs?$EA?$CF@ 0045a810     pjsip-core-i386-win32-vc8-release-dynamic:sip_auth_client.obj
 0002:00002860       ??_C@_0EB@PMHMAEL@Unable?5to?5set?5auth?5for?5?$CFs?3?5can?5@ 0045a860     pjsip-core-i386-win32-vc8-release-dynamic:sip_auth_client.obj
 0002:000028a4       ??_C@_04CCHAHKJA@user@     0045a8a4     pjsip-core-i386-win32-vc8-release-dynamic:sip_parser.obj
 0002:000028ac       ??_C@_06GABBCIBA@method@   0045a8ac     pjsip-core-i386-win32-vc8-release-dynamic:sip_parser.obj
 0002:000028b4       ??_C@_09PBENLGJM@transport@ 0045a8b4     pjsip-core-i386-win32-vc8-release-dynamic:sip_parser.obj
 0002:000028c0       ??_C@_05LIJGAEPJ@maddr@    0045a8c0     pjsip-core-i386-win32-vc8-release-dynamic:sip_parser.obj
 0002:000028c8       ??_C@_02FMHKAPNN@lr@       0045a8c8     pjsip-core-i386-win32-vc8-release-dynamic:sip_parser.obj
 0002:000028cc       ??_C@_03LNLCDKEI@tel@      0045a8cc     pjsip-core-i386-win32-vc8-release-dynamic:sip_parser.obj
 0002:000028d0       ??_C@_06KAEOJLJM@branch@   0045a8d0     pjsip-core-i386-win32-vc8-release-dynamic:sip_parser.obj
 0002:000028d8       ??_C@_03KAFGPDAP@ttl@      0045a8d8     pjsip-core-i386-win32-vc8-release-dynamic:sip_parser.obj
 0002:000028dc       ??_C@_08CIDECLFI@received@ 0045a8dc     pjsip-core-i386-win32-vc8-release-dynamic:sip_parser.obj
 0002:000028e8       ??_C@_01IIACKFLH@q@        0045a8e8     pjsip-core-i386-win32-vc8-release-dynamic:sip_parser.obj
 0002:000028ec       ??_C@_07MJGJEDBB@expires@  0045a8ec     pjsip-core-i386-win32-vc8-release-dynamic:sip_parser.obj
 0002:000028f4       ??_C@_03FJEPELFP@tag@      0045a8f4     pjsip-core-i386-win32-vc8-release-dynamic:sip_parser.obj
 0002:000028f8       ??_C@_05IOGGPFMA@rport@    0045a8f8     pjsip-core-i386-win32-vc8-release-dynamic:sip_parser.obj
 0002:00002900       ??_C@_0EG@NDDOOCLK@NULL?5input?5string?0?5invalid?5inpu@ 0045a900     pjsip-core-i386-win32-vc8-release-dynamic:sip_parser.obj
 0002:00002948       ??_C@_0DG@PAKEPEOC@String?5value?5was?5less?5than?5the?5@ 0045a948     pjsip-core-i386-win32-vc8-release-dynamic:sip_parser.obj
 0002:00002980       ??_C@_0DJ@LBDEGIMP@String?5value?5was?5greater?5than?5t@ 0045a980     pjsip-core-i386-win32-vc8-release-dynamic:sip_parser.obj
 0002:000029bc       ??_C@_0O@NIPGCINC@Unknown?5error@ 0045a9bc     pjsip-core-i386-win32-vc8-release-dynamic:sip_parser.obj
 0002:000029cc       ??_C@_0BJ@JCIGOHAI@Error?5parsing?5?8?$CF?4?$CKs?8?3?5?$CFs@ 0045a9cc     pjsip-core-i386-win32-vc8-release-dynamic:sip_parser.obj
 0002:000029e8       ??_C@_0N@CDHGOKB@sip_parser?4c@ 0045a9e8     pjsip-core-i386-win32-vc8-release-dynamic:sip_parser.obj
 0002:000029f8       ??_C@_0BN@NMLJIDND@Can?8t?5parse?5input?5string?3?5?$CFs@ 0045a9f8     pjsip-core-i386-win32-vc8-release-dynamic:sip_parser.obj
 0002:00002a18       ??_C@_0BD@IGJCFAAL@PJSIP?5syntax?5error@ 0045aa18     pjsip-core-i386-win32-vc8-release-dynamic:sip_parser.obj
 0002:00002a2c       ??_C@_0BK@PNNGKLIN@PJSIP?5invalid?5value?5error@ 0045aa2c     pjsip-core-i386-win32-vc8-release-dynamic:sip_parser.obj
 0002:00002a48       ??_C@_02PCIJFNDE@?$AN?6@   0045aa48     pjsip-core-i386-win32-vc8-release-dynamic:sip_parser.obj
 0002:00002a4c       ??_C@_03MGGIELLM@?0?$AN?6@ 0045aa4c     pjsip-core-i386-win32-vc8-release-dynamic:sip_parser.obj
 0002:00002a50       ??_C@_0L@LGCFMBHL@?9?4?$CB?$CF?$CK_?$GA?8?$HO?$CL@ 0045aa50     pjsip-core-i386-win32-vc8-release-dynamic:sip_parser.obj
 0002:00002a5c       ??_C@_01FGNFDNOH@?$CF@     0045aa5c     pjsip-core-i386-win32-vc8-release-dynamic:sip_parser.obj
 0002:00002a60       ??_C@_03HGEHODII@_?9?4@    0045aa60     pjsip-core-i386-win32-vc8-release-dynamic:sip_parser.obj
 0002:00002a64       ??_C@_0N@INHGOOCE@abcdefABCDEF@ 0045aa64     pjsip-core-i386-win32-vc8-release-dynamic:sip_parser.obj
 0002:00002a74       ??_C@_0BC@EIHPKHIH@?$FL?$FN?1?3?$CG?$CL$?9_?4?$CB?$HO?$CK?8?$CI?$CJ?$CF@ 0045aa74     pjsip-core-i386-win32-vc8-release-dynamic:sip_parser.obj
 0002:00002a88       ??_C@_0BC@DHLPLEEN@?$FL?$FN?1?$DP?3?$CL$?9_?4?$CB?$HO?$CK?8?$CI?$CJ?$CF@ 0045aa88     pjsip-core-i386-win32-vc8-release-dynamic:sip_parser.obj
 0002:00002a9c       ??_C@_0BD@FAKEDBHK@?9_?4?$CB?$HO?$CK?8?$CI?$CJ?$CF?$CG?$DN?$CL$?0?$DL?$DP?1@ 0045aa9c     pjsip-core-i386-win32-vc8-release-dynamic:sip_parser.obj
 0002:00002ab0       ??_C@_01IPJKGB@?$CD@       0045aab0     pjsip-core-i386-win32-vc8-release-dynamic:sip_parser.obj
 0002:00002ab4       ??_C@_0BA@GJPAFF@?9_?4?$CB?$HO?$CK?8?$CI?$CJ?$CF?$CG?$DN?$CL$?0@ 0045aab4     pjsip-core-i386-win32-vc8-release-dynamic:sip_parser.obj
 0002:00002ac4       ??_C@_04INEOGBDO@?$EA?5?6?$DO@ 0045aac4     pjsip-core-i386-win32-vc8-release-dynamic:sip_parser.obj
 0002:00002acc       ??_C@_04FOECIMDB@?3?$AN?6?$DM@ 0045aacc     pjsip-core-i386-win32-vc8-release-dynamic:sip_parser.obj
 0002:00002ad4       ??_C@_0BH@KMKLEGFJ@?$CD?$DP?$DL?3?$EA?$CG?$DN?$CL?9_?4?$CB?$HO?$CK?8?$CI?$CJ?$CF$?0?1?$CF@ 0045aad4     pjsip-core-i386-win32-vc8-release-dynamic:sip_parser.obj
 0002:00002aec       ??_C@_03EDDBLLFO@?6?$AN?6@ 0045aaec     pjsip-core-i386-win32-vc8-release-dynamic:sip_parser.obj
 0002:00002af0       ??_C@_03MCPDGLLE@SIP@      0045aaf0     pjsip-core-i386-win32-vc8-release-dynamic:sip_parser.obj
 0002:00002af4       ??_C@_03GJAMENNA@2?40@     0045aaf4     pjsip-core-i386-win32-vc8-release-dynamic:sip_parser.obj
 0002:00002af8       ??_C@_0N@KMCODECP@Request?5Line@ 0045aaf8     pjsip-core-i386-win32-vc8-release-dynamic:sip_parser.obj
 0002:00002b08       ??_C@_0M@KNCMEJPH@Status?5Line@ 0045ab08     pjsip-core-i386-win32-vc8-release-dynamic:sip_parser.obj
 0002:00002b14       ??_C@_01CLKCMJKC@?5@       0045ab14     pjsip-core-i386-win32-vc8-release-dynamic:sip_parser.obj
 0002:00002b18       ??_C@_0CM@MBFLJJMP@Error?5parsing?5header?3?5?8?$CF?4?$CKs?8?5li@ 0045ab18     pjsip-core-i386-win32-vc8-release-dynamic:sip_parser.obj
 0002:00002b44       ??_C@_08KIKGFOKI@boundary@ 0045ab44     pjsip-core-i386-win32-vc8-release-dynamic:sip_multipart.obj
 0002:00002b50       ??_C@_0CI@MEJEAPPA@Warning?3?5error?5parsing?5multipar@ 0045ab50     pjsip-core-i386-win32-vc8-release-dynamic:sip_multipart.obj
 0002:00002b78       ??_C@_0BA@LBAHDFBC@sip_multipart?4c@ 0045ab78     pjsip-core-i386-win32-vc8-release-dynamic:sip_multipart.obj
 0002:00002b88       ??_C@_06IJPNAHC@digest@    0045ab88     pjsip-core-i386-win32-vc8-release-dynamic:sip_multipart.obj
 0002:00002b90       ??_C@_07ONPBMBOP@message@  0045ab90     pjsip-core-i386-win32-vc8-release-dynamic:sip_multipart.obj
 0002:00002b98       ??_C@_06OGFLLFJI@rfc822@   0045ab98     pjsip-core-i386-win32-vc8-release-dynamic:sip_multipart.obj
 0002:00002ba0       ??_C@_0FD@FFFCNLOH@Warning?3?5boundary?5parameter?5not@ 0045aba0     pjsip-core-i386-win32-vc8-release-dynamic:sip_multipart.obj
 0002:00002bf8       ??_C@_0EO@HHPEFGCJ@Error?3?5multipart?5boundary?5not?5s@ 0045abf8     pjsip-core-i386-win32-vc8-release-dynamic:sip_multipart.obj
 0002:00002c48       ??_C@_06BMAPCEPF@?$DLuser?$DN@ 0045ac48     pjsip-core-i386-win32-vc8-release-dynamic:sip_uri.obj
 0002:00002c50       ??_C@_08FIHANMDK@?$DLmethod?$DN@ 0045ac50     pjsip-core-i386-win32-vc8-release-dynamic:sip_uri.obj
 0002:00002c5c       ??_C@_0M@OGEJDPOO@?$DLtransport?$DN@ 0045ac5c     pjsip-core-i386-win32-vc8-release-dynamic:sip_uri.obj
 0002:00002c68       ??_C@_03KFFFHGHD@?$DLlr@   0045ac68     pjsip-core-i386-win32-vc8-release-dynamic:sip_uri.obj
 0002:00002c70       ??_C@_0FJ@MFGCGKIL@DNS?5resolver?5not?5available?0?5tar@ 0045ac70     pjsip-core-i386-win32-vc8-release-dynamic:sip_resolve.obj
 0002:00002ccc       ??_C@_0O@DMBGNNMG@sip_resolve?4c@ 0045accc     pjsip-core-i386-win32-vc8-release-dynamic:sip_resolve.obj
 0002:00002cdc       ??_C@_0DH@DPGIKKNN@Target?5?8?$CF?4?$CKs?3?$CFd?8?5type?$DN?$CFs?5resolv@ 0045acdc     pjsip-core-i386-win32-vc8-release-dynamic:sip_resolve.obj
 0002:00002d14       ??_C@_0M@EKOGDFHO@_sips?4_tcp?4@ 0045ad14     pjsip-core-i386-win32-vc8-release-dynamic:sip_resolve.obj
 0002:00002d20       ??_C@_0L@CGLNHIHI@_sip?4_tcp?4@ 0045ad20     pjsip-core-i386-win32-vc8-release-dynamic:sip_resolve.obj
 0002:00002d2c       ??_C@_0L@IGAKGJHB@_sip?4_udp?4@ 0045ad2c     pjsip-core-i386-win32-vc8-release-dynamic:sip_resolve.obj
 0002:00002d38       ??_C@_0EE@KKBDDFND@Starting?5async?5DNS?5?$CFs?5query?3?5ta@ 0045ad38     pjsip-core-i386-win32-vc8-release-dynamic:sip_resolve.obj
 0002:00002d7c       ??_C@_0CG@CBPKEJKE@Failed?5to?5resolve?5?8?$CF?4?$CKs?8?4?5Err?$DN?$CF@ 0045ad7c     pjsip-core-i386-win32-vc8-release-dynamic:sip_resolve.obj
 0002:00002da4       ??_C@_0CD@MNOGDEHE@DNS?5A?5record?5resolution?5failed?3@ 0045ada4     pjsip-core-i386-win32-vc8-release-dynamic:sip_resolve.obj
 0002:00002dc8       ??_C@_0CG@MIJEEMDF@DNS?5AAAA?5record?5resolution?5fail@ 0045adc8     pjsip-core-i386-win32-vc8-release-dynamic:sip_resolve.obj
 0002:00002df0       ??_C@_0CI@CCJDGPEP@DNS?5A?1AAAA?5record?5resolution?5fa@ 0045adf0     pjsip-core-i386-win32-vc8-release-dynamic:sip_resolve.obj
 0002:00003080       ??_C@_0BN@NDHPCAAG@Object?5is?5busy?5?$CIPJSIP_EBUSY?$CJ@ 0045b080     pjsip-core-i386-win32-vc8-release-dynamic:sip_errno.obj
 0002:000030a0       ??_C@_0DF@LHIGDAHP@Object?5with?5the?5same?5type?5exist@ 0045b0a0     pjsip-core-i386-win32-vc8-release-dynamic:sip_errno.obj
 0002:000030d8       ??_C@_0CK@JJDNDGNE@SIP?5stack?5shutting?5down?5?$CIPJSIP_@ 0045b0d8     pjsip-core-i386-win32-vc8-release-dynamic:sip_errno.obj
 0002:00003104       ??_C@_0DH@GEJHNFDM@SIP?5object?5is?5not?5initialized?4?5@ 0045b104     pjsip-core-i386-win32-vc8-release-dynamic:sip_errno.obj
 0002:0000313c       ??_C@_0DF@DFCKLJD@Missing?5route?5set?5?$CIfor?5tel?3?5URI@ 0045b13c     pjsip-core-i386-win32-vc8-release-dynamic:sip_errno.obj
 0002:00003174       ??_C@_0DB@LNGCHBD@Invalid?5message?1syntax?5error?5?$CIP@ 0045b174     pjsip-core-i386-win32-vc8-release-dynamic:sip_errno.obj
 0002:000031a8       ??_C@_0DB@NNKMNMEK@Expecting?5request?5message?5?$CIPJSI@ 0045b1a8     pjsip-core-i386-win32-vc8-release-dynamic:sip_errno.obj
 0002:000031dc       ??_C@_0DD@MODFKCPK@Expecting?5response?5message?5?$CIPJS@ 0045b1dc     pjsip-core-i386-win32-vc8-release-dynamic:sip_errno.obj
 0002:00003210       ??_C@_0CF@NOACODOC@Message?5too?5long?5?$CIPJSIP_EMSGTOO@ 0045b210     pjsip-core-i386-win32-vc8-release-dynamic:sip_errno.obj
 0002:00003238       ??_C@_0CE@FONCLLMK@Partial?5message?5?$CIPJSIP_EPARTIAL@ 0045b238     pjsip-core-i386-win32-vc8-release-dynamic:sip_errno.obj
 0002:0000325c       ??_C@_0DK@HMGLEHFD@Invalid?1unexpected?5SIP?5status?5c@ 0045b25c     pjsip-core-i386-win32-vc8-release-dynamic:sip_errno.obj
 0002:00003298       ??_C@_0CA@ICJGNPBL@Invalid?5URI?5?$CIPJSIP_EINVALIDURI?$CJ@ 0045b298     pjsip-core-i386-win32-vc8-release-dynamic:sip_errno.obj
 0002:000032b8       ??_C@_0CK@PDIHHAGH@Invalid?5URI?5scheme?5?$CIPJSIP_EINVA@ 0045b2b8     pjsip-core-i386-win32-vc8-release-dynamic:sip_errno.obj
 0002:000032e4       ??_C@_0CL@FGPCAKCH@Missing?5Request?9URI?5?$CIPJSIP_EMIS@ 0045b2e4     pjsip-core-i386-win32-vc8-release-dynamic:sip_errno.obj
 0002:00003310       ??_C@_0CL@JOKFDOLI@Invalid?5Request?5URI?5?$CIPJSIP_EINV@ 0045b310     pjsip-core-i386-win32-vc8-release-dynamic:sip_errno.obj
 0002:0000333c       ??_C@_0CE@NBJPLEOO@URI?5is?5too?5long?5?$CIPJSIP_EURITOOL@ 0045b33c     pjsip-core-i386-win32-vc8-release-dynamic:sip_errno.obj
 0002:00003360       ??_C@_0CP@PNHNBIME@Missing?5required?5header?$CIs?$CJ?5?$CIPJS@ 0045b360     pjsip-core-i386-win32-vc8-release-dynamic:sip_errno.obj
 0002:00003390       ??_C@_0CJ@GFIBJIAO@Invalid?5header?5field?5?$CIPJSIP_EIN@ 0045b390     pjsip-core-i386-win32-vc8-release-dynamic:sip_errno.obj
 0002:000033bc       ??_C@_0CH@NDGOCBBP@Invalid?5Via?5header?5?$CIPJSIP_EINVA@ 0045b3bc     pjsip-core-i386-win32-vc8-release-dynamic:sip_errno.obj
 0002:000033e4       ??_C@_0DG@HLMABLPG@Multiple?5Via?5headers?5in?5respons@ 0045b3e4     pjsip-core-i386-win32-vc8-release-dynamic:sip_errno.obj
 0002:0000341c       ??_C@_0CK@LJCOFGPN@Missing?5message?5body?5?$CIPJSIP_EMI@ 0045b41c     pjsip-core-i386-win32-vc8-release-dynamic:sip_errno.obj
 0002:00003448       ??_C@_0DB@NINEONMP@Invalid?1unexpected?5method?5?$CIPJSI@ 0045b448     pjsip-core-i386-win32-vc8-release-dynamic:sip_errno.obj
 0002:0000347c       ??_C@_0CO@MKNJKJDL@Unsupported?5transport?5?$CIPJSIP_EU@ 0045b47c     pjsip-core-i386-win32-vc8-release-dynamic:sip_errno.obj
 0002:000034ac       ??_C@_0DD@FMJGJHHJ@Transmit?5buffer?5already?5pending@ 0045b4ac     pjsip-core-i386-win32-vc8-release-dynamic:sip_errno.obj
 0002:000034e0       ??_C@_0CH@FGKEPDFL@Rx?5buffer?5overflow?5?$CIPJSIP_ERXOV@ 0045b4e0     pjsip-core-i386-win32-vc8-release-dynamic:sip_errno.obj
 0002:00003508       ??_C@_0CH@IPJBAOPN@Buffer?5destroyed?5?$CIPJSIP_EBUFDES@ 0045b508     pjsip-core-i386-win32-vc8-release-dynamic:sip_errno.obj
 0002:00003530       ??_C@_0DF@PBAMDOH@Unsuitable?5transport?5selected?5?$CI@ 0045b530     pjsip-core-i386-win32-vc8-release-dynamic:sip_errno.obj
 0002:00003568       ??_C@_0DE@NJLNEKOM@Transport?5not?5available?5for?5use@ 0045b568     pjsip-core-i386-win32-vc8-release-dynamic:sip_errno.obj
 0002:0000359c       ??_C@_0DF@DPMOHHML@Transaction?5has?5been?5destroyed?5@ 0045b59c     pjsip-core-i386-win32-vc8-release-dynamic:sip_errno.obj
 0002:000035d8       ??_C@_0FM@JGDLJGMK@No?5transaction?5is?5associated?5wi@ 0045b5d8     pjsip-core-i386-win32-vc8-release-dynamic:sip_errno.obj
 0002:00003634       ??_C@_0CH@EBPFAGMB@URI?5scheme?5mismatch?5?$CIPJSIP_ECMP@ 0045b634     pjsip-core-i386-win32-vc8-release-dynamic:sip_errno.obj
 0002:0000365c       ??_C@_0CI@DCNDLDIL@URI?5user?5part?5mismatch?5?$CIPJSIP_E@ 0045b65c     pjsip-core-i386-win32-vc8-release-dynamic:sip_errno.obj
 0002:00003684       ??_C@_0CO@NLCBDNGP@URI?5password?5part?5mismatch?5?$CIPJS@ 0045b684     pjsip-core-i386-win32-vc8-release-dynamic:sip_errno.obj
 0002:000036b4       ??_C@_0CI@CAAENIBN@URI?5host?5part?5mismatch?5?$CIPJSIP_E@ 0045b6b4     pjsip-core-i386-win32-vc8-release-dynamic:sip_errno.obj
 0002:000036dc       ??_C@_0CD@LGFLCNGN@URI?5port?5mismatch?5?$CIPJSIP_ECMPPO@ 0045b6dc     pjsip-core-i386-win32-vc8-release-dynamic:sip_errno.obj
 0002:00003700       ??_C@_0DG@KAIIGJOM@URI?5transport?5param?5mismatch?5?$CIP@ 0045b700     pjsip-core-i386-win32-vc8-release-dynamic:sip_errno.obj
 0002:00003738       ??_C@_0CM@PONOAHFI@URI?5ttl?5param?5mismatch?5?$CIPJSIP_E@ 0045b738     pjsip-core-i386-win32-vc8-release-dynamic:sip_errno.obj
 0002:00003764       ??_C@_0CO@PNILAMMK@URI?5user?5param?5mismatch?5?$CIPJSIP_@ 0045b764     pjsip-core-i386-win32-vc8-release-dynamic:sip_errno.obj
 0002:00003794       ??_C@_0DC@BPANLPFC@URI?5method?5param?5mismatch?5?$CIPJSI@ 0045b794     pjsip-core-i386-win32-vc8-release-dynamic:sip_errno.obj
 0002:000037c8       ??_C@_0DA@HIHPGKKA@URI?5maddr?5param?5mismatch?5?$CIPJSIP@ 0045b7c8     pjsip-core-i386-win32-vc8-release-dynamic:sip_errno.obj
 0002:000037f8       ??_C@_0DA@DADPPELC@URI?5other?5param?5mismatch?5?$CIPJSIP@ 0045b7f8     pjsip-core-i386-win32-vc8-release-dynamic:sip_errno.obj
 0002:00003828       ??_C@_0DG@CFNMFPOM@URI?5header?5parameter?5mismatch?5?$CI@ 0045b828     pjsip-core-i386-win32-vc8-release-dynamic:sip_errno.obj
 0002:00003860       ??_C@_0DM@LOOBEDNN@Credential?5failed?5to?5authentica@ 0045b860     pjsip-core-i386-win32-vc8-release-dynamic:sip_errno.obj
 0002:0000389c       ??_C@_0CN@IIEEILJJ@No?5suitable?5credential?5?$CIPJSIP_E@ 0045b89c     pjsip-core-i386-win32-vc8-release-dynamic:sip_errno.obj
 0002:000038cc       ??_C@_0DP@NGPGIDFF@Invalid?1unsupported?5digest?5algo@ 0045b8cc     pjsip-core-i386-win32-vc8-release-dynamic:sip_errno.obj
 0002:0000390c       ??_C@_0DD@GJOGBLMF@Invalid?1unsupported?5digest?5qop?5@ 0045b90c     pjsip-core-i386-win32-vc8-release-dynamic:sip_errno.obj
 0002:00003940       ??_C@_0DN@GPEKONDD@Unsupported?5authentication?5sche@ 0045b940     pjsip-core-i386-win32-vc8-release-dynamic:sip_errno.obj
 0002:00003980       ??_C@_0CO@BMGFFPME@No?5previous?5challenge?5?$CIPJSIP_EA@ 0045b980     pjsip-core-i386-win32-vc8-release-dynamic:sip_errno.obj
 0002:000039b0       ??_C@_0DF@DNNICPPN@No?5suitable?5authorization?5heade@ 0045b9b0     pjsip-core-i386-win32-vc8-release-dynamic:sip_errno.obj
 0002:000039e8       ??_C@_0DJ@LPEDCKOO@Account?5or?5credential?5not?5found@ 0045b9e8     pjsip-core-i386-win32-vc8-release-dynamic:sip_errno.obj
 0002:00003a24       ??_C@_0DL@CMLHLLPG@Account?5or?5credential?5is?5disabl@ 0045ba24     pjsip-core-i386-win32-vc8-release-dynamic:sip_errno.obj
 0002:00003a60       ??_C@_0DG@HIIKPIBJ@Invalid?5authorization?5realm?5?$CIPJ@ 0045ba60     pjsip-core-i386-win32-vc8-release-dynamic:sip_errno.obj
 0002:00003a98       ??_C@_0DI@MHHCMF@Invalid?5authorization?5digest?5?$CIP@ 0045ba98     pjsip-core-i386-win32-vc8-release-dynamic:sip_errno.obj
 0002:00003ad0       ??_C@_0EB@JCHOOAEG@Maximum?5number?5of?5stale?5retries@ 0045bad0     pjsip-core-i386-win32-vc8-release-dynamic:sip_errno.obj
 0002:00003b18       ??_C@_0EF@LIONEPAL@Invalid?5nonce?5value?5in?5authenti@ 0045bb18     pjsip-core-i386-win32-vc8-release-dynamic:sip_errno.obj
 0002:00003b60       ??_C@_0CO@PNJFNJKN@Invalid?5AKA?5credential?5?$CIPJSIP_E@ 0045bb60     pjsip-core-i386-win32-vc8-release-dynamic:sip_errno.obj
 0002:00003b90       ??_C@_0CK@IIJPHHCN@No?5challenge?5is?5found?5?$CIPJSIP_EA@ 0045bb90     pjsip-core-i386-win32-vc8-release-dynamic:sip_errno.obj
 0002:00003bbc       ??_C@_0DC@HLPJEBKI@Missing?5From?1To?5tag?5parameter?5?$CI@ 0045bbbc     pjsip-core-i386-win32-vc8-release-dynamic:sip_errno.obj
 0002:00003bf0       ??_C@_0CK@NLEHMEII@Expecting?5REFER?5request?5?$CIPJSIP_@ 0045bbf0     pjsip-core-i386-win32-vc8-release-dynamic:sip_errno.obj
 0002:00003c1c       ??_C@_0DP@GMKFENNH@Not?5associated?5with?5REFER?5subsc@ 0045bc1c     pjsip-core-i386-win32-vc8-release-dynamic:sip_errno.obj
 0002:00003c5c       ??_C@_0DN@EOKOKJCK@INVITE?5session?5already?5terminat@ 0045bc5c     pjsip-core-i386-win32-vc8-release-dynamic:sip_errno.obj
 0002:00003c9c       ??_C@_0DD@DMBFAKPC@Invalid?5INVITE?5session?5state?5?$CIP@ 0045bc9c     pjsip-core-i386-win32-vc8-release-dynamic:sip_errno.obj
 0002:00003cd0       ??_C@_0DK@CJAGEDOD@Require?5secure?5session?1transpor@ 0045bcd0     pjsip-core-i386-win32-vc8-release-dynamic:sip_errno.obj
 0002:00003d0c       ??_C@_0CH@HBADBAEP@Unknown?5TLS?5error?5?$CIPJSIP_TLS_EU@ 0045bd0c     pjsip-core-i386-win32-vc8-release-dynamic:sip_errno.obj
 0002:00003d34       ??_C@_0DD@NFLPGFPJ@Invalid?5SSL?5protocol?5method?5?$CIPJ@ 0045bd34     pjsip-core-i386-win32-vc8-release-dynamic:sip_errno.obj
 0002:00003d68       ??_C@_0DN@LHDHPIOK@Error?5loading?1verifying?5SSL?5CA?5@ 0045bd68     pjsip-core-i386-win32-vc8-release-dynamic:sip_errno.obj
 0002:00003da8       ??_C@_0DP@NPMNFNID@Error?5loading?5SSL?5certificate?5c@ 0045bda8     pjsip-core-i386-win32-vc8-release-dynamic:sip_errno.obj
 0002:00003de8       ??_C@_0EI@PNDINLEB@Error?5adding?5private?5key?5from?5S@ 0045bde8     pjsip-core-i386-win32-vc8-release-dynamic:sip_errno.obj
 0002:00003e30       ??_C@_0DC@HMDIEPNK@Error?5setting?5SSL?5cipher?5list?5?$CI@ 0045be30     pjsip-core-i386-win32-vc8-release-dynamic:sip_errno.obj
 0002:00003e64       ??_C@_0CM@KJHKFFIL@Error?5creating?5SSL?5context?5?$CIPJS@ 0045be64     pjsip-core-i386-win32-vc8-release-dynamic:sip_errno.obj
 0002:00003e90       ??_C@_0DK@GBGOJKMK@Error?5creating?5SSL?5connection?5o@ 0045be90     pjsip-core-i386-win32-vc8-release-dynamic:sip_errno.obj
 0002:00003ed0       ??_C@_0EB@LOJLDGBN@Unknown?5error?5when?5performing?5S@ 0045bed0     pjsip-core-i386-win32-vc8-release-dynamic:sip_errno.obj
 0002:00003f14       ??_C@_0DP@CGFDGHCM@Unknown?5error?5when?5performing?5S@ 0045bf14     pjsip-core-i386-win32-vc8-release-dynamic:sip_errno.obj
 0002:00003f54       ??_C@_0DG@LGELLHGA@Unknown?5error?5when?5sending?5SSL?5@ 0045bf54     pjsip-core-i386-win32-vc8-release-dynamic:sip_errno.obj
 0002:00003f8c       ??_C@_0DG@GNCBAFL@Unknown?5error?5when?5reading?5SSL?5@ 0045bf8c     pjsip-core-i386-win32-vc8-release-dynamic:sip_errno.obj
 0002:00003fc4       ??_C@_0DE@NMMHGAJD@SSL?5negotiation?5has?5timed?5out?5?$CI@ 0045bfc4     pjsip-core-i386-win32-vc8-release-dynamic:sip_errno.obj
 0002:00003ff8       ??_C@_0DK@PDMPPIHB@SSL?5certificate?5verification?5er@ 0045bff8     pjsip-core-i386-win32-vc8-release-dynamic:sip_errno.obj
 0002:00004034       ??_C@_0BH@IINGFMKF@Unknown?5pjsip?5error?5?$CFd@ 0045c034     pjsip-core-i386-win32-vc8-release-dynamic:sip_errno.obj
 0002:0000404c       ??_C@_04NBIELBDC@isub@     0045c04c     pjsip-core-i386-win32-vc8-release-dynamic:sip_tel_uri.obj
 0002:00004054       ??_C@_03MDPCKCMI@ext@      0045c054     pjsip-core-i386-win32-vc8-release-dynamic:sip_tel_uri.obj
 0002:00004058       ??_C@_0O@IMLAOJJD@phone?9context@ 0045c058     pjsip-core-i386-win32-vc8-release-dynamic:sip_tel_uri.obj
 0002:00004068       ??_C@_05OGMJFBEO@?$DLext?$DN@ 0045c068     pjsip-core-i386-win32-vc8-release-dynamic:sip_tel_uri.obj
 0002:00004070       ??_C@_06CECEBCPK@?$DLisub?$DN@ 0045c070     pjsip-core-i386-win32-vc8-release-dynamic:sip_tel_uri.obj
 0002:00004078       ??_C@_0BA@JDMJBMEF@?$DLphone?9context?$DN@ 0045c078     pjsip-core-i386-win32-vc8-release-dynamic:sip_tel_uri.obj
 0002:00004088       ??_C@_0P@KBNHNABO@0123456789?9?4?$CI?$CJ@ 0045c088     pjsip-core-i386-win32-vc8-release-dynamic:sip_tel_uri.obj
 0002:00004098       ??_C@_0CM@MMELMJHM@0123456789aAbBcCdDeEfF?$CK?$CD?9?4?$CI?$CJ?$CL01@ 0045c098     pjsip-core-i386-win32-vc8-release-dynamic:sip_tel_uri.obj
 0002:000040c4       ??_C@_04DCHJLDOJ@?9?4?$CI?$CJ@ 0045c0c4     pjsip-core-i386-win32-vc8-release-dynamic:sip_tel_uri.obj
 0002:000040cc       ??_C@_0BA@NHFLMIGM@?$CL0123456789?9?4?$CI?$CJ@ 0045c0cc     pjsip-core-i386-win32-vc8-release-dynamic:sip_tel_uri.obj
 0002:000040dc       ??_C@_0BP@LJHGJILO@?1?3?$EA?$CG$?0?$CL0123456789?9_?4?$CB?$HO?$CK?8?$CI?$CJ?$CF?$FL?$FN?$CL@ 0045c0dc     pjsip-core-i386-win32-vc8-release-dynamic:sip_tel_uri.obj
 0002:000040fc       ??_C@_01JOAMLHOP@?9@       0045c0fc     pjsip-core-i386-win32-vc8-release-dynamic:sip_tel_uri.obj
 0002:00004100       ??_C@_0BM@IILGPONN@?$FL?$FN?1?3?$CG?$CL$0123456789?9_?4?$CB?$HO?$CK?8?$CI?$CJ?$CF@ 0045c100     pjsip-core-i386-win32-vc8-release-dynamic:sip_tel_uri.obj
 0002:0000411c       ??_C@_01NEMOKFLO@?$DN@     0045c11c     pjsip-core-i386-win32-vc8-release-dynamic:sip_tel_uri.obj
 0002:00004120       ??_C@_0BC@OBBFELDN@mod?9stateful?9util@ 0045c120     pjsip-core-i386-win32-vc8-release-dynamic:sip_util_statefull.obj
 0002:00004134       ??_C@_09FNNDBHOE@username?$DN@ 0045c134     pjsip-core-i386-win32-vc8-release-dynamic:sip_auth_msg.obj
 0002:00004140       ??_C@_08FIMOKBNA@?0?5realm?$DN@ 0045c140     pjsip-core-i386-win32-vc8-release-dynamic:sip_auth_msg.obj
 0002:0000414c       ??_C@_08INALKCDD@?0?5nonce?$DN@ 0045c14c     pjsip-core-i386-win32-vc8-release-dynamic:sip_auth_msg.obj
 0002:00004158       ??_C@_06LAMIMJOG@?0?5uri?$DN@ 0045c158     pjsip-core-i386-win32-vc8-release-dynamic:sip_auth_msg.obj
 0002:00004160       ??_C@_0M@LHKMMNIM@?0?5response?$DN@ 0045c160     pjsip-core-i386-win32-vc8-release-dynamic:sip_auth_msg.obj
 0002:0000416c       ??_C@_0N@CGBNHFEJ@?0?5algorithm?$DN@ 0045c16c     pjsip-core-i386-win32-vc8-release-dynamic:sip_auth_msg.obj
 0002:0000417c       ??_C@_09JMMPALKP@?0?5cnonce?$DN@ 0045c17c     pjsip-core-i386-win32-vc8-release-dynamic:sip_auth_msg.obj
 0002:00004188       ??_C@_09FBEJJABD@?0?5opaque?$DN@ 0045c188     pjsip-core-i386-win32-vc8-release-dynamic:sip_auth_msg.obj
 0002:00004194       ??_C@_06PEMMHIJL@?0?5qop?$DN@ 0045c194     pjsip-core-i386-win32-vc8-release-dynamic:sip_auth_msg.obj
 0002:0000419c       ??_C@_05EBCAJOC@?0?5nc?$DN@ 0045c19c     pjsip-core-i386-win32-vc8-release-dynamic:sip_auth_msg.obj
 0002:000041a4       ??_C@_03NHCDCECM@pgp@      0045c1a4     pjsip-core-i386-win32-vc8-release-dynamic:sip_auth_msg.obj
 0002:000041a8       ??_C@_06LOBIHJOB@realm?$DN@ 0045c1a8     pjsip-core-i386-win32-vc8-release-dynamic:sip_auth_msg.obj
 0002:000041b0       ??_C@_08CKNLFMMP@?0domain?$DN@ 0045c1b0     pjsip-core-i386-win32-vc8-release-dynamic:sip_auth_msg.obj
 0002:000041bc       ??_C@_07DNEKANAM@?0nonce?$DN@ 0045c1bc     pjsip-core-i386-win32-vc8-release-dynamic:sip_auth_msg.obj
 0002:000041c4       ??_C@_08OHJPPMIB@?0opaque?$DN@ 0045c1c4     pjsip-core-i386-win32-vc8-release-dynamic:sip_auth_msg.obj
 0002:000041d0       ??_C@_04LOAJBDKD@true@     0045c1d0     pjsip-core-i386-win32-vc8-release-dynamic:sip_auth_msg.obj
 0002:000041d8       ??_C@_07IIGBIFNN@?0stale?$DN@ 0045c1d8     pjsip-core-i386-win32-vc8-release-dynamic:sip_auth_msg.obj
 0002:000041e0       ??_C@_0M@HOHCEKCL@?0algorithm?$DN@ 0045c1e0     pjsip-core-i386-win32-vc8-release-dynamic:sip_auth_msg.obj
 0002:000041ec       ??_C@_05KHLNJFNF@?0qop?$DN@ 0045c1ec     pjsip-core-i386-win32-vc8-release-dynamic:sip_auth_msg.obj
 0002:000041f4       _pjsip_USERNAME_STR        0045c1f4     pjsip-core-i386-win32-vc8-release-dynamic:sip_auth_parser.obj
 0002:000041fc       _pjsip_REALM_STR           0045c1fc     pjsip-core-i386-win32-vc8-release-dynamic:sip_auth_parser.obj
 0002:00004204       _pjsip_NONCE_STR           0045c204     pjsip-core-i386-win32-vc8-release-dynamic:sip_auth_parser.obj
 0002:0000420c       _pjsip_URI_STR             0045c20c     pjsip-core-i386-win32-vc8-release-dynamic:sip_auth_parser.obj
 0002:00004214       _pjsip_RESPONSE_STR        0045c214     pjsip-core-i386-win32-vc8-release-dynamic:sip_auth_parser.obj
 0002:0000421c       _pjsip_ALGORITHM_STR       0045c21c     pjsip-core-i386-win32-vc8-release-dynamic:sip_auth_parser.obj
 0002:00004224       _pjsip_DOMAIN_STR          0045c224     pjsip-core-i386-win32-vc8-release-dynamic:sip_auth_parser.obj
 0002:0000422c       _pjsip_STALE_STR           0045c22c     pjsip-core-i386-win32-vc8-release-dynamic:sip_auth_parser.obj
 0002:00004234       _pjsip_QOP_STR             0045c234     pjsip-core-i386-win32-vc8-release-dynamic:sip_auth_parser.obj
 0002:0000423c       _pjsip_CNONCE_STR          0045c23c     pjsip-core-i386-win32-vc8-release-dynamic:sip_auth_parser.obj
 0002:00004244       _pjsip_OPAQUE_STR          0045c244     pjsip-core-i386-win32-vc8-release-dynamic:sip_auth_parser.obj
 0002:0000424c       _pjsip_NC_STR              0045c24c     pjsip-core-i386-win32-vc8-release-dynamic:sip_auth_parser.obj
 0002:00004254       _pjsip_TRUE_STR            0045c254     pjsip-core-i386-win32-vc8-release-dynamic:sip_auth_parser.obj
 0002:0000425c       _pjsip_FALSE_STR           0045c25c     pjsip-core-i386-win32-vc8-release-dynamic:sip_auth_parser.obj
 0002:00004264       _pjsip_DIGEST_STR          0045c264     pjsip-core-i386-win32-vc8-release-dynamic:sip_auth_parser.obj
 0002:0000426c       _pjsip_PGP_STR             0045c26c     pjsip-core-i386-win32-vc8-release-dynamic:sip_auth_parser.obj
 0002:00004274       _pjsip_MD5_STR             0045c274     pjsip-core-i386-win32-vc8-release-dynamic:sip_auth_parser.obj
 0002:0000427c       _pjsip_AUTH_STR            0045c27c     pjsip-core-i386-win32-vc8-release-dynamic:sip_auth_parser.obj
 0002:00004284       _pjsip_QUOTED_TRUE_STR     0045c284     pjsip-core-i386-win32-vc8-release-dynamic:sip_auth_parser.obj
 0002:0000428c       _pjsip_QUOTED_FALSE_STR    0045c28c     pjsip-core-i386-win32-vc8-release-dynamic:sip_auth_parser.obj
 0002:00004294       _pjsip_QUOTED_DIGEST_STR   0045c294     pjsip-core-i386-win32-vc8-release-dynamic:sip_auth_parser.obj
 0002:0000429c       _pjsip_QUOTED_PGP_STR      0045c29c     pjsip-core-i386-win32-vc8-release-dynamic:sip_auth_parser.obj
 0002:000042a4       _pjsip_QUOTED_MD5_STR      0045c2a4     pjsip-core-i386-win32-vc8-release-dynamic:sip_auth_parser.obj
 0002:000042ac       _pjsip_QUOTED_AUTH_STR     0045c2ac     pjsip-core-i386-win32-vc8-release-dynamic:sip_auth_parser.obj
 0002:000042b4       ??_C@_08ODGEKKOL@username@ 0045c2b4     pjsip-core-i386-win32-vc8-release-dynamic:sip_auth_parser.obj
 0002:000042c0       ??_C@_05ELABLNGD@realm@    0045c2c0     pjsip-core-i386-win32-vc8-release-dynamic:sip_auth_parser.obj
 0002:000042c8       ??_C@_05OOEDLKEB@nonce@    0045c2c8     pjsip-core-i386-win32-vc8-release-dynamic:sip_auth_parser.obj
 0002:000042d0       ??_C@_03GBBABMJN@uri@      0045c2d0     pjsip-core-i386-win32-vc8-release-dynamic:sip_auth_parser.obj
 0002:000042d4       ??_C@_08HKMEAON@response@  0045c2d4     pjsip-core-i386-win32-vc8-release-dynamic:sip_auth_parser.obj
 0002:000042e0       ??_C@_09JPNFBOJG@algorithm@ 0045c2e0     pjsip-core-i386-win32-vc8-release-dynamic:sip_auth_parser.obj
 0002:000042ec       ??_C@_06LKIIGAOE@domain@   0045c2ec     pjsip-core-i386-win32-vc8-release-dynamic:sip_auth_parser.obj
 0002:000042f4       ??_C@_05BFAEFKPM@stale@    0045c2f4     pjsip-core-i386-win32-vc8-release-dynamic:sip_auth_parser.obj
 0002:000042fc       ??_C@_03GBIMBCPB@qop@      0045c2fc     pjsip-core-i386-win32-vc8-release-dynamic:sip_auth_parser.obj
 0002:00004300       ??_C@_06HILDJCOE@cnonce@   0045c300     pjsip-core-i386-win32-vc8-release-dynamic:sip_auth_parser.obj
 0002:00004308       ??_C@_06CJCOLNBB@opaque@   0045c308     pjsip-core-i386-win32-vc8-release-dynamic:sip_auth_parser.obj
 0002:00004310       ??_C@_02MCHPIKD@nc@        0045c310     pjsip-core-i386-win32-vc8-release-dynamic:sip_auth_parser.obj
 0002:00004314       ??_C@_06JMFPOLAJ@?$CCtrue?$CC@ 0045c314     pjsip-core-i386-win32-vc8-release-dynamic:sip_auth_parser.obj
 0002:0000431c       ??_C@_05LAPONLG@false@     0045c31c     pjsip-core-i386-win32-vc8-release-dynamic:sip_auth_parser.obj
 0002:00004324       ??_C@_07MGKGDKEI@?$CCfalse?$CC@ 0045c324     pjsip-core-i386-win32-vc8-release-dynamic:sip_auth_parser.obj
 0002:0000432c       ??_C@_06MHCCOJOO@Digest@   0045c32c     pjsip-core-i386-win32-vc8-release-dynamic:sip_auth_parser.obj
 0002:00004334       ??_C@_08MPOLMKFE@?$CCDigest?$CC@ 0045c334     pjsip-core-i386-win32-vc8-release-dynamic:sip_auth_parser.obj
 0002:00004340       ??_C@_03NKNIOJFA@PGP@      0045c340     pjsip-core-i386-win32-vc8-release-dynamic:sip_auth_parser.obj
 0002:00004344       ??_C@_05PBIHDNLO@?$CCPGP?$CC@ 0045c344     pjsip-core-i386-win32-vc8-release-dynamic:sip_auth_parser.obj
 0002:0000434c       ??_C@_03PKBIKOHH@md5@      0045c34c     pjsip-core-i386-win32-vc8-release-dynamic:sip_auth_parser.obj
 0002:00004350       ??_C@_05FEKNEIJC@?$CCmd5?$CC@ 0045c350     pjsip-core-i386-win32-vc8-release-dynamic:sip_auth_parser.obj
 0002:00004358       ??_C@_04DPLCCHJC@auth@     0045c358     pjsip-core-i386-win32-vc8-release-dynamic:sip_auth_parser.obj
 0002:00004360       ??_C@_06MNAAFAAH@?$CCauth?$CC@ 0045c360     pjsip-core-i386-win32-vc8-release-dynamic:sip_auth_parser.obj
 0002:000043c8       ??_C@_0DC@MHBBCDGM@Unspecified?5audio?5device?5error?5@ 0045c3c8     pjmedia-audiodev-i386-win32-vc8-release-dynamic:errno.obj
 0002:000043fc       ??_C@_0DG@FEDKLOFB@Unknown?5error?5from?5audio?5driver@ 0045c3fc     pjmedia-audiodev-i386-win32-vc8-release-dynamic:errno.obj
 0002:00004434       ??_C@_0DE@DOHCBKFK@Audio?5subsystem?5not?5initialized@ 0045c434     pjmedia-audiodev-i386-win32-vc8-release-dynamic:errno.obj
 0002:00004468       ??_C@_0CL@NCBJPCNF@Invalid?5audio?5device?5?$CIPJMEDIA_E@ 0045c468     pjmedia-audiodev-i386-win32-vc8-release-dynamic:errno.obj
 0002:00004494       ??_C@_0CM@LOPLLMHO@Found?5no?5audio?5devices?5?$CIPJMEDIA@ 0045c494     pjmedia-audiodev-i386-win32-vc8-release-dynamic:errno.obj
 0002:000044c0       ??_C@_0DM@DPDKGMIE@Unable?5to?5find?5default?5audio?5de@ 0045c4c0     pjmedia-audiodev-i386-win32-vc8-release-dynamic:errno.obj
 0002:000044fc       ??_C@_0CP@JIPJOIMB@Audio?5device?5not?5ready?5?$CIPJMEDIA@ 0045c4fc     pjmedia-audiodev-i386-win32-vc8-release-dynamic:errno.obj
 0002:0000452c       ??_C@_0DO@NMIGLFFA@Invalid?5or?5unsupported?5audio?5ca@ 0045c52c     pjmedia-audiodev-i386-win32-vc8-release-dynamic:errno.obj
 0002:00004570       ??_C@_0ED@PLJALPOA@Invalid?5or?5unsupported?5audio?5de@ 0045c570     pjmedia-audiodev-i386-win32-vc8-release-dynamic:errno.obj
 0002:000045b4       ??_C@_0DM@JKDJGBNG@Bad?5or?5invalid?5audio?5device?5for@ 0045c5b4     pjmedia-audiodev-i386-win32-vc8-release-dynamic:errno.obj
 0002:000045f0       ??_C@_0DN@BLAJILEA@Invalid?5audio?5device?5sample?5for@ 0045c5f0     pjmedia-audiodev-i386-win32-vc8-release-dynamic:errno.obj
 0002:00004630       ??_C@_0DE@LJJGJIEF@Bad?5audio?5latency?5setting?5?$CIPJME@ 0045c630     pjmedia-audiodev-i386-win32-vc8-release-dynamic:errno.obj
 0002:00004664       ??_C@_0BJ@GMHLEOAL@MMSYSTEM?5native?5error?5?$CFd@ 0045c664     pjmedia-audiodev-i386-win32-vc8-release-dynamic:errno.obj
 0002:00004680       ??_C@_0CC@MFOJNIAN@Unknown?5pjmedia?9audiodev?5error?5@ 0045c680     pjmedia-audiodev-i386-win32-vc8-release-dynamic:errno.obj
 0002:000046a4       ??_C@_0M@KBHHDDLP@Wave?5mapper@ 0045c6a4     pjmedia-audiodev-i386-win32-vc8-release-dynamic:wmme_dev.obj
 0002:000046b0       ??_C@_04CPNMDOAK@WMME@     0045c6b0     pjmedia-audiodev-i386-win32-vc8-release-dynamic:wmme_dev.obj
 0002:000046b8       ??_C@_0BB@EOKKHGLD@WMME?5initialized@ 0045c6b8     pjmedia-audiodev-i386-win32-vc8-release-dynamic:wmme_dev.obj
 0002:000046cc       ??_C@_0L@HHCCMOGO@wmme_dev?4c@ 0045c6cc     pjmedia-audiodev-i386-win32-vc8-release-dynamic:wmme_dev.obj
 0002:000046d8       ??_C@_0BM@OMJMEAMB@WMME?5found?5no?5sound?5devices@ 0045c6d8     pjmedia-audiodev-i386-win32-vc8-release-dynamic:wmme_dev.obj
 0002:000046f4       ??_C@_11LOCGONAA@@         0045c6f4     pjmedia-audiodev-i386-win32-vc8-release-dynamic:wmme_dev.obj
 0002:000046f8       ??_C@_0BH@GEMAAOCL@WMME?5found?5?$CFd?5devices?3@ 0045c6f8     pjmedia-audiodev-i386-win32-vc8-release-dynamic:wmme_dev.obj
 0002:00004710       ??_C@_0CA@NLJGEGOG@?5dev_id?5?$CFd?3?5?$CFs?5?5?$CIin?$DN?$CFd?0?5out?$DN?$CFd?$CJ@ 0045c710     pjmedia-audiodev-i386-win32-vc8-release-dynamic:wmme_dev.obj
 0002:00004730       ??_C@_03CCLNCNJA@PCM@      0045c730     pjmedia-audiodev-i386-win32-vc8-release-dynamic:wmme_dev.obj
 0002:00004738       ??_C@_0HB@MKIBCFPJ@?5WaveAPI?5Sound?5player?5?$CC?$CFs?$CC?5init@ 0045c738     pjmedia-audiodev-i386-win32-vc8-release-dynamic:wmme_dev.obj
 0002:000047b0       ??_C@_0HD@PIICIPL@?5WaveAPI?5Sound?5recorder?5?$CC?$CFs?$CC?5in@ 0045c7b0     pjmedia-audiodev-i386-win32-vc8-release-dynamic:wmme_dev.obj
 0002:00004824       ??_C@_0BI@BEJPJEBJ@WMME?3?5thread?5stopping?4?4@ 0045c824     pjmedia-audiodev-i386-win32-vc8-release-dynamic:wmme_dev.obj
 0002:0000483c       ??_C@_08MOOOBPLB@wmme?9dev@ 0045c83c     pjmedia-audiodev-i386-win32-vc8-release-dynamic:wmme_dev.obj
 0002:00004848       ??_C@_04ODOGNMHC@wmme@     0045c848     pjmedia-audiodev-i386-win32-vc8-release-dynamic:wmme_dev.obj
 0002:00004850       ??_C@_0BN@MNACKNIN@WMME?5playback?5stream?5started@ 0045c850     pjmedia-audiodev-i386-win32-vc8-release-dynamic:wmme_dev.obj
 0002:00004870       ??_C@_0BM@NKDLICNM@WMME?5capture?5stream?5started@ 0045c870     pjmedia-audiodev-i386-win32-vc8-release-dynamic:wmme_dev.obj
 0002:0000488c       ??_C@_0BN@FMJNHCPG@Stopped?5WMME?5playback?5stream@ 0045c88c     pjmedia-audiodev-i386-win32-vc8-release-dynamic:wmme_dev.obj
 0002:000048ac       ??_C@_0BM@KCHDOGNE@Stopped?5WMME?5capture?5stream@ 0045c8ac     pjmedia-audiodev-i386-win32-vc8-release-dynamic:wmme_dev.obj
 0002:000048c8       ??_C@_09OFDCJLJM@WMME?5base@ 0045c8c8     pjmedia-audiodev-i386-win32-vc8-release-dynamic:wmme_dev.obj
 0002:00004904       ??_C@_07OEHJJJKF@RTP?1AVP@ 0045c904     pjmedia-i386-win32-vc8-release-dynamic:endpoint.obj
 0002:0000490c       ??_C@_02BBAPPCCJ@IN@       0045c90c     pjmedia-i386-win32-vc8-release-dynamic:endpoint.obj
 0002:00004910       ??_C@_03OPDBOKBD@IP4@      0045c910     pjmedia-i386-win32-vc8-release-dynamic:endpoint.obj
 0002:00004914       ??_C@_03NNAHIIJB@IP6@      0045c914     pjmedia-i386-win32-vc8-release-dynamic:endpoint.obj
 0002:00004918       ??_C@_07HDFHIMAJ@pjmedia@  0045c918     pjmedia-i386-win32-vc8-release-dynamic:endpoint.obj
 0002:00004920       ??_C@_08LMCBNPPN@sendrecv@ 0045c920     pjmedia-i386-win32-vc8-release-dynamic:endpoint.obj
 0002:0000492c       ??_C@_07LBNDIDNE@med?9ept@ 0045c92c     pjmedia-i386-win32-vc8-release-dynamic:endpoint.obj
 0002:00004938       ??_C@_0EL@BIFHLACC@Warning?3?5no?5worker?5thread?5is?5cr@ 0045c938     pjmedia-i386-win32-vc8-release-dynamic:endpoint.obj
 0002:00004984       ??_C@_0L@DLFDMOGF@endpoint?4c@ 0045c984     pjmedia-i386-win32-vc8-release-dynamic:endpoint.obj
 0002:00004990       ??_C@_05CECBHAPI@media@    0045c990     pjmedia-i386-win32-vc8-release-dynamic:endpoint.obj
 0002:00004998       ??_C@_05KNIAAKIP@audio@    0045c998     pjmedia-i386-win32-vc8-release-dynamic:endpoint.obj
 0002:000049a0       ??_C@_02DPKJAMEF@?$CFd@    0045c9a0     pjmedia-i386-win32-vc8-release-dynamic:endpoint.obj
 0002:000049a4       ??_C@_01ICJEACDI@?$DL@     0045c9a4     pjmedia-i386-win32-vc8-release-dynamic:endpoint.obj
 0002:000049a8       ??_C@_09IKOEDHAN@?$CF?4?$CKs?$DN?$CF?4?$CKs@ 0045c9a8     pjmedia-i386-win32-vc8-release-dynamic:endpoint.obj
 0002:000049b4       ??_C@_04EBNJJJJI@?$CF?4?$CKs@ 0045c9b4     pjmedia-i386-win32-vc8-release-dynamic:endpoint.obj
 0002:000049bc       ??_C@_04JKCEBMKL@fmtp@     0045c9bc     pjmedia-i386-win32-vc8-release-dynamic:endpoint.obj
 0002:000049c4       ??_C@_02KCBIGJIH@96@       0045c9c4     pjmedia-i386-win32-vc8-release-dynamic:endpoint.obj
 0002:000049c8       ??_C@_06NPGDLJKE@rtpmap@   0045c9c8     pjmedia-i386-win32-vc8-release-dynamic:endpoint.obj
 0002:000049d0       ??_C@_0BI@MJDIOLFC@96?5telephone?9event?18000@ 0045c9d0     pjmedia-i386-win32-vc8-release-dynamic:endpoint.obj
 0002:000049e8       ??_C@_07JDIMCMCJ@96?50?916@ 0045c9e8     pjmedia-i386-win32-vc8-release-dynamic:endpoint.obj
 0002:000049f0       ??_C@_04PCJMJPDO@TIAS@     0045c9f0     pjmedia-i386-win32-vc8-release-dynamic:endpoint.obj
 0002:000049f8       ??_C@_04DHOBIHHI@PCMU@     0045c9f8     pjmedia-i386-win32-vc8-release-dynamic:g711.obj
 0002:00004a00       ??_C@_04BJEPFACN@PCMA@     0045ca00     pjmedia-i386-win32-vc8-release-dynamic:g711.obj
 0002:00004a08       ??_C@_04JMMHOLLC@g711@     0045ca08     pjmedia-i386-win32-vc8-release-dynamic:g711.obj
 0002:00004a10       ??_C@_04CEHLIMNH@g611@     0045ca10     pjmedia-i386-win32-vc8-release-dynamic:g711.obj
 0002:00004a18       ??_C@_0L@IOJLEJF@STATE_NULL@ 0045ca18     pjmedia-i386-win32-vc8-release-dynamic:sdp_neg.obj
 0002:00004a24       ??_C@_0BC@LOEMBHAD@STATE_LOCAL_OFFER@ 0045ca24     pjmedia-i386-win32-vc8-release-dynamic:sdp_neg.obj
 0002:00004a38       ??_C@_0BD@EIDNGBFC@STATE_REMOTE_OFFER@ 0045ca38     pjmedia-i386-win32-vc8-release-dynamic:sdp_neg.obj
 0002:00004a4c       ??_C@_0BA@GHLPEJJC@STATE_WAIT_NEGO@ 0045ca4c     pjmedia-i386-win32-vc8-release-dynamic:sdp_neg.obj
 0002:00004a5c       ??_C@_0L@KPLLHEOI@STATE_DONE@ 0045ca5c     pjmedia-i386-win32-vc8-release-dynamic:sdp_neg.obj
 0002:00004a68       ??_C@_0M@GGDBIFHF@?$DM?$DPUNKNOWN?$DP?$DO@ 0045ca68     pjmedia-i386-win32-vc8-release-dynamic:sdp_neg.obj
 0002:00004a74       ??_C@_09PFCHIMEP@127?40?40?41@ 0045ca74     pjmedia-i386-win32-vc8-release-dynamic:sdp_neg.obj
 0002:00004a80       ??_C@_08INHMCBAE@inactive@ 0045ca80     pjmedia-i386-win32-vc8-release-dynamic:sdp_neg.obj
 0002:00004a8c       ??_C@_08HPJEFADN@sendonly@ 0045ca8c     pjmedia-i386-win32-vc8-release-dynamic:sdp_neg.obj
 0002:00004a98       ??_C@_08EHCGIGCO@recvonly@ 0045ca98     pjmedia-i386-win32-vc8-release-dynamic:sdp_neg.obj
 0002:00004aa4       ??_C@_0BA@LLGGBELL@telephone?9event@ 0045caa4     pjmedia-i386-win32-vc8-release-dynamic:sdp_neg.obj
 0002:00004ab4       ??_C@_0N@COEOBFOD@EC?5activated@ 0045cab4     pjmedia-i386-win32-vc8-release-dynamic:sound_port.obj
 0002:00004ac4       ??_C@_0N@GOCHBLLA@sound_port?4c@ 0045cac4     pjmedia-i386-win32-vc8-release-dynamic:sound_port.obj
 0002:00004ad4       ??_C@_0CD@IGHBIGGN@EC?5suspended?5because?5of?5inactiv@ 0045cad4     pjmedia-i386-win32-vc8-release-dynamic:sound_port.obj
 0002:00004af8       ??_C@_0CB@KICGINBD@AEC?5tail?5is?5set?5to?5default?5?$CFu?5m@ 0045caf8     pjmedia-i386-win32-vc8-release-dynamic:sound_port.obj
 0002:00004b1c       ??_C@_0DJ@PNINHBGM@pjmedia_snd_port_set_ec?$CI?$CJ?5ignor@ 0045cb1c     pjmedia-i386-win32-vc8-release-dynamic:sound_port.obj
 0002:00004b58       ??_C@_0DB@KDEIEFDK@Echo?5canceller?5is?5now?5disabled?5@ 0045cb58     pjmedia-i386-win32-vc8-release-dynamic:sound_port.obj
 0002:00004bbc       ??_C@_0BF@BDOEAPGC@sprop?9maxcapturerate@ 0045cbbc     pjmedia-i386-win32-vc8-release-dynamic:stream_info.obj
 0002:00004bd4       ??_C@_0N@LGCDEDLG@sprop?9stereo@ 0045cbd4     pjmedia-i386-win32-vc8-release-dynamic:stream_info.obj
 0002:00004be4       ??_C@_0BA@PAFFCOOK@maxplaybackrate@ 0045cbe4     pjmedia-i386-win32-vc8-release-dynamic:stream_info.obj
 0002:00004bf4       ??_C@_06BDDNELGJ@stereo@   0045cbf4     pjmedia-i386-win32-vc8-release-dynamic:stream_info.obj
 0002:00004bfc       ??_C@_04BPKIMIGM@opus@     0045cbfc     pjmedia-i386-win32-vc8-release-dynamic:stream_info.obj
 0002:00004c04       ??_C@_05FHOGGKIK@ptime@    0045cc04     pjmedia-i386-win32-vc8-release-dynamic:stream_info.obj
 0002:00004c0c       ??_C@_08GOMHIHBN@maxptime@ 0045cc0c     pjmedia-i386-win32-vc8-release-dynamic:stream_info.obj
 0002:00004c18       ??_C@_09FMIECHHF@candidate@ 0045cc18     pjmedia-i386-win32-vc8-release-dynamic:stream_info.obj
 0002:00004c24       ??_C@_08BLAEFJPP@rtcp?9mux@ 0045cc24     pjmedia-i386-win32-vc8-release-dynamic:stream_info.obj
 0002:00004c30       ??_C@_04DLDMIAAJ@rtcp@     0045cc30     pjmedia-i386-win32-vc8-release-dynamic:stream_info.obj
 0002:00004c38       ??_C@_04OHIABJNF@ssrc@     0045cc38     pjmedia-i386-win32-vc8-release-dynamic:stream_info.obj
 0002:00004c54       ??_C@_0BA@GCDEEPHG@?$CFs?3?5?$CFs?5?$FLerr?3?$CFd?$FN@ 0045cc54     pjmedia-i386-win32-vc8-release-dynamic:stream.obj
 0002:00004c64       ??_C@_0M@NKENPDLK@?0?5recovered@ 0045cc64     pjmedia-i386-win32-vc8-release-dynamic:stream.obj
 0002:00004c70       ??_C@_0O@OGIFGJAB@Frame?5lost?$CFs?$CB@ 0045cc70     pjmedia-i386-win32-vc8-release-dynamic:stream.obj
 0002:00004c80       ??_C@_0O@MNJAMJOB@?0?5plc?5invoked@ 0045cc80     pjmedia-i386-win32-vc8-release-dynamic:stream.obj
 0002:00004c90       ??_C@_0CE@BAFNKJLC@Jitter?5buffer?5empty?5?$CIprefetch?$DN?$CF@ 0045cc90     pjmedia-i386-win32-vc8-release-dynamic:stream.obj
 0002:00004cb4       ??_C@_0CM@LPGENADE@Jitter?5buffer?5is?5bufferring?5?$CIpr@ 0045ccb4     pjmedia-i386-win32-vc8-release-dynamic:stream.obj
 0002:00004ce0       ??_C@_0BF@OJPAAFNN@codec?5decode?$CI?$CJ?5error@ 0045cce0     pjmedia-i386-win32-vc8-release-dynamic:stream.obj
 0002:00004cf8       ??_C@_0ED@JAAMDOJM@Jitter?5buffer?5starts?5returning?5@ 0045ccf8     pjmedia-i386-win32-vc8-release-dynamic:stream.obj
 0002:00004d3c       ??_C@_0M@PLDMKLOM@Frame?5lost?$CB@ 0045cd3c     pjmedia-i386-win32-vc8-release-dynamic:stream.obj
 0002:00004d48       ??_C@_0CC@JAEPJMKF@Jitter?5buffer?5empty?5?$CIprefetch?$DN?$CF@ 0045cd48     pjmedia-i386-win32-vc8-release-dynamic:stream.obj
 0002:00004d6c       ??_C@_0CK@PBJINAMI@Jitter?5buffer?5is?5bufferring?5?$CIpr@ 0045cd6c     pjmedia-i386-win32-vc8-release-dynamic:stream.obj
 0002:00004d98       ??_C@_0BJ@COIBCHJA@Sending?5DTMF?5digit?5id?5?$CFc@ 0045cd98     pjmedia-i386-win32-vc8-release-dynamic:stream.obj
 0002:00004db4       ??_C@_0BL@OPDKFGJP@Error?5generating?5RTCP?5SDES@ 0045cdb4     pjmedia-i386-win32-vc8-release-dynamic:stream.obj
 0002:00004dd0       ??_C@_0BJ@NJKEBKBC@Error?5generating?5RTCP?5FB@ 0045cdd0     pjmedia-i386-win32-vc8-release-dynamic:stream.obj
 0002:00004dec       ??_C@_0BK@OBHPLFNE@Error?5generating?5RTCP?5BYE@ 0045cdec     pjmedia-i386-win32-vc8-release-dynamic:stream.obj
 0002:00004e08       ??_C@_0BD@CBPCIFPL@Error?5sending?5RTCP@ 0045ce08     pjmedia-i386-win32-vc8-release-dynamic:stream.obj
 0002:00004e1c       ??_C@_0BF@FNGNDLCP@Sending?5RTCP?5resumed@ 0045ce1c     pjmedia-i386-win32-vc8-release-dynamic:stream.obj
 0002:00004e34       ??_C@_0BF@IIPLMAAA@Codec?5encode?$CI?$CJ?5error@ 0045ce34     pjmedia-i386-win32-vc8-release-dynamic:stream.obj
 0002:00004e4c       ??_C@_0BH@IJDGDLG@RTP?5encode_rtp?$CI?$CJ?5error@ 0045ce4c     pjmedia-i386-win32-vc8-release-dynamic:stream.obj
 0002:00004e64       ??_C@_0BB@DDCHBNNP@Starting?5silence@ 0045ce64     pjmedia-i386-win32-vc8-release-dynamic:stream.obj
 0002:00004e78       ??_C@_0BC@EPKDPAEA@Start?5talksprut?4?4@ 0045ce78     pjmedia-i386-win32-vc8-release-dynamic:stream.obj
 0002:00004e8c       ??_C@_0BC@EMPFFOFC@Error?5sending?5RTP@ 0045ce8c     pjmedia-i386-win32-vc8-release-dynamic:stream.obj
 0002:00004ea0       ??_C@_0BE@BONFCMNB@Sending?5RTP?5resumed@ 0045cea0     pjmedia-i386-win32-vc8-release-dynamic:stream.obj
 0002:00004eb4       ??_C@_0P@ICGHDFAO@VAD?5re?9enabled@ 0045ceb4     pjmedia-i386-win32-vc8-release-dynamic:stream.obj
 0002:00004ec4       ??_C@_0CH@BDBDCHNK@Ignored?5RTP?5pkt?5with?5bad?5DTMF?5e@ 0045cec4     pjmedia-i386-win32-vc8-release-dynamic:stream.obj
 0002:00004eec       ??_C@_0BP@ICFENLOG@Received?5DTMF?5digit?5?$CFc?0?5vol?$DN?$CFd@ 0045ceec     pjmedia-i386-win32-vc8-release-dynamic:stream.obj
 0002:00004f0c       ??_C@_0DF@MGJACAJE@Unable?5to?5receive?5RTP?5packet?0?5r@ 0045cf0c     pjmedia-i386-win32-vc8-release-dynamic:stream.obj
 0002:00004f44       ??_C@_0BB@HCGJOLMC@RTP?5decode?5error@ 0045cf44     pjmedia-i386-win32-vc8-release-dynamic:stream.obj
 0002:00004f58       ??_C@_0FA@PMIGIEOC@RTP?5status?3?5badpt?$DN?$CFd?0?5badssrc?$DN?$CF@ 0045cf58     pjmedia-i386-win32-vc8-release-dynamic:stream.obj
 0002:00004fa8       ??_C@_0BN@GBIGHOMM@Bad?5RTP?5pt?5?$CFd?5?$CIexpecting?5?$CFd?$CJ@ 0045cfa8     pjmedia-i386-win32-vc8-release-dynamic:stream.obj
 0002:00004fc8       ??_C@_0CJ@IOOMBLCB@Changed?5RTP?5peer?5SSRC?5?$CFd?5?$CIprevi@ 0045cfc8     pjmedia-i386-win32-vc8-release-dynamic:stream.obj
 0002:00004ff4       ??_C@_0BE@DIMNLOKG@Jitter?5buffer?5reset@ 0045cff4     pjmedia-i386-win32-vc8-release-dynamic:stream.obj
 0002:00005008       ??_C@_0BE@EEELMADC@Codec?5parse?$CI?$CJ?5error@ 0045d008     pjmedia-i386-win32-vc8-release-dynamic:stream.obj
 0002:0000501c       ??_C@_0CD@BPJOJMNK@codec?5decode?5ptime?5change?5detec@ 0045d01c     pjmedia-i386-win32-vc8-release-dynamic:stream.obj
 0002:00005040       ??_C@_0DI@LLLLCFFB@G722?5codec?5used?0?5remote?5samples@ 0045d040     pjmedia-i386-win32-vc8-release-dynamic:stream.obj
 0002:00005078       ??_C@_08MKBBPGGN@stream?4c@ 0045d078     pjmedia-i386-win32-vc8-release-dynamic:stream.obj
 0002:00005084       ??_C@_0BK@ECAGOLL@Jitter?5buffer?5put?$CI?$CJ?5error@ 0045d084     pjmedia-i386-win32-vc8-release-dynamic:stream.obj
 0002:000050a0       ??_C@_0CD@EBKLOEHE@Error?5sending?5RTCP?5FB?5generic?5N@ 0045d0a0     pjmedia-i386-win32-vc8-release-dynamic:stream.obj
 0002:000050c4       ??_C@_0BO@BAKHAHBM@Error?5sending?5initial?5RTCP?5RR@ 0045d0c4     pjmedia-i386-win32-vc8-release-dynamic:stream.obj
 0002:000050e4       ??_C@_0BC@HIEABHLO@RTCP?5recv?$CI?$CJ?5error@ 0045d0e4     pjmedia-i386-win32-vc8-release-dynamic:stream.obj
 0002:000050f8       ??_C@_06HEEHMEGM@strm?$CFp@ 0045d0f8     pjmedia-i386-win32-vc8-release-dynamic:stream.obj
 0002:00005100       ??_C@_0BJ@GBLBGHNA@VAD?5temporarily?5disabled@ 0045d100     pjmedia-i386-win32-vc8-release-dynamic:stream.obj
 0002:0000511c       ??_C@_01NBENCBCI@?$CK@     0045d11c     pjmedia-i386-win32-vc8-release-dynamic:stream.obj
 0002:00005120       ??_C@_0BC@ICNPODMB@Stream?5?$CFs?5created@ 0045d120     pjmedia-i386-win32-vc8-release-dynamic:stream.obj
 0002:00005134       ??_C@_0CC@NGEFLMI@Error?5sending?5RTP?1DTMF?5end?5pack@ 0045d134     pjmedia-i386-win32-vc8-release-dynamic:stream.obj
 0002:00005158       ??_C@_0BH@JPIMLCGB@Encoder?5stream?5started@ 0045d158     pjmedia-i386-win32-vc8-release-dynamic:stream.obj
 0002:00005170       ??_C@_0BG@DCFJEGJD@Encoder?5stream?5paused@ 0045d170     pjmedia-i386-win32-vc8-release-dynamic:stream.obj
 0002:00005188       ??_C@_0BH@IEMENDPF@Decoder?5stream?5started@ 0045d188     pjmedia-i386-win32-vc8-release-dynamic:stream.obj
 0002:000051a0       ??_C@_0BG@HLJNKJMG@Decoder?5stream?5paused@ 0045d1a0     pjmedia-i386-win32-vc8-release-dynamic:stream.obj
 0002:000051c0       __xmm@00000003000000020000000100000000 0045d1c0     pjmedia-i386-win32-vc8-release-dynamic:stream.obj
 0002:000051d8       ??_C@_0DD@JENKINAB@Failed?5to?5synthesize?5the?5correc@ 0045d1d8     pjmedia-i386-win32-vc8-release-dynamic:transport_udp.obj
 0002:0000520c       ??_C@_0DE@NDEIKKGG@Failed?5to?5synthesize?5the?5correc@ 0045d20c     pjmedia-i386-win32-vc8-release-dynamic:transport_udp.obj
 0002:00005240       ??_C@_0DF@MINIEIGK@TX?5RTP?5packet?5dropped?5because?5o@ 0045d240     pjmedia-i386-win32-vc8-release-dynamic:transport_udp.obj
 0002:00005278       ??_C@_0DF@BFHKOPKN@RX?5RTP?5packet?5dropped?5because?5o@ 0045d278     pjmedia-i386-win32-vc8-release-dynamic:transport_udp.obj
 0002:000052b0       ??_C@_0CC@MIINFHKB@Remote?5RTP?5address?5switched?5to?5@ 0045d2b0     pjmedia-i386-win32-vc8-release-dynamic:transport_udp.obj
 0002:000052d4       ??_C@_0DF@CBHGCLPC@Remote?5RTCP?5address?5switched?5to@ 0045d2d4     pjmedia-i386-win32-vc8-release-dynamic:transport_udp.obj
 0002:0000530c       ??_C@_0CD@KDFPBNLA@Remote?5RTCP?5address?5switched?5to@ 0045d30c     pjmedia-i386-win32-vc8-release-dynamic:transport_udp.obj
 0002:00005330       ??_C@_0BC@KMLOGCBL@?$CB?$CD$?$CF?$CG?8?$CK?$CL?9?4?$FO_?$GA?$HL?$HM?$HN?$HO@ 0045d330     pjmedia-i386-win32-vc8-release-dynamic:sdp.obj
 0002:00005344       ??_C@_05PGDJPCOI@?1?5?7?$AN?6@ 0045d344     pjmedia-i386-win32-vc8-release-dynamic:sdp.obj
 0002:0000534c       ??_C@_0N@PKDMIJBK@?$CFu?5IN?5IP4?5?$CFs@ 0045d34c     pjmedia-i386-win32-vc8-release-dynamic:sdp.obj
 0002:0000535c       ??_C@_0N@IAPMNKHK@?$CFu?5IN?5IP6?5?$CFs@ 0045d35c     pjmedia-i386-win32-vc8-release-dynamic:sdp.obj
 0002:0000536c       ??_C@_05DNEALNHD@cname@    0045d36c     pjmedia-i386-win32-vc8-release-dynamic:sdp.obj
 0002:00005374       ??_C@_01KMDKNFGN@?1@       0045d374     pjmedia-i386-win32-vc8-release-dynamic:sdp.obj
 0002:00005378       ??_C@_0BD@HEFIBNKB@?$CF?4?$CKs?5?$CF?4?$CKs?1?$CFu?$CFs?$CF?4?$CKs@ 0045d378     pjmedia-i386-win32-vc8-release-dynamic:sdp.obj
 0002:0000538c       ??_C@_0BD@NGNJPLJA@c?$DN?$CF?4?$CKs?5?$CF?4?$CKs?5?$CF?4?$CKs?$AN?6@ 0045d38c     pjmedia-i386-win32-vc8-release-dynamic:sdp.obj
 0002:000053a0       ??_C@_05MIOLEPMP@v?$DN0?$AN?6@ 0045d3a0     pjmedia-i386-win32-vc8-release-dynamic:sdp.obj
 0002:000053a8       ??_C@_04HHCDBDLF@?5?7?$AN?6@ 0045d3a8     pjmedia-i386-win32-vc8-release-dynamic:sdp.obj
 0002:000053b0       ??_C@_0DG@FMMLOIKL@Error?5adding?5SDP?5media?5format?5?$CF@ 0045d3b0     pjmedia-i386-win32-vc8-release-dynamic:sdp.obj
 0002:000053e8       ??_C@_05LIAFADKM@sdp?4c@   0045d3e8     pjmedia-i386-win32-vc8-release-dynamic:sdp.obj
 0002:000053f0       ??_C@_0DD@EJNOLNM@Error?5adding?5media?5attribute?0?5a@ 0045d3f0     pjmedia-i386-win32-vc8-release-dynamic:sdp.obj
 0002:00005424       ??_C@_0DF@GDECOCN@Error?5adding?5session?5attribute?0@ 0045d424     pjmedia-i386-win32-vc8-release-dynamic:sdp.obj
 0002:0000545c       ??_C@_0CF@NCOGEPJF@Error?5adding?5media?0?5media?5is?5ig@ 0045d45c     pjmedia-i386-win32-vc8-release-dynamic:sdp.obj
 0002:00005484       ??_C@_0DD@FDBIEIFP@Error?5adding?5media?5bandwidth?5in@ 0045d484     pjmedia-i386-win32-vc8-release-dynamic:sdp.obj
 0002:000054b8       ??_C@_0DF@FBLBINKO@Error?5adding?5session?5bandwidth?5@ 0045d4b8     pjmedia-i386-win32-vc8-release-dynamic:sdp.obj
 0002:000054f0       ??_C@_0CI@CAFHMKHI@Error?5parsing?5SDP?5in?5line?5?$CFd?5co@ 0045d4f0     pjmedia-i386-win32-vc8-release-dynamic:sdp.obj
 0002:00005518       ??_C@_03GOLBDMPC@RTP@      0045d518     pjmedia-i386-win32-vc8-release-dynamic:sdp.obj
 0002:0000551c       ??_C@_03CPJJBAON@AVP@      0045d51c     pjmedia-i386-win32-vc8-release-dynamic:sdp.obj
 0002:00005520       ??_C@_04LHEMINPH@SAVP@     0045d520     pjmedia-i386-win32-vc8-release-dynamic:sdp.obj
 0002:00005528       ??_C@_04HILHOPFG@AVPF@     0045d528     pjmedia-i386-win32-vc8-release-dynamic:sdp.obj
 0002:00005530       ??_C@_05IFENMDLB@SAVPF@    0045d530     pjmedia-i386-win32-vc8-release-dynamic:sdp.obj
 0002:00005538       ??_C@_0N@IFKNLCBO@TLS?1RTP?1SAVP@ 0045d538     pjmedia-i386-win32-vc8-release-dynamic:sdp.obj
 0002:00005548       ??_C@_0O@FMKJHIFC@TLS?1RTP?1SAVPF@ 0045d548     pjmedia-i386-win32-vc8-release-dynamic:sdp.obj
 0002:00005558       ??_C@_07GBKCPIDJ@ext?9fmt@ 0045d558     pjmedia-i386-win32-vc8-release-dynamic:audiodev.obj
 0002:00005560       ??_C@_0BI@GGHCECPI@Extended?1non?9PCM?5format@ 0045d560     pjmedia-i386-win32-vc8-release-dynamic:audiodev.obj
 0002:00005578       ??_C@_0L@IKNMBADD@latency?9in@ 0045d578     pjmedia-i386-win32-vc8-release-dynamic:audiodev.obj
 0002:00005584       ??_C@_0CC@LIGOHOJN@Input?5latency?1buffer?5size?5setti@ 0045d584     pjmedia-i386-win32-vc8-release-dynamic:audiodev.obj
 0002:000055a8       ??_C@_0M@MBBBBCLJ@latency?9out@ 0045d5a8     pjmedia-i386-win32-vc8-release-dynamic:audiodev.obj
 0002:000055b4       ??_C@_0CD@GAINMBC@Output?5latency?1buffer?5size?5sett@ 0045d5b4     pjmedia-i386-win32-vc8-release-dynamic:audiodev.obj
 0002:000055d8       ??_C@_06KGGLCDDG@vol?9in@  0045d5d8     pjmedia-i386-win32-vc8-release-dynamic:audiodev.obj
 0002:000055e0       ??_C@_0BF@CCEKOJAN@Input?5volume?5setting@ 0045d5e0     pjmedia-i386-win32-vc8-release-dynamic:audiodev.obj
 0002:000055f8       ??_C@_07LBFHFBAF@vol?9out@ 0045d5f8     pjmedia-i386-win32-vc8-release-dynamic:audiodev.obj
 0002:00005600       ??_C@_0BG@IBEHJHAD@Output?5volume?5setting@ 0045d600     pjmedia-i386-win32-vc8-release-dynamic:audiodev.obj
 0002:00005618       ??_C@_08BPNDLGG@meter?9in@ 0045d618     pjmedia-i386-win32-vc8-release-dynamic:audiodev.obj
 0002:00005624       ??_C@_0M@NCGIGNPG@Input?5meter@ 0045d624     pjmedia-i386-win32-vc8-release-dynamic:audiodev.obj
 0002:00005630       ??_C@_09NKJLJGOJ@meter?9out@ 0045d630     pjmedia-i386-win32-vc8-release-dynamic:audiodev.obj
 0002:0000563c       ??_C@_0N@GBEOEOEP@Output?5meter@ 0045d63c     pjmedia-i386-win32-vc8-release-dynamic:audiodev.obj
 0002:0000564c       ??_C@_08FPHJDLBG@route?9in@ 0045d64c     pjmedia-i386-win32-vc8-release-dynamic:audiodev.obj
 0002:00005658       ??_C@_0O@JDPFDDM@Input?5routing@ 0045d658     pjmedia-i386-win32-vc8-release-dynamic:audiodev.obj
 0002:00005668       ??_C@_09IKMAGDNF@route?9out@ 0045d668     pjmedia-i386-win32-vc8-release-dynamic:audiodev.obj
 0002:00005674       ??_C@_0P@JOFPIEJJ@Output?5routing@ 0045d674     pjmedia-i386-win32-vc8-release-dynamic:audiodev.obj
 0002:00005684       ??_C@_03FNONIBCK@aec@      0045d684     pjmedia-i386-win32-vc8-release-dynamic:audiodev.obj
 0002:00005688       ??_C@_0BM@HPDLGLFJ@Accoustic?5echo?5cancellation@ 0045d688     pjmedia-i386-win32-vc8-release-dynamic:audiodev.obj
 0002:000056a4       ??_C@_08MKAPJCJE@aec?9tail@ 0045d6a4     pjmedia-i386-win32-vc8-release-dynamic:audiodev.obj
 0002:000056b0       ??_C@_0BM@PBLLADJD@Tail?5length?5setting?5for?5AEC@ 0045d6b0     pjmedia-i386-win32-vc8-release-dynamic:audiodev.obj
 0002:000056cc       ??_C@_03NIGLNABH@vad@      0045d6cc     pjmedia-i386-win32-vc8-release-dynamic:audiodev.obj
 0002:000056d0       ??_C@_0BJ@PEELNNPF@Voice?5activity?5detection@ 0045d6d0     pjmedia-i386-win32-vc8-release-dynamic:audiodev.obj
 0002:000056ec       ??_C@_03JPNNGDEE@cng@      0045d6ec     pjmedia-i386-win32-vc8-release-dynamic:audiodev.obj
 0002:000056f0       ??_C@_0BJ@MNDOFJGN@Comfort?5noise?5generation@ 0045d6f0     pjmedia-i386-win32-vc8-release-dynamic:audiodev.obj
 0002:0000570c       ??_C@_03NOPFEPFL@plg@      0045d70c     pjmedia-i386-win32-vc8-release-dynamic:audiodev.obj
 0002:00005710       ??_C@_0BI@OMEMKBHH@Packet?5loss?5concealment@ 0045d710     pjmedia-i386-win32-vc8-release-dynamic:audiodev.obj
 0002:00005728       ??_C@_0EF@NLCNMHAD@?$CFd?5device?$CIs?$CJ?5cannot?5be?5register@ 0045d728     pjmedia-i386-win32-vc8-release-dynamic:audiodev.obj
 0002:00005770       ??_C@_0L@FGHHAHLM@audiodev?4c@ 0045d770     pjmedia-i386-win32-vc8-release-dynamic:audiodev.obj
 0002:0000577c       ??_C@_09GLMNEMC@codec?9mgr@ 0045d77c     pjmedia-i386-win32-vc8-release-dynamic:codec.obj
 0002:00005788       ??_C@_0L@MMBOMEDE@?$CF?4?$CKs?1?$CFu?1?$CFu@ 0045d788     pjmedia-i386-win32-vc8-release-dynamic:codec.obj
 0002:00005ae0       ??_C@_0CK@HBHLALIF@Unspecified?5PJMEDIA?5error?5?$CIPJME@ 0045dae0     pjmedia-i386-win32-vc8-release-dynamic:errno.obj
 0002:00005b0c       ??_C@_0CM@KFAONKNJ@Invalid?5SDP?5descriptor?5?$CIPJMEDIA@ 0045db0c     pjmedia-i386-win32-vc8-release-dynamic:errno.obj
 0002:00005b38       ??_C@_0CO@ONPCFICA@Invalid?5SDP?5version?5line?5?$CIPJMED@ 0045db38     pjmedia-i386-win32-vc8-release-dynamic:errno.obj
 0002:00005b68       ??_C@_0DA@DIKNJOEJ@Invalid?5SDP?5origin?5line?5?$CIPJMEDI@ 0045db68     pjmedia-i386-win32-vc8-release-dynamic:errno.obj
 0002:00005b98       ??_C@_0CM@DLEAGODI@Invalid?5SDP?5time?5line?5?$CIPJMEDIA_@ 0045db98     pjmedia-i386-win32-vc8-release-dynamic:errno.obj
 0002:00005bc4       ??_C@_0DF@HNDCDPJF@SDP?5name?1subject?5line?5is?5empty?5@ 0045dbc4     pjmedia-i386-win32-vc8-release-dynamic:errno.obj
 0002:00005bfc       ??_C@_0DC@KNNPDHKA@Invalid?5SDP?5connection?5line?5?$CIPJ@ 0045dbfc     pjmedia-i386-win32-vc8-release-dynamic:errno.obj
 0002:00005c30       ??_C@_0DM@NEDHCJGL@Missing?5SDP?5connection?5info?5lin@ 0045dc30     pjmedia-i386-win32-vc8-release-dynamic:errno.obj
 0002:00005c6c       ??_C@_0CN@JHLMEODJ@Invalid?5SDP?5attributes?5?$CIPJMEDIA@ 0045dc6c     pjmedia-i386-win32-vc8-release-dynamic:errno.obj
 0002:00005c9c       ??_C@_0DF@BJAALDOM@Invalid?5SDP?5rtpmap?5attribute?5?$CIP@ 0045dc9c     pjmedia-i386-win32-vc8-release-dynamic:errno.obj
 0002:00005cd4       ??_C@_0DL@HCOGNPAF@SDP?5rtpmap?5attribute?5too?5long?5?$CI@ 0045dcd4     pjmedia-i386-win32-vc8-release-dynamic:errno.obj
 0002:00005d10       ??_C@_0EJ@IDNJACOO@Missing?5SDP?5rtpmap?5for?5dynamic?5@ 0045dd10     pjmedia-i386-win32-vc8-release-dynamic:errno.obj
 0002:00005d5c       ??_C@_0CO@DIKFNJOF@Invalid?5SDP?5media?5line?5?$CIPJMEDIA@ 0045dd5c     pjmedia-i386-win32-vc8-release-dynamic:errno.obj
 0002:00005d8c       ??_C@_0DN@GADAENKO@No?5SDP?5payload?5format?5in?5the?5me@ 0045dd8c     pjmedia-i386-win32-vc8-release-dynamic:errno.obj
 0002:00005dcc       ??_C@_0DL@KAILPDC@Invalid?5SDP?5payload?5type?5in?5med@ 0045ddcc     pjmedia-i386-win32-vc8-release-dynamic:errno.obj
 0002:00005e08       ??_C@_0DB@BJCACDID@Invalid?5SDP?5fmtp?5attribute?5?$CIPJM@ 0045de08     pjmedia-i386-win32-vc8-release-dynamic:errno.obj
 0002:00005e3c       ??_C@_0DB@GFBENNMO@Invalid?5SDP?5rtcp?5attribute?5?$CIPJM@ 0045de3c     pjmedia-i386-win32-vc8-release-dynamic:errno.obj
 0002:00005e70       ??_C@_0DM@JFGCNJLM@Invalid?5SDP?5media?5transport?5pro@ 0045de70     pjmedia-i386-win32-vc8-release-dynamic:errno.obj
 0002:00005eac       ??_C@_0DH@PCNCDMKM@Invalid?5SDP?5bandwidth?5info?5line@ 0045deac     pjmedia-i386-win32-vc8-release-dynamic:errno.obj
 0002:00005ee4       ??_C@_0DB@POLJHCKE@Invalid?5SDP?5ssrc?5attribute?5?$CIPJM@ 0045dee4     pjmedia-i386-win32-vc8-release-dynamic:errno.obj
 0002:00005f18       ??_C@_0EF@CJNFLCEL@Invalid?5SDP?5negotiator?5state?5fo@ 0045df18     pjmedia-i386-win32-vc8-release-dynamic:errno.obj
 0002:00005f60       ??_C@_0ED@IFOJJHNO@No?5initial?5local?5SDP?5in?5SDP?5neg@ 0045df60     pjmedia-i386-win32-vc8-release-dynamic:errno.obj
 0002:00005fa4       ??_C@_0DL@MFMHOMBE@No?5active?5SDP?5in?5SDP?5negotiator@ 0045dfa4     pjmedia-i386-win32-vc8-release-dynamic:errno.obj
 0002:00005fe0       ??_C@_0DN@JGPGLEOH@No?5current?5local?1remote?5offer?1a@ 0045dfe0     pjmedia-i386-win32-vc8-release-dynamic:errno.obj
 0002:00006020       ??_C@_0EE@BLNHOMNC@SDP?5media?5count?5mismatch?5in?5off@ 0045e020     pjmedia-i386-win32-vc8-release-dynamic:errno.obj
 0002:00006068       ??_C@_0EG@MJOIPNIH@SDP?5media?5type?5mismatch?5in?5offe@ 0045e068     pjmedia-i386-win32-vc8-release-dynamic:errno.obj
 0002:000060b0       ??_C@_0EN@OPFCIOMP@SDP?5media?5transport?5type?5mismat@ 0045e0b0     pjmedia-i386-win32-vc8-release-dynamic:errno.obj
 0002:00006100       ??_C@_0ED@NGHPALDD@No?5common?5SDP?5media?5payload?5in?5@ 0045e100     pjmedia-i386-win32-vc8-release-dynamic:errno.obj
 0002:00006148       ??_C@_0ED@HELGJJGO@No?5active?5media?5stream?5after?5ne@ 0045e148     pjmedia-i386-win32-vc8-release-dynamic:errno.obj
 0002:0000618c       ??_C@_0DP@KIMEPBPF@No?5suitable?5codec?5for?5remote?5of@ 0045e18c     pjmedia-i386-win32-vc8-release-dynamic:errno.obj
 0002:000061d0       ??_C@_0EM@LLMPLGCO@No?5suitable?5telephone?9event?5for@ 0045e1d0     pjmedia-i386-win32-vc8-release-dynamic:errno.obj
 0002:00006220       ??_C@_0EK@LPNBCGHG@No?5suitable?5answer?5for?5unknown?5@ 0045e220     pjmedia-i386-win32-vc8-release-dynamic:errno.obj
 0002:0000626c       ??_C@_0DM@JMBBJEKO@SDP?5media?5descriptor?5not?5equal?5@ 0045e26c     pjmedia-i386-win32-vc8-release-dynamic:errno.obj
 0002:000062a8       ??_C@_0ED@KAALGBMF@Port?5in?5SDP?5media?5descriptor?5no@ 0045e2a8     pjmedia-i386-win32-vc8-release-dynamic:errno.obj
 0002:000062f0       ??_C@_0EJ@FJOJLJDF@Transport?5in?5SDP?5media?5descript@ 0045e2f0     pjmedia-i386-win32-vc8-release-dynamic:errno.obj
 0002:00006340       ??_C@_0EH@FMIFCFBA@Format?5in?5SDP?5media?5descriptor?5@ 0045e340     pjmedia-i386-win32-vc8-release-dynamic:errno.obj
 0002:00006388       ??_C@_0DK@MAHAOAHF@SDP?5connection?5line?5not?5equal?5?$CI@ 0045e388     pjmedia-i386-win32-vc8-release-dynamic:errno.obj
 0002:000063c4       ??_C@_0DF@HHCJAGLJ@SDP?5attributes?5not?5equal?5?$CIPJMED@ 0045e3c4     pjmedia-i386-win32-vc8-release-dynamic:errno.obj
 0002:000063fc       ??_C@_0DJ@GGABIHGL@SDP?5media?5direction?5not?5equal?5?$CI@ 0045e3fc     pjmedia-i386-win32-vc8-release-dynamic:errno.obj
 0002:00006438       ??_C@_0DJ@FFGHKCEG@SDP?5fmtp?5attribute?5not?5equal?5?$CIP@ 0045e438     pjmedia-i386-win32-vc8-release-dynamic:errno.obj
 0002:00006474       ??_C@_0DN@HLKACHFN@SDP?5rtpmap?5attribute?5not?5equal?5@ 0045e474     pjmedia-i386-win32-vc8-release-dynamic:errno.obj
 0002:000064b4       ??_C@_0DN@EALGPLFN@SDP?5session?5descriptor?5not?5equa@ 0045e4b4     pjmedia-i386-win32-vc8-release-dynamic:errno.obj
 0002:000064f4       ??_C@_0DI@BLKBMMGO@SDP?5origin?5line?5not?5equal?5?$CIPJME@ 0045e4f4     pjmedia-i386-win32-vc8-release-dynamic:errno.obj
 0002:0000652c       ??_C@_0DM@HCOBINN@SDP?5name?1subject?5line?5not?5equal@ 0045e52c     pjmedia-i386-win32-vc8-release-dynamic:errno.obj
 0002:00006568       ??_C@_0DE@PFJJJNGL@SDP?5time?5line?5not?5equal?5?$CIPJMEDI@ 0045e568     pjmedia-i386-win32-vc8-release-dynamic:errno.obj
 0002:0000659c       ??_C@_0CP@ODMIIAEN@Unsupported?5media?5codec?5?$CIPJMEDI@ 0045e59c     pjmedia-i386-win32-vc8-release-dynamic:errno.obj
 0002:000065cc       ??_C@_0DG@KJBEJCIE@Codec?5internal?5creation?5error?5?$CI@ 0045e5cc     pjmedia-i386-win32-vc8-release-dynamic:errno.obj
 0002:00006604       ??_C@_0DG@FOGENKNL@Codec?5frame?5is?5too?5short?5?$CIPJMED@ 0045e604     pjmedia-i386-win32-vc8-release-dynamic:errno.obj
 0002:0000663c       ??_C@_0DE@OLKJHMCL@PCM?5frame?5is?5too?5short?5?$CIPJMEDIA@ 0045e63c     pjmedia-i386-win32-vc8-release-dynamic:errno.obj
 0002:00006670       ??_C@_0DF@JDAOLAOM@Invalid?5codec?5frame?5length?5?$CIPJM@ 0045e670     pjmedia-i386-win32-vc8-release-dynamic:errno.obj
 0002:000066a8       ??_C@_0DG@LLBBCNCG@Invalid?5PCM?5frame?5length?5?$CIPJMED@ 0045e6a8     pjmedia-i386-win32-vc8-release-dynamic:errno.obj
 0002:000066e0       ??_C@_0DG@EKMGLMFL@Invalid?5codec?5mode?5?$CIno?5fmtp?$DP?$CJ?5?$CI@ 0045e6e0     pjmedia-i386-win32-vc8-release-dynamic:errno.obj
 0002:00006718       ??_C@_0DJ@NJFBGAOC@Bad?5or?5corrupted?5bitstream?5?$CIPJM@ 0045e718     pjmedia-i386-win32-vc8-release-dynamic:errno.obj
 0002:00006754       ??_C@_0DH@KOBKDDJI@Invalid?5remote?5media?5?$CIIP?$CJ?5addre@ 0045e754     pjmedia-i386-win32-vc8-release-dynamic:errno.obj
 0002:0000678c       ??_C@_0DM@GBJMMNCF@Asymetric?5media?5codec?5is?5not?5su@ 0045e78c     pjmedia-i386-win32-vc8-release-dynamic:errno.obj
 0002:000067c8       ??_C@_0DA@DKJJFGPE@Invalid?5media?5payload?5type?5?$CIPJM@ 0045e7c8     pjmedia-i386-win32-vc8-release-dynamic:errno.obj
 0002:000067f8       ??_C@_0DN@IGGOEBDI@Missing?5rtpmap?5in?5media?5descrip@ 0045e7f8     pjmedia-i386-win32-vc8-release-dynamic:errno.obj
 0002:00006838       ??_C@_0CO@MJBLNMMI@Invalid?5media?5type?5?$CIPJMEDIA_EIN@ 0045e838     pjmedia-i386-win32-vc8-release-dynamic:errno.obj
 0002:00006868       ??_C@_0DF@NNKPPHHC@Remote?5does?5not?5support?5DTMF?5?$CIP@ 0045e868     pjmedia-i386-win32-vc8-release-dynamic:errno.obj
 0002:000068a0       ??_C@_0CJ@ECIKMCPH@Invalid?5DTMF?5digit?5?$CIPJMEDIA_RTP@ 0045e8a0     pjmedia-i386-win32-vc8-release-dynamic:errno.obj
 0002:000068cc       ??_C@_0DN@EHCPFJJN@Remote?5does?5not?5support?5RFC?5283@ 0045e8cc     pjmedia-i386-win32-vc8-release-dynamic:errno.obj
 0002:0000690c       ??_C@_0BN@LMCOIKH@Bad?5format?5?$CIPJMEDIA_EBADFMT?$CJ@ 0045e90c     pjmedia-i386-win32-vc8-release-dynamic:errno.obj
 0002:0000692c       ??_C@_0DB@GBKLBGPK@Unsupported?5media?5type?5?$CIPJMEDIA@ 0045e92c     pjmedia-i386-win32-vc8-release-dynamic:errno.obj
 0002:00006960       ??_C@_0CI@KDAMKHEL@Invalid?5RTP?5packet?5?$CIPJMEDIA_RTP@ 0045e960     pjmedia-i386-win32-vc8-release-dynamic:errno.obj
 0002:00006988       ??_C@_0DL@KLDJIJLI@Invalid?5RTP?5packing?5?$CIinternal?5e@ 0045e988     pjmedia-i386-win32-vc8-release-dynamic:errno.obj
 0002:000069c4       ??_C@_0CJ@NGKNCMFA@Invalid?5RTP?5version?5?$CIPJMEDIA_RT@ 0045e9c4     pjmedia-i386-win32-vc8-release-dynamic:errno.obj
 0002:000069f0       ??_C@_0DC@PFPAEINL@RTP?5packet?5SSRC?5id?5mismatch?5?$CIPJ@ 0045e9f0     pjmedia-i386-win32-vc8-release-dynamic:errno.obj
 0002:00006a24       ??_C@_0DF@KDOADJLK@RTP?5packet?5payload?5type?5mismatc@ 0045ea24     pjmedia-i386-win32-vc8-release-dynamic:errno.obj
 0002:00006a5c       ??_C@_0CP@OBFABIAL@Invalid?5RTP?5packet?5length?5?$CIPJME@ 0045ea5c     pjmedia-i386-win32-vc8-release-dynamic:errno.obj
 0002:00006a8c       ??_C@_0DB@HLHLKEBJ@RTP?5session?5restarted?5?$CIPJMEDIA_@ 0045ea8c     pjmedia-i386-win32-vc8-release-dynamic:errno.obj
 0002:00006ac0       ??_C@_0DG@OPPFJBGL@RTP?5session?5in?5probation?5?$CIPJMED@ 0045eac0     pjmedia-i386-win32-vc8-release-dynamic:errno.obj
 0002:00006af8       ??_C@_0DI@LFLLIJCB@Bad?5sequence?5number?5in?5RTP?5pack@ 0045eaf8     pjmedia-i386-win32-vc8-release-dynamic:errno.obj
 0002:00006b30       ??_C@_0EE@PHAAOPAG@RTP?5media?5port?5destination?5is?5n@ 0045eb30     pjmedia-i386-win32-vc8-release-dynamic:errno.obj
 0002:00006b74       ??_C@_0CO@BFKJOFNE@RTP?5is?5not?5configured?5?$CIPJMEDIA_@ 0045eb74     pjmedia-i386-win32-vc8-release-dynamic:errno.obj
 0002:00006ba4       ??_C@_0DI@MEKDIPIO@Media?5ports?5are?5not?5compatible?5@ 0045eba4     pjmedia-i386-win32-vc8-release-dynamic:errno.obj
 0002:00006be0       ??_C@_0EA@EJPEOGMK@Media?5ports?5have?5incompatible?5c@ 0045ebe0     pjmedia-i386-win32-vc8-release-dynamic:errno.obj
 0002:00006c20       ??_C@_0EL@KOIIKBFP@Media?5ports?5have?5incompatible?5s@ 0045ec20     pjmedia-i386-win32-vc8-release-dynamic:errno.obj
 0002:00006c6c       ??_C@_0DL@FLCJCEPI@Media?5ports?5have?5incompatible?5m@ 0045ec6c     pjmedia-i386-win32-vc8-release-dynamic:errno.obj
 0002:00006ca8       ??_C@_0EA@CDICINEI@Media?5ports?5have?5incompatible?5b@ 0045eca8     pjmedia-i386-win32-vc8-release-dynamic:errno.obj
 0002:00006ce8       ??_C@_0EB@DHIDGGBD@Media?5ports?5have?5incompatible?5b@ 0045ece8     pjmedia-i386-win32-vc8-release-dynamic:errno.obj
 0002:00006d30       ??_C@_0EG@FBPNENMF@Media?5ports?5have?5incompatible?5n@ 0045ed30     pjmedia-i386-win32-vc8-release-dynamic:errno.obj
 0002:00006d78       ??_C@_0CO@CKCFJDML@Not?5a?5valid?5WAVE?5file?5?$CIPJMEDIA_@ 0045ed78     pjmedia-i386-win32-vc8-release-dynamic:errno.obj
 0002:00006da8       ??_C@_0DD@FKNCKLNB@Unsupported?5WAVE?5file?5format?5?$CIP@ 0045eda8     pjmedia-i386-win32-vc8-release-dynamic:errno.obj
 0002:00006ddc       ??_C@_0CM@HKHLDPDN@WAVE?5file?5too?5short?5?$CIPJMEDIA_EW@ 0045eddc     pjmedia-i386-win32-vc8-release-dynamic:errno.obj
 0002:00006e08       ??_C@_0DP@HHAKLPGE@Sound?5frame?5too?5large?5for?5file?5@ 0045ee08     pjmedia-i386-win32-vc8-release-dynamic:errno.obj
 0002:00006e48       ??_C@_0CK@EMOCNCPF@Unsupported?5AVI?5file?5?$CIPJMEDIA_E@ 0045ee48     pjmedia-i386-win32-vc8-release-dynamic:errno.obj
 0002:00006e74       ??_C@_0DF@PKIKHNPA@No?5suitable?5sound?5capture?5devic@ 0045ee74     pjmedia-i386-win32-vc8-release-dynamic:errno.obj
 0002:00006eac       ??_C@_0DH@NACBPKOD@No?5suitable?5sound?5playback?5devi@ 0045eeac     pjmedia-i386-win32-vc8-release-dynamic:errno.obj
 0002:00006ee4       ??_C@_0CO@FCJGKBG@Invalid?5sound?5device?5ID?5?$CIPJMEDI@ 0045eee4     pjmedia-i386-win32-vc8-release-dynamic:errno.obj
 0002:00006f18       ??_C@_0EB@GAMOPGD@Invalid?5sample?5format?5for?5sound@ 0045ef18     pjmedia-i386-win32-vc8-release-dynamic:errno.obj
 0002:00006f60       ??_C@_0FA@HAKEALMK@SRTP?5crypto?9suite?5name?5not?5matc@ 0045ef60     pjmedia-i386-win32-vc8-release-dynamic:errno.obj
 0002:00006fb0       ??_C@_0EF@DCMAHBDI@Invalid?5SRTP?5key?5length?5for?5spe@ 0045efb0     pjmedia-i386-win32-vc8-release-dynamic:errno.obj
 0002:00006ff8       ??_C@_0DL@BINEGGLM@Unsupported?5SRTP?5crypto?9suite?5?$CI@ 0045eff8     pjmedia-i386-win32-vc8-release-dynamic:errno.obj
 0002:00007034       ??_C@_0DP@DNDEFJI@SRTP?5SDP?5contains?5ambigue?5answe@ 0045f034     pjmedia-i386-win32-vc8-release-dynamic:errno.obj
 0002:00007074       ??_C@_0DL@PPDCJAFI@Duplicated?5SRTP?5crypto?5tag?5?$CIPJM@ 0045f074     pjmedia-i386-win32-vc8-release-dynamic:errno.obj
 0002:000070b0       ??_C@_0DK@EIEPDNB@Invalid?5SRTP?5crypto?5attribute?5?$CI@ 0045f0b0     pjmedia-i386-win32-vc8-release-dynamic:errno.obj
 0002:000070ec       ??_C@_0DH@JABOECDK@Invalid?5SRTP?5crypto?5tag?5?$CIPJMEDI@ 0045f0ec     pjmedia-i386-win32-vc8-release-dynamic:errno.obj
 0002:00007128       ??_C@_0EE@HKDIFKLN@Invalid?5SDP?5media?5transport?5for@ 0045f128     pjmedia-i386-win32-vc8-release-dynamic:errno.obj
 0002:0000716c       ??_C@_0DM@OPHJDJCK@SRTP?5crypto?5attribute?5required?5@ 0045f16c     pjmedia-i386-win32-vc8-release-dynamic:errno.obj
 0002:000071a8       ??_C@_0EO@MOMMHEEA@Secure?5transport?5required?5in?5SD@ 0045f1a8     pjmedia-i386-win32-vc8-release-dynamic:errno.obj
 0002:000071f8       ??_C@_0EK@HIIDIBOJ@SRTP?5parameters?5negotiation?5sti@ 0045f1f8     pjmedia-i386-win32-vc8-release-dynamic:errno.obj
 0002:00007248       ??_C@_0EM@HBHPHIDH@No?5matching?5SRTP?5crypto?9suite?5a@ 0045f248     pjmedia-i386-win32-vc8-release-dynamic:errno.obj
 0002:00007298       ??_C@_0EN@OKMMPCBN@No?5certificate?5supplied?5by?5peer@ 0045f298     pjmedia-i386-win32-vc8-release-dynamic:errno.obj
 0002:000072e8       ??_C@_0FM@DHHDFBCG@Fingerprint?5from?5signalling?5not@ 0045f2e8     pjmedia-i386-win32-vc8-release-dynamic:errno.obj
 0002:00007344       ??_C@_0DE@BIABFNHJ@Fingerprint?5not?5found?5?$CIPJMEDIA_@ 0045f344     pjmedia-i386-win32-vc8-release-dynamic:errno.obj
 0002:00007378       ??_C@_0BJ@JGEGOKIK@Unknown?5pjmedia?5error?5?$CFd@ 0045f378     pjmedia-i386-win32-vc8-release-dynamic:errno.obj
 0002:00007398       _pjmedia_linear2ulaw_tab   0045f398     pjmedia-i386-win32-vc8-release-dynamic:alaw_ulaw_table.obj
 0002:0000b398       _pjmedia_linear2alaw_tab   00463398     pjmedia-i386-win32-vc8-release-dynamic:alaw_ulaw_table.obj
 0002:0000f398       _pjmedia_ulaw2linear_tab   00467398     pjmedia-i386-win32-vc8-release-dynamic:alaw_ulaw_table.obj
 0002:0000f598       _pjmedia_alaw2linear_tab   00467598     pjmedia-i386-win32-vc8-release-dynamic:alaw_ulaw_table.obj
 0002:0000f798       ??_C@_04CCFCAPFE@sd?$CFp@  00467798     pjmedia-i386-win32-vc8-release-dynamic:silencedet.obj
 0002:0000f7a0       ??_C@_0CJ@FEGDIEOD@Re?9adjust?5threshold?5?$CIin?5talk?5bu@ 004677a0     pjmedia-i386-win32-vc8-release-dynamic:silencedet.obj
 0002:0000f7cc       ??_C@_0N@GGOMHLHN@silencedet?4c@ 004677cc     pjmedia-i386-win32-vc8-release-dynamic:silencedet.obj
 0002:0000f7dc       ??_C@_0CM@HFHDPICL@Starting?5talk?5burst?5?$CIlevel?$DN?$CFd?5t@ 004677dc     pjmedia-i386-win32-vc8-release-dynamic:silencedet.obj
 0002:0000f808       ??_C@_0CG@DGOMOKAK@Re?9adjust?5threshold?5?$CIin?5silence@ 00467808     pjmedia-i386-win32-vc8-release-dynamic:silencedet.obj
 0002:0000f830       ??_C@_0CJ@HMFIAFFP@Starting?5silence?5?$CIlevel?$DN?$CFd?5thre@ 00467830     pjmedia-i386-win32-vc8-release-dynamic:silencedet.obj
 0002:0000f85c       ??_C@_0BA@LPBIANE@Echo?5suppressor@ 0046785c     pjmedia-i386-win32-vc8-release-dynamic:echo_common.obj
 0002:0000f86c       ??_C@_03FABGEMFG@AEC@      0046786c     pjmedia-i386-win32-vc8-release-dynamic:echo_common.obj
 0002:0000f870       ??_C@_04FACFFFMP@ec?$CFp@  00467870     pjmedia-i386-win32-vc8-release-dynamic:echo_common.obj
 0002:0000f878       ??_C@_0M@KMDBLPFK@Creating?5?$CFs@ 00467878     pjmedia-i386-win32-vc8-release-dynamic:echo_common.obj
 0002:0000f888       ??_C@_0FO@FCNNBEFH@?$CFs?5created?0?5clock_rate?$DN?$CFd?0?5chan@ 00467888     pjmedia-i386-win32-vc8-release-dynamic:echo_common.obj
 0002:0000f8e8       ??_C@_0BM@HOHFIKPJ@Latency?5bufferring?5complete@ 004678e8     pjmedia-i386-win32-vc8-release-dynamic:echo_common.obj
 0002:0000f904       ??_C@_0O@DBBHABPM@Prefetching?4?4@ 00467904     pjmedia-i386-win32-vc8-release-dynamic:echo_common.obj
 0002:0000f914       ??_C@_0DF@ENONGENO@No?5frame?5from?5delay?5buffer?4?5Thi@ 00467914     pjmedia-i386-win32-vc8-release-dynamic:echo_common.obj
 0002:0000f94c       ??_C@_03JBLJHHJA@ack@      0046794c     pjmedia-i386-win32-vc8-release-dynamic:rtcp_fb.obj
 0002:0000f950       ??_C@_04FANNJGLN@nack@     00467950     pjmedia-i386-win32-vc8-release-dynamic:rtcp_fb.obj
 0002:0000f958       ??_C@_07PJLPNLNA@trr?9int@ 00467958     pjmedia-i386-win32-vc8-release-dynamic:rtcp_fb.obj
 0002:0000f960       ??_C@_07FCPEBGCM@rtcp?9fb@ 00467960     pjmedia-i386-win32-vc8-release-dynamic:rtcp_fb.obj
 0002:0000f968       ??_C@_0N@MLEOMPJK@?$CF?4?$CKs?1?$CFd?1?$CF?4?$CKs@ 00467968     pjmedia-i386-win32-vc8-release-dynamic:rtcp_fb.obj
 0002:0000f978       ??_C@_09PENHMDKI@?$CF?4?$CKs?1?$CFd?11@ 00467978     pjmedia-i386-win32-vc8-release-dynamic:rtcp_fb.obj
 0002:0000f984       ??_C@_02OJDBNLEE@?5?7@     00467984     pjmedia-i386-win32-vc8-release-dynamic:rtcp_fb.obj
 0002:0000f988       ??_C@_0EB@OHKIBEFG@Warning?3?5fmtp?5parameter?5count?5e@ 00467988     pjmedia-i386-win32-vc8-release-dynamic:stream_common.obj
 0002:0000f9cc       ??_C@_0BA@JPAJDJED@stream_common?4c@ 004679cc     pjmedia-i386-win32-vc8-release-dynamic:stream_common.obj
 0002:0000f9dc       ??_C@_0DH@LLDEKPNG@Lost?5event?5?$CFs?5from?5publisher?5?$FL0@ 004679dc     pjmedia-i386-win32-vc8-release-dynamic:event.obj
 0002:0000fa14       ??_C@_07GLALFINI@event?4c@ 00467a14     pjmedia-i386-win32-vc8-release-dynamic:event.obj
 0002:0000fa1c       ??_C@_0DD@MMICNMEI@Warning?3?5buffer?5too?5small?5for?5t@ 00467a1c     pjmedia-i386-win32-vc8-release-dynamic:jbuf.obj
 0002:0000fa50       ??_C@_06FLBFAJJF@jbuf?4c@  00467a50     pjmedia-i386-win32-vc8-release-dynamic:jbuf.obj
 0002:0000fa58       ??_C@_0KG@FCNLKHHC@JB?5summary?3?6?5?5size?$DN?$CFd?1eff?$DN?$CFd?5pr@ 00467a58     pjmedia-i386-win32-vc8-release-dynamic:jbuf.obj
 0002:0000fb00       ??_C@_0EC@GPFNHOGJ@Warning?3?5frame?5too?5large?5for?5ji@ 00467b00     pjmedia-i386-win32-vc8-release-dynamic:jbuf.obj
 0002:0000fb48       __real@3fe0000000000000    00467b48     pjmedia-i386-win32-vc8-release-dynamic:jbuf.obj
 0002:0000fb50       ??_C@_0DL@OIPEDDCB@pjmedia_rtp_session_init?3?5ses?$DN?$CF@ 00467b50     pjmedia-i386-win32-vc8-release-dynamic:rtp.obj
 0002:0000fb8c       ??_C@_05BDLJEHIL@rtp?4c@   00467b8c     pjmedia-i386-win32-vc8-release-dynamic:rtp.obj
 0002:0000fb94       ??_C@_06EAHJFANL@rtcp?4c@  00467b94     pjmedia-i386-win32-vc8-release-dynamic:rtcp.obj
 0002:0000fb9c       ??_C@_0CL@JHAJNKLA@RTT?5value?5?$CFd?5usec?5is?5normalized@ 00467b9c     pjmedia-i386-win32-vc8-release-dynamic:rtcp.obj
 0002:0000fbc8       ??_C@_0FE@KPGOGEPL@Internal?5RTCP?5NTP?5clock?5skew?5de@ 00467bc8     pjmedia-i386-win32-vc8-release-dynamic:rtcp.obj
 0002:0000fc1c       ??_C@_0DD@HBJGFOMH@Unsufficient?5buffer?5to?5save?5RTC@ 00467c1c     pjmedia-i386-win32-vc8-release-dynamic:rtcp.obj
 0002:0000fc50       ??_C@_0CA@DILGMHIA@Received?5RTCP?5BYE?0?5reason?3?5?$CF?4?$CKs@ 00467c50     pjmedia-i386-win32-vc8-release-dynamic:rtcp.obj
 0002:0000fc70       __real@408f400000000000    00467c70     pjmedia-i386-win32-vc8-release-dynamic:rtcp.obj
 0002:0000fc78       __real@41efffffffe00000    00467c78     pjmedia-i386-win32-vc8-release-dynamic:rtcp.obj
 0002:0000fc80       __xmm@41f00000000000000000000000000000 00467c80     pjmedia-i386-win32-vc8-release-dynamic:rtcp.obj
 0002:0000fca8       ??_C@_08MPIAKENM@RTP?1SAVP@ 00467ca8     pjmedia-i386-win32-vc8-release-dynamic:transport_srtp.obj
 0002:0000fcb4       ??_C@_06LAEHEPPF@crypto@   00467cb4     pjmedia-i386-win32-vc8-release-dynamic:transport_srtp.obj
 0002:0000fcbc       ??_C@_0BI@FCCBBIDC@AES_256_CM_HMAC_SHA1_80@ 00467cbc     pjmedia-i386-win32-vc8-release-dynamic:transport_srtp.obj
 0002:0000fcd4       ??_C@_0BI@GMECJFFB@AES_256_CM_HMAC_SHA1_32@ 00467cd4     pjmedia-i386-win32-vc8-release-dynamic:transport_srtp.obj
 0002:0000fcec       ??_C@_0BI@OADHPNHF@AES_CM_128_HMAC_SHA1_80@ 00467cec     pjmedia-i386-win32-vc8-release-dynamic:transport_srtp.obj
 0002:0000fd04       ??_C@_0BI@NOFEHABG@AES_CM_128_HMAC_SHA1_32@ 00467d04     pjmedia-i386-win32-vc8-release-dynamic:transport_srtp.obj
 0002:0000fd1c       ??_C@_02MFDMBIJM@ok@       00467d1c     pjmedia-i386-win32-vc8-release-dynamic:transport_srtp.obj
 0002:0000fd20       ??_C@_0BE@KFOIPNMM@unspecified?5failure@ 00467d20     pjmedia-i386-win32-vc8-release-dynamic:transport_srtp.obj
 0002:0000fd34       ??_C@_0BG@LENPEKHL@unsupported?5parameter@ 00467d34     pjmedia-i386-win32-vc8-release-dynamic:transport_srtp.obj
 0002:0000fd4c       ??_C@_0BJ@DGLNBGGB@couldn?8t?5allocate?5memory@ 00467d4c     pjmedia-i386-win32-vc8-release-dynamic:transport_srtp.obj
 0002:0000fd68       ??_C@_0BN@LJIJFBAJ@couldn?8t?5deallocate?5properly@ 00467d68     pjmedia-i386-win32-vc8-release-dynamic:transport_srtp.obj
 0002:0000fd88       ??_C@_0BE@KBPICNEA@couldn?8t?5initialize@ 00467d88     pjmedia-i386-win32-vc8-release-dynamic:transport_srtp.obj
 0002:0000fd9c       ??_C@_0CI@FEPPFOBO@can?8t?5process?5as?5much?5data?5as?5r@ 00467d9c     pjmedia-i386-win32-vc8-release-dynamic:transport_srtp.obj
 0002:0000fdc4       ??_C@_0BH@DJJHFLDI@authentication?5failure@ 00467dc4     pjmedia-i386-win32-vc8-release-dynamic:transport_srtp.obj
 0002:0000fddc       ??_C@_0P@MHOCHBCE@cipher?5failure@ 00467ddc     pjmedia-i386-win32-vc8-release-dynamic:transport_srtp.obj
 0002:0000fdec       ??_C@_0CA@LIFPFHJ@replay?5check?5failed?5?$CIbad?5index?$CJ@ 00467dec     pjmedia-i386-win32-vc8-release-dynamic:transport_srtp.obj
 0002:0000fe0c       ??_C@_0CE@GCMJOMFK@replay?5check?5failed?5?$CIindex?5too?5@ 00467e0c     pjmedia-i386-win32-vc8-release-dynamic:transport_srtp.obj
 0002:0000fe30       ??_C@_0BO@KLFALCF@algorithm?5failed?5test?5routine@ 00467e30     pjmedia-i386-win32-vc8-release-dynamic:transport_srtp.obj
 0002:0000fe50       ??_C@_0BG@JKFIFBMN@unsupported?5operation@ 00467e50     pjmedia-i386-win32-vc8-release-dynamic:transport_srtp.obj
 0002:0000fe68       ??_C@_0BN@PDJKDLOF@no?5appropriate?5context?5found@ 00467e68     pjmedia-i386-win32-vc8-release-dynamic:transport_srtp.obj
 0002:0000fe88       ??_C@_0CF@DOHHPHGD@unable?5to?5perform?5desired?5valid@ 00467e88     pjmedia-i386-win32-vc8-release-dynamic:transport_srtp.obj
 0002:0000feb0       ??_C@_0BH@NKHPNDDN@can?8t?5use?5key?5any?5more@ 00467eb0     pjmedia-i386-win32-vc8-release-dynamic:transport_srtp.obj
 0002:0000fec8       ??_C@_0BH@CDHGOGDE@error?5in?5use?5of?5socket@ 00467ec8     pjmedia-i386-win32-vc8-release-dynamic:transport_srtp.obj
 0002:0000fee0       ??_C@_0BL@DJFHEKEC@error?5in?5use?5POSIX?5signals@ 00467ee0     pjmedia-i386-win32-vc8-release-dynamic:transport_srtp.obj
 0002:0000fefc       ??_C@_0BD@HFMCMINA@nonce?5check?5failed@ 00467efc     pjmedia-i386-win32-vc8-release-dynamic:transport_srtp.obj
 0002:0000ff10       ??_C@_0BD@FCFDDPHP@couldn?8t?5read?5data@ 00467f10     pjmedia-i386-win32-vc8-release-dynamic:transport_srtp.obj
 0002:0000ff24       ??_C@_0BE@PIHIJLHG@couldn?8t?5write?5data@ 00467f24     pjmedia-i386-win32-vc8-release-dynamic:transport_srtp.obj
 0002:0000ff38       ??_C@_0BD@PIIFGNCP@error?5pasring?5data@ 00467f38     pjmedia-i386-win32-vc8-release-dynamic:transport_srtp.obj
 0002:0000ff4c       ??_C@_0BE@FFKLLGEP@error?5encoding?5data@ 00467f4c     pjmedia-i386-win32-vc8-release-dynamic:transport_srtp.obj
 0002:0000ff60       ??_C@_0BN@OEPMNKMP@error?5while?5using?5semaphores@ 00467f60     pjmedia-i386-win32-vc8-release-dynamic:transport_srtp.obj
 0002:0000ff80       ??_C@_0BI@JNCDFEKK@error?5while?5using?5pfkey@ 00467f80     pjmedia-i386-win32-vc8-release-dynamic:transport_srtp.obj
 0002:0000ff98       ??_C@_0EB@EJGHAKCH@Warning?3?5simple?5random?5generato@ 00467f98     pjmedia-i386-win32-vc8-release-dynamic:transport_srtp.obj
 0002:0000ffdc       ??_C@_0BB@HGEADDBB@transport_srtp?4c@ 00467fdc     pjmedia-i386-win32-vc8-release-dynamic:transport_srtp.obj
 0002:0000fff0       ??_C@_0CE@BAIPFCEP@Failed?5encoding?5plain?5key?5to?5ba@ 00467ff0     pjmedia-i386-win32-vc8-release-dynamic:transport_srtp.obj
 0002:00010014       ??_C@_0BA@OGAKIHAO@?$CFd?5?$CFs?5inline?3?$CFs@ 00468014     pjmedia-i386-win32-vc8-release-dynamic:transport_srtp.obj
 0002:00010024       ??_C@_0BP@IBJNGPHO@Attribute?5crypto?5expecting?5tag@ 00468024     pjmedia-i386-win32-vc8-release-dynamic:transport_srtp.obj
 0002:00010044       ??_C@_0CI@IIDGBGP@Attribute?5crypto?5expecting?5cryp@ 00468044     pjmedia-i386-win32-vc8-release-dynamic:transport_srtp.obj
 0002:0001006c       ??_C@_02LMMGGCAJ@?3?5@     0046806c     pjmedia-i386-win32-vc8-release-dynamic:transport_srtp.obj
 0002:00010070       ??_C@_0CG@JCJFEHFF@Attribute?5crypto?5expecting?5key?5@ 00468070     pjmedia-i386-win32-vc8-release-dynamic:transport_srtp.obj
 0002:00010098       ??_C@_06OGMBMJA@inline@    00468098     pjmedia-i386-win32-vc8-release-dynamic:transport_srtp.obj
 0002:000100a0       ??_C@_0DC@FIGAPMKM@Attribute?5crypto?5key?5method?5?8?$CF?4@ 004680a0     pjmedia-i386-win32-vc8-release-dynamic:transport_srtp.obj
 0002:000100d4       ??_C@_02MINBJDHL@?$HM?5@   004680d4     pjmedia-i386-win32-vc8-release-dynamic:transport_srtp.obj
 0002:000100d8       ??_C@_0BP@FKKPLPLE@Attribute?5crypto?5expecting?5key@ 004680d8     pjmedia-i386-win32-vc8-release-dynamic:transport_srtp.obj
 0002:000100f8       ??_C@_0N@FJKIJMGM@Key?5too?5long@ 004680f8     pjmedia-i386-win32-vc8-release-dynamic:transport_srtp.obj
 0002:00010108       ??_C@_0CH@PPONEAL@Failed?5decoding?5crypto?5key?5from@ 00468108     pjmedia-i386-win32-vc8-release-dynamic:transport_srtp.obj
 0002:00010130       ??_C@_0BA@CMIKGIPP@SRTP?5not?5active@ 00468130     pjmedia-i386-win32-vc8-release-dynamic:transport_srtp.obj
 0002:00010140       ??_C@_04LFNPDDCP@SDES@     00468140     pjmedia-i386-win32-vc8-release-dynamic:transport_srtp.obj
 0002:00010148       ??_C@_09LMBOLLED@DTLS?9SRTP@ 00468148     pjmedia-i386-win32-vc8-release-dynamic:transport_srtp.obj
 0002:00010154       ??_C@_0CD@NFEKFFAL@SRTP?5started?0?5keying?$DN?$CFs?0?5crypto@ 00468154     pjmedia-i386-win32-vc8-release-dynamic:transport_srtp.obj
 0002:00010178       ??_C@_0BP@CAGNCNCA@Failed?5to?5restart?5SRTP?0?5err?$DN?$CFs@ 00468178     pjmedia-i386-win32-vc8-release-dynamic:transport_srtp.obj
 0002:00010198       ??_C@_0CO@EDHKLEPP@Failed?5to?5unprotect?5SRTP?0?5pkt?5s@ 00468198     pjmedia-i386-win32-vc8-release-dynamic:transport_srtp.obj
 0002:000101c8       ??_C@_0CP@OAIPELPD@Failed?5to?5unprotect?5SRTCP?0?5pkt?5@ 004681c8     pjmedia-i386-win32-vc8-release-dynamic:transport_srtp.obj
 0002:000101f8       ??_C@_0BL@LHHEAKNJ@SRTP?5uses?5keying?5method?5?$CFs@ 004681f8     pjmedia-i386-win32-vc8-release-dynamic:transport_srtp.obj
 0002:00010214       ??_C@_0CN@IMPBKLBH@SRTP?5failed?5stop?5underlying?5med@ 00468214     pjmedia-i386-win32-vc8-release-dynamic:transport_srtp.obj
 0002:00010244       ??_C@_0BJ@BOBCJFAN@Unknown?5libsrtp?5error?5?$CFd@ 00468244     pjmedia-i386-win32-vc8-release-dynamic:transport_srtp.obj
 0002:00010260       ??_C@_0BB@JENPEJDI@?9?9key?5too?5long?9?9@ 00468260     pjmedia-i386-win32-vc8-release-dynamic:transport_srtp.obj
 0002:00010274       ??_C@_0O@LPFLKIMI@TX?3?5?$CFs?5key?$DN?$CFs@ 00468274     pjmedia-i386-win32-vc8-release-dynamic:transport_srtp.obj
 0002:00010284       ??_C@_05EPPOHEBK@?5auth@   00468284     pjmedia-i386-win32-vc8-release-dynamic:transport_srtp.obj
 0002:0001028c       ??_C@_04PIHNPOJJ@?5enc@    0046828c     pjmedia-i386-win32-vc8-release-dynamic:transport_srtp.obj
 0002:00010294       ??_C@_0BA@BONGIHBG@TX?3?5disable?$CFs?$CFs@ 00468294     pjmedia-i386-win32-vc8-release-dynamic:transport_srtp.obj
 0002:000102a4       ??_C@_0O@EHJJODHO@RX?3?5?$CFs?5key?$DN?$CFs@ 004682a4     pjmedia-i386-win32-vc8-release-dynamic:transport_srtp.obj
 0002:000102b4       ??_C@_0BA@ENEHOOPC@RX?3?5disable?$CFs?$CFs@ 004682b4     pjmedia-i386-win32-vc8-release-dynamic:transport_srtp.obj
 0002:000102c4       ??_C@_0CG@KDAPJFOB@Failed?5to?5dealloc?5RX?5SRTP?5conte@ 004682c4     pjmedia-i386-win32-vc8-release-dynamic:transport_srtp.obj
 0002:000102ec       ??_C@_0CG@CHCMAIDE@Failed?5to?5dealloc?5TX?5SRTP?5conte@ 004682ec     pjmedia-i386-win32-vc8-release-dynamic:transport_srtp.obj
 0002:00010314       __real@3f800000            00468314     pjmedia-i386-win32-vc8-release-dynamic:wsola.obj
 0002:00010318       __real@3ff0000000000000    00468318     pjmedia-i386-win32-vc8-release-dynamic:wsola.obj
 0002:00010320       __real@3ff8000000000000    00468320     pjmedia-i386-win32-vc8-release-dynamic:wsola.obj
 0002:00010328       __real@401921fb54442d18    00468328     pjmedia-i386-win32-vc8-release-dynamic:wsola.obj
 0002:00010330       __xmm@3fe00000000000003fe0000000000000 00468330     pjmedia-i386-win32-vc8-release-dynamic:wsola.obj
 0002:00010340       __xmm@401921fb54442d18401921fb54442d18 00468340     pjmedia-i386-win32-vc8-release-dynamic:wsola.obj
 0002:00010350       __xmm@41f000000000000041f0000000000000 00468350     pjmedia-i386-win32-vc8-release-dynamic:wsola.obj
 0002:00010360       ??_C@_0CK@GILFEPIK@Echo?5suppressor?5soft?5reset?4?5Re?9@ 00468360     pjmedia-i386-win32-vc8-release-dynamic:echo_suppress.obj
 0002:0001038c       ??_C@_0BA@GIJBCBML@echo_suppress?4c@ 0046838c     pjmedia-i386-win32-vc8-release-dynamic:echo_suppress.obj
 0002:000103a0       ??_C@_0FL@JMGHEEIK@Echo?5suppressor?5updated?5at?5t?$DN?$CF0@ 004683a0     pjmedia-i386-win32-vc8-release-dynamic:echo_suppress.obj
 0002:00010400       ??_C@_0FK@NODMKGEL@Echo?5suppressor?5learning?5done?5a@ 00468400     pjmedia-i386-win32-vc8-release-dynamic:echo_suppress.obj
 0002:0001045c       ??_C@_0CC@OBLDMFND@Echo?5suppressor?5residue?5?$DN?5?$CFd?4?$CF0@ 0046845c     pjmedia-i386-win32-vc8-release-dynamic:echo_suppress.obj
 0002:00010480       __real@3f000000            00468480     pjmedia-i386-win32-vc8-release-dynamic:echo_suppress.obj
 0002:00010484       __real@40200000            00468484     pjmedia-i386-win32-vc8-release-dynamic:echo_suppress.obj
 0002:00010488       __real@40400000            00468488     pjmedia-i386-win32-vc8-release-dynamic:echo_suppress.obj
 0002:0001048c       __real@41980000            0046848c     pjmedia-i386-win32-vc8-release-dynamic:echo_suppress.obj
 0002:00010490       __real@41a00000            00468490     pjmedia-i386-win32-vc8-release-dynamic:echo_suppress.obj
 0002:00010494       __real@447a0000            00468494     pjmedia-i386-win32-vc8-release-dynamic:echo_suppress.obj
 0002:000104a0       __xmm@80000000800000008000000080000000 004684a0     pjmedia-i386-win32-vc8-release-dynamic:echo_suppress.obj
 0002:000104b0       ??_C@_0EK@HDJKCMHE@Multichannel?5EC?5is?5not?5supporte@ 004684b0     pjmedia-i386-win32-vc8-release-dynamic:echo_speex.obj
 0002:000104fc       ??_C@_0N@MOFPDDJO@echo_speex?4c@ 004684fc     pjmedia-i386-win32-vc8-release-dynamic:echo_speex.obj
 0002:0001050c       ??_C@_08LLMLEOE@delaybuf@  0046850c     pjmedia-i386-win32-vc8-release-dynamic:delaybuf.obj
 0002:00010518       ??_C@_0BP@CKANIKAH@Using?5delay?5buffer?5with?5WSOLA?4@ 00468518     pjmedia-i386-win32-vc8-release-dynamic:delaybuf.obj
 0002:00010538       ??_C@_0CA@BKBNPCON@Using?5simple?5FIFO?5delay?5buffer?4@ 00468538     pjmedia-i386-win32-vc8-release-dynamic:delaybuf.obj
 0002:00010558       ??_C@_0BP@JJBHJNOO@?$CFd?5samples?5reduced?0?5buf_cnt?$DN?$CFd@ 00468558     pjmedia-i386-win32-vc8-release-dynamic:delaybuf.obj
 0002:00010578       ??_C@_0DA@FPCBOFHC@Buffer?5size?5adjusted?5from?5?$CFd?5to@ 00468578     pjmedia-i386-win32-vc8-release-dynamic:delaybuf.obj
 0002:000105a8       ??_C@_0CD@DJOCKALK@Shrinking?5failed?5or?5insufficien@ 004685a8     pjmedia-i386-win32-vc8-release-dynamic:delaybuf.obj
 0002:000105cc       ??_C@_0CJ@KJHKGIAO@?$CFsDropping?5?$CFd?5eldest?5samples?0?5b@ 004685cc     pjmedia-i386-win32-vc8-release-dynamic:delaybuf.obj
 0002:000105f8       ??_C@_0CN@FEOJBHHF@Underflow?0?5buf_cnt?$DN?$CFd?0?5will?5gen@ 004685f8     pjmedia-i386-win32-vc8-release-dynamic:delaybuf.obj
 0002:00010628       ??_C@_0CC@NNEAKFHB@Error?5generating?5frame?0?5status?$DN@ 00468628     pjmedia-i386-win32-vc8-release-dynamic:delaybuf.obj
 0002:00010830       ??_C@_0DI@FPKNFLPC@Unable?5to?5resolve?5STUN?5server?5?$CI@ 00468830     pjlib-util-i386-win32-vc8-release-dynamic:errno.obj
 0002:00010868       ??_C@_0DG@MLIAHJMC@Unknown?5STUN?5message?5type?5?$CIPJLI@ 00468868     pjlib-util-i386-win32-vc8-release-dynamic:errno.obj
 0002:000108a0       ??_C@_0DH@BGLGMNML@Invalid?5STUN?5message?5length?5?$CIPJ@ 004688a0     pjlib-util-i386-win32-vc8-release-dynamic:errno.obj
 0002:000108d8       ??_C@_0DI@MNKBLDCO@STUN?5attribute?5length?5error?5?$CIPJ@ 004688d8     pjlib-util-i386-win32-vc8-release-dynamic:errno.obj
 0002:00010910       ??_C@_0DJ@GEFJCPHI@Invalid?5STUN?5attribute?5type?5?$CIPJ@ 00468910     pjlib-util-i386-win32-vc8-release-dynamic:errno.obj
 0002:0001094c       ??_C@_0DL@JFEBBJAB@Invalid?5STUN?5server?1socket?5inde@ 0046894c     pjlib-util-i386-win32-vc8-release-dynamic:errno.obj
 0002:00010988       ??_C@_0EE@OMBAKMPD@No?5STUN?5binding?5response?5in?5the@ 00468988     pjlib-util-i386-win32-vc8-release-dynamic:errno.obj
 0002:000109cc       ??_C@_0DM@JJJKHKHH@Received?5STUN?5error?5attribute?5?$CI@ 004689cc     pjlib-util-i386-win32-vc8-release-dynamic:errno.obj
 0002:00010a08       ??_C@_0DJ@BDPKKDEL@No?5STUN?5mapped?5address?5attribut@ 00468a08     pjlib-util-i386-win32-vc8-release-dynamic:errno.obj
 0002:00010a48       ??_C@_0ED@MIOBPJDH@Received?5no?5response?5from?5STUN?5@ 00468a48     pjlib-util-i386-win32-vc8-release-dynamic:errno.obj
 0002:00010a8c       ??_C@_0DK@OILEGGA@Symetric?5NAT?5detected?5by?5STUN?5?$CI@ 00468a8c     pjlib-util-i386-win32-vc8-release-dynamic:errno.obj
 0002:00010ac8       ??_C@_0CI@OKGDIDF@Invalid?5XML?5message?5?$CIPJLIB_UTIL@ 00468ac8     pjlib-util-i386-win32-vc8-release-dynamic:errno.obj
 0002:00010af0       ??_C@_0CL@IPLFEOJE@Invalid?5JSON?5document?5?$CIPJLIB_UT@ 00468af0     pjlib-util-i386-win32-vc8-release-dynamic:errno.obj
 0002:00010b20       ??_C@_0EC@KJLJANIE@DNS?5query?5packet?5buffer?5is?5too?5@ 00468b20     pjlib-util-i386-win32-vc8-release-dynamic:errno.obj
 0002:00010b64       ??_C@_0DC@JFKHADAC@Invalid?5DNS?5packet?5length?5?$CIPJLI@ 00468b64     pjlib-util-i386-win32-vc8-release-dynamic:errno.obj
 0002:00010b98       ??_C@_0CL@OCFDFFNM@Invalid?5DNS?5class?5?$CIPJLIB_UTIL_E@ 00468b98     pjlib-util-i386-win32-vc8-release-dynamic:errno.obj
 0002:00010bc4       ??_C@_0DE@FIPILDGP@Invalid?5DNS?5name?5pointer?5?$CIPJLIB@ 00468bc4     pjlib-util-i386-win32-vc8-release-dynamic:errno.obj
 0002:00010bf8       ??_C@_0DJ@NBOGGJL@Invalid?5DNS?5nameserver?5address?5@ 00468bf8     pjlib-util-i386-win32-vc8-release-dynamic:errno.obj
 0002:00010c34       ??_C@_0DH@LFJGDOHB@No?5nameserver?5is?5in?5DNS?5resolve@ 00468c34     pjlib-util-i386-win32-vc8-release-dynamic:errno.obj
 0002:00010c6c       ??_C@_0DH@PHJBLCKD@No?5working?5DNS?5nameserver?5?$CIPJLI@ 00468c6c     pjlib-util-i386-win32-vc8-release-dynamic:errno.obj
 0002:00010ca8       ??_C@_0EC@HJFBNLFC@No?5answer?5record?5in?5the?5DNS?5res@ 00468ca8     pjlib-util-i386-win32-vc8-release-dynamic:errno.obj
 0002:00010cec       ??_C@_0CN@DEFBDJKF@Invalid?5DNS?5answer?5?$CIPJLIB_UTIL_@ 00468cec     pjlib-util-i386-win32-vc8-release-dynamic:errno.obj
 0002:00010d1c       ??_C@_0CN@BCAAPMPM@DNS?5?$CCFormat?5error?$CC?5?$CIPJLIB_UTIL_@ 00468d1c     pjlib-util-i386-win32-vc8-release-dynamic:errno.obj
 0002:00010d4c       ??_C@_0DA@NBPIIAHM@DNS?5?$CCServer?5failure?$CC?5?$CIPJLIB_UTI@ 00468d4c     pjlib-util-i386-win32-vc8-release-dynamic:errno.obj
 0002:00010d7c       ??_C@_0CM@CNNJNBCA@DNS?5?$CCName?5Error?$CC?5?$CIPJLIB_UTIL_ED@ 00468d7c     pjlib-util-i386-win32-vc8-release-dynamic:errno.obj
 0002:00010da8       ??_C@_0DA@DIMDKHPM@DNS?5?$CCNot?5Implemented?$CC?5?$CIPJLIB_UT@ 00468da8     pjlib-util-i386-win32-vc8-release-dynamic:errno.obj
 0002:00010dd8       ??_C@_0CI@LDMKLLKJ@DNS?5?$CCRefused?$CC?5?$CIPJLIB_UTIL_EDNS_@ 00468dd8     pjlib-util-i386-win32-vc8-release-dynamic:errno.obj
 0002:00010e00       ??_C@_0DB@PFAMNHPJ@DNS?5?$CCThe?5name?5exists?$CC?5?$CIPJLIB_UT@ 00468e00     pjlib-util-i386-win32-vc8-release-dynamic:errno.obj
 0002:00010e34       ??_C@_0DO@OIIHMCI@DNS?5?$CCThe?5RRset?5?$CIname?0?5type?$CJ?5exi@ 00468e34     pjlib-util-i386-win32-vc8-release-dynamic:errno.obj
 0002:00010e78       ??_C@_0EG@OMHMBNML@DNS?5?$CCThe?5RRset?5?$CIname?0?5type?$CJ?5doe@ 00468e78     pjlib-util-i386-win32-vc8-release-dynamic:errno.obj
 0002:00010ec0       ??_C@_0CP@HJODAHHO@DNS?5?$CCNot?5authorized?$CC?5?$CIPJLIB_UTI@ 00468ec0     pjlib-util-i386-win32-vc8-release-dynamic:errno.obj
 0002:00010ef0       ??_C@_0EB@GKEHOPAE@DNS?5?$CCThe?5zone?5specified?5is?5not?5@ 00468ef0     pjlib-util-i386-win32-vc8-release-dynamic:errno.obj
 0002:00010f34       ??_C@_0DH@EMGNELGL@Too?5many?5STUN?5attributes?5?$CIPJLIB@ 00468f34     pjlib-util-i386-win32-vc8-release-dynamic:errno.obj
 0002:00010f6c       ??_C@_0DF@KMIPDCMM@Unknown?5STUN?5attribute?5?$CIPJLIB_U@ 00468f6c     pjlib-util-i386-win32-vc8-release-dynamic:errno.obj
 0002:00010fa4       ??_C@_0DP@PDBNFLFH@Invalid?5STUN?5socket?5address?5len@ 00468fa4     pjlib-util-i386-win32-vc8-release-dynamic:errno.obj
 0002:00010fe8       ??_C@_0EA@NAKPKGDE@STUN?5IPv6?5attribute?5not?5support@ 00468fe8     pjlib-util-i386-win32-vc8-release-dynamic:errno.obj
 0002:00011028       ??_C@_0DO@LEKPMIHP@Expecting?5STUN?5response?5message@ 00469028     pjlib-util-i386-win32-vc8-release-dynamic:errno.obj
 0002:00011068       ??_C@_0DJ@DDEJFFIL@STUN?5transaction?5ID?5mismatch?5?$CIP@ 00469068     pjlib-util-i386-win32-vc8-release-dynamic:errno.obj
 0002:000110a8       ??_C@_0EI@BNLBFIKH@Unable?5to?5find?5STUN?5handler?5for@ 004690a8     pjlib-util-i386-win32-vc8-release-dynamic:errno.obj
 0002:000110f0       ??_C@_0FA@DIAPLEFD@Found?5non?9FINGERPRINT?5attr?4?5aft@ 004690f0     pjlib-util-i386-win32-vc8-release-dynamic:errno.obj
 0002:00011140       ??_C@_0ED@CNMDGMPD@Found?5STUN?5attribute?5after?5FING@ 00469140     pjlib-util-i386-win32-vc8-release-dynamic:errno.obj
 0002:00011184       ??_C@_0DN@JLMAJAKN@Missing?5STUN?5USERNAME?5attribute@ 00469184     pjlib-util-i386-win32-vc8-release-dynamic:errno.obj
 0002:000111c8       ??_C@_0EK@LMHKLKC@Missing?1invalid?5STUN?5MESSAGE?9IN@ 004691c8     pjlib-util-i386-win32-vc8-release-dynamic:errno.obj
 0002:00011214       ??_C@_0DJ@BCFNCGF@Found?5duplicate?5STUN?5attribute?5@ 00469214     pjlib-util-i386-win32-vc8-release-dynamic:errno.obj
 0002:00011250       ??_C@_0DH@MMHMOPBG@Missing?5STUN?5REALM?5attribute?5?$CIP@ 00469250     pjlib-util-i386-win32-vc8-release-dynamic:errno.obj
 0002:00011288       ??_C@_0EB@FGOGNHPO@Missing?1stale?5STUN?5NONCE?5attrib@ 00469288     pjlib-util-i386-win32-vc8-release-dynamic:errno.obj
 0002:000112d0       ??_C@_0EF@HAPLEMIK@STUN?5transaction?5terminates?5wit@ 004692d0     pjlib-util-i386-win32-vc8-release-dynamic:errno.obj
 0002:00011318       ??_C@_0CL@GOOAEBLJ@Invalid?5URL?5format?5?$CIPJLIB_UTIL_@ 00469318     pjlib-util-i386-win32-vc8-release-dynamic:errno.obj
 0002:00011344       ??_C@_0DB@BDFJPAOA@Invalid?5URL?5port?5number?5?$CIPJLIB_@ 00469344     pjlib-util-i386-win32-vc8-release-dynamic:errno.obj
 0002:00011378       ??_C@_0DN@CABCKELB@Incomplete?5response?5header?5rece@ 00469378     pjlib-util-i386-win32-vc8-release-dynamic:errno.obj
 0002:000113b8       ??_C@_0CN@MKMAKFDH@Insufficient?5buffer?5?$CIPJLIB_UTIL@ 004693b8     pjlib-util-i386-win32-vc8-release-dynamic:errno.obj
 0002:000113e8       ??_C@_0CH@JNBFBBKA@Connection?5lost?5?$CIPJLIB_UTIL_EHT@ 004693e8     pjlib-util-i386-win32-vc8-release-dynamic:errno.obj
 0002:00011410       ??_C@_0CE@DHMMOEGP@Exit?5current?5session?5?$CIPJ_CLI_EE@ 00469410     pjlib-util-i386-win32-vc8-release-dynamic:errno.obj
 0002:00011434       ??_C@_0CG@LEDMCEME@Missing?5argument?5?$CIPJ_CLI_EMISSI@ 00469434     pjlib-util-i386-win32-vc8-release-dynamic:errno.obj
 0002:0001145c       ??_C@_0CJ@ECODGDHL@Too?5many?5arguments?5?$CIPJ_CLI_ETOO@ 0046945c     pjlib-util-i386-win32-vc8-release-dynamic:errno.obj
 0002:00011488       ??_C@_0CC@NLPGOLED@Invalid?5argument?5?$CIPJ_CLI_EINVAR@ 00469488     pjlib-util-i386-win32-vc8-release-dynamic:errno.obj
 0002:000114ac       ??_C@_0CO@OOEOBCH@Command?5name?5already?5exists?5?$CIPJ@ 004694ac     pjlib-util-i386-win32-vc8-release-dynamic:errno.obj
 0002:000114dc       ??_C@_0CK@MKOACJP@Command?5id?5already?5exists?5?$CIPJ_C@ 004694dc     pjlib-util-i386-win32-vc8-release-dynamic:errno.obj
 0002:00011508       ??_C@_0CE@LHHCBFML@Invalid?5XML?5format?5?$CIPJ_CLI_EBAD@ 00469508     pjlib-util-i386-win32-vc8-release-dynamic:errno.obj
 0002:0001152c       ??_C@_0CF@CKMLJLLP@Connection?5lost?5?$CIPJ_CLI_ETELNET@ 0046952c     pjlib-util-i386-win32-vc8-release-dynamic:errno.obj
 0002:00011554       ??_C@_0BM@LDLEGOFO@Unknown?5pjlib?9util?5error?5?$CFd@ 00469554     pjlib-util-i386-win32-vc8-release-dynamic:errno.obj
 0002:00011570       ??_C@_02BAABKJLB@?9?9@     00469570     pjlib-util-i386-win32-vc8-release-dynamic:getopt.obj
 0002:00011574       ??_C@_0DL@LHIPNDIG@d?3?2pjsip?2pjproject?92?48?2pjlib?9ut@ 00469574     pjlib-util-i386-win32-vc8-release-dynamic:scanner.obj
 0002:000115b0       ??_C@_07IAIHCIDD@Probing@  004695b0     pjlib-util-i386-win32-vc8-release-dynamic:resolver.obj
 0002:000115b8       ??_C@_06MAFFGDO@Active@    004695b8     pjlib-util-i386-win32-vc8-release-dynamic:resolver.obj
 0002:000115c0       ??_C@_03KHCCLPOB@Bad@      004695c0     pjlib-util-i386-win32-vc8-release-dynamic:resolver.obj
 0002:000115c4       ??_C@_0BH@PPEBBIFJ@?0?5will?5try?5again?5later@ 004695c4     pjlib-util-i386-win32-vc8-release-dynamic:resolver.obj
 0002:000115dc       ??_C@_0DC@GOFLGJND@Socket?5busy?5in?5transmitting?5DNS@ 004695dc     pjlib-util-i386-win32-vc8-release-dynamic:resolver.obj
 0002:00011610       ??_C@_0N@IBGJGPJN@Transmitting@ 00469610     pjlib-util-i386-win32-vc8-release-dynamic:resolver.obj
 0002:00011620       ??_C@_0BA@JFAGDHFD@Re?9transmitting@ 00469620     pjlib-util-i386-win32-vc8-release-dynamic:resolver.obj
 0002:00011630       ??_C@_0DC@PBGKNNLN@?$CFs?5?$CFd?5bytes?5to?5NS?5?$CFd?5?$CI?$CFs?3?$CFd?$CJ?3?5D@ 00469630     pjlib-util-i386-win32-vc8-release-dynamic:resolver.obj
 0002:00011664       ??_C@_0DE@LLACOPGB@Picked?5up?5DNS?5?$CFs?5record?5for?5?$CF?4?$CK@ 00469664     pjlib-util-i386-win32-vc8-release-dynamic:resolver.obj
 0002:00011698       ??_C@_0CJ@MMDCPKPE@Nameserver?5?$CFs?3?$CFd?5state?5changed?5@ 00469698     pjlib-util-i386-win32-vc8-release-dynamic:resolver.obj
 0002:000116c4       ??_C@_0BP@GLADIPED@Error?5transmitting?5request?3?5?$CFs@ 004696c4     pjlib-util-i386-win32-vc8-release-dynamic:resolver.obj
 0002:000116f0       __xmm@ffffffffffffffffffffffffffffffff 004696f0     pjlib-util-i386-win32-vc8-release-dynamic:resolver.obj
 0002:00011700       ??_C@_01FHEEJDEE@A@        00469700     pjlib-util-i386-win32-vc8-release-dynamic:dns.obj
 0002:00011704       ??_C@_04OHNMNPPA@AAAA@     00469704     pjlib-util-i386-win32-vc8-release-dynamic:dns.obj
 0002:0001170c       ??_C@_03IENKIAKD@SRV@      0046970c     pjlib-util-i386-win32-vc8-release-dynamic:dns.obj
 0002:00011710       ??_C@_02OLCMIILA@NS@       00469710     pjlib-util-i386-win32-vc8-release-dynamic:dns.obj
 0002:00011714       ??_C@_05PGNGFKDN@CNAME@    00469714     pjlib-util-i386-win32-vc8-release-dynamic:dns.obj
 0002:0001171c       ??_C@_03PGIOJGPL@PTR@      0046971c     pjlib-util-i386-win32-vc8-release-dynamic:dns.obj
 0002:00011720       ??_C@_02KJOOPCC@MX@        00469720     pjlib-util-i386-win32-vc8-release-dynamic:dns.obj
 0002:00011724       ??_C@_03CGKMFPEO@TXT@      00469724     pjlib-util-i386-win32-vc8-release-dynamic:dns.obj
 0002:00011728       ??_C@_05DGMJPCKB@NAPTR@    00469728     pjlib-util-i386-win32-vc8-release-dynamic:dns.obj
 0002:00011730       ??_C@_09ONJBBFFA@?$CIUnknown?$CJ@ 00469730     pjlib-util-i386-win32-vc8-release-dynamic:dns.obj
 0002:0001173c       ??_C@_01LFCBOECM@?4@       0046973c     pjlib-util-i386-win32-vc8-release-dynamic:srv_resolver.obj
 0002:00011740       ??_C@_0DA@GGGKMBOI@Starting?5async?5DNS?5?$CFs?5query_job@ 00469740     pjlib-util-i386-win32-vc8-release-dynamic:srv_resolver.obj
 0002:00011770       ??_C@_0CL@ICCMMEFF@Received?5non?5SRV?5answer?5for?5SRV@ 00469770     pjlib-util-i386-win32-vc8-release-dynamic:srv_resolver.obj
 0002:0001179c       ??_C@_0BG@OENDJHLB@Hostname?5is?5too?5long?$CB@ 0046979c     pjlib-util-i386-win32-vc8-release-dynamic:srv_resolver.obj
 0002:000117b4       ??_C@_0CJ@IGNPBKGN@Could?5not?5find?5SRV?5record?5in?5DN@ 004697b4     pjlib-util-i386-win32-vc8-release-dynamic:srv_resolver.obj
 0002:000117e0       ??_C@_0EE@LPMFAMKM@SRV?5query_job?5for?5?$CF?4?$CKs?5complete@ 004697e0     pjlib-util-i386-win32-vc8-release-dynamic:srv_resolver.obj
 0002:00011824       ??_C@_0BM@MJBLDIAG@?5?$CFd?3?5SRV?5?$CFd?5?$CFd?5?$CFd?5?$CF?4?$CKs?5?$CI?$CFs?$CJ@ 00469824     pjlib-util-i386-win32-vc8-release-dynamic:srv_resolver.obj
 0002:00011840       ??_C@_0CI@IBPJGCBL@Starting?5async?5DNS?5A?5query_job?5@ 00469840     pjlib-util-i386-win32-vc8-release-dynamic:srv_resolver.obj
 0002:00011868       ??_C@_0CH@COCLGFLO@DNS?5SRV?5resolution?5failed?5for?5?$CF@ 00469868     pjlib-util-i386-win32-vc8-release-dynamic:srv_resolver.obj
 0002:00011890       ??_C@_0EM@PBBBMOKP@DNS?5SRV?5resolution?5failed?5for?5?$CF@ 00469890     pjlib-util-i386-win32-vc8-release-dynamic:srv_resolver.obj
 0002:000118dc       ??_C@_0DC@FOMADMGC@DNS?5?$CFs?5record?5parse?5error?5for?5?8@ 004698dc     pjlib-util-i386-win32-vc8-release-dynamic:srv_resolver.obj
 0002:00011910       ??_C@_0CM@GNPJLEOH@Bad?5address?5family?5in?5DNS?5?$CFs?5qu@ 00469910     pjlib-util-i386-win32-vc8-release-dynamic:srv_resolver.obj
 0002:0001193c       ??_C@_0BE@BLHHGJAP@DNS?5?$CFs?5for?5?$CF?4?$CKs?3?5?$CFs@ 0046993c     pjlib-util-i386-win32-vc8-release-dynamic:srv_resolver.obj
 0002:00011950       ??_C@_0CE@INBOJAA@DNS?5?$CFs?5record?5resolution?5failed@ 00469950     pjlib-util-i386-win32-vc8-release-dynamic:srv_resolver.obj
 0002:00011974       ??_C@_0DF@NMOAKAGH@Server?5resolution?5complete?0?5?$CFd?5@ 00469974     pjlib-util-i386-win32-vc8-release-dynamic:srv_resolver.obj
 0002:000119ac       ??_C@_0DH@GBMACLIM@DNS?5?$CFs?5record?5resolution?5error?5@ 004699ac     pjlib-util-i386-win32-vc8-release-dynamic:srv_resolver.obj
 0002:00011a28       ??_C@_04IFCNACLH@pj?$CFp@  00469a28     pjlib-i386-win32-vc8-release-dynamic:os_core_win32.obj
 0002:00011a30       ??_C@_0BA@NGJFHJA@PJLIB?1No?5memory@ 00469a30     pjlib-i386-win32-vc8-release-dynamic:os_core_win32.obj
 0002:00011a40       ??_C@_0BP@NGEKBPIB@pjlib?5?$CFs?5for?5win32?5initialized@ 00469a40     pjlib-i386-win32-vc8-release-dynamic:os_core_win32.obj
 0002:00011a60       ??_C@_0BA@FNCACAIG@os_core_win32?4c@ 00469a60     pjlib-i386-win32-vc8-release-dynamic:os_core_win32.obj
 0002:00011a70       ??_C@_0DE@FMBDMABK@d?3?2pjsip?2pjproject?92?48?2pjlib?2sr@ 00469a70     pjlib-i386-win32-vc8-release-dynamic:os_core_win32.obj
 0002:00011aa4       ??_C@_05KHEDLION@thr?$CFp@ 00469aa4     pjlib-i386-win32-vc8-release-dynamic:os_core_win32.obj
 0002:00011aac       ??_C@_0CD@GPHECFNA@Thread?5stack?5max?5usage?$DN?$CFu?5by?5?$CFs@ 00469aac     pjlib-i386-win32-vc8-release-dynamic:os_core_win32.obj
 0002:00011ad0       ??_C@_05EJDHHBFJ@mtx?$CFp@ 00469ad0     pjlib-i386-win32-vc8-release-dynamic:os_core_win32.obj
 0002:00011ad8       ??_C@_05EKKMALCN@sem?$CFp@ 00469ad8     pjlib-i386-win32-vc8-release-dynamic:os_core_win32.obj
 0002:00011ba0       ??_C@_0BM@FLPPOGAG@Unknown?5Error?5?$CIPJ_EUNKNOWN?$CJ@ 00469ba0     pjlib-i386-win32-vc8-release-dynamic:errno.obj
 0002:00011bbc       ??_C@_0CA@DCLOOJGD@Pending?5operation?5?$CIPJ_EPENDING?$CJ@ 00469bbc     pjlib-i386-win32-vc8-release-dynamic:errno.obj
 0002:00011bdc       ??_C@_0CO@GABEOAFF@Too?5many?5connecting?5sockets?5?$CIPJ@ 00469bdc     pjlib-i386-win32-vc8-release-dynamic:errno.obj
 0002:00011c0c       ??_C@_0CG@CBCJBJGD@Invalid?5value?5or?5argument?5?$CIPJ_E@ 00469c0c     pjlib-i386-win32-vc8-release-dynamic:errno.obj
 0002:00011c34       ??_C@_0CA@GJABNEKD@Name?5too?5long?5?$CIPJ_ENAMETOOLONG?$CJ@ 00469c34     pjlib-i386-win32-vc8-release-dynamic:errno.obj
 0002:00011c54       ??_C@_0BJ@JNKLPII@Not?5found?5?$CIPJ_ENOTFOUND?$CJ@ 00469c54     pjlib-i386-win32-vc8-release-dynamic:errno.obj
 0002:00011c70       ??_C@_0BO@GOLCMJKK@Not?5enough?5memory?5?$CIPJ_ENOMEM?$CJ@ 00469c70     pjlib-i386-win32-vc8-release-dynamic:errno.obj
 0002:00011c90       ??_C@_0BI@HHGDCAID@BUG?5DETECTED?$CB?5?$CIPJ_EBUG?$CJ@ 00469c90     pjlib-i386-win32-vc8-release-dynamic:errno.obj
 0002:00011ca8       ??_C@_0CD@JOGIDHPJ@Operation?5timed?5out?5?$CIPJ_ETIMEDO@ 00469ca8     pjlib-i386-win32-vc8-release-dynamic:errno.obj
 0002:00011ccc       ??_C@_0DF@MIFNAIHL@Too?5many?5objects?5of?5the?5specifi@ 00469ccc     pjlib-i386-win32-vc8-release-dynamic:errno.obj
 0002:00011d04       ??_C@_0BK@OMPILOH@Object?5is?5busy?5?$CIPJ_EBUSY?$CJ@ 00469d04     pjlib-i386-win32-vc8-release-dynamic:errno.obj
 0002:00011d20       ??_C@_0CP@BAIBJOJE@Option?1operation?5is?5not?5support@ 00469d20     pjlib-i386-win32-vc8-release-dynamic:errno.obj
 0002:00011d50       ??_C@_0CC@OEEEEEML@Invalid?5operation?5?$CIPJ_EINVALIDO@ 00469d50     pjlib-i386-win32-vc8-release-dynamic:errno.obj
 0002:00011d74       ??_C@_0CE@KDDMJLGF@Operation?5cancelled?5?$CIPJ_ECANCEL@ 00469d74     pjlib-i386-win32-vc8-release-dynamic:errno.obj
 0002:00011d98       ??_C@_0CD@LODOFNLC@Object?5already?5exists?5?$CIPJ_EEXIS@ 00469d98     pjlib-i386-win32-vc8-release-dynamic:errno.obj
 0002:00011dbc       ??_C@_0BG@GMBDFNLN@End?5of?5file?5?$CIPJ_EEOF?$CJ@ 00469dbc     pjlib-i386-win32-vc8-release-dynamic:errno.obj
 0002:00011dd4       ??_C@_0BN@PCCNBFLN@Size?5is?5too?5big?5?$CIPJ_ETOOBIG?$CJ@ 00469dd4     pjlib-i386-win32-vc8-release-dynamic:errno.obj
 0002:00011df4       ??_C@_0DB@FDCHLEID@gethostbyname?$CI?$CJ?5has?5returned?5er@ 00469df4     pjlib-i386-win32-vc8-release-dynamic:errno.obj
 0002:00011e28       ??_C@_0CB@MGGLJMNO@Size?5is?5too?5short?5?$CIPJ_ETOOSMALL@ 00469e28     pjlib-i386-win32-vc8-release-dynamic:errno.obj
 0002:00011e4c       ??_C@_0BG@NBDJGAFI@Ignored?5?$CIPJ_EIGNORED?$CJ@ 00469e4c     pjlib-i386-win32-vc8-release-dynamic:errno.obj
 0002:00011e64       ??_C@_0CH@OGOOBJBE@IPv6?5is?5not?5supported?5?$CIPJ_EIPV6@ 00469e64     pjlib-i386-win32-vc8-release-dynamic:errno.obj
 0002:00011e8c       ??_C@_0CK@DJAHHNOI@Unsupported?5address?5family?5?$CIPJ_@ 00469e8c     pjlib-i386-win32-vc8-release-dynamic:errno.obj
 0002:00011eb8       ??_C@_0CD@PDGCJOJH@Object?5no?5longer?5exists?5?$CIPJ_EGO@ 00469eb8     pjlib-i386-win32-vc8-release-dynamic:errno.obj
 0002:00011edc       ??_C@_0CI@LBHALONI@Socket?5is?5in?5bad?5state?5?$CIPJ_ESOC@ 00469edc     pjlib-i386-win32-vc8-release-dynamic:errno.obj
 0002:00011f04       ??_C@_0BH@ONDLFCEA@Unknown?5pjlib?5error?5?$CFd@ 00469f04     pjlib-i386-win32-vc8-release-dynamic:errno.obj
 0002:00011f1c       ??_C@_07PBILKAFL@Success@  00469f1c     pjlib-i386-win32-vc8-release-dynamic:errno.obj
 0002:00011f24       ??_C@_0BB@BIKLJNJD@Unknown?5error?5?$CFd@ 00469f24     pjlib-i386-win32-vc8-release-dynamic:errno.obj
 0002:00011f38       ??_C@_05NAOIJFC@Error@     00469f38     pjlib-i386-win32-vc8-release-dynamic:errno.obj
 0002:00011f40       ??_C@_06DJHOIPC@?$CFs?3?5?$CFs@ 00469f40     pjlib-i386-win32-vc8-release-dynamic:errno.obj
 0002:00011f48       ??_C@_03HODKBCIO@?3?$CFd@  00469f48     pjlib-i386-win32-vc8-release-dynamic:sock_common.obj
 0002:00011f4c       ??_C@_08KJEDNCKC@?$CFs?$CFs?$CFs?$CFs@ 00469f4c     pjlib-i386-win32-vc8-release-dynamic:sock_common.obj
 0002:00011f58       ??_C@_0DC@FCBHBCDO@d?3?2pjsip?2pjproject?92?48?2pjlib?2sr@ 00469f58     pjlib-i386-win32-vc8-release-dynamic:sock_common.obj
 0002:00011f8c       ??_C@_07EBPGIHEF@1?41?41?41@ 00469f8c     pjlib-i386-win32-vc8-release-dynamic:sock_common.obj
 0002:00011f94       ??_C@_04NFKLOGOF@1?3?31@   00469f94     pjlib-i386-win32-vc8-release-dynamic:sock_common.obj
 0002:00011f9c       ??_C@_0M@HMJLLIPA@?$CFs?$CF?4?$CKs?$CFs?3?$CFd@ 00469f9c     pjlib-i386-win32-vc8-release-dynamic:sock_common.obj
 0002:00011fa8       ??_C@_08JLADFOFK@?$CFs?$CF?4?$CKs?$CFs@ 00469fa8     pjlib-i386-win32-vc8-release-dynamic:sock_common.obj
 0002:00011fb4       _PJ_AF_UNSPEC              00469fb4     pjlib-i386-win32-vc8-release-dynamic:sock_bsd.obj
 0002:00011fb8       _PJ_AF_UNIX                00469fb8     pjlib-i386-win32-vc8-release-dynamic:sock_bsd.obj
 0002:00011fbc       _PJ_AF_INET                00469fbc     pjlib-i386-win32-vc8-release-dynamic:sock_bsd.obj
 0002:00011fc0       _PJ_AF_INET6               00469fc0     pjlib-i386-win32-vc8-release-dynamic:sock_bsd.obj
 0002:00011fc4       _PJ_AF_PACKET              00469fc4     pjlib-i386-win32-vc8-release-dynamic:sock_bsd.obj
 0002:00011fc8       _PJ_AF_IRDA                00469fc8     pjlib-i386-win32-vc8-release-dynamic:sock_bsd.obj
 0002:00011fcc       _PJ_SOCK_STREAM            00469fcc     pjlib-i386-win32-vc8-release-dynamic:sock_bsd.obj
 0002:00011fd0       _PJ_SOCK_DGRAM             00469fd0     pjlib-i386-win32-vc8-release-dynamic:sock_bsd.obj
 0002:00011fd4       _PJ_SOCK_RAW               00469fd4     pjlib-i386-win32-vc8-release-dynamic:sock_bsd.obj
 0002:00011fd8       _PJ_SOCK_RDM               00469fd8     pjlib-i386-win32-vc8-release-dynamic:sock_bsd.obj
 0002:00011fdc       _PJ_SOL_SOCKET             00469fdc     pjlib-i386-win32-vc8-release-dynamic:sock_bsd.obj
 0002:00011fe0       _PJ_SOL_IP                 00469fe0     pjlib-i386-win32-vc8-release-dynamic:sock_bsd.obj
 0002:00011fe4       _PJ_SOL_TCP                00469fe4     pjlib-i386-win32-vc8-release-dynamic:sock_bsd.obj
 0002:00011fe8       _PJ_SOL_UDP                00469fe8     pjlib-i386-win32-vc8-release-dynamic:sock_bsd.obj
 0002:00011fec       _PJ_SOL_IPV6               00469fec     pjlib-i386-win32-vc8-release-dynamic:sock_bsd.obj
 0002:00011ff0       _PJ_IP_TOS                 00469ff0     pjlib-i386-win32-vc8-release-dynamic:sock_bsd.obj
 0002:00011ff4       _PJ_IPTOS_LOWDELAY         00469ff4     pjlib-i386-win32-vc8-release-dynamic:sock_bsd.obj
 0002:00011ff8       _PJ_IPTOS_THROUGHPUT       00469ff8     pjlib-i386-win32-vc8-release-dynamic:sock_bsd.obj
 0002:00011ffc       _PJ_IPTOS_RELIABILITY      00469ffc     pjlib-i386-win32-vc8-release-dynamic:sock_bsd.obj
 0002:00012000       _PJ_IPTOS_MINCOST          0046a000     pjlib-i386-win32-vc8-release-dynamic:sock_bsd.obj
 0002:00012004       _PJ_IPV6_TCLASS            0046a004     pjlib-i386-win32-vc8-release-dynamic:sock_bsd.obj
 0002:00012008       _PJ_SO_TYPE                0046a008     pjlib-i386-win32-vc8-release-dynamic:sock_bsd.obj
 0002:0001200c       _PJ_SO_RCVBUF              0046a00c     pjlib-i386-win32-vc8-release-dynamic:sock_bsd.obj
 0002:00012010       _PJ_SO_SNDBUF              0046a010     pjlib-i386-win32-vc8-release-dynamic:sock_bsd.obj
 0002:00012014       _PJ_TCP_NODELAY            0046a014     pjlib-i386-win32-vc8-release-dynamic:sock_bsd.obj
 0002:00012018       _PJ_SO_REUSEADDR           0046a018     pjlib-i386-win32-vc8-release-dynamic:sock_bsd.obj
 0002:0001201c       _PJ_SO_NOSIGPIPE           0046a01c     pjlib-i386-win32-vc8-release-dynamic:sock_bsd.obj
 0002:00012020       _PJ_SO_PRIORITY            0046a020     pjlib-i386-win32-vc8-release-dynamic:sock_bsd.obj
 0002:00012024       _PJ_IP_MULTICAST_IF        0046a024     pjlib-i386-win32-vc8-release-dynamic:sock_bsd.obj
 0002:00012028       _PJ_IP_MULTICAST_TTL       0046a028     pjlib-i386-win32-vc8-release-dynamic:sock_bsd.obj
 0002:0001202c       _PJ_IP_MULTICAST_LOOP      0046a02c     pjlib-i386-win32-vc8-release-dynamic:sock_bsd.obj
 0002:00012030       _PJ_IP_ADD_MEMBERSHIP      0046a030     pjlib-i386-win32-vc8-release-dynamic:sock_bsd.obj
 0002:00012034       _PJ_IP_DROP_MEMBERSHIP     0046a034     pjlib-i386-win32-vc8-release-dynamic:sock_bsd.obj
 0002:00012038       _PJ_MSG_OOB                0046a038     pjlib-i386-win32-vc8-release-dynamic:sock_bsd.obj
 0002:0001203c       _PJ_MSG_PEEK               0046a03c     pjlib-i386-win32-vc8-release-dynamic:sock_bsd.obj
 0002:00012040       _PJ_MSG_DONTROUTE          0046a040     pjlib-i386-win32-vc8-release-dynamic:sock_bsd.obj
 0002:00012044       ??_C@_0CP@NNJMEPMJ@d?3?2pjsip?2pjproject?92?48?2pjlib?2sr@ 0046a044     pjlib-i386-win32-vc8-release-dynamic:sock_bsd.obj
 0002:00012074       ??_C@_0CE@IJGJDCPP@Warning?3?5error?5applying?5sock?5op@ 0046a074     pjlib-i386-win32-vc8-release-dynamic:sock_bsd.obj
 0002:00012098       ??_C@_0L@NNKPLKFK@sock_bsd?4c@ 0046a098     pjlib-i386-win32-vc8-release-dynamic:sock_bsd.obj
 0002:000120a4       ??_C@_0CL@HKMFJDGH@d?3?2pjsip?2pjproject?92?48?2pjlib?2sr@ 0046a0a4     pjlib-i386-win32-vc8-release-dynamic:pool.obj
 0002:000120d0       ??_C@_0DD@LHMLAEOO@d?3?2pjsip?2pjproject?92?48?2pjlib?2sr@ 0046a0d0     pjlib-i386-win32-vc8-release-dynamic:pool_caching.obj
 0002:00012104       ??_C@_0M@IGFPEOLJ@cachingpool@ 0046a104     pjlib-i386-win32-vc8-release-dynamic:pool_caching.obj
 0002:00012110       ??_C@_0BH@BBPHJKOA@?5Dumping?5caching?5pool?3@ 0046a110     pjlib-i386-win32-vc8-release-dynamic:pool_caching.obj
 0002:00012128       ??_C@_08COPEICHG@cachpool@ 0046a128     pjlib-i386-win32-vc8-release-dynamic:pool_caching.obj
 0002:00012134       ??_C@_0CN@DOKPIIOH@?5?5?5Capacity?$DN?$CFu?0?5max_capacity?$DN?$CFu@ 0046a134     pjlib-i386-win32-vc8-release-dynamic:pool_caching.obj
 0002:00012164       ??_C@_0BM@IDLDGCC@?5?5Dumping?5all?5active?5pools?3@ 0046a164     pjlib-i386-win32-vc8-release-dynamic:pool_caching.obj
 0002:00012180       ??_C@_0CA@MMLIKIEG@?5?5?5?$CF16s?3?5?$CF8d?5of?5?$CF8d?5?$CI?$CFd?$CF?$CF?$CJ?5used@ 0046a180     pjlib-i386-win32-vc8-release-dynamic:pool_caching.obj
 0002:000121a0       ??_C@_0CB@GKBJPDKG@?5?5Total?5?$CF9d?5of?5?$CF9d?5?$CI?$CFd?5?$CF?$CF?$CJ?5used@ 0046a1a0     pjlib-i386-win32-vc8-release-dynamic:pool_caching.obj
 0002:000121c4       ??_C@_0CN@KGLAKEMO@d?3?2pjsip?2pjproject?92?48?2pjlib?2sr@ 0046a1c4     pjlib-i386-win32-vc8-release-dynamic:string.obj
 0002:000121f4       __real@00000000            0046a1f4     pjlib-i386-win32-vc8-release-dynamic:string.obj
 0002:000121f8       __real@41200000            0046a1f8     pjlib-i386-win32-vc8-release-dynamic:string.obj
 0002:000121fc       ??_C@_06DDFOEFIF@FATAL?3@  0046a1fc     pjlib-i386-win32-vc8-release-dynamic:log.obj
 0002:00012204       ??_C@_06PONDCDME@ERROR?3@  0046a204     pjlib-i386-win32-vc8-release-dynamic:log.obj
 0002:0001220c       ??_C@_06OHJPOJDB@?5WARN?3@ 0046a20c     pjlib-i386-win32-vc8-release-dynamic:log.obj
 0002:00012214       ??_C@_06ICKKLHPE@?5INFO?3@ 0046a214     pjlib-i386-win32-vc8-release-dynamic:log.obj
 0002:0001221c       ??_C@_06DNOFLLB@DEBUG?3@   0046a21c     pjlib-i386-win32-vc8-release-dynamic:log.obj
 0002:00012224       ??_C@_06ELIFFDKB@TRACE?3@  0046a224     pjlib-i386-win32-vc8-release-dynamic:log.obj
 0002:0001222c       ??_C@_06HGKAKJPG@DETRC?3@  0046a22c     pjlib-i386-win32-vc8-release-dynamic:log.obj
 0002:00012234       ??_C@_03KOEHGMDN@Sun@      0046a234     pjlib-i386-win32-vc8-release-dynamic:log.obj
 0002:00012238       ??_C@_03PDAGKDH@Mon@       0046a238     pjlib-i386-win32-vc8-release-dynamic:log.obj
 0002:0001223c       ??_C@_03NAGEINEP@Tue@      0046a23c     pjlib-i386-win32-vc8-release-dynamic:log.obj
 0002:00012240       ??_C@_03MHOMLAJA@Wed@      0046a240     pjlib-i386-win32-vc8-release-dynamic:log.obj
 0002:00012244       ??_C@_03IOFIKPDN@Thu@      0046a244     pjlib-i386-win32-vc8-release-dynamic:log.obj
 0002:00012248       ??_C@_03IDIOELNC@Fri@      0046a248     pjlib-i386-win32-vc8-release-dynamic:log.obj
 0002:0001224c       ??_C@_03FEFJNEK@Sat@       0046a24c     pjlib-i386-win32-vc8-release-dynamic:log.obj
 0002:00012250       ??_C@_0CK@PMBLHNIA@d?3?2pjsip?2pjproject?92?48?2pjlib?2sr@ 0046a250     pjlib-i386-win32-vc8-release-dynamic:log.obj
 0002:0001227c       ??_C@_0BO@BGMDCDKP@?$DMlogging?5error?3?5msg?5too?5long?$DO@ 0046a27c     pjlib-i386-win32-vc8-release-dynamic:log.obj
 0002:0001229c       ??_C@_0DJ@NPDLGDNP@d?3?2pjsip?2pjproject?92?48?2pjlib?2sr@ 0046a29c     pjlib-i386-win32-vc8-release-dynamic:pool_policy_malloc.obj
 0002:000122d8       ??_C@_06HALIBNKJ@glck?$CFp@ 0046a2d8     pjlib-i386-win32-vc8-release-dynamic:lock.obj
 0002:000122e0       ??_C@_0CL@CPIEOCGB@d?3?2pjsip?2pjproject?92?48?2pjlib?2sr@ 0046a2e0     pjlib-i386-win32-vc8-release-dynamic:rand.obj
 0002:0001230c       ??_C@_0CM@KDINLFNB@d?3?2pjsip?2pjproject?92?48?2pjlib?2sr@ 0046a30c     pjlib-i386-win32-vc8-release-dynamic:types.obj
 0002:00012338       ??_C@_0CM@MDKHFPDP@d?3?2pjsip?2pjproject?92?48?2pjlib?2sr@ 0046a338     pjlib-i386-win32-vc8-release-dynamic:timer.obj
 0002:00012364       ??_C@_0DJ@IJGBOMPN@d?3?2pjsip?2pjproject?92?48?2pjlib?2sr@ 0046a364     pjlib-i386-win32-vc8-release-dynamic:ioqueue_select.obj
 0002:000123a0       ??_C@_05LIJONKFG@ioq?$CFp@ 0046a3a0     pjlib-i386-win32-vc8-release-dynamic:ioqueue_select.obj
 0002:000123a8       ??_C@_0CA@IMDCINDN@select?$CI?$CJ?5I?1O?5Queue?5created?5?$CI?$CFp?$CJ@ 0046a3a8     pjlib-i386-win32-vc8-release-dynamic:ioqueue_select.obj
 0002:000123c8       ??_C@_05PHKAINEA@pjlib@    0046a3c8     pjlib-i386-win32-vc8-release-dynamic:ioqueue_select.obj
 0002:000123d0       ??_C@_0CJ@NPMLHLI@Bad?5ioqueue?5count?5in?5key?5unregi@ 0046a3d0     pjlib-i386-win32-vc8-release-dynamic:ioqueue_select.obj
 0002:000123fc       ??_C@_0L@CAJCIPAG@ioq_select@ 0046a3fc     pjlib-i386-win32-vc8-release-dynamic:ioqueue_select.obj
 0002:00012408       ??_C@_0CD@KFHCCJFN@?$CB?$CB?$CBFATAL?3?5unhandled?5exception?5?$CF@ 0046a408     pjlib-i386-win32-vc8-release-dynamic:except.obj
 0002:0001242c       ??_C@_08PDFMOJIE@except?4c@ 0046a42c     pjlib-i386-win32-vc8-release-dynamic:except.obj
 0002:00012438       ??_C@_0N@GJOLEKJC@?$DMInvalid?5ID?$DO@ 0046a438     pjlib-i386-win32-vc8-release-dynamic:except.obj
 0002:00012448       ??_C@_0N@LJPLLMIL@exception?5?$CFd@ 0046a448     pjlib-i386-win32-vc8-release-dynamic:except.obj
 0002:00012458       ??_C@_0CL@DOIMMNGK@d?3?2pjsip?2pjproject?92?48?2pjlib?2sr@ 0046a458     pjlib-i386-win32-vc8-release-dynamic:hash.obj
 0002:00012618       ??_C@_0CD@FNMHLHMI@Interrupted?5system?5call?5?$CIWSAEIN@ 0046a618     pjlib-i386-win32-vc8-release-dynamic:os_error_win32.obj
 0002:0001263c       ??_C@_0BL@OKPDNKLH@Bad?5file?5number?5?$CIWSAEBADF?$CJ@ 0046a63c     pjlib-i386-win32-vc8-release-dynamic:os_error_win32.obj
 0002:00012658       ??_C@_0BO@BMBEEPBP@Permission?5denied?5?$CIWSAEACCES?$CJ@ 0046a658     pjlib-i386-win32-vc8-release-dynamic:os_error_win32.obj
 0002:00012678       ??_C@_0BI@LAKHPJJ@Bad?5address?5?$CIWSAEFAULT?$CJ@ 0046a678     pjlib-i386-win32-vc8-release-dynamic:os_error_win32.obj
 0002:00012690       ??_C@_0BN@FEIDINKH@Invalid?5argument?5?$CIWSAEINVAL?$CJ@ 0046a690     pjlib-i386-win32-vc8-release-dynamic:os_error_win32.obj
 0002:000126b0       ??_C@_0CC@HMKKNDGL@Too?5many?5open?5sockets?5?$CIWSAEMFIL@ 0046a6b0     pjlib-i386-win32-vc8-release-dynamic:os_error_win32.obj
 0002:000126d4       ??_C@_0CH@GCPPFMGM@Operation?5would?5block?5?$CIWSAEWOUL@ 0046a6d4     pjlib-i386-win32-vc8-release-dynamic:os_error_win32.obj
 0002:000126fc       ??_C@_0CL@DKGHEPCD@Operation?5now?5in?5progress?5?$CIWSAE@ 0046a6fc     pjlib-i386-win32-vc8-release-dynamic:os_error_win32.obj
 0002:00012728       ??_C@_0CM@BEMCBKDH@Operation?5already?5in?5progress?5?$CI@ 0046a728     pjlib-i386-win32-vc8-release-dynamic:os_error_win32.obj
 0002:00012754       ??_C@_0CN@PAFKDEBN@Socket?5operation?5on?5non?9socket?5@ 0046a754     pjlib-i386-win32-vc8-release-dynamic:os_error_win32.obj
 0002:00012784       ??_C@_0CP@HCDICECK@Destination?5address?5required?5?$CIW@ 0046a784     pjlib-i386-win32-vc8-release-dynamic:os_error_win32.obj
 0002:000127b4       ??_C@_0BP@LNFPBFEK@Message?5too?5long?5?$CIWSAEMSGSIZE?$CJ@ 0046a7b4     pjlib-i386-win32-vc8-release-dynamic:os_error_win32.obj
 0002:000127d4       ??_C@_0CP@MMIMIEMF@Protocol?5wrong?5type?5for?5socket?5@ 0046a7d4     pjlib-i386-win32-vc8-release-dynamic:os_error_win32.obj
 0002:00012804       ??_C@_0CF@HNFLHOHA@Bad?5protocol?5option?5?$CIWSAENOPROT@ 0046a804     pjlib-i386-win32-vc8-release-dynamic:os_error_win32.obj
 0002:0001282c       ??_C@_0CM@HPGHEHCE@Protocol?5not?5supported?5?$CIWSAEPRO@ 0046a82c     pjlib-i386-win32-vc8-release-dynamic:os_error_win32.obj
 0002:00012858       ??_C@_0CP@JLBNHCOL@Socket?5type?5not?5supported?5?$CIWSAE@ 0046a858     pjlib-i386-win32-vc8-release-dynamic:os_error_win32.obj
 0002:00012888       ??_C@_0DC@GJMFANID@Operation?5not?5supported?5on?5sock@ 0046a888     pjlib-i386-win32-vc8-release-dynamic:os_error_win32.obj
 0002:000128bc       ??_C@_0DA@GFNBENIG@Protocol?5family?5not?5supported?5?$CI@ 0046a8bc     pjlib-i386-win32-vc8-release-dynamic:os_error_win32.obj
 0002:000128ec       ??_C@_0CP@MMKHGIFC@Address?5family?5not?5supported?5?$CIW@ 0046a8ec     pjlib-i386-win32-vc8-release-dynamic:os_error_win32.obj
 0002:0001291c       ??_C@_0CH@OCKNFBKE@Address?5already?5in?5use?5?$CIWSAEADD@ 0046a91c     pjlib-i386-win32-vc8-release-dynamic:os_error_win32.obj
 0002:00012944       ??_C@_0DC@FJJPJPOD@Can?8t?5assign?5requested?5address?5@ 0046a944     pjlib-i386-win32-vc8-release-dynamic:os_error_win32.obj
 0002:00012978       ??_C@_0BO@IICKDHLJ@Network?5is?5down?5?$CIWSAENETDOWN?$CJ@ 0046a978     pjlib-i386-win32-vc8-release-dynamic:os_error_win32.obj
 0002:00012998       ??_C@_0CI@NKJAACME@Network?5is?5unreachable?5?$CIWSAENET@ 0046a998     pjlib-i386-win32-vc8-release-dynamic:os_error_win32.obj
 0002:000129c0       ??_C@_0CE@LJEEEFEC@Net?5connection?5reset?5?$CIWSAENETRE@ 0046a9c0     pjlib-i386-win32-vc8-release-dynamic:os_error_win32.obj
 0002:000129e4       ??_C@_0DD@PGDIHOBG@Software?5caused?5connection?5abor@ 0046a9e4     pjlib-i386-win32-vc8-release-dynamic:os_error_win32.obj
 0002:00012a18       ??_C@_0CJ@PJHCFAAN@Connection?5reset?5by?5peer?5?$CIWSAEC@ 0046aa18     pjlib-i386-win32-vc8-release-dynamic:os_error_win32.obj
 0002:00012a44       ??_C@_0CH@EKNGIMKN@No?5buffer?5space?5available?5?$CIWSAE@ 0046aa44     pjlib-i386-win32-vc8-release-dynamic:os_error_win32.obj
 0002:00012a6c       ??_C@_0CJ@JOPBNNOD@Socket?5is?5already?5connected?5?$CIWS@ 0046aa6c     pjlib-i386-win32-vc8-release-dynamic:os_error_win32.obj
 0002:00012a98       ??_C@_0CG@CECDMHLL@Socket?5is?5not?5connected?5?$CIWSAENO@ 0046aa98     pjlib-i386-win32-vc8-release-dynamic:os_error_win32.obj
 0002:00012ac0       ??_C@_0DA@JGJMJPNM@Can?8t?5send?5after?5socket?5shutdow@ 0046aac0     pjlib-i386-win32-vc8-release-dynamic:os_error_win32.obj
 0002:00012af0       ??_C@_0DE@CAILNFFE@Too?5many?5references?0?5can?8t?5spli@ 0046aaf0     pjlib-i386-win32-vc8-release-dynamic:os_error_win32.obj
 0002:00012b24       ??_C@_0CE@IIKHBGF@Connection?5timed?5out?5?$CIWSAETIMED@ 0046ab24     pjlib-i386-win32-vc8-release-dynamic:os_error_win32.obj
 0002:00012b48       ??_C@_0CF@JMKFBJH@Connection?5refused?5?$CIWSAECONNREF@ 0046ab48     pjlib-i386-win32-vc8-release-dynamic:os_error_win32.obj
 0002:00012b70       ??_C@_0CN@FCKBNFMB@Too?5many?5levels?5of?5symbolic?5lin@ 0046ab70     pjlib-i386-win32-vc8-release-dynamic:os_error_win32.obj
 0002:00012ba0       ??_C@_0CF@MOFKOMBB@File?5name?5too?5long?5?$CIWSAENAMETOO@ 0046aba0     pjlib-i386-win32-vc8-release-dynamic:os_error_win32.obj
 0002:00012bc8       ??_C@_0BM@NCJCEEDP@Host?5is?5down?5?$CIWSAEHOSTDOWN?$CJ@ 0046abc8     pjlib-i386-win32-vc8-release-dynamic:os_error_win32.obj
 0002:00012be4       ??_C@_0CD@ECJOJHBH@No?5route?5to?5host?5?$CIWSAEHOSTUNREA@ 0046abe4     pjlib-i386-win32-vc8-release-dynamic:os_error_win32.obj
 0002:00012c08       ??_C@_0CD@NEFLEHEG@Directory?5not?5empty?5?$CIWSAENOTEMP@ 0046ac08     pjlib-i386-win32-vc8-release-dynamic:os_error_win32.obj
 0002:00012c2c       ??_C@_0CB@GPCGLHOJ@Too?5many?5processes?5?$CIWSAEPROCLIM@ 0046ac2c     pjlib-i386-win32-vc8-release-dynamic:os_error_win32.obj
 0002:00012c50       ??_C@_0BL@IGHJMJKO@Too?5many?5users?5?$CIWSAEUSERS?$CJ@ 0046ac50     pjlib-i386-win32-vc8-release-dynamic:os_error_win32.obj
 0002:00012c6c       ??_C@_0CA@MIOFDKMA@Disc?5quota?5exceeded?5?$CIWSAEDQUOT?$CJ@ 0046ac6c     pjlib-i386-win32-vc8-release-dynamic:os_error_win32.obj
 0002:00012c8c       ??_C@_0CC@IMLIDHNH@Stale?5NFS?5file?5handle?5?$CIWSAESTAL@ 0046ac8c     pjlib-i386-win32-vc8-release-dynamic:os_error_win32.obj
 0002:00012cb0       ??_C@_0CP@MLAFGPOA@Too?5many?5levels?5of?5remote?5in?5pa@ 0046acb0     pjlib-i386-win32-vc8-release-dynamic:os_error_win32.obj
 0002:00012ce0       ??_C@_0CP@IBAEMKGH@Network?5system?5is?5unavailable?5?$CI@ 0046ace0     pjlib-i386-win32-vc8-release-dynamic:os_error_win32.obj
 0002:00012d10       ??_C@_0DC@BLAKHMMJ@Winsock?5version?5out?5of?5range?5?$CIW@ 0046ad10     pjlib-i386-win32-vc8-release-dynamic:os_error_win32.obj
 0002:00012d44       ??_C@_0CO@HPDHHDHA@WSAStartup?5not?5yet?5called?5?$CIWSAN@ 0046ad44     pjlib-i386-win32-vc8-release-dynamic:os_error_win32.obj
 0002:00012d74       ??_C@_0CL@GFDHEKLB@Graceful?5shutdown?5in?5progress?5?$CI@ 0046ad74     pjlib-i386-win32-vc8-release-dynamic:os_error_win32.obj
 0002:00012da0       ??_C@_0CD@OEALOMDH@Host?5not?5found?5?$CIWSAHOST_NOT_FOU@ 0046ada0     pjlib-i386-win32-vc8-release-dynamic:os_error_win32.obj
 0002:00012dc4       ??_C@_0DB@KFPHELLI@No?5host?5data?5of?5that?5type?5was?5f@ 0046adc4     pjlib-i386-win32-vc8-release-dynamic:os_error_win32.obj
 0002:00012df8       ??_C@_0BE@JPHLLAEM@Win32?5error?5code?5?$CFu@ 0046adf8     pjlib-i386-win32-vc8-release-dynamic:os_error_win32.obj
 0002:00012e0c       _PJ_GUID_STRING_LENGTH     0046ae0c     pjlib-i386-win32-vc8-release-dynamic:guid_win32.obj
 0002:00012e10       ??_C@_0DB@LMMCJAJB@d?3?2pjsip?2pjproject?92?48?2pjlib?2sr@ 0046ae10     pjlib-i386-win32-vc8-release-dynamic:guid_win32.obj
 0002:00012e74       ??_C@_0BC@GPHMAKPK@sock_qos_common?4c@ 0046ae74     pjlib-i386-win32-vc8-release-dynamic:sock_qos_common.obj
 0002:00012e88       ??_C@_06HBELJPBO@socket@   0046ae88     pjlib-i386-win32-vc8-release-dynamic:sock_qos_common.obj
 0002:00012e90       ??_C@_0CA@EBJCMLJI@Error?5setting?5QoS?5type?5?$CFd?5to?5?$CFs@ 0046ae90     pjlib-i386-win32-vc8-release-dynamic:sock_qos_common.obj
 0002:00012eb0       ??_C@_0CK@CGDCCPNL@Error?5setting?5QoS?5params?5?$CIflags@ 0046aeb0     pjlib-i386-win32-vc8-release-dynamic:sock_qos_common.obj
 0002:00012ee0       __real@41cdcd6500000000    0046aee0     pjlib-i386-win32-vc8-release-dynamic:os_timestamp_common.obj
 0002:00012ee8       ??_C@_08DOCHLGNA@config?4c@ 0046aee8     pjlib-i386-win32-vc8-release-dynamic:config.obj
 0002:00012ef4       ??_C@_03KBNFMHNI@2?48@     0046aef4     pjlib-i386-win32-vc8-release-dynamic:config.obj
 0002:00012ef8       ??_C@_08PFPBFMIL@IpHlpApi@ 0046aef8     pjlib-i386-win32-vc8-release-dynamic:ip_helper_win32.obj
 0002:00012f04       ??_C@_0P@PMIJPFPM@GetIpAddrTable@ 0046af04     pjlib-i386-win32-vc8-release-dynamic:ip_helper_win32.obj
 0002:00012f14       ??_C@_0BF@LHFCIIHE@GetAdaptersAddresses@ 0046af14     pjlib-i386-win32-vc8-release-dynamic:ip_helper_win32.obj
 0002:00012f2c       ??_C@_0L@BLHMKEDC@GetIfEntry@ 0046af2c     pjlib-i386-win32-vc8-release-dynamic:ip_helper_win32.obj
 0002:00012f38       ??_C@_0DI@DHEDKGDI@d?3?2pjsip?2pjproject?92?48?2pjlib?2sr@ 0046af38     pjlib-i386-win32-vc8-release-dynamic:log_writer_stdout.obj
 0002:00012f70       ??_C@_0DC@NPGHJPKE@d?3?2pjsip?2pjproject?92?48?2pjlib?2sr@ 0046af70     pjlib-i386-win32-vc8-release-dynamic:sock_select.obj
 0002:00012fa8       ??_C@_0EJ@GHABDNKB@No?5playback?5frame?5available?5?$CIyo@ 0046afa8     libspeex-i386-win32-vc8-release-dynamic:mdf.obj
 0002:00012ff4       ??_C@_0M@FDFEAFGN@warning?3?5?$CFs@ 0046aff4     libspeex-i386-win32-vc8-release-dynamic:mdf.obj
 0002:00013000       ??_C@_05JPFLDMPI@speex@    0046b000     libspeex-i386-win32-vc8-release-dynamic:mdf.obj
 0002:00013008       ??_C@_0CF@JGKBANKE@internal?5playback?5buffer?5corrup@ 0046b008     libspeex-i386-win32-vc8-release-dynamic:mdf.obj
 0002:00013030       ??_C@_0BP@HJHBOHLA@discarded?5first?5playback?5frame@ 0046b030     libspeex-i386-win32-vc8-release-dynamic:mdf.obj
 0002:00013050       ??_C@_0EF@JCPCCFEP@Auto?9filling?5the?5buffer?5?$CIyour?5a@ 0046b050     libspeex-i386-win32-vc8-release-dynamic:mdf.obj
 0002:00013098       ??_C@_0EN@KMLFENGK@Had?5to?5discard?5a?5playback?5frame@ 0046b098     libspeex-i386-win32-vc8-release-dynamic:mdf.obj
 0002:000130e8       ??_C@_0FP@LGAMLFHE@The?5echo?5canceller?5started?5acti@ 0046b0e8     libspeex-i386-win32-vc8-release-dynamic:mdf.obj
 0002:00013148       ??_C@_0CB@DEGFPNC@Unknown?5speex_echo_ctl?5request?3@ 0046b148     libspeex-i386-win32-vc8-release-dynamic:mdf.obj
 0002:0001316c       ??_C@_0BA@JHIGFAJK@warning?3?5?$CFs?3?5?$CFd@ 0046b16c     libspeex-i386-win32-vc8-release-dynamic:mdf.obj
 0002:0001317c       __real@3ba3d70a            0046b17c     libspeex-i386-win32-vc8-release-dynamic:mdf.obj
 0002:00013180       __real@3cf5c28f            0046b180     libspeex-i386-win32-vc8-release-dynamic:mdf.obj
 0002:00013184       __real@3dcccccd            0046b184     libspeex-i386-win32-vc8-release-dynamic:mdf.obj
 0002:00013188       __real@3e19999a            0046b188     libspeex-i386-win32-vc8-release-dynamic:mdf.obj
 0002:0001318c       __real@3e800000            0046b18c     libspeex-i386-win32-vc8-release-dynamic:mdf.obj
 0002:00013190       __real@3eb851ec            0046b190     libspeex-i386-win32-vc8-release-dynamic:mdf.obj
 0002:00013194       __real@3ecccccd            0046b194     libspeex-i386-win32-vc8-release-dynamic:mdf.obj
 0002:00013198       __real@3f19999a            0046b198     libspeex-i386-win32-vc8-release-dynamic:mdf.obj
 0002:000131a0       __real@3f1a36e2eb1c432d    0046b1a0     libspeex-i386-win32-vc8-release-dynamic:mdf.obj
 0002:000131a8       __real@3f333333            0046b1a8     libspeex-i386-win32-vc8-release-dynamic:mdf.obj
 0002:000131ac       __real@3f38f5c3            0046b1ac     libspeex-i386-win32-vc8-release-dynamic:mdf.obj
 0002:000131b0       __real@3f59999a            0046b1b0     libspeex-i386-win32-vc8-release-dynamic:mdf.obj
 0002:000131b8       __real@3fd0000000000000    0046b1b8     libspeex-i386-win32-vc8-release-dynamic:mdf.obj
 0002:000131c0       __real@3fd3333333333333    0046b1c0     libspeex-i386-win32-vc8-release-dynamic:mdf.obj
 0002:000131c8       __real@3fd6666666666666    0046b1c8     libspeex-i386-win32-vc8-release-dynamic:mdf.obj
 0002:000131d0       __real@3fe6666666666666    0046b1d0     libspeex-i386-win32-vc8-release-dynamic:mdf.obj
 0002:000131d8       __real@4008000000000000    0046b1d8     libspeex-i386-win32-vc8-release-dynamic:mdf.obj
 0002:000131e0       __real@4019999a            0046b1e0     libspeex-i386-win32-vc8-release-dynamic:mdf.obj
 0002:000131e4       __real@40800000            0046b1e4     libspeex-i386-win32-vc8-release-dynamic:mdf.obj
 0002:000131e8       __real@42c80000            0046b1e8     libspeex-i386-win32-vc8-release-dynamic:mdf.obj
 0002:000131ec       __real@45fa0000            0046b1ec     libspeex-i386-win32-vc8-release-dynamic:mdf.obj
 0002:000131f0       __real@461c4000            0046b1f0     libspeex-i386-win32-vc8-release-dynamic:mdf.obj
 0002:000131f4       __real@467ffc00            0046b1f4     libspeex-i386-win32-vc8-release-dynamic:mdf.obj
 0002:000131f8       __real@46fffe00            0046b1f8     libspeex-i386-win32-vc8-release-dynamic:mdf.obj
 0002:000131fc       __real@c7000000            0046b1fc     libspeex-i386-win32-vc8-release-dynamic:mdf.obj
 0002:00013200       __xmm@3f4ccccd3f4ccccd3f4ccccd3f4ccccd 0046b200     libspeex-i386-win32-vc8-release-dynamic:mdf.obj
 0002:00013210       __xmm@3f7d70a43f7d70a43f7d70a43f7d70a4 0046b210     libspeex-i386-win32-vc8-release-dynamic:mdf.obj
 0002:00013274       ??_C@_0DP@GLHJBLIP@The?5VAD?5has?5been?5replaced?5by?5a?5@ 0046b274     libspeex-i386-win32-vc8-release-dynamic:preprocess.obj
 0002:000132b4       ??_C@_0CH@BPNBAON@Unknown?5speex_preprocess_ctl?5re@ 0046b2b4     libspeex-i386-win32-vc8-release-dynamic:preprocess.obj
 0002:000132dc       __real@38d1b717            0046b2dc     libspeex-i386-win32-vc8-release-dynamic:preprocess.obj
 0002:000132e0       __real@3a83126f            0046b2e0     libspeex-i386-win32-vc8-release-dynamic:preprocess.obj
 0002:000132e4       __real@3c23d70a            0046b2e4     libspeex-i386-win32-vc8-release-dynamic:preprocess.obj
 0002:000132e8       __real@3d4ccccd            0046b2e8     libspeex-i386-win32-vc8-release-dynamic:preprocess.obj
 0002:000132ec       __real@3d99999a            0046b2ec     libspeex-i386-win32-vc8-release-dynamic:preprocess.obj
 0002:000132f0       __real@3debc947            0046b2f0     libspeex-i386-win32-vc8-release-dynamic:preprocess.obj
 0002:000132f4       __real@3e4bc6a8            0046b2f4     libspeex-i386-win32-vc8-release-dynamic:preprocess.obj
 0002:000132f8       __real@3e4ccccd            0046b2f8     libspeex-i386-win32-vc8-release-dynamic:preprocess.obj
 0002:000132fc       __real@3e6bc8e2            0046b2fc     libspeex-i386-win32-vc8-release-dynamic:preprocess.obj
 0002:00013300       __real@3e99999a            0046b300     libspeex-i386-win32-vc8-release-dynamic:preprocess.obj
 0002:00013304       __real@3eaa7efa            0046b304     libspeex-i386-win32-vc8-release-dynamic:preprocess.obj
 0002:00013308       __real@3eb33333            0046b308     libspeex-i386-win32-vc8-release-dynamic:preprocess.obj
 0002:0001330c       __real@3f4ccccd            0046b30c     libspeex-i386-win32-vc8-release-dynamic:preprocess.obj
 0002:00013310       __real@3f63d70a            0046b310     libspeex-i386-win32-vc8-release-dynamic:preprocess.obj
 0002:00013314       __real@3f6624dd            0046b314     libspeex-i386-win32-vc8-release-dynamic:preprocess.obj
 0002:00013318       __real@3f9eb851eb851eb8    0046b318     libspeex-i386-win32-vc8-release-dynamic:preprocess.obj
 0002:00013320       __real@3fa2cdb8            0046b320     libspeex-i386-win32-vc8-release-dynamic:preprocess.obj
 0002:00013328       __real@3fc096bb98c7e282    0046b328     libspeex-i386-win32-vc8-release-dynamic:preprocess.obj
 0002:00013330       __real@3fc999999999999a    0046b330     libspeex-i386-win32-vc8-release-dynamic:preprocess.obj
 0002:00013338       __real@3fe75c2900000000    0046b338     libspeex-i386-win32-vc8-release-dynamic:preprocess.obj
 0002:00013340       __real@3ff61adea8000000    0046b340     libspeex-i386-win32-vc8-release-dynamic:preprocess.obj
 0002:00013348       __real@3ff921fb54442d18    0046b348     libspeex-i386-win32-vc8-release-dynamic:preprocess.obj
 0002:00013350       __real@40000000            0046b350     libspeex-i386-win32-vc8-release-dynamic:preprocess.obj
 0002:00013358       __real@4014000000000000    0046b358     libspeex-i386-win32-vc8-release-dynamic:preprocess.obj
 0002:00013360       __real@40215f212d773190    0046b360     libspeex-i386-win32-vc8-release-dynamic:preprocess.obj
 0002:00013368       __real@456d8000            0046b368     libspeex-i386-win32-vc8-release-dynamic:preprocess.obj
 0002:0001336c       __real@467a0000            0046b36c     libspeex-i386-win32-vc8-release-dynamic:preprocess.obj
 0002:00013370       __real@46dac000            0046b370     libspeex-i386-win32-vc8-release-dynamic:preprocess.obj
 0002:00013374       __real@47000000            0046b374     libspeex-i386-win32-vc8-release-dynamic:preprocess.obj
 0002:00013378       __real@495bba00            0046b378     libspeex-i386-win32-vc8-release-dynamic:preprocess.obj
 0002:0001337c       __real@4e6e6b28            0046b37c     libspeex-i386-win32-vc8-release-dynamic:preprocess.obj
 0002:00013380       __real@bf000000            0046b380     libspeex-i386-win32-vc8-release-dynamic:preprocess.obj
 0002:00013388       __real@bfc99999a0000000    0046b388     libspeex-i386-win32-vc8-release-dynamic:preprocess.obj
 0002:00013390       __real@c0126bb98c000000    0046b390     libspeex-i386-win32-vc8-release-dynamic:preprocess.obj
 0002:000133a0       __xmm@3d4ccccd3d4ccccd3d4ccccd3d4ccccd 0046b3a0     libspeex-i386-win32-vc8-release-dynamic:preprocess.obj
 0002:000133b0       __xmm@3d99999a3d99999a3d99999a3d99999a 0046b3b0     libspeex-i386-win32-vc8-release-dynamic:preprocess.obj
 0002:000133c0       __xmm@3dcccccd3dcccccd3dcccccd3dcccccd 0046b3c0     libspeex-i386-win32-vc8-release-dynamic:preprocess.obj
 0002:000133d0       __xmm@3e19999a3e19999a3e19999a3e19999a 0046b3d0     libspeex-i386-win32-vc8-release-dynamic:preprocess.obj
 0002:000133e0       __xmm@3e99999a3e99999a3e99999a3e99999a 0046b3e0     libspeex-i386-win32-vc8-release-dynamic:preprocess.obj
 0002:000133f0       __xmm@3f19999a3f19999a3f19999a3f19999a 0046b3f0     libspeex-i386-win32-vc8-release-dynamic:preprocess.obj
 0002:00013400       __xmm@3f3333333f3333333f3333333f333333 0046b400     libspeex-i386-win32-vc8-release-dynamic:preprocess.obj
 0002:00013410       __xmm@3f63d70a3f63d70a3f63d70a3f63d70a 0046b410     libspeex-i386-win32-vc8-release-dynamic:preprocess.obj
 0002:00013420       __xmm@3f8000003f8000003f8000003f800000 0046b420     libspeex-i386-win32-vc8-release-dynamic:preprocess.obj
 0002:00013430       __xmm@42c8000042c8000042c8000042c80000 0046b430     libspeex-i386-win32-vc8-release-dynamic:preprocess.obj
 0002:00013440       __xmm@7fffffffffffffff7fffffffffffffff 0046b440     libspeex-i386-win32-vc8-release-dynamic:preprocess.obj
 0002:00013450       ??_C@_0CA@EIAGMGLH@FFT?5should?5not?5be?5done?5in?9place@ 0046b450     libspeex-i386-win32-vc8-release-dynamic:fftwrap.obj
 0002:00013470       __real@329ee9ee            0046b470     libspeex-i386-win32-vc8-release-dynamic:filterbank.obj
 0002:00013474       __real@3a41fc8f            0046b474     libspeex-i386-win32-vc8-release-dynamic:filterbank.obj
 0002:00013478       __real@4001eb8520000000    0046b478     libspeex-i386-win32-vc8-release-dynamic:filterbank.obj
 0002:00013480       __real@402a333340000000    0046b480     libspeex-i386-win32-vc8-release-dynamic:filterbank.obj
 0002:00013488       ??_C@_04DKFOEDJA@srtp@     0046b488     libsrtp-i386-win32-vc8-release-dynamic:srtp.obj
 0002:00013490       ??_C@_0CD@KFGKPJOG@?$CFs?3?5cloning?5stream?5?$CISSRC?3?50x?$CF08@ 0046b490     libsrtp-i386-win32-vc8-release-dynamic:srtp.obj
 0002:000134b4       ??_C@_0BG@DDGAJBGL@?$CFs?3?5srtp?5key?5len?3?5?$CFd?6@ 0046b4b4     libsrtp-i386-win32-vc8-release-dynamic:srtp.obj
 0002:000134cc       ??_C@_0BH@DGNFCKJN@?$CFs?3?5srtcp?5key?5len?3?5?$CFd?6@ 0046b4cc     libsrtp-i386-win32-vc8-release-dynamic:srtp.obj
 0002:000134e4       ??_C@_0BG@DMEGGANK@?$CFs?3?5base?5key?5len?3?5?$CFd?6@ 0046b4e4     libsrtp-i386-win32-vc8-release-dynamic:srtp.obj
 0002:000134fc       ??_C@_0BF@HLIACONN@?$CFs?3?5kdf?5key?5len?3?5?$CFd?6@ 0046b4fc     libsrtp-i386-win32-vc8-release-dynamic:srtp.obj
 0002:00013514       ??_C@_0BG@BGKGMHMB@?$CFs?3?5rtp?5salt?5len?3?5?$CFd?6@ 0046b514     libsrtp-i386-win32-vc8-release-dynamic:srtp.obj
 0002:0001352c       ??_C@_0BE@PGOGLMMP@?$CFs?3?5cipher?5key?3?5?$CFs?6@ 0046b52c     libsrtp-i386-win32-vc8-release-dynamic:srtp.obj
 0002:00013540       ??_C@_0CN@BDCDAMHJ@?$CFs?3?5found?5rtp_salt_len?5?$DO?50?0?5gen@ 0046b540     libsrtp-i386-win32-vc8-release-dynamic:srtp.obj
 0002:00013570       ??_C@_0BF@GHNDNNEA@?$CFs?3?5cipher?5salt?3?5?$CFs?6@ 0046b570     libsrtp-i386-win32-vc8-release-dynamic:srtp.obj
 0002:00013588       ??_C@_0BP@LJKEDGBP@?$CFs?3?5extensions?5cipher?5key?3?5?$CFs?6@ 0046b588     libsrtp-i386-win32-vc8-release-dynamic:srtp.obj
 0002:000135a8       ??_C@_0DF@NJKDAIDN@?$CFs?3?5found?5rtp_xtn_hdr_salt_len?5@ 0046b5a8     libsrtp-i386-win32-vc8-release-dynamic:srtp.obj
 0002:000135e0       ??_C@_0CA@OBEPENBO@?$CFs?3?5extensions?5cipher?5salt?3?5?$CFs?6@ 0046b5e0     libsrtp-i386-win32-vc8-release-dynamic:srtp.obj
 0002:00013600       ??_C@_0BE@HGKFNAFC@?$CFs?3?5auth?5key?3?5?5?5?$CFs?6@ 0046b600     libsrtp-i386-win32-vc8-release-dynamic:srtp.obj
 0002:00013614       ??_C@_0BH@KOPGGCNO@?$CFs?3?5rtcp?5salt?5len?3?5?$CFd?6@ 0046b614     libsrtp-i386-win32-vc8-release-dynamic:srtp.obj
 0002:0001362c       ??_C@_0DD@DNDBGLG@?$CFs?3?5found?5rtcp_salt_len?5?$DO?50?0?5ge@ 0046b62c     libsrtp-i386-win32-vc8-release-dynamic:srtp.obj
 0002:00013660       ??_C@_0BJ@KAKGCCMO@?$CFs?3?5rtcp?5cipher?5key?3?5?$CFs?6@ 0046b660     libsrtp-i386-win32-vc8-release-dynamic:srtp.obj
 0002:0001367c       ??_C@_0BK@BAICKNEI@?$CFs?3?5rtcp?5cipher?5salt?3?5?$CFs?6@ 0046b67c     libsrtp-i386-win32-vc8-release-dynamic:srtp.obj
 0002:00013698       ??_C@_0BJ@CAOFEOFD@?$CFs?3?5rtcp?5auth?5key?3?5?5?5?$CFs?6@ 0046b698     libsrtp-i386-win32-vc8-release-dynamic:srtp.obj
 0002:000136b4       ??_C@_0CI@PDNDGOMA@?$CFs?3?5initializing?5stream?5?$CISSRC?3?5@ 0046b6b4     libsrtp-i386-win32-vc8-release-dynamic:srtp.obj
 0002:000136dc       ??_C@_0BH@GAKJJGLB@srtp?3?5in?5stream?50x?$CFx?3?5@ 0046b6dc     libsrtp-i386-win32-vc8-release-dynamic:srtp.obj
 0002:000136f4       ??_C@_0BB@PPFALDPP@?7SSRC?5collision?6@ 0046b6f4     libsrtp-i386-win32-vc8-release-dynamic:srtp.obj
 0002:00013708       ??_C@_0BP@HOEKLBIN@?7key?5usage?5soft?5limit?5reached?6@ 0046b708     libsrtp-i386-win32-vc8-release-dynamic:srtp.obj
 0002:00013728       ??_C@_0BP@KNJIFCF@?7key?5usage?5hard?5limit?5reached?6@ 0046b728     libsrtp-i386-win32-vc8-release-dynamic:srtp.obj
 0002:00013748       ??_C@_0BN@MKCGGAOP@?7packet?5index?5limit?5reached?6@ 0046b748     libsrtp-i386-win32-vc8-release-dynamic:srtp.obj
 0002:00013768       ??_C@_0CE@FFJEPPID@?7unknown?5event?5reported?5to?5hand@ 0046b768     libsrtp-i386-win32-vc8-release-dynamic:srtp.obj
 0002:0001378c       ??_C@_0BN@IJKEFIPG@?$CFs?3?5Pre?9salted?5RTP?5IV?5?$DN?5?$CFs?6?6@ 0046b78c     libsrtp-i386-win32-vc8-release-dynamic:srtp.obj
 0002:000137ac       ??_C@_0BE@MNMIOELF@?$CFs?3?5RTP?5SALT?5?$DN?5?$CFs?6?6@ 0046b7ac     libsrtp-i386-win32-vc8-release-dynamic:srtp.obj
 0002:000137c0       ??_C@_0CH@MOHBLIMO@?$CFs?3?5estimated?5u_packet?5index?3?5?$CF@ 0046b7c0     libsrtp-i386-win32-vc8-release-dynamic:srtp.obj
 0002:000137e8       ??_C@_0CA@OMJPHCHL@?$CFs?3?5function?5srtp_protect_aead?6@ 0046b7e8     libsrtp-i386-win32-vc8-release-dynamic:srtp.obj
 0002:00013808       ??_C@_0CF@PEPHCKJP@?$CFs?3?5estimated?5packet?5index?3?5?$CF01@ 0046b808     libsrtp-i386-win32-vc8-release-dynamic:srtp.obj
 0002:00013830       ??_C@_0CC@KIGABHOG@?$CFs?3?5function?5srtp_unprotect_aea@ 0046b830     libsrtp-i386-win32-vc8-release-dynamic:srtp.obj
 0002:00013854       ??_C@_0BL@MADNODBC@?$CFs?3?5function?5srtp_protect?6@ 0046b854     libsrtp-i386-win32-vc8-release-dynamic:srtp.obj
 0002:00013870       ??_C@_0BK@KLBGMJPP@?$CFs?3?5keystream?5prefix?3?5?$CFs?6@ 0046b870     libsrtp-i386-win32-vc8-release-dynamic:srtp.obj
 0002:0001388c       ??_C@_0BK@GCKOFNLP@?$CFs?3?5srtp?5auth?5tag?3?5?5?5?5?$CFs?6@ 0046b88c     libsrtp-i386-win32-vc8-release-dynamic:srtp.obj
 0002:000138a8       ??_C@_0BN@LADOAJPP@?$CFs?3?5function?5srtp_unprotect?6@ 0046b8a8     libsrtp-i386-win32-vc8-release-dynamic:srtp.obj
 0002:000138c8       ??_C@_0CN@PJAKIEAG@?$CFs?3?5using?5provisional?5stream?5?$CIS@ 0046b8c8     libsrtp-i386-win32-vc8-release-dynamic:srtp.obj
 0002:000138f8       ??_C@_0BO@BONEKIBH@?$CFs?3?5computed?5auth?5tag?3?5?5?5?5?$CFs?6@ 0046b8f8     libsrtp-i386-win32-vc8-release-dynamic:srtp.obj
 0002:00013918       ??_C@_0BO@KMHOFFAA@?$CFs?3?5packet?5auth?5tag?3?5?5?5?5?5?5?$CFs?6@ 0046b918     libsrtp-i386-win32-vc8-release-dynamic:srtp.obj
 0002:00013938       ??_C@_0BO@ONKEAFKG@?$CFs?3?5Pre?9salted?5RTCP?5IV?5?$DN?5?$CFs?6?6@ 0046b938     libsrtp-i386-win32-vc8-release-dynamic:srtp.obj
 0002:00013958       ??_C@_0BF@FLPIMBMP@?$CFs?3?5RTCP?5SALT?5?$DN?5?$CFs?6?6@ 0046b958     libsrtp-i386-win32-vc8-release-dynamic:srtp.obj
 0002:00013970       ??_C@_0BF@JBCKCIAJ@?$CFs?3?5srtcp?5index?3?5?$CFx?6@ 0046b970     libsrtp-i386-win32-vc8-release-dynamic:srtp.obj
 0002:00013988       ??_C@_0BL@OBHAKLEH@?$CFs?3?5srtcp?5auth?5tag?3?5?5?5?5?$CFs?6@ 0046b988     libsrtp-i386-win32-vc8-release-dynamic:srtp.obj
 0002:000139a4       ??_C@_0DD@HHOLLDKC@?$CFs?3?5srtcp?5using?5provisional?5str@ 0046b9a4     libsrtp-i386-win32-vc8-release-dynamic:srtp.obj
 0002:000139d8       ??_C@_0CC@IMKDPKDI@?$CFs?3?5srtcp?5computed?5tag?3?5?5?5?5?5?5?5?$CF@ 0046b9d8     libsrtp-i386-win32-vc8-release-dynamic:srtp.obj
 0002:000139fc       ??_C@_0CC@GFCANNPL@?$CFs?3?5srtcp?5tag?5from?5packet?3?5?5?5?5?$CF@ 0046b9fc     libsrtp-i386-win32-vc8-release-dynamic:srtp.obj
 0002:00013a20       ??_C@_05KNPMOECN@alloc@    0046ba20     libsrtp-i386-win32-vc8-release-dynamic:alloc.obj
 0002:00013a28       ??_C@_0BO@KJOGHNGM@?$CFs?3?5?$CIlocation?3?5?$CFp?$CJ?5allocated?6@ 0046ba28     libsrtp-i386-win32-vc8-release-dynamic:alloc.obj
 0002:00013a48       ??_C@_0CN@JJLNACEJ@?$CFs?3?5allocation?5failed?5?$CIasked?5fo@ 0046ba48     libsrtp-i386-win32-vc8-release-dynamic:alloc.obj
 0002:00013a78       ??_C@_0BK@BNKOPMHD@?$CFs?3?5?$CIlocation?3?5?$CFp?$CJ?5freed?6@ 0046ba78     libsrtp-i386-win32-vc8-release-dynamic:alloc.obj
 0002:00013aa0       __xmm@66656463626139383736353433323130 0046baa0     libsrtp-i386-win32-vc8-release-dynamic:datatypes.obj
 0002:00013ab0       ??_C@_07EFAIHJHH@libsrtp@  0046bab0     libsrtp-i386-win32-vc8-release-dynamic:srtp_err.obj
 0002:00013ab8       ??_C@_06KDGDAFPH@cipher@   0046bab8     libsrtp-i386-win32-vc8-release-dynamic:cipher.obj
 0002:00013ac0       ??_C@_09EJIBOKIO@auth?5func@ 0046bac0     libsrtp-i386-win32-vc8-release-dynamic:auth.obj
 0002:00013acc       ??_C@_0O@MIKIJNFL@crypto?5kernel@ 0046bacc     libsrtp-i386-win32-vc8-release-dynamic:crypto_kernel.obj
 0002:00013adc       ??_C@_0BE@ICAFLID@?$CFs?3?5EKT?5not?5in?5use?6@ 0046badc     libsrtp-i386-win32-vc8-release-dynamic:ekt.obj
 0002:00013af0       ??_C@_0BK@CMOOGLJH@?$CFs?3?5writing?5EKT?5EMK?3?5?$CFs?0?6@ 0046baf0     libsrtp-i386-win32-vc8-release-dynamic:ekt.obj
 0002:00013b0c       ??_C@_0BK@BEIPMCDF@?$CFs?3?5writing?5EKT?5ROC?3?5?$CFs?0?6@ 0046bb0c     libsrtp-i386-win32-vc8-release-dynamic:ekt.obj
 0002:00013b28       ??_C@_0BK@BKDABMJO@?$CFs?3?5writing?5EKT?5ISN?3?5?$CFs?0?6@ 0046bb28     libsrtp-i386-win32-vc8-release-dynamic:ekt.obj
 0002:00013b44       ??_C@_0BK@BJPEDIGD@?$CFs?3?5writing?5EKT?5SPI?3?5?$CFs?0?6@ 0046bb44     libsrtp-i386-win32-vc8-release-dynamic:ekt.obj
 0002:00013b60       ??_C@_09LCMAEBCF@stat?5test@ 0046bb60     libsrtp-i386-win32-vc8-release-dynamic:stat.obj
 0002:00013b6c       ??_C@_0CK@DAFEFAPH@?$CFs?3?5allocating?5cipher?5with?5key?5@ 0046bb6c     libsrtp-i386-win32-vc8-release-dynamic:null_cipher.obj
 0002:00013b98       ??_C@_0BO@HCJFKKEE@?$CFs?3?5initializing?5null?5cipher?6@ 0046bb98     libsrtp-i386-win32-vc8-release-dynamic:null_cipher.obj
 0002:00013bf0       _srtp_null_cipher          0046bbf0     libsrtp-i386-win32-vc8-release-dynamic:null_cipher.obj
 0002:00013c1c       ??_C@_07MPIJGLIA@aes?5icm@ 0046bc1c     libsrtp-i386-win32-vc8-release-dynamic:aes_icm.obj
 0002:00013c24       _srtp_aes_icm_128          0046bc24     libsrtp-i386-win32-vc8-release-dynamic:aes_icm.obj
 0002:00013c50       _srtp_aes_icm_256          0046bc50     libsrtp-i386-win32-vc8-release-dynamic:aes_icm.obj
 0002:00013de4       ??_C@_0O@GFBJNBAD@?$CFs?3?5key?3?5?5?$CFs?6@ 0046bde4     libsrtp-i386-win32-vc8-release-dynamic:aes_icm.obj
 0002:00013df4       ??_C@_0BA@ILFEGDEM@?$CFs?3?5offset?3?5?$CFs?6@ 0046bdf4     libsrtp-i386-win32-vc8-release-dynamic:aes_icm.obj
 0002:00013e04       ??_C@_0BE@ECIFEEKH@?$CFs?3?5setting?5iv?3?5?$CFs?6@ 0046be04     libsrtp-i386-win32-vc8-release-dynamic:aes_icm.obj
 0002:00013e18       ??_C@_0BF@OAOEHNDM@?$CFs?3?5set_counter?3?5?$CFs?6@ 0046be18     libsrtp-i386-win32-vc8-release-dynamic:aes_icm.obj
 0002:00013e30       ??_C@_0BE@ENJPOLAG@?$CFs?3?5counter?3?5?5?5?5?$CFs?6@ 0046be30     libsrtp-i386-win32-vc8-release-dynamic:aes_icm.obj
 0002:00013e44       ??_C@_0BE@ILCAEFF@?$CFs?3?5ciphertext?3?5?$CFs?6@ 0046be44     libsrtp-i386-win32-vc8-release-dynamic:aes_icm.obj
 0002:00013e58       ??_C@_0BF@BLBMMINO@?$CFs?3?5block?5index?3?5?$CFd?6@ 0046be58     libsrtp-i386-win32-vc8-release-dynamic:aes_icm.obj
 0002:00013e70       ??_C@_0CN@KBEHBKDH@?$CFs?3?5allocating?5auth?5func?5with?5k@ 0046be70     libsrtp-i386-win32-vc8-release-dynamic:null_auth.obj
 0002:00013ea0       ??_C@_0CN@FDNDBNFI@?$CFs?3?5?5?5?5?5?5?5?5?5?5?5?5?5?5?5?5?5?5?5?5?5?5?5?5?5?5?5t@ 0046bea0     libsrtp-i386-win32-vc8-release-dynamic:null_auth.obj
 0002:00013f0c       _srtp_null_auth            0046bf0c     libsrtp-i386-win32-vc8-release-dynamic:null_auth.obj
 0002:00013f30       ??_C@_0L@NBBBLMAJ@hmac?5sha?91@ 0046bf30     libsrtp-i386-win32-vc8-release-dynamic:hmac.obj
 0002:00013f3c       ??_C@_0O@PJECJPIJ@?$CFs?3?5ipad?3?5?$CFs?6@ 0046bf3c     libsrtp-i386-win32-vc8-release-dynamic:hmac.obj
 0002:00013f4c       ??_C@_0P@JHGAOEEF@?$CFs?3?5input?3?5?$CFs?6@ 0046bf4c     libsrtp-i386-win32-vc8-release-dynamic:hmac.obj
 0002:00013f5c       ??_C@_0BM@JABNBLDM@?$CFs?3?5intermediate?5state?3?5?$CFs?6@ 0046bf5c     libsrtp-i386-win32-vc8-release-dynamic:hmac.obj
 0002:00013f78       ??_C@_0BA@NKCNJNLN@?$CFs?3?5output?3?5?$CFs?6@ 0046bf78     libsrtp-i386-win32-vc8-release-dynamic:hmac.obj
 0002:00013ff8       _srtp_hmac                 0046bff8     libsrtp-i386-win32-vc8-release-dynamic:hmac.obj
 0002:00014020       __xmm@36363636363636363636363636363636 0046c020     libsrtp-i386-win32-vc8-release-dynamic:hmac.obj
 0002:00014030       __xmm@5c5c5c5c5c5c5c5c5c5c5c5c5c5c5c5c 0046c030     libsrtp-i386-win32-vc8-release-dynamic:hmac.obj
 0002:00016240       ??_C@_05BPJLFPNI@sha?91@   0046e240     libsrtp-i386-win32-vc8-release-dynamic:sha1.obj
 0002:00016248       ??_C@_0CH@CIFCCFOE@?$CFs?3?5?$CIupdate?$CJ?5running?5srtp_sha1_@ 0046e248     libsrtp-i386-win32-vc8-release-dynamic:sha1.obj
 0002:00016270       ??_C@_0CL@FECLBICF@?$CFs?3?5?$CIupdate?$CJ?5not?5running?5srtp_s@ 0046e270     libsrtp-i386-win32-vc8-release-dynamic:sha1.obj
 0002:0001629c       ??_C@_0CG@BBEKCMGE@?$CFs?3?5?$CIfinal?$CJ?5running?5srtp_sha1_c@ 0046e29c     libsrtp-i386-win32-vc8-release-dynamic:sha1.obj
 0002:000162c4       ??_C@_0CM@HEEFBAKO@?$CFs?3?5?$CIfinal?$CJ?5running?5srtp_sha1_c@ 0046e2c4     libsrtp-i386-win32-vc8-release-dynamic:sha1.obj
 0002:000163b0       __load_config_used         0046e3b0     MSVCRT:loadcfg.obj
 0002:00016450       ___safe_se_handler_table   0046e450     <linker-defined>
 0002:00016690       ___rtc_iaa                 0046e690     MSVCRT:initsect.obj
 0002:00016694       ___rtc_izz                 0046e694     MSVCRT:initsect.obj
 0002:00016698       ___rtc_taa                 0046e698     MSVCRT:initsect.obj
 0002:0001669c       ___rtc_tzz                 0046e69c     MSVCRT:initsect.obj
 0002:000166dc       __IMPORT_DESCRIPTOR_ole32  0046e6dc     ole32:ole32.dll
 0002:000166f0       __IMPORT_DESCRIPTOR_WS2_32 0046e6f0     ws2_32:WS2_32.dll
 0002:00016704       __IMPORT_DESCRIPTOR_WINMM  0046e704     winmm:WINMM.dll
 0002:00016718       __IMPORT_DESCRIPTOR_KERNEL32 0046e718     kernel32:KERNEL32.dll
 0002:0001672c       __IMPORT_DESCRIPTOR_VCRUNTIME140 0046e72c     vcruntime:VCRUNTIME140.dll
 0002:00016740       __IMPORT_DESCRIPTOR_api-ms-win-crt-stdio-l1-1-0 0046e740     ucrt:api-ms-win-crt-stdio-l1-1-0.dll
 0002:00016754       __IMPORT_DESCRIPTOR_api-ms-win-crt-convert-l1-1-0 0046e754     ucrt:api-ms-win-crt-convert-l1-1-0.dll
 0002:00016768       __IMPORT_DESCRIPTOR_api-ms-win-crt-string-l1-1-0 0046e768     ucrt:api-ms-win-crt-string-l1-1-0.dll
 0002:0001677c       __IMPORT_DESCRIPTOR_api-ms-win-crt-math-l1-1-0 0046e77c     ucrt:api-ms-win-crt-math-l1-1-0.dll
 0002:00016790       __IMPORT_DESCRIPTOR_api-ms-win-crt-heap-l1-1-0 0046e790     ucrt:api-ms-win-crt-heap-l1-1-0.dll
 0002:000167a4       __IMPORT_DESCRIPTOR_api-ms-win-crt-utility-l1-1-0 0046e7a4     ucrt:api-ms-win-crt-utility-l1-1-0.dll
 0002:000167b8       __IMPORT_DESCRIPTOR_api-ms-win-crt-runtime-l1-1-0 0046e7b8     ucrt:api-ms-win-crt-runtime-l1-1-0.dll
 0002:000167cc       __IMPORT_DESCRIPTOR_api-ms-win-crt-locale-l1-1-0 0046e7cc     ucrt:api-ms-win-crt-locale-l1-1-0.dll
 0002:000167e0       __NULL_IMPORT_DESCRIPTOR   0046e7e0     ole32:ole32.dll
 0003:00000b34       _pjsip_include_allow_hdr_in_dlg 00470b34     pjsip-core-i386-win32-vc8-release-dynamic:sip_dialog.obj
 0003:00000b38       _PJSIP_SYN_ERR_EXCEPTION   00470b38     pjsip-core-i386-win32-vc8-release-dynamic:sip_parser.obj
 0003:00000b3c       _PJSIP_EINVAL_ERR_EXCEPTION 00470b3c     pjsip-core-i386-win32-vc8-release-dynamic:sip_parser.obj
 0003:00000c78       _pjsip_sip_cfg_var         00470c78     pjsip-core-i386-win32-vc8-release-dynamic:sip_config.obj
 0003:00000d58       _mod_stateful_util         00470d58     pjsip-core-i386-win32-vc8-release-dynamic:sip_util_statefull.obj
 0003:00000de0       _pjmedia_add_rtpmap_for_static_pt 00470de0     pjmedia-i386-win32-vc8-release-dynamic:endpoint.obj
 0003:00000de4       _pjmedia_add_bandwidth_tias_in_sdp 00470de4     pjmedia-i386-win32-vc8-release-dynamic:endpoint.obj
 0003:00000f1c       _rtcp_fb_type_name         00470f1c     pjmedia-i386-win32-vc8-release-dynamic:rtcp_fb.obj
 0003:000010e0       _pj_optind                 004710e0     pjlib-util-i386-win32-vc8-release-dynamic:getopt.obj
 0003:000010e4       _pj_optopt                 004710e4     pjlib-util-i386-win32-vc8-release-dynamic:getopt.obj
 0003:000011a4       _pj_pool_factory_default_policy 004711a4     pjlib-i386-win32-vc8-release-dynamic:pool_policy_malloc.obj
 0003:00001208       _PJ_VERSION                00471208     pjlib-i386-win32-vc8-release-dynamic:config.obj
 0003:0000123c       _mod_srtp                  0047123c     libsrtp-i386-win32-vc8-release-dynamic:srtp.obj
 0003:00001248       _mod_alloc                 00471248     libsrtp-i386-win32-vc8-release-dynamic:alloc.obj
 0003:00001250       _octet_weight              00471250     libsrtp-i386-win32-vc8-release-dynamic:datatypes.obj
 0003:00001650       _srtp_mod_cipher           00471650     libsrtp-i386-win32-vc8-release-dynamic:cipher.obj
 0003:00001658       _srtp_mod_auth             00471658     libsrtp-i386-win32-vc8-release-dynamic:auth.obj
 0003:00001660       _srtp_mod_crypto_kernel    00471660     libsrtp-i386-win32-vc8-release-dynamic:crypto_kernel.obj
 0003:00001668       _mod_stat                  00471668     libsrtp-i386-win32-vc8-release-dynamic:stat.obj
 0003:00001670       _srtp_mod_aes_icm          00471670     libsrtp-i386-win32-vc8-release-dynamic:aes_icm.obj
 0003:00001678       _srtp_mod_hmac             00471678     libsrtp-i386-win32-vc8-release-dynamic:hmac.obj
 0003:00001680       _srtp_mod_sha1             00471680     libsrtp-i386-win32-vc8-release-dynamic:sha1.obj
 0003:00001688       _SHA_K0                    00471688     libsrtp-i386-win32-vc8-release-dynamic:sha1.obj
 0003:0000168c       _SHA_K1                    0047168c     libsrtp-i386-win32-vc8-release-dynamic:sha1.obj
 0003:00001690       _SHA_K2                    00471690     libsrtp-i386-win32-vc8-release-dynamic:sha1.obj
 0003:00001694       _SHA_K3                    00471694     libsrtp-i386-win32-vc8-release-dynamic:sha1.obj
 0003:000016a0       ___security_cookie_complement 004716a0     MSVCRT:gs_cookie.obj
 0003:000016a4       ___security_cookie         004716a4     MSVCRT:gs_cookie.obj
 0003:000016a8       ___isa_enabled             004716a8     MSVCRT:cpu_disp.obj
 0003:000016b0       __fltused                  004716b0     MSVCRT:fltused.obj
 0003:000016c0       ___scrt_native_dllmain_reason 004716c0     MSVCRT:utility.obj
 0003:000016c4       ___scrt_default_matherr    004716c4     MSVCRT:matherr.obj
 0003:000016d0       ___scrt_ucrt_dll_is_in_use 004716d0     MSVCRT:ucrt_stubs.obj
 0003:000069ac       _pj_optarg                 004769ac     pjlib-util-i386-win32-vc8-release-dynamic:getopt.obj
 0003:00006d44       _err_level                 00476d44     libsrtp-i386-win32-vc8-release-dynamic:srtp_err.obj
 0003:00006d48       _crypto_kernel             00476d48     libsrtp-i386-win32-vc8-release-dynamic:crypto_kernel.obj
 0003:00007094       ___isa_available           00477094     MSVCRT:cpu_disp.obj
 0003:00007098       ___favor                   00477098     MSVCRT:cpu_disp.obj
 0003:0000709c       ___scrt_current_native_startup_state 0047709c     MSVCRT:utility.obj
 0003:000070a0       ___scrt_native_startup_lock 004770a0     MSVCRT:utility.obj
 0003:000070c0       ?__type_info_root_node@@3U__type_info_node@@A 004770c0     MSVCRT:tncleanup.obj
 0003:000070c8       ___scrt_debugger_hook_flag 004770c8     MSVCRT:utility_desktop.obj
 0003:000070d0       ?_OptionsStorage@?1??__local_stdio_printf_options@@9@9 004770d0     <common>
 0003:000070d8       _pjsip_dlg_lock_tls_id     004770d8     <common>
 0003:000070dc       _PJ_NO_MEMORY_EXCEPTION    004770dc     <common>
 0003:000070e0       _bit_string                004770e0     <common>
 0003:000074e0       ?_OptionsStorage@?1??__local_stdio_scanf_options@@9@9 004774e0     <common>
 0003:000074e8       ___dyn_tls_dtor_callback   004774e8     <common>
 0003:000074ec       ___dyn_tls_init_callback   004774ec     <common>

 entry point at        0001:00054ecf

 Static symbols

 0002:fffa8000       .idata$6                   00400000     ucrt:api-ms-win-crt-time-l1-1-0.dll
 0001:00000000       _pj_bzero                  00401000 f   simpleua.obj
 0001:00000020       _pj_memcpy                 00401020 f   simpleua.obj
 0001:00000030       _PJMEDIA_SPF               00401030 f   simpleua.obj
 0001:00000060       _PJMEDIA_AFD_SPF           00401060 f   simpleua.obj
 0001:00000090       _PJMEDIA_PIA_SRATE         00401090 f   simpleua.obj
 0001:000000a0       _PJMEDIA_PIA_CCNT          004010a0 f   simpleua.obj
 0001:000000b0       _PJMEDIA_PIA_BITS          004010b0 f   simpleua.obj
 0001:000000c0       _PJMEDIA_PIA_SPF           004010c0 f   simpleua.obj
 0001:000000f0       _pjmedia_transport_info_init 004010f0 f   simpleua.obj
 0001:00000120       _pjmedia_transport_get_info 00401120 f   simpleua.obj
 0001:00000150       _pjmedia_transport_media_start 00401150 f   simpleua.obj
 0001:00000160       _pjmedia_transport_close   00401160 f   simpleua.obj
 0001:00000180       _pjmedia_endpt_create      00401180 f   simpleua.obj
 0001:000001c0       _pjmedia_endpt_destroy     004011c0 f   simpleua.obj
 0001:000001e0       _app_perror                004011e0 f   simpleua.obj
 0001:00000610       $LN67                      00401610     simpleua.obj
 0001:00000628       $LN64                      00401628     simpleua.obj
 0001:000006b0       _call_on_media_update      004016b0 f   simpleua.obj
 0001:000008e0       _call_on_state_changed     004018e0 f   simpleua.obj
 0001:00000970       _call_on_forked            00401970 f   simpleua.obj
 0001:00000980       _on_rx_request             00401980 f   simpleua.obj
 0001:00000c10       _logging_on_rx_msg         00401c10 f   simpleua.obj
 0001:00000c70       _logging_on_tx_msg         00401c70 f   simpleua.obj
 0001:00001240       _mod_inv_load              00402240 f   pjsip-ua-i386-win32-vc8-release-dynamic:sip_inv.obj
 0001:000012f0       _mod_tsx_layer_start       004022f0 f   pjsip-core-i386-win32-vc8-release-dynamic:sip_transaction.obj
 0001:000012f0       _g711_init                 004022f0 f   pjmedia-i386-win32-vc8-release-dynamic:g711.obj
 0001:000012f0       _mod_tsx_layer_load        004022f0 f   pjsip-core-i386-win32-vc8-release-dynamic:sip_transaction.obj
 0001:000012f0       _sdes_media_stop           004022f0 f   pjmedia-i386-win32-vc8-release-dynamic:transport_srtp.obj
 0001:000012f0       _srtp_null_auth_init       004022f0 f   libsrtp-i386-win32-vc8-release-dynamic:null_auth.obj
 0001:000012f0       _g711_close                004022f0 f   pjmedia-i386-win32-vc8-release-dynamic:g711.obj
 0001:000012f0       _srtp_null_cipher_encrypt  004022f0 f   libsrtp-i386-win32-vc8-release-dynamic:null_cipher.obj
 0001:000012f0       _mod_inv_unload            004022f0 f   pjsip-ua-i386-win32-vc8-release-dynamic:sip_inv.obj
 0001:000012f0       _srtp_null_auth_compute    004022f0 f   libsrtp-i386-win32-vc8-release-dynamic:null_auth.obj
 0001:000012f0       _srtp_null_auth_update     004022f0 f   libsrtp-i386-win32-vc8-release-dynamic:null_auth.obj
 0001:000012f0       _srtp_null_auth_start      004022f0 f   libsrtp-i386-win32-vc8-release-dynamic:null_auth.obj
 0001:000012f0       _srtp_null_cipher_set_iv   004022f0 f   libsrtp-i386-win32-vc8-release-dynamic:null_cipher.obj
 0001:000012f0       _null_op                   004022f0 f   pjlib-i386-win32-vc8-release-dynamic:lock.obj
 0001:00001300       _mod_inv_on_rx_request     00402300 f   pjsip-ua-i386-win32-vc8-release-dynamic:sip_inv.obj
 0001:00001430       _mod_inv_on_rx_response    00402430 f   pjsip-ua-i386-win32-vc8-release-dynamic:sip_inv.obj
 0001:000014d0       _mod_inv_on_tsx_state      004024d0 f   pjsip-ua-i386-win32-vc8-release-dynamic:sip_inv.obj
 0001:00001590       _inv_on_state_null         00402590 f   pjsip-ua-i386-win32-vc8-release-dynamic:sip_inv.obj
 0001:00001754       $LN50                      00402754     pjsip-ua-i386-win32-vc8-release-dynamic:sip_inv.obj
 0001:00001770       _inv_on_state_calling      00402770 f   pjsip-ua-i386-win32-vc8-release-dynamic:sip_inv.obj
 0001:00001988       $LN43                      00402988     pjsip-ua-i386-win32-vc8-release-dynamic:sip_inv.obj
 0001:000019a0       _inv_on_state_incoming     004029a0 f   pjsip-ua-i386-win32-vc8-release-dynamic:sip_inv.obj
 0001:00001aa0       $LN24                      00402aa0     pjsip-ua-i386-win32-vc8-release-dynamic:sip_inv.obj
 0001:00001ac0       _inv_on_state_early        00402ac0 f   pjsip-ua-i386-win32-vc8-release-dynamic:sip_inv.obj
 0001:00001ddc       $LN58                      00402ddc     pjsip-ua-i386-win32-vc8-release-dynamic:sip_inv.obj
 0001:00001df0       _inv_on_state_connecting   00402df0 f   pjsip-ua-i386-win32-vc8-release-dynamic:sip_inv.obj
 0001:000020c0       _inv_on_state_confirmed    004030c0 f   pjsip-ua-i386-win32-vc8-release-dynamic:sip_inv.obj
 0001:000028b0       _inv_on_state_disconnected 004038b0 f   pjsip-ua-i386-win32-vc8-release-dynamic:sip_inv.obj
 0001:00002990       _cleanup_allow_sup_hdr     00403990 f   pjsip-ua-i386-win32-vc8-release-dynamic:sip_inv.obj
 0001:00002a60       _clone_sdp                 00403a60 f   pjsip-ua-i386-win32-vc8-release-dynamic:sip_inv.obj
 0001:00002a80       _create_sdp_body           00403a80 f   pjsip-ua-i386-win32-vc8-release-dynamic:sip_inv.obj
 0001:00002ac0       _handle_timer_response     00403ac0 f   pjsip-ua-i386-win32-vc8-release-dynamic:sip_inv.obj
 0001:00002b20       _handle_uac_call_rejection 00403b20 f   pjsip-ua-i386-win32-vc8-release-dynamic:sip_inv.obj
 0001:00002c70       _handle_uac_tsx_response   00403c70 f   pjsip-ua-i386-win32-vc8-release-dynamic:sip_inv.obj
 0001:00002db0       _inv_check_sdp_in_incoming_msg 00403db0 f   pjsip-ua-i386-win32-vc8-release-dynamic:sip_inv.obj
 0001:00003230       _inv_check_secure_dlg      00404230 f   pjsip-ua-i386-win32-vc8-release-dynamic:sip_inv.obj
 0001:000034b0       _inv_handle_bye_response   004044b0 f   pjsip-ua-i386-win32-vc8-release-dynamic:sip_inv.obj
 0001:000035e0       _inv_handle_incoming_reliable_response 004045e0 f   pjsip-ua-i386-win32-vc8-release-dynamic:sip_inv.obj
 0001:00003660       _inv_handle_update_response 00404660 f   pjsip-ua-i386-win32-vc8-release-dynamic:sip_inv.obj
 0001:00003800       _inv_has_pending_answer    00404800 f   pjsip-ua-i386-win32-vc8-release-dynamic:sip_inv.obj
 0001:00003890       _inv_negotiate_sdp         00404890 f   pjsip-ua-i386-win32-vc8-release-dynamic:sip_inv.obj
 0001:00003930       _inv_perform_pending_bye   00404930 f   pjsip-ua-i386-win32-vc8-release-dynamic:sip_inv.obj
 0001:00003990       _inv_respond_incoming_bye  00404990 f   pjsip-ua-i386-win32-vc8-release-dynamic:sip_inv.obj
 0001:00003a10       _inv_respond_incoming_cancel 00404a10 f   pjsip-ua-i386-win32-vc8-release-dynamic:sip_inv.obj
 0001:00003b20       _inv_respond_incoming_prack 00404b20 f   pjsip-ua-i386-win32-vc8-release-dynamic:sip_inv.obj
 0001:00003bb0       _inv_respond_incoming_update 00404bb0 f   pjsip-ua-i386-win32-vc8-release-dynamic:sip_inv.obj
 0001:00003dc0       _inv_send_ack              00404dc0 f   pjsip-ua-i386-win32-vc8-release-dynamic:sip_inv.obj
 0001:00003f70       _inv_set_cause             00404f70 f   pjsip-ua-i386-win32-vc8-release-dynamic:sip_inv.obj
 0001:00003fe0       _inv_set_state             00404fe0 f   pjsip-ua-i386-win32-vc8-release-dynamic:sip_inv.obj
 0001:000041a0       _inv_uac_recurse           004051a0 f   pjsip-ua-i386-win32-vc8-release-dynamic:sip_inv.obj
 0001:000042d8       $LN31                      004052d8     pjsip-ua-i386-win32-vc8-release-dynamic:sip_inv.obj
 0001:00004b10       $LN58                      00405b10     pjsip-ua-i386-win32-vc8-release-dynamic:sip_inv.obj
 0001:000051e4       $LN87                      004061e4     pjsip-ua-i386-win32-vc8-release-dynamic:sip_inv.obj
 0001:00006390       _print_sdp                 00407390 f   pjsip-ua-i386-win32-vc8-release-dynamic:sip_inv.obj
 0001:000063b0       _process_answer            004073b0 f   pjsip-ua-i386-win32-vc8-release-dynamic:sip_inv.obj
 0001:00006550       _remove_val_from_array_hdr 00407550 f   pjsip-ua-i386-win32-vc8-release-dynamic:sip_inv.obj
 0001:000065a0       _mod_100rel_load           004075a0 f   pjsip-ua-i386-win32-vc8-release-dynamic:sip_100rel.obj
 0001:000065f0       _clear_all_responses       004075f0 f   pjsip-ua-i386-win32-vc8-release-dynamic:sip_100rel.obj
 0001:00006630       _find_req_hdr              00407630 f   pjsip-ua-i386-win32-vc8-release-dynamic:sip_100rel.obj
 0001:000066b0       _on_retransmit             004076b0 f   pjsip-ua-i386-win32-vc8-release-dynamic:sip_100rel.obj
 0001:00007300       _se_hdr_print              00408300 f   pjsip-ua-i386-win32-vc8-release-dynamic:sip_timer.obj
 0001:00007410       _se_hdr_clone              00408410 f   pjsip-ua-i386-win32-vc8-release-dynamic:sip_timer.obj
 0001:00007450       _pjsip_fromto_hdr_shallow_clone 00408450 f   pjsip-core-i386-win32-vc8-release-dynamic:sip_msg.obj
 0001:00007450       _se_hdr_shallow_clone      00408450 f   pjsip-ua-i386-win32-vc8-release-dynamic:sip_timer.obj
 0001:00007490       _min_se_hdr_print          00408490 f   pjsip-ua-i386-win32-vc8-release-dynamic:sip_timer.obj
 0001:00007530       _min_se_hdr_clone          00408530 f   pjsip-ua-i386-win32-vc8-release-dynamic:sip_timer.obj
 0001:00007590       _min_se_hdr_shallow_clone  00408590 f   pjsip-ua-i386-win32-vc8-release-dynamic:sip_timer.obj
 0001:000075d0       _add_timer_headers         004085d0 f   pjsip-ua-i386-win32-vc8-release-dynamic:sip_timer.obj
 0001:00008160       _start_timer               00409160 f   pjsip-ua-i386-win32-vc8-release-dynamic:sip_timer.obj
 0001:00008280       _stop_timer                00409280 f   pjsip-ua-i386-win32-vc8-release-dynamic:sip_timer.obj
 0001:000082e0       _timer_cb                  004092e0 f   pjsip-ua-i386-win32-vc8-release-dynamic:sip_timer.obj
 0001:000085d0       _pjsip_via_hdr_print       004095d0 f   pjsip-core-i386-win32-vc8-release-dynamic:sip_msg.obj
 0001:00008920       _pjsip_via_hdr_clone       00409920 f   pjsip-core-i386-win32-vc8-release-dynamic:sip_msg.obj
 0001:00008a20       _pjsip_via_hdr_shallow_clone 00409a20 f   pjsip-core-i386-win32-vc8-release-dynamic:sip_msg.obj
 0001:00008a60       _pjsip_generic_string_hdr_print 00409a60 f   pjsip-core-i386-win32-vc8-release-dynamic:sip_msg.obj
 0001:00008ad0       _pjsip_generic_string_hdr_clone 00409ad0 f   pjsip-core-i386-win32-vc8-release-dynamic:sip_msg.obj
 0001:00008b10       _pjsip_generic_string_hdr_shallow_clone 00409b10 f   pjsip-core-i386-win32-vc8-release-dynamic:sip_msg.obj
 0001:00008b40       _pjsip_generic_int_hdr_print 00409b40 f   pjsip-core-i386-win32-vc8-release-dynamic:sip_msg.obj
 0001:00008ba0       _pjsip_generic_int_hdr_clone 00409ba0 f   pjsip-core-i386-win32-vc8-release-dynamic:sip_msg.obj
 0001:00008ba0       _pjsip_generic_int_hdr_shallow_clone 00409ba0 f   pjsip-core-i386-win32-vc8-release-dynamic:sip_msg.obj
 0001:00008bd0       _pjsip_generic_array_hdr_print 00409bd0 f   pjsip-core-i386-win32-vc8-release-dynamic:sip_msg.obj
 0001:00008cc0       _pjsip_generic_array_hdr_clone 00409cc0 f   pjsip-core-i386-win32-vc8-release-dynamic:sip_msg.obj
 0001:00008d30       _pjsip_generic_array_hdr_shallow_clone 00409d30 f   pjsip-core-i386-win32-vc8-release-dynamic:sip_msg.obj
 0001:00008d60       _pjsip_clen_hdr_print      00409d60 f   pjsip-core-i386-win32-vc8-release-dynamic:sip_msg.obj
 0001:00008dd0       _pjsip_clen_hdr_clone      00409dd0 f   pjsip-core-i386-win32-vc8-release-dynamic:sip_msg.obj
 0001:00008e40       _pjsip_cseq_hdr_print      00409e40 f   pjsip-core-i386-win32-vc8-release-dynamic:sip_msg.obj
 0001:00008eb0       _pjsip_cseq_hdr_clone      00409eb0 f   pjsip-core-i386-win32-vc8-release-dynamic:sip_msg.obj
 0001:00008f50       _pjsip_cseq_hdr_shallow_clone 00409f50 f   pjsip-core-i386-win32-vc8-release-dynamic:sip_msg.obj
 0001:00008f80       _pjsip_contact_hdr_print   00409f80 f   pjsip-core-i386-win32-vc8-release-dynamic:sip_msg.obj
 0001:00009160       _pjsip_contact_hdr_clone   0040a160 f   pjsip-core-i386-win32-vc8-release-dynamic:sip_msg.obj
 0001:00009220       _pjsip_routing_hdr_shallow_clone 0040a220 f   pjsip-core-i386-win32-vc8-release-dynamic:sip_msg.obj
 0001:00009220       _pjsip_contact_hdr_shallow_clone 0040a220 f   pjsip-core-i386-win32-vc8-release-dynamic:sip_msg.obj
 0001:00009260       _pjsip_ctype_hdr_print     0040a260 f   pjsip-core-i386-win32-vc8-release-dynamic:sip_msg.obj
 0001:000092e0       _pjsip_ctype_hdr_clone     0040a2e0 f   pjsip-core-i386-win32-vc8-release-dynamic:sip_msg.obj
 0001:00009390       _pjsip_fromto_hdr_print    0040a390 f   pjsip-core-i386-win32-vc8-release-dynamic:sip_msg.obj
 0001:000094a0       _pjsip_fromto_hdr_clone    0040a4a0 f   pjsip-core-i386-win32-vc8-release-dynamic:sip_msg.obj
 0001:000095d0       _pjsip_routing_hdr_print   0040a5d0 f   pjsip-core-i386-win32-vc8-release-dynamic:sip_msg.obj
 0001:00009700       _pjsip_routing_hdr_clone   0040a700 f   pjsip-core-i386-win32-vc8-release-dynamic:sip_msg.obj
 0001:00009750       _pjsip_retry_after_hdr_print 0040a750 f   pjsip-core-i386-win32-vc8-release-dynamic:sip_msg.obj
 0001:00009830       _pjsip_retry_after_hdr_clone 0040a830 f   pjsip-core-i386-win32-vc8-release-dynamic:sip_msg.obj
 0001:000098b0       _pjsip_retry_after_hdr_shallow_clone 0040a8b0 f   pjsip-core-i386-win32-vc8-release-dynamic:sip_msg.obj
 0001:000098f0       _init_hdr                  0040a8f0 f   pjsip-core-i386-win32-vc8-release-dynamic:sip_msg.obj
 0001:00009950       _init_status_phrase        0040a950 f   pjsip-core-i386-win32-vc8-release-dynamic:sip_msg.obj
 0001:0000b1e0       _print_media_type          0040c1e0 f   pjsip-core-i386-win32-vc8-release-dynamic:sip_msg.obj
 0001:0000b250       _mod_on_tx_msg             0040c250 f   pjsip-core-i386-win32-vc8-release-dynamic:sip_transport.obj
 0001:0000b260       _destroy_transport         0040c260 f   pjsip-core-i386-win32-vc8-release-dynamic:sip_transport.obj
 0001:0000b330       _get_msg_info              0040c330 f   pjsip-core-i386-win32-vc8-release-dynamic:sip_transport.obj
 0001:0000b400       _is_transport_valid        0040c400 f   pjsip-core-i386-win32-vc8-release-dynamic:sip_transport.obj
 0001:0000cbf0       _tp_state_callback         0040dbf0 f   pjsip-core-i386-win32-vc8-release-dynamic:sip_transport.obj
 0001:0000cc60       _transport_idle_callback   0040dc60 f   pjsip-core-i386-win32-vc8-release-dynamic:sip_transport.obj
 0001:0000ccd0       _transport_send_callback   0040dcd0 f   pjsip-core-i386-win32-vc8-release-dynamic:sip_transport.obj
 0001:0000cd20       _tx_data_destroy           0040dd20 f   pjsip-core-i386-win32-vc8-release-dynamic:sip_transport.obj
 0001:0000cde0       _cmp_mod_name              0040dde0 f   pjsip-core-i386-win32-vc8-release-dynamic:sip_endpoint.obj
 0001:0000ce00       _endpt_on_rx_msg           0040de00 f   pjsip-core-i386-win32-vc8-release-dynamic:sip_endpoint.obj
 0001:0000cff0       _endpt_on_tx_msg           0040dff0 f   pjsip-core-i386-win32-vc8-release-dynamic:sip_endpoint.obj
 0001:0000d6e0       _factory_get_dev_count     0040e6e0 f   pjmedia-audiodev-i386-win32-vc8-release-dynamic:wmme_dev.obj
 0001:0000dd00       _pool_callback             0040ed00 f   pjsip-core-i386-win32-vc8-release-dynamic:sip_endpoint.obj
 0001:0000dd10       _unload_module             0040ed10 f   pjsip-core-i386-win32-vc8-release-dynamic:sip_endpoint.obj
 0001:0000dd70       _init_request_throw        0040ed70 f   pjsip-core-i386-win32-vc8-release-dynamic:sip_util.obj
 0001:0000f400       _send_response_resolver_cb 00410400 f   pjsip-core-i386-win32-vc8-release-dynamic:sip_util.obj
 0001:0000f500       _send_response_transport_cb 00410500 f   pjsip-core-i386-win32-vc8-release-dynamic:sip_util.obj
 0001:0000f540       _stateless_send_resolver_callback 00410540 f   pjsip-core-i386-win32-vc8-release-dynamic:sip_util.obj
 0001:0000f6b0       _stateless_send_transport_cb 004106b0 f   pjsip-core-i386-win32-vc8-release-dynamic:sip_util.obj
 0001:0000f9b0       _create_socket             004109b0 f   pjsip-core-i386-win32-vc8-release-dynamic:sip_transport_udp.obj
 0001:0000fa80       _get_published_name        00410a80 f   pjsip-core-i386-win32-vc8-release-dynamic:sip_transport_udp.obj
 0001:0000fbd0       _init_rdata                00410bd0 f   pjsip-core-i386-win32-vc8-release-dynamic:sip_transport_udp.obj
 0001:0000fe30       _register_to_ioqueue       00410e30 f   pjsip-core-i386-win32-vc8-release-dynamic:sip_transport_udp.obj
 0001:0000fed0       _start_async_read          00410ed0 f   pjsip-core-i386-win32-vc8-release-dynamic:sip_transport_udp.obj
 0001:00010160       _transport_attach          00411160 f   pjsip-core-i386-win32-vc8-release-dynamic:sip_transport_udp.obj
 0001:00010480       _udp_destroy               00411480 f   pjsip-core-i386-win32-vc8-release-dynamic:sip_transport_udp.obj
 0001:000105c0       _udp_on_destroy            004115c0 f   pjsip-core-i386-win32-vc8-release-dynamic:sip_transport_udp.obj
 0001:00010640       _udp_on_read_complete      00411640 f   pjsip-core-i386-win32-vc8-release-dynamic:sip_transport_udp.obj
 0001:00010830       _udp_on_write_complete     00411830 f   pjsip-core-i386-win32-vc8-release-dynamic:sip_transport_udp.obj
 0001:00010870       _udp_send_msg              00411870 f   pjsip-core-i386-win32-vc8-release-dynamic:sip_transport_udp.obj
 0001:00010910       _udp_set_pub_name          00411910 f   pjsip-core-i386-win32-vc8-release-dynamic:sip_transport_udp.obj
 0001:000109d0       _udp_shutdown              004119d0 f   pjsip-core-i386-win32-vc8-release-dynamic:sip_transport_udp.obj
 0001:000109e0       _mod_tsx_layer_stop        004119e0 f   pjsip-core-i386-win32-vc8-release-dynamic:sip_transaction.obj
 0001:00010b50       _mod_tsx_layer_unload      00411b50 f   pjsip-core-i386-win32-vc8-release-dynamic:sip_transaction.obj
 0001:00010bf0       _mod_tsx_layer_on_rx_request 00411bf0 f   pjsip-core-i386-win32-vc8-release-dynamic:sip_transaction.obj
 0001:00010c90       _mod_tsx_layer_on_rx_response 00411c90 f   pjsip-core-i386-win32-vc8-release-dynamic:sip_transaction.obj
 0001:00010d30       _tsx_on_state_null         00411d30 f   pjsip-core-i386-win32-vc8-release-dynamic:sip_transaction.obj
 0001:00010f60       _tsx_on_state_calling      00411f60 f   pjsip-core-i386-win32-vc8-release-dynamic:sip_transaction.obj
 0001:000110c0       _tsx_on_state_trying       004120c0 f   pjsip-core-i386-win32-vc8-release-dynamic:sip_transaction.obj
 0001:00011190       _tsx_on_state_proceeding_uas 00412190 f   pjsip-core-i386-win32-vc8-release-dynamic:sip_transaction.obj
 0001:00011700       _tsx_on_state_proceeding_uac 00412700 f   pjsip-core-i386-win32-vc8-release-dynamic:sip_transaction.obj
 0001:00011bf0       _tsx_on_state_completed_uas 00412bf0 f   pjsip-core-i386-win32-vc8-release-dynamic:sip_transaction.obj
 0001:00011eb0       _tsx_on_state_completed_uac 00412eb0 f   pjsip-core-i386-win32-vc8-release-dynamic:sip_transaction.obj
 0001:00011f30       _tsx_on_state_confirmed    00412f30 f   pjsip-core-i386-win32-vc8-release-dynamic:sip_transaction.obj
 0001:00011f90       _tsx_on_state_terminated   00412f90 f   pjsip-core-i386-win32-vc8-release-dynamic:sip_transaction.obj
 0001:00011fc0       _tsx_on_state_destroyed    00412fc0 f   pjsip-core-i386-win32-vc8-release-dynamic:sip_transaction.obj
 0001:00011fd0       _create_tsx_key_2543       00412fd0 f   pjsip-core-i386-win32-vc8-release-dynamic:sip_transaction.obj
 0001:00012150       _create_tsx_key_3261       00413150 f   pjsip-core-i386-win32-vc8-release-dynamic:sip_transaction.obj
 0001:00012200       _mod_tsx_layer_register_tsx 00413200 f   pjsip-core-i386-win32-vc8-release-dynamic:sip_transaction.obj
 0001:00012290       _mod_tsx_layer_unregister_tsx 00413290 f   pjsip-core-i386-win32-vc8-release-dynamic:sip_transaction.obj
 0001:00012d80       _send_msg_callback         00413d80 f   pjsip-core-i386-win32-vc8-release-dynamic:sip_transaction.obj
 0001:00013220       _transport_callback        00414220 f   pjsip-core-i386-win32-vc8-release-dynamic:sip_transaction.obj
 0001:00013320       _tsx_cancel_timer          00414320 f   pjsip-core-i386-win32-vc8-release-dynamic:sip_transaction.obj
 0001:00013340       _tsx_create                00414340 f   pjsip-core-i386-win32-vc8-release-dynamic:sip_transaction.obj
 0001:00013490       _tsx_layer_destroy         00414490 f   pjsip-core-i386-win32-vc8-release-dynamic:sip_transaction.obj
 0001:000134e0       _tsx_on_destroy            004144e0 f   pjsip-core-i386-win32-vc8-release-dynamic:sip_transaction.obj
 0001:00013520       _tsx_resched_retransmission 00414520 f   pjsip-core-i386-win32-vc8-release-dynamic:sip_transaction.obj
 0001:000135d0       _tsx_retransmit            004145d0 f   pjsip-core-i386-win32-vc8-release-dynamic:sip_transaction.obj
 0001:00013680       _tsx_schedule_timer        00414680 f   pjsip-core-i386-win32-vc8-release-dynamic:sip_transaction.obj
 0001:000136b0       _tsx_send_msg              004146b0 f   pjsip-core-i386-win32-vc8-release-dynamic:sip_transaction.obj
 0001:00013980       _tsx_set_state             00414980 f   pjsip-core-i386-win32-vc8-release-dynamic:sip_transaction.obj
 0001:00013b60       _tsx_shutdown              00414b60 f   pjsip-core-i386-win32-vc8-release-dynamic:sip_transaction.obj
 0001:00013c50       _tsx_timer_callback        00414c50 f   pjsip-core-i386-win32-vc8-release-dynamic:sip_transaction.obj
 0001:00013e00       _tsx_tp_state_callback     00414e00 f   pjsip-core-i386-win32-vc8-release-dynamic:sip_transaction.obj
 0001:00013e80       _tsx_update_transport      00414e80 f   pjsip-core-i386-win32-vc8-release-dynamic:sip_transaction.obj
 0001:00013f10       _mod_ua_load               00414f10 f   pjsip-core-i386-win32-vc8-release-dynamic:sip_ua_layer.obj
 0001:00013fb0       _mod_ua_unload             00414fb0 f   pjsip-core-i386-win32-vc8-release-dynamic:sip_ua_layer.obj
 0001:00013ff0       _mod_ua_on_rx_request      00414ff0 f   pjsip-core-i386-win32-vc8-release-dynamic:sip_ua_layer.obj
 0001:00014250       _mod_ua_on_rx_response     00415250 f   pjsip-core-i386-win32-vc8-release-dynamic:sip_ua_layer.obj
 0001:000144c0       _mod_ua_on_tsx_state       004154c0 f   pjsip-core-i386-win32-vc8-release-dynamic:sip_ua_layer.obj
 0001:000144f0       _alloc_dlgset_node         004154f0 f   pjsip-core-i386-win32-vc8-release-dynamic:sip_ua_layer.obj
 0001:00014770       _create_dialog             00415770 f   pjsip-core-i386-win32-vc8-release-dynamic:sip_dialog.obj
 0001:00014d70       _destroy_dialog            00415d70 f   pjsip-core-i386-win32-vc8-release-dynamic:sip_dialog.obj
 0001:00014de0       _dlg_beautify_response     00415de0 f   pjsip-core-i386-win32-vc8-release-dynamic:sip_dialog.obj
 0001:00014f90       _dlg_update_routeset       00415f90 f   pjsip-core-i386-win32-vc8-release-dynamic:sip_dialog.obj
 0001:00016b90       _unregister_and_destroy_dialog 00417b90 f   pjsip-core-i386-win32-vc8-release-dynamic:sip_dialog.obj
 0001:00016c00       _auth_respond              00417c00 f   pjsip-core-i386-win32-vc8-release-dynamic:sip_auth_client.obj
 0001:00016e90       _digest2str                00417e90 f   pjsip-core-i386-win32-vc8-release-dynamic:sip_auth_client.obj
 0001:00017750       _process_auth              00418750 f   pjsip-core-i386-win32-vc8-release-dynamic:sip_auth_client.obj
 0001:00017980       _respond_digest            00418980 f   pjsip-core-i386-win32-vc8-release-dynamic:sip_auth_client.obj
 0001:00017c90       _find_handler              00418c90 f   pjsip-core-i386-win32-vc8-release-dynamic:sip_parser.obj
 0001:00017d10       _find_handler_imp          00418d10 f   pjsip-core-i386-win32-vc8-release-dynamic:sip_parser.obj
 0001:00017e10       _find_uri_handler          00418e10 f   pjsip-core-i386-win32-vc8-release-dynamic:sip_parser.obj
 0001:00017e70       _init_parser               00418e70 f   pjsip-core-i386-win32-vc8-release-dynamic:sip_parser.obj
 0001:00018510       _int_parse_contact_param   00419510 f   pjsip-core-i386-win32-vc8-release-dynamic:sip_parser.obj
 0001:00018870       _int_parse_msg             00419870 f   pjsip-core-i386-win32-vc8-release-dynamic:sip_parser.obj
 0001:00018c90       _int_parse_name_addr       00419c90 f   pjsip-core-i386-win32-vc8-release-dynamic:sip_parser.obj
 0001:00018da0       _int_parse_other_uri       00419da0 f   pjsip-core-i386-win32-vc8-release-dynamic:sip_parser.obj
 0001:00018e20       _int_parse_sip_url         00419e20 f   pjsip-core-i386-win32-vc8-release-dynamic:sip_parser.obj
 0001:00019390       _int_parse_status_line     0041a390 f   pjsip-core-i386-win32-vc8-release-dynamic:sip_parser.obj
 0001:00019470       _int_parse_uri_or_name_addr 0041a470 f   pjsip-core-i386-win32-vc8-release-dynamic:sip_parser.obj
 0001:00019520       _int_parse_via_param       0041a520 f   pjsip-core-i386-win32-vc8-release-dynamic:sip_parser.obj
 0001:000197e0       _int_register_parser       0041a7e0 f   pjsip-core-i386-win32-vc8-release-dynamic:sip_parser.obj
 0001:00019970       _on_str_parse_error        0041a970 f   pjsip-core-i386-win32-vc8-release-dynamic:sip_parser.obj
 0001:00019a00       _parse_pgp_challenge       0041aa00 f   pjsip-core-i386-win32-vc8-release-dynamic:sip_auth_parser.obj
 0001:00019a00       _parse_pgp_credential      0041aa00 f   pjsip-core-i386-win32-vc8-release-dynamic:sip_auth_parser.obj
 0001:00019a00       _on_syntax_error           0041aa00 f   pjsip-core-i386-win32-vc8-release-dynamic:sip_parser.obj
 0001:00019a10       _parse_generic_array_hdr   0041aa10 f   pjsip-core-i386-win32-vc8-release-dynamic:sip_parser.obj
 0001:00019ac0       _parse_hdr_accept          0041aac0 f   pjsip-core-i386-win32-vc8-release-dynamic:sip_parser.obj
 0001:00019af0       _parse_hdr_allow           0041aaf0 f   pjsip-core-i386-win32-vc8-release-dynamic:sip_parser.obj
 0001:00019b20       _parse_hdr_call_id         0041ab20 f   pjsip-core-i386-win32-vc8-release-dynamic:sip_parser.obj
 0001:00019b80       _parse_hdr_contact         0041ab80 f   pjsip-core-i386-win32-vc8-release-dynamic:sip_parser.obj
 0001:00019cb0       _parse_hdr_content_len     0041acb0 f   pjsip-core-i386-win32-vc8-release-dynamic:sip_parser.obj
 0001:00019d20       _parse_hdr_content_type    0041ad20 f   pjsip-core-i386-win32-vc8-release-dynamic:sip_parser.obj
 0001:00019e80       _parse_hdr_cseq            0041ae80 f   pjsip-core-i386-win32-vc8-release-dynamic:sip_parser.obj
 0001:00019f40       _parse_hdr_expires         0041af40 f   pjsip-core-i386-win32-vc8-release-dynamic:sip_parser.obj
 0001:00019fb0       _parse_hdr_from            0041afb0 f   pjsip-core-i386-win32-vc8-release-dynamic:sip_parser.obj
 0001:00019ff0       _parse_hdr_fromto          0041aff0 f   pjsip-core-i386-win32-vc8-release-dynamic:sip_parser.obj
 0001:0001a160       _parse_hdr_generic_string  0041b160 f   pjsip-core-i386-win32-vc8-release-dynamic:sip_parser.obj
 0001:0001a2b0       _parse_hdr_max_forwards    0041b2b0 f   pjsip-core-i386-win32-vc8-release-dynamic:sip_parser.obj
 0001:0001a320       _parse_hdr_min_expires     0041b320 f   pjsip-core-i386-win32-vc8-release-dynamic:sip_parser.obj
 0001:0001a390       _parse_hdr_require         0041b390 f   pjsip-core-i386-win32-vc8-release-dynamic:sip_parser.obj
 0001:0001a400       _parse_hdr_retry_after     0041b400 f   pjsip-core-i386-win32-vc8-release-dynamic:sip_parser.obj
 0001:0001a5e0       _parse_hdr_route           0041b5e0 f   pjsip-core-i386-win32-vc8-release-dynamic:sip_parser.obj
 0001:0001a670       _parse_hdr_rr              0041b670 f   pjsip-core-i386-win32-vc8-release-dynamic:sip_parser.obj
 0001:0001a700       _parse_hdr_rr_route        0041b700 f   pjsip-core-i386-win32-vc8-release-dynamic:sip_parser.obj
 0001:0001a800       _parse_hdr_supported       0041b800 f   pjsip-core-i386-win32-vc8-release-dynamic:sip_parser.obj
 0001:0001a870       _parse_hdr_to              0041b870 f   pjsip-core-i386-win32-vc8-release-dynamic:sip_parser.obj
 0001:0001a8b0       _parse_hdr_unsupported     0041b8b0 f   pjsip-core-i386-win32-vc8-release-dynamic:sip_parser.obj
 0001:0001a8e0       _parse_hdr_via             0041b8e0 f   pjsip-core-i386-win32-vc8-release-dynamic:sip_parser.obj
 0001:0001aaa0       _parse_param_imp           0041baa0 f   pjsip-core-i386-win32-vc8-release-dynamic:sip_parser.obj
 0001:0001ab50       _parse_sip_version         0041bb50 f   pjsip-core-i386-win32-vc8-release-dynamic:sip_parser.obj
 0001:0001b5a0       _multipart_clone_data      0041c5a0 f   pjsip-core-i386-win32-vc8-release-dynamic:sip_multipart.obj
 0001:0001b670       _multipart_print_body      0041c670 f   pjsip-core-i386-win32-vc8-release-dynamic:sip_multipart.obj
 0001:0001b8f0       _parse_multipart_part      0041c8f0 f   pjsip-core-i386-win32-vc8-release-dynamic:sip_multipart.obj
 0001:0001beb0       _pjsip_url_get_scheme      0041ceb0 f   pjsip-core-i386-win32-vc8-release-dynamic:sip_uri.obj
 0001:0001bec0       _pjsips_url_get_scheme     0041cec0 f   pjsip-core-i386-win32-vc8-release-dynamic:sip_uri.obj
 0001:0001bed0       _pjsip_name_addr_get_scheme 0041ced0 f   pjsip-core-i386-win32-vc8-release-dynamic:sip_uri.obj
 0001:0001bef0       _tel_uri_get_uri           0041cef0 f   pjsip-core-i386-win32-vc8-release-dynamic:sip_tel_uri.obj
 0001:0001bef0       _pjsip_get_uri             0041cef0 f   pjsip-core-i386-win32-vc8-release-dynamic:sip_uri.obj
 0001:0001bef0       _other_uri_get_uri         0041cef0 f   pjsip-core-i386-win32-vc8-release-dynamic:sip_uri.obj
 0001:0001bf00       _pjsip_name_addr_get_uri   0041cf00 f   pjsip-core-i386-win32-vc8-release-dynamic:sip_uri.obj
 0001:0001bf20       _pjsip_name_addr_clone     0041cf20 f   pjsip-core-i386-win32-vc8-release-dynamic:sip_uri.obj
 0001:0001bf90       _pjsip_name_addr_print     0041cf90 f   pjsip-core-i386-win32-vc8-release-dynamic:sip_uri.obj
 0001:0001c080       _pjsip_name_addr_compare   0041d080 f   pjsip-core-i386-win32-vc8-release-dynamic:sip_uri.obj
 0001:0001c0d0       _pjsip_url_print           0041d0d0 f   pjsip-core-i386-win32-vc8-release-dynamic:sip_uri.obj
 0001:0001c580       _pjsip_url_compare         0041d580 f   pjsip-core-i386-win32-vc8-release-dynamic:sip_uri.obj
 0001:0001c780       _pjsip_url_clone           0041d780 f   pjsip-core-i386-win32-vc8-release-dynamic:sip_uri.obj
 0001:0001c8a0       _other_uri_get_scheme      0041d8a0 f   pjsip-core-i386-win32-vc8-release-dynamic:sip_uri.obj
 0001:0001c8b0       _other_uri_print           0041d8b0 f   pjsip-core-i386-win32-vc8-release-dynamic:sip_uri.obj
 0001:0001c920       _other_uri_cmp             0041d920 f   pjsip-core-i386-win32-vc8-release-dynamic:sip_uri.obj
 0001:0001c970       _other_uri_clone           0041d970 f   pjsip-core-i386-win32-vc8-release-dynamic:sip_uri.obj
 0001:0001cd80       _dns_a_callback            0041dd80 f   pjsip-core-i386-win32-vc8-release-dynamic:sip_resolve.obj
 0001:0001cee0       _dns_aaaa_callback         0041dee0 f   pjsip-core-i386-win32-vc8-release-dynamic:sip_resolve.obj
 0001:0001d770       _srv_resolver_cb           0041e770 f   pjsip-core-i386-win32-vc8-release-dynamic:sip_resolve.obj
 0001:0001da70       _tel_uri_get_scheme        0041ea70 f   pjsip-core-i386-win32-vc8-release-dynamic:sip_tel_uri.obj
 0001:0001da80       _tel_uri_print             0041ea80 f   pjsip-core-i386-win32-vc8-release-dynamic:sip_tel_uri.obj
 0001:0001dc10       _tel_uri_cmp               0041ec10 f   pjsip-core-i386-win32-vc8-release-dynamic:sip_tel_uri.obj
 0001:0001dd40       _tel_uri_clone             0041ed40 f   pjsip-core-i386-win32-vc8-release-dynamic:sip_tel_uri.obj
 0001:0001e0e0       _tel_uri_parse             0041f0e0 f   pjsip-core-i386-win32-vc8-release-dynamic:sip_tel_uri.obj
 0001:0001e2d0       _mod_util_on_tsx_state     0041f2d0 f   pjsip-core-i386-win32-vc8-release-dynamic:sip_util_statefull.obj
 0001:0001e320       _pjsip_authorization_hdr_clone 0041f320 f   pjsip-core-i386-win32-vc8-release-dynamic:sip_auth_msg.obj
 0001:0001e4e0       _pjsip_authorization_hdr_shallow_clone 0041f4e0 f   pjsip-core-i386-win32-vc8-release-dynamic:sip_auth_msg.obj
 0001:0001e520       _pjsip_authorization_hdr_print 0041f520 f   pjsip-core-i386-win32-vc8-release-dynamic:sip_auth_msg.obj
 0001:0001e5e0       _pjsip_www_authenticate_hdr_print 0041f5e0 f   pjsip-core-i386-win32-vc8-release-dynamic:sip_auth_msg.obj
 0001:0001e6a0       _pjsip_www_authenticate_hdr_clone 0041f6a0 f   pjsip-core-i386-win32-vc8-release-dynamic:sip_auth_msg.obj
 0001:0001e820       _pjsip_www_authenticate_hdr_shallow_clone 0041f820 f   pjsip-core-i386-win32-vc8-release-dynamic:sip_auth_msg.obj
 0001:0001ea20       _print_digest_challenge    0041fa20 f   pjsip-core-i386-win32-vc8-release-dynamic:sip_auth_msg.obj
 0001:0001ed50       _print_digest_credential   0041fd50 f   pjsip-core-i386-win32-vc8-release-dynamic:sip_auth_msg.obj
 0001:0001f1d0       _int_parse_hdr_authenticate 004201d0 f   pjsip-core-i386-win32-vc8-release-dynamic:sip_auth_parser.obj
 0001:0001f3f0       _int_parse_hdr_authorization 004203f0 f   pjsip-core-i386-win32-vc8-release-dynamic:sip_auth_parser.obj
 0001:0001f670       _parse_hdr_authorization   00420670 f   pjsip-core-i386-win32-vc8-release-dynamic:sip_auth_parser.obj
 0001:0001f6a0       _parse_hdr_proxy_authenticate 004206a0 f   pjsip-core-i386-win32-vc8-release-dynamic:sip_auth_parser.obj
 0001:0001f6d0       _parse_hdr_proxy_authorization 004206d0 f   pjsip-core-i386-win32-vc8-release-dynamic:sip_auth_parser.obj
 0001:0001f700       _parse_hdr_www_authenticate 00420700 f   pjsip-core-i386-win32-vc8-release-dynamic:sip_auth_parser.obj
 0001:0001f9d0       _factory_init              004209d0 f   pjmedia-audiodev-i386-win32-vc8-release-dynamic:wmme_dev.obj
 0001:0001fa10       _factory_destroy           00420a10 f   pjmedia-audiodev-i386-win32-vc8-release-dynamic:wmme_dev.obj
 0001:0001fa40       _factory_refresh           00420a40 f   pjmedia-audiodev-i386-win32-vc8-release-dynamic:wmme_dev.obj
 0001:0001fcf0       _factory_get_dev_info      00420cf0 f   pjmedia-audiodev-i386-win32-vc8-release-dynamic:wmme_dev.obj
 0001:0001fd30       _factory_default_param     00420d30 f   pjmedia-audiodev-i386-win32-vc8-release-dynamic:wmme_dev.obj
 0001:0001fe00       _factory_create_stream     00420e00 f   pjmedia-audiodev-i386-win32-vc8-release-dynamic:wmme_dev.obj
 0001:000200a0       _stream_get_param          004210a0 f   pjmedia-audiodev-i386-win32-vc8-release-dynamic:wmme_dev.obj
 0001:00020120       _stream_get_cap            00421120 f   pjmedia-audiodev-i386-win32-vc8-release-dynamic:wmme_dev.obj
 0001:000201b0       _stream_set_cap            004211b0 f   pjmedia-audiodev-i386-win32-vc8-release-dynamic:wmme_dev.obj
 0001:00020240       _stream_start              00421240 f   pjmedia-audiodev-i386-win32-vc8-release-dynamic:wmme_dev.obj
 0001:000202c0       _stream_stop               004212c0 f   pjmedia-audiodev-i386-win32-vc8-release-dynamic:wmme_dev.obj
 0001:00020350       _stream_destroy            00421350 f   pjmedia-audiodev-i386-win32-vc8-release-dynamic:wmme_dev.obj
 0001:00020520       _build_dev_info            00421520 f   pjmedia-audiodev-i386-win32-vc8-release-dynamic:wmme_dev.obj
 0001:00020680       _init_capture_stream       00421680 f   pjmedia-audiodev-i386-win32-vc8-release-dynamic:wmme_dev.obj
 0001:000208a0       _init_player_stream        004218a0 f   pjmedia-audiodev-i386-win32-vc8-release-dynamic:wmme_dev.obj
 0001:00020ae0       _init_waveformatex         00421ae0 f   pjmedia-audiodev-i386-win32-vc8-release-dynamic:wmme_dev.obj
 0001:00020c00       _wmme_dev_thread           00421c00 f   pjmedia-audiodev-i386-win32-vc8-release-dynamic:wmme_dev.obj
 0001:00021b30       _worker_proc               00422b30 f   pjmedia-i386-win32-vc8-release-dynamic:endpoint.obj
 0001:00021c20       _g711_test_alloc           00422c20 f   pjmedia-i386-win32-vc8-release-dynamic:g711.obj
 0001:00021c40       _g711_default_attr         00422c40 f   pjmedia-i386-win32-vc8-release-dynamic:g711.obj
 0001:00021ca0       _g711_enum_codecs          00422ca0 f   pjmedia-i386-win32-vc8-release-dynamic:g711.obj
 0001:00021d30       _g711_alloc_codec          00422d30 f   pjmedia-i386-win32-vc8-release-dynamic:g711.obj
 0001:00021e50       _g711_dealloc_codec        00422e50 f   pjmedia-i386-win32-vc8-release-dynamic:g711.obj
 0001:00021f20       _g711_open                 00422f20 f   pjmedia-i386-win32-vc8-release-dynamic:g711.obj
 0001:00021f50       _g711_modify               00422f50 f   pjmedia-i386-win32-vc8-release-dynamic:g711.obj
 0001:00021f90       _g711_parse                00422f90 f   pjmedia-i386-win32-vc8-release-dynamic:g711.obj
 0001:00022020       _g711_encode               00423020 f   pjmedia-i386-win32-vc8-release-dynamic:g711.obj
 0001:00022140       _g711_decode               00423140 f   pjmedia-i386-win32-vc8-release-dynamic:g711.obj
 0001:00022210       _g711_recover              00423210 f   pjmedia-i386-win32-vc8-release-dynamic:g711.obj
 0001:00022360       _apply_answer_symmetric_pt 00423360 f   pjmedia-i386-win32-vc8-release-dynamic:sdp_neg.obj
 0001:000225e0       _custom_fmt_match          004235e0 f   pjmedia-i386-win32-vc8-release-dynamic:sdp_neg.obj
 0001:00022640       _match_offer               00423640 f   pjmedia-i386-win32-vc8-release-dynamic:sdp_neg.obj
 0001:00023810       _process_m_answer          00424810 f   pjmedia-i386-win32-vc8-release-dynamic:sdp_neg.obj
 0001:00023d50       _sdp_media_clone_deactivate 00424d50 f   pjmedia-i386-win32-vc8-release-dynamic:sdp_neg.obj
 0001:00023e10       _update_media_direction    00424e10 f   pjmedia-i386-win32-vc8-release-dynamic:sdp_neg.obj
 0001:000244e0       _play_cb                   004254e0 f   pjmedia-i386-win32-vc8-release-dynamic:sound_port.obj
 0001:00024610       _play_cb_ext               00425610 f   pjmedia-i386-win32-vc8-release-dynamic:sound_port.obj
 0001:00024660       _rec_cb                    00425660 f   pjmedia-i386-win32-vc8-release-dynamic:sound_port.obj
 0001:000246e0       _rec_cb_ext                004256e0 f   pjmedia-i386-win32-vc8-release-dynamic:sound_port.obj
 0001:00024720       _start_sound_device        00425720 f   pjmedia-i386-win32-vc8-release-dynamic:sound_port.obj
 0001:00024900       _get_audio_codec_info_param 00425900 f   pjmedia-i386-win32-vc8-release-dynamic:stream_info.obj
 0001:000255c0       _PJMEDIA_AFD_SPF           004265c0 f   pjmedia-i386-win32-vc8-release-dynamic:stream.obj
 0001:000255f0       _PJMEDIA_PIA_SPF           004265f0 f   pjmedia-i386-win32-vc8-release-dynamic:stream.obj
 0001:00025630       _check_tx_rtcp             00426630 f   pjmedia-i386-win32-vc8-release-dynamic:stream.obj
 0001:00025680       _create_channel            00426680 f   pjmedia-i386-win32-vc8-release-dynamic:stream.obj
 0001:000257b0       _create_dtmf_payload       004267b0 f   pjmedia-i386-win32-vc8-release-dynamic:stream.obj
 0001:000258c0       _get_frame                 004268c0 f   pjmedia-i386-win32-vc8-release-dynamic:stream.obj
 0001:00025ec0       _get_frame_ext             00426ec0 f   pjmedia-i386-win32-vc8-release-dynamic:stream.obj
 0001:00026290       _on_rx_rtcp                00427290 f   pjmedia-i386-win32-vc8-release-dynamic:stream.obj
 0001:00026320       _on_rx_rtp                 00427320 f   pjmedia-i386-win32-vc8-release-dynamic:stream.obj
 0001:00027c70       _put_frame                 00428c70 f   pjmedia-i386-win32-vc8-release-dynamic:stream.obj
 0001:00027e90       _put_frame_imp             00428e90 f   pjmedia-i386-win32-vc8-release-dynamic:stream.obj
 0001:00028390       _send_rtcp                 00429390 f   pjmedia-i386-win32-vc8-release-dynamic:stream.obj
 0001:000285c0       _stream_event_cb           004295c0 f   pjmedia-i386-win32-vc8-release-dynamic:stream.obj
 0001:00028630       _stream_perror             00429630 f   pjmedia-i386-win32-vc8-release-dynamic:stream.obj
 0001:00028690       _transport_get_info        00429690 f   pjmedia-i386-win32-vc8-release-dynamic:transport_udp.obj
 0001:00028780       _transport_attach          00429780 f   pjmedia-i386-win32-vc8-release-dynamic:transport_udp.obj
 0001:000287b0       _transport_attach2         004297b0 f   pjmedia-i386-win32-vc8-release-dynamic:transport_udp.obj
 0001:000287e0       _transport_detach          004297e0 f   pjmedia-i386-win32-vc8-release-dynamic:transport_udp.obj
 0001:00028880       _transport_send_rtp        00429880 f   pjmedia-i386-win32-vc8-release-dynamic:transport_udp.obj
 0001:00028940       _transport_send_rtcp       00429940 f   pjmedia-i386-win32-vc8-release-dynamic:transport_udp.obj
 0001:000289a0       _transport_send_rtcp2      004299a0 f   pjmedia-i386-win32-vc8-release-dynamic:transport_udp.obj
 0001:00028a10       _transport_media_create    00429a10 f   pjmedia-i386-win32-vc8-release-dynamic:transport_udp.obj
 0001:00028a40       _transport_encode_sdp      00429a40 f   pjmedia-i386-win32-vc8-release-dynamic:transport_udp.obj
 0001:00028bc0       _transport_media_start     00429bc0 f   pjmedia-i386-win32-vc8-release-dynamic:transport_udp.obj
 0001:00028c80       _transport_media_stop      00429c80 f   pjmedia-i386-win32-vc8-release-dynamic:transport_udp.obj
 0001:00028ce0       _transport_simulate_lost   00429ce0 f   pjmedia-i386-win32-vc8-release-dynamic:transport_udp.obj
 0001:00028d20       _transport_destroy         00429d20 f   pjmedia-i386-win32-vc8-release-dynamic:transport_udp.obj
 0001:00028dc0       _on_rx_rtcp                00429dc0 f   pjmedia-i386-win32-vc8-release-dynamic:transport_udp.obj
 0001:00028ef0       _on_rx_rtp                 00429ef0 f   pjmedia-i386-win32-vc8-release-dynamic:transport_udp.obj
 0001:000295e0       _tp_attach                 0042a5e0 f   pjmedia-i386-win32-vc8-release-dynamic:transport_udp.obj
 0001:000297d0       _init_sdp_parser           0042a7d0 f   pjmedia-i386-win32-vc8-release-dynamic:sdp.obj
 0001:00029860       _on_scanner_error          0042a860 f   pjmedia-i386-win32-vc8-release-dynamic:sdp.obj
 0001:00029870       _parse_generic_line        0042a870 f   pjmedia-i386-win32-vc8-release-dynamic:sdp.obj
 0001:0002b214       $LN224                     0042c214     pjmedia-i386-win32-vc8-release-dynamic:sdp.obj
 0001:0002b23c       $LN209                     0042c23c     pjmedia-i386-win32-vc8-release-dynamic:sdp.obj
 0001:0002b9e0       _print_connection_info     0042c9e0 f   pjmedia-i386-win32-vc8-release-dynamic:sdp.obj
 0001:0002ba20       _print_media_desc          0042ca20 f   pjmedia-i386-win32-vc8-release-dynamic:sdp.obj
 0001:0002bc70       _print_session             0042cc70 f   pjmedia-i386-win32-vc8-release-dynamic:sdp.obj
 0001:0002bf20       _validate_sdp_conn         0042cf20 f   pjmedia-i386-win32-vc8-release-dynamic:sdp.obj
 0001:0002bf90       _lookup_dev                0042cf90 f   pjmedia-i386-win32-vc8-release-dynamic:audiodev.obj
 0001:0002c070       _make_global_index         0042d070 f   pjmedia-i386-win32-vc8-release-dynamic:audiodev.obj
 0001:0002d030       _sort_codecs               0042e030 f   pjmedia-i386-win32-vc8-release-dynamic:codec.obj
 0001:0002d210       _plc_wsola_create          0042e210 f   pjmedia-i386-win32-vc8-release-dynamic:plc_common.obj
 0001:0002d250       _plc_wsola_save            0042e250 f   pjmedia-i386-win32-vc8-release-dynamic:plc_common.obj
 0001:0002d280       _plc_wsola_generate        0042e280 f   pjmedia-i386-win32-vc8-release-dynamic:plc_common.obj
 0001:0002dbc0       _get_codec_info_from_sdp   0042ebc0 f   pjmedia-i386-win32-vc8-release-dynamic:rtcp_fb.obj
 0001:0002e3f0       _event_mgr_distribute_events 0042f3f0 f   pjmedia-i386-win32-vc8-release-dynamic:event.obj
 0001:0002e4d0       _event_queue_add_event     0042f4d0 f   pjmedia-i386-win32-vc8-release-dynamic:event.obj
 0001:0002e8d0       _jb_framelist_get          0042f8d0 f   pjmedia-i386-win32-vc8-release-dynamic:jbuf.obj
 0001:0002ea50       _jb_framelist_put_at       0042fa50 f   pjmedia-i386-win32-vc8-release-dynamic:jbuf.obj
 0001:0002eb50       _jb_framelist_remove_head  0042fb50 f   pjmedia-i386-win32-vc8-release-dynamic:jbuf.obj
 0001:0002ec40       _jb_framelist_reset        0042fc40 f   pjmedia-i386-win32-vc8-release-dynamic:jbuf.obj
 0001:0002ec90       _jbuf_calculate_jitter     0042fc90 f   pjmedia-i386-win32-vc8-release-dynamic:jbuf.obj
 0001:0002ee00       _jbuf_discard_progressive  0042fe00 f   pjmedia-i386-win32-vc8-release-dynamic:jbuf.obj
 0001:0002eee0       _pj_math_stat_get_stddev   0042fee0 f   pjmedia-i386-win32-vc8-release-dynamic:jbuf.obj
 0001:0002ef40       _pj_math_stat_update       0042ff40 f   pjmedia-i386-win32-vc8-release-dynamic:rtcp.obj
 0001:0002ef40       _pj_math_stat_update       0042ff40 f   pjmedia-i386-win32-vc8-release-dynamic:jbuf.obj
 0001:0002fcc0       _parse_rtcp_report         00430cc0 f   pjmedia-i386-win32-vc8-release-dynamic:rtcp.obj
 0001:00030a90       $LN74                      00431a90     pjmedia-i386-win32-vc8-release-dynamic:rtcp.obj
 0001:00030ab0       $LN75                      00431ab0     pjmedia-i386-win32-vc8-release-dynamic:rtcp.obj
 0001:00030ce0       _transport_get_info        00431ce0 f   pjmedia-i386-win32-vc8-release-dynamic:transport_srtp.obj
 0001:00030e10       _transport_detach          00431e10 f   pjmedia-i386-win32-vc8-release-dynamic:transport_srtp.obj
 0001:00030e80       _transport_send_rtp        00431e80 f   pjmedia-i386-win32-vc8-release-dynamic:transport_srtp.obj
 0001:00030f40       _transport_send_rtcp       00431f40 f   pjmedia-i386-win32-vc8-release-dynamic:transport_srtp.obj
 0001:00031010       _transport_send_rtcp2      00432010 f   pjmedia-i386-win32-vc8-release-dynamic:transport_srtp.obj
 0001:000310e0       _transport_media_create    004320e0 f   pjmedia-i386-win32-vc8-release-dynamic:transport_srtp.obj
 0001:00031270       _transport_encode_sdp      00432270 f   pjmedia-i386-win32-vc8-release-dynamic:transport_srtp.obj
 0001:00031430       _transport_media_start     00432430 f   pjmedia-i386-win32-vc8-release-dynamic:transport_srtp.obj
 0001:000316b0       _transport_media_stop      004326b0 f   pjmedia-i386-win32-vc8-release-dynamic:transport_srtp.obj
 0001:00031840       _transport_simulate_lost   00432840 f   pjmedia-i386-win32-vc8-release-dynamic:transport_srtp.obj
 0001:00031870       _transport_destroy         00432870 f   pjmedia-i386-win32-vc8-release-dynamic:transport_srtp.obj
 0001:00031910       _transport_attach2         00432910 f   pjmedia-i386-win32-vc8-release-dynamic:transport_srtp.obj
 0001:00031aa0       _sdes_media_create         00432aa0 f   pjmedia-i386-win32-vc8-release-dynamic:transport_srtp.obj
 0001:00031b20       _sdes_encode_sdp           00432b20 f   pjmedia-i386-win32-vc8-release-dynamic:transport_srtp.obj
 0001:000320b0       _sdes_media_start          004330b0 f   pjmedia-i386-win32-vc8-release-dynamic:transport_srtp.obj
 0001:00032490       _fill_local_crypto         00433490 f   pjmedia-i386-win32-vc8-release-dynamic:transport_srtp.obj
 0001:000327e0       _generate_crypto_attr_value 004337e0 f   pjmedia-i386-win32-vc8-release-dynamic:transport_srtp.obj
 0001:00032a90       _get_crypto_idx            00433a90 f   pjmedia-i386-win32-vc8-release-dynamic:transport_srtp.obj
 0001:00032b10       _parse_attr_crypto         00433b10 f   pjmedia-i386-win32-vc8-release-dynamic:transport_srtp.obj
 0001:00033560       _srtp_crypto_cmp           00434560 f   pjmedia-i386-win32-vc8-release-dynamic:transport_srtp.obj
 0001:000335a0       _srtp_rtcp_cb              004345a0 f   pjmedia-i386-win32-vc8-release-dynamic:transport_srtp.obj
 0001:000336a0       _srtp_rtp_cb               004346a0 f   pjmedia-i386-win32-vc8-release-dynamic:transport_srtp.obj
 0001:000339a0       _compress                  004349a0 f   pjmedia-i386-win32-vc8-release-dynamic:wsola.obj
 0001:00033ab0       _expand                    00434ab0 f   pjmedia-i386-win32-vc8-release-dynamic:wsola.obj
 0001:00033cb0       _fade_in                   00434cb0 f   pjmedia-i386-win32-vc8-release-dynamic:wsola.obj
 0001:00033d70       _find_pitch                00434d70 f   pjmedia-i386-win32-vc8-release-dynamic:wsola.obj
 0001:00034010       _overlapp_add              00435010 f   pjmedia-i386-win32-vc8-release-dynamic:wsola.obj
 0001:00034080       _overlapp_add_simple       00435080 f   pjmedia-i386-win32-vc8-release-dynamic:wsola.obj
 0001:00034110       _pjmedia_circ_buf_adv_read_ptr 00435110 f   pjmedia-i386-win32-vc8-release-dynamic:delaybuf.obj
 0001:00034110       _pjmedia_circ_buf_adv_read_ptr 00435110 f   pjmedia-i386-win32-vc8-release-dynamic:wsola.obj
 0001:00034160       _pjmedia_circ_buf_copy     00435160 f   pjmedia-i386-win32-vc8-release-dynamic:wsola.obj
 0001:00034210       _pjmedia_circ_buf_get_read_regions 00435210 f   pjmedia-i386-win32-vc8-release-dynamic:wsola.obj
 0001:00034c30       _wsola_fade_out            00435c30 f   pjmedia-i386-win32-vc8-release-dynamic:wsola.obj
 0001:00035380       _echo_supp_update          00436380 f   pjmedia-i386-win32-vc8-release-dynamic:echo_suppress.obj
 0001:00035c70       _pjmedia_circ_buf_read     00436c70 f   pjmedia-i386-win32-vc8-release-dynamic:delaybuf.obj
 0001:00035d50       _pjmedia_circ_buf_write    00436d50 f   pjmedia-i386-win32-vc8-release-dynamic:delaybuf.obj
 0001:00036230       _shrink_buffer             00437230 f   pjmedia-i386-win32-vc8-release-dynamic:delaybuf.obj
 0001:000362d0       _update                    004372d0 f   pjmedia-i386-win32-vc8-release-dynamic:delaybuf.obj
 0001:00036490       __getopt_internal          00437490 f   pjlib-util-i386-win32-vc8-release-dynamic:getopt.obj
 0001:00036c20       _exchange                  00437c20 f   pjlib-util-i386-win32-vc8-release-dynamic:getopt.obj
 0001:00036d10       _my_index                  00437d10 f   pjlib-util-i386-win32-vc8-release-dynamic:getopt.obj
 0001:00037690       _alloc_qnode               00438690 f   pjlib-util-i386-win32-vc8-release-dynamic:resolver.obj
 0001:00037710       _init_res_key              00438710 f   pjlib-util-i386-win32-vc8-release-dynamic:resolver.obj
 0001:00037780       _on_timeout                00438780 f   pjlib-util-i386-win32-vc8-release-dynamic:resolver.obj
 0001:00038150       _set_nameserver_state      00439150 f   pjlib-util-i386-win32-vc8-release-dynamic:resolver.obj
 0001:00038230       _transmit_query            00439230 f   pjlib-util-i386-win32-vc8-release-dynamic:resolver.obj
 0001:00038680       _MD5Transform              00439680 f   pjlib-util-i386-win32-vc8-release-dynamic:md5.obj
 0001:00038f00       $LN16                      00439f00     pjlib-util-i386-win32-vc8-release-dynamic:dns.obj
 0001:00038f28       $LN14                      00439f28     pjlib-util-i386-win32-vc8-release-dynamic:dns.obj
 0001:00039040       _build_server_entries      0043a040 f   pjlib-util-i386-win32-vc8-release-dynamic:srv_resolver.obj
 0001:00039680       _dns_callback              0043a680 f   pjlib-util-i386-win32-vc8-release-dynamic:srv_resolver.obj
 0001:0003a3b0       _init_mutex                0043b3b0 f   pjlib-i386-win32-vc8-release-dynamic:os_core_win32.obj
 0001:0003b090       _pj_sem_wait_for           0043c090 f   pjlib-i386-win32-vc8-release-dynamic:os_core_win32.obj
 0001:0003b6a0       _thread_main@4             0043c6a0 f   pjlib-i386-win32-vc8-release-dynamic:os_core_win32.obj
 0001:0003b720       _invoke_log                0043c720 f   pjlib-i386-win32-vc8-release-dynamic:errno.obj
 0001:0003b7e0       _pj_perror_imp             0043c7e0 f   pjlib-i386-win32-vc8-release-dynamic:errno.obj
 0001:0003dfc0       _reset_pool                0043efc0 f   pjlib-i386-win32-vc8-release-dynamic:pool.obj
 0001:0003e040       _cpool_create_pool         0043f040 f   pjlib-i386-win32-vc8-release-dynamic:pool_caching.obj
 0001:0003e170       _cpool_dump_status         0043f170 f   pjlib-i386-win32-vc8-release-dynamic:pool_caching.obj
 0001:0003e2c0       _cpool_on_block_alloc      0043f2c0 f   pjlib-i386-win32-vc8-release-dynamic:pool_caching.obj
 0001:0003e2e0       _cpool_on_block_free       0043f2e0 f   pjlib-i386-win32-vc8-release-dynamic:pool_caching.obj
 0001:0003e2f0       _cpool_release_pool        0043f2f0 f   pjlib-i386-win32-vc8-release-dynamic:pool_caching.obj
 0001:0003f370       _logging_shutdown          00440370 f   pjlib-i386-win32-vc8-release-dynamic:log.obj
 0001:0003f99c       $LN14                      0044099c     pjlib-i386-win32-vc8-release-dynamic:log.obj
 0001:0003fac0       _default_block_alloc       00440ac0 f   pjlib-i386-win32-vc8-release-dynamic:pool_policy_malloc.obj
 0001:0003fb20       _default_block_free        00440b20 f   pjlib-i386-win32-vc8-release-dynamic:pool_policy_malloc.obj
 0001:0003fb60       _default_pool_callback     00440b60 f   pjlib-i386-win32-vc8-release-dynamic:pool_policy_malloc.obj
 0001:0003fc90       _create_mutex_lock         00440c90 f   pjlib-i386-win32-vc8-release-dynamic:lock.obj
 0001:0003fd00       _grp_lock_acquire          00440d00 f   pjlib-i386-win32-vc8-release-dynamic:lock.obj
 0001:0003fd70       _grp_lock_destroy          00440d70 f   pjlib-i386-win32-vc8-release-dynamic:lock.obj
 0001:0003fe20       _grp_lock_release          00440e20 f   pjlib-i386-win32-vc8-release-dynamic:lock.obj
 0001:0003fe90       _grp_lock_tryacquire       00440e90 f   pjlib-i386-win32-vc8-release-dynamic:lock.obj
 0001:00040450       _cancel_timer              00441450 f   pjlib-i386-win32-vc8-release-dynamic:timer.obj
 0001:000409e0       _reheap_up                 004419e0 f   pjlib-i386-win32-vc8-release-dynamic:timer.obj
 0001:00040a70       _remove_node               00441a70 f   pjlib-i386-win32-vc8-release-dynamic:timer.obj
 0001:00040c00       _schedule_w_grp_lock       00441c00 f   pjlib-i386-win32-vc8-release-dynamic:timer.obj
 0001:00040f00       _decrement_counter         00441f00 f   pjlib-i386-win32-vc8-release-dynamic:ioqueue_select.obj
 0001:00040f90       _increment_counter         00441f90 f   pjlib-i386-win32-vc8-release-dynamic:ioqueue_select.obj
 0001:000423f0       _scan_closing_keys         004433f0 f   pjlib-i386-win32-vc8-release-dynamic:ioqueue_select.obj
 0001:00042470       _exception_cleanup         00443470 f   pjlib-i386-win32-vc8-release-dynamic:except.obj
 0001:00042740       _find_entry                00443740 f   pjlib-i386-win32-vc8-release-dynamic:hash.obj
 0001:00043360       _pool_buf_cleanup          00444360 f   pjlib-i386-win32-vc8-release-dynamic:pool_buf.obj
 0001:00043390       _stack_alloc               00444390 f   pjlib-i386-win32-vc8-release-dynamic:pool_buf.obj
 0001:000433d0       _MyGetAdapterAddresses     004443d0 f   pjlib-i386-win32-vc8-release-dynamic:ip_helper_win32.obj
 0001:00043450       _MyGetIpAddrTable          00444450 f   pjlib-i386-win32-vc8-release-dynamic:ip_helper_win32.obj
 0001:000434c0       _enum_ipv4_interface       004444c0 f   pjlib-i386-win32-vc8-release-dynamic:ip_helper_win32.obj
 0001:00043960       _unload_iphlp_module       00444960 f   pjlib-i386-win32-vc8-release-dynamic:ip_helper_win32.obj
 0001:00043e60       _mdf_adjust_prop           00444e60 f   libspeex-i386-win32-vc8-release-dynamic:mdf.obj
 0001:000440f0       _spectral_mul_accum        004450f0 f   libspeex-i386-win32-vc8-release-dynamic:mdf.obj
 0001:000466b0       _compute_gain_floor        004476b0 f   libspeex-i386-win32-vc8-release-dynamic:preprocess.obj
 0001:000468c0       _preprocess_analysis       004478c0 f   libspeex-i386-win32-vc8-release-dynamic:preprocess.obj
 0001:00046d20       _speex_compute_agc         00447d20 f   libspeex-i386-win32-vc8-release-dynamic:preprocess.obj
 0001:000476e8       $LN102                     004486e8     libspeex-i386-win32-vc8-release-dynamic:preprocess.obj
 0001:00049980       _update_noise_prob         0044a980 f   libspeex-i386-win32-vc8-release-dynamic:preprocess.obj
 0001:0004a4c0       _dradb2                    0044b4c0 f   libspeex-i386-win32-vc8-release-dynamic:smallft.obj
 0001:0004a6e0       _dradb3                    0044b6e0 f   libspeex-i386-win32-vc8-release-dynamic:smallft.obj
 0001:0004a990       _dradb4                    0044b990 f   libspeex-i386-win32-vc8-release-dynamic:smallft.obj
 0001:0004ae20       _dradbg                    0044be20 f   libspeex-i386-win32-vc8-release-dynamic:smallft.obj
 0001:0004bc10       _dradf2                    0044cc10 f   libspeex-i386-win32-vc8-release-dynamic:smallft.obj
 0001:0004be40       _dradf4                    0044ce40 f   libspeex-i386-win32-vc8-release-dynamic:smallft.obj
 0001:0004c2a0       _dradfg                    0044d2a0 f   libspeex-i386-win32-vc8-release-dynamic:smallft.obj
 0001:0004d180       _drftb1                    0044e180 f   libspeex-i386-win32-vc8-release-dynamic:smallft.obj
 0001:0004d390       _drftf1                    0044e390 f   libspeex-i386-win32-vc8-release-dynamic:smallft.obj
 0001:0004d590       _drfti1                    0044e590 f   libspeex-i386-win32-vc8-release-dynamic:smallft.obj
 0001:0004d8f4       $LN11                      0044e8f4     libsrtp-i386-win32-vc8-release-dynamic:srtp.obj
 0001:0004d920       _base_key_length           0044e920 f   libsrtp-i386-win32-vc8-release-dynamic:srtp.obj
 0001:0004d954       $LN11                      0044e954     libsrtp-i386-win32-vc8-release-dynamic:srtp.obj
 0001:0004d960       $LN9                       0044e960     libsrtp-i386-win32-vc8-release-dynamic:srtp.obj
 0001:0004d970       _be64_to_cpu               0044e970 f   libsrtp-i386-win32-vc8-release-dynamic:srtp.obj
 0001:0004da60       _srtp_calc_aead_iv         0044ea60 f   libsrtp-i386-win32-vc8-release-dynamic:srtp.obj
 0001:0004db50       _srtp_calc_aead_iv_srtcp   0044eb50 f   libsrtp-i386-win32-vc8-release-dynamic:srtp.obj
 0001:0004df30       _srtp_get_est_pkt_index    0044ef30 f   libsrtp-i386-win32-vc8-release-dynamic:srtp.obj
 0001:0004e170       _srtp_kdf_generate         0044f170 f   libsrtp-i386-win32-vc8-release-dynamic:srtp.obj
 0001:0004e1f0       _srtp_kdf_init             0044f1f0 f   libsrtp-i386-win32-vc8-release-dynamic:srtp.obj
 0001:0004e260       _srtp_process_header_encryption 0044f260 f   libsrtp-i386-win32-vc8-release-dynamic:srtp.obj
 0001:0004e4b0       _srtp_protect_aead         0044f4b0 f   libsrtp-i386-win32-vc8-release-dynamic:srtp.obj
 0001:0004ed90       _srtp_protect_rtcp_aead    0044fd90 f   libsrtp-i386-win32-vc8-release-dynamic:srtp.obj
 0001:0004f9a0       _srtp_stream_free          004509a0 f   libsrtp-i386-win32-vc8-release-dynamic:srtp.obj
 0001:00050400       $LN96                      00451400     libsrtp-i386-win32-vc8-release-dynamic:srtp.obj
 0001:00050440       _srtp_unprotect_aead       00451440 f   libsrtp-i386-win32-vc8-release-dynamic:srtp.obj
 0001:00050db0       _srtp_unprotect_rtcp_aead  00451db0 f   libsrtp-i386-win32-vc8-release-dynamic:srtp.obj
 0001:00051550       _srtp_validate_rtp_header  00452550 f   libsrtp-i386-win32-vc8-release-dynamic:srtp.obj
 0001:000524c0       _srtp_null_cipher_alloc    004534c0 f   libsrtp-i386-win32-vc8-release-dynamic:null_cipher.obj
 0001:00052530       _srtp_null_cipher_dealloc  00453530 f   libsrtp-i386-win32-vc8-release-dynamic:null_cipher.obj
 0001:00052550       _srtp_null_cipher_init     00453550 f   libsrtp-i386-win32-vc8-release-dynamic:null_cipher.obj
 0001:00052580       _srtp_aes_icm_alloc        00453580 f   libsrtp-i386-win32-vc8-release-dynamic:aes_icm.obj
 0001:00052660       _srtp_aes_icm_dealloc      00453660 f   libsrtp-i386-win32-vc8-release-dynamic:aes_icm.obj
 0001:000526a0       _srtp_aes_icm_context_init 004536a0 f   libsrtp-i386-win32-vc8-release-dynamic:aes_icm.obj
 0001:000527e0       _srtp_aes_icm_set_iv       004537e0 f   libsrtp-i386-win32-vc8-release-dynamic:aes_icm.obj
 0001:00052890       _srtp_aes_icm_encrypt      00453890 f   libsrtp-i386-win32-vc8-release-dynamic:aes_icm.obj
 0001:00052a60       _srtp_aes_icm_advance      00453a60 f   libsrtp-i386-win32-vc8-release-dynamic:aes_icm.obj
 0001:00052af0       _srtp_null_auth_alloc      00453af0 f   libsrtp-i386-win32-vc8-release-dynamic:null_auth.obj
 0001:00052b80       _srtp_null_auth_dealloc    00453b80 f   libsrtp-i386-win32-vc8-release-dynamic:null_auth.obj
 0001:00052ba0       _srtp_hmac_alloc           00453ba0 f   libsrtp-i386-win32-vc8-release-dynamic:hmac.obj
 0001:00052c50       _srtp_hmac_dealloc         00453c50 f   libsrtp-i386-win32-vc8-release-dynamic:hmac.obj
 0001:00052c70       _srtp_hmac_init            00453c70 f   libsrtp-i386-win32-vc8-release-dynamic:hmac.obj
 0001:00052ee0       _srtp_hmac_start           00453ee0 f   libsrtp-i386-win32-vc8-release-dynamic:hmac.obj
 0001:00052f00       _srtp_hmac_update          00453f00 f   libsrtp-i386-win32-vc8-release-dynamic:hmac.obj
 0001:00052f50       _srtp_hmac_compute         00453f50 f   libsrtp-i386-win32-vc8-release-dynamic:hmac.obj
 0001:00053080       _aes_128_expand_encryption_key 00454080 f   libsrtp-i386-win32-vc8-release-dynamic:aes.obj
 0001:000534e0       _aes_final_round           004544e0 f   libsrtp-i386-win32-vc8-release-dynamic:aes.obj
 0001:000535e0       _aes_inv_final_round       004545e0 f   libsrtp-i386-win32-vc8-release-dynamic:aes.obj
 0001:000536e0       _aes_inv_round             004546e0 f   libsrtp-i386-win32-vc8-release-dynamic:aes.obj
 0001:000537d0       _aes_round                 004547d0 f   libsrtp-i386-win32-vc8-release-dynamic:aes.obj
 0001:00054ae0       $LN112                     00455ae0     libsrtp-i386-win32-vc8-release-dynamic:sha1.obj
 0001:00054c20       $$000000                   00455c20     MSVCRT:ulldiv.obj
 0001:00054c88       ?pre_c_initialization@@YAHXZ 00455c88 f   MSVCRT:exe_main.obj
 0001:00054d33       ?post_pgo_initialization@@YAHXZ 00455d33 f   MSVCRT:exe_main.obj
 0001:00054d3b       ?pre_cpp_initialization@@YAXXZ 00455d3b f   MSVCRT:exe_main.obj
 0001:00054d4d       ?__scrt_common_main_seh@@YAHXZ 00455d4d f   MSVCRT:exe_main.obj
 0001:00055270       $$000000                   00456270     MSVCRT:ftol3.obj
 0001:000555f0       $$000000                   004565f0     MSVCRT:ullrem.obj
 0001:00055670       $$000000                   00456670     MSVCRT:svml_dcos2_dispatch.obj
 0001:00055680       $$000000                   00456680     MSVCRT:lldiv.obj
 0001:00055730       $$000000                   00456730     MSVCRT:llmul.obj
 0001:00055770       $$000000                   00456770     MSVCRT:ftol2.obj
 0001:00055825       ?find_pe_section@@YAPAU_IMAGE_SECTION_HEADER@@QAEI@Z 00456825 f   MSVCRT:utility.obj
 0001:00055aa2       ___get_entropy             00456aa2 f   MSVCRT:gs_support.obj
 0001:00055dc0       $$000000                   00456dc0     MSVCRT:sehprolg4.obj
 0001:00055e40       $$000000                   00456e40     MSVCRT:svml_dcos2_sse2.obj
 0001:00055ff0       $$000000                   00456ff0     MSVCRT:svml_dtrig.obj
 0001:000562e0       ___common_srl              004572e0 f   MSVCRT:svml_dtrig.obj
 0001:00056310       ___common_sll              00457310 f   MSVCRT:svml_dtrig.obj
 0002:000002a4       ?pre_cpp_initializer@@3P6AXXZA 004582a4     MSVCRT:exe_main.obj
 0002:000002b0       ?pre_c_initializer@@3P6AHXZA 004582b0     MSVCRT:exe_main.obj
 0002:000002b4       ?post_pgo_initializer@@3P6AHXZA 004582b4     MSVCRT:exe_main.obj
 0002:00000334       _pjsip_update_method       00458334     pjsip-ua-i386-win32-vc8-release-dynamic:sip_inv.obj
 0002:000009a0       _tag_100rel                004589a0     pjsip-ua-i386-win32-vc8-release-dynamic:sip_100rel.obj
 0002:000009a8       _RSEQ                      004589a8     pjsip-ua-i386-win32-vc8-release-dynamic:sip_100rel.obj
 0002:000009b0       _RACK                      004589b0     pjsip-ua-i386-win32-vc8-release-dynamic:sip_100rel.obj
 0002:00000bc0       _STR_SE                    00458bc0     pjsip-ua-i386-win32-vc8-release-dynamic:sip_timer.obj
 0002:00000bc8       _STR_SHORT_SE              00458bc8     pjsip-ua-i386-win32-vc8-release-dynamic:sip_timer.obj
 0002:00000bd0       _STR_MIN_SE                00458bd0     pjsip-ua-i386-win32-vc8-release-dynamic:sip_timer.obj
 0002:00000bd8       _STR_REFRESHER             00458bd8     pjsip-ua-i386-win32-vc8-release-dynamic:sip_timer.obj
 0002:00000be0       _STR_UAC                   00458be0     pjsip-ua-i386-win32-vc8-release-dynamic:sip_timer.obj
 0002:00000be8       _STR_UAS                   00458be8     pjsip-ua-i386-win32-vc8-release-dynamic:sip_timer.obj
 0002:00000bf0       _STR_TIMER                 00458bf0     pjsip-ua-i386-win32-vc8-release-dynamic:sip_timer.obj
 0002:00002558       _HCONTACT                  0045a558     pjsip-core-i386-win32-vc8-release-dynamic:sip_dialog.obj
 0002:00002e18       _err_str                   0045ae18     pjsip-core-i386-win32-vc8-release-dynamic:sip_errno.obj
 0002:00004368       _err_str                   0045c368     pjmedia-audiodev-i386-win32-vc8-release-dynamic:errno.obj
 0002:000048d4       _STR_RTP_AVP               0045c8d4     pjmedia-i386-win32-vc8-release-dynamic:endpoint.obj
 0002:000048dc       _STR_IN                    0045c8dc     pjmedia-i386-win32-vc8-release-dynamic:endpoint.obj
 0002:000048e4       _STR_IP4                   0045c8e4     pjmedia-i386-win32-vc8-release-dynamic:endpoint.obj
 0002:000048ec       _STR_IP6                   0045c8ec     pjmedia-i386-win32-vc8-release-dynamic:endpoint.obj
 0002:000048f4       _STR_SDP_NAME              0045c8f4     pjmedia-i386-win32-vc8-release-dynamic:endpoint.obj
 0002:000048fc       _STR_SENDRECV              0045c8fc     pjmedia-i386-win32-vc8-release-dynamic:endpoint.obj
 0002:00004b8c       _ID_AUDIO                  0045cb8c     pjmedia-i386-win32-vc8-release-dynamic:stream_info.obj
 0002:00004b94       _ID_IN                     0045cb94     pjmedia-i386-win32-vc8-release-dynamic:stream_info.obj
 0002:00004b9c       _ID_IP4                    0045cb9c     pjmedia-i386-win32-vc8-release-dynamic:stream_info.obj
 0002:00004ba4       _ID_IP6                    0045cba4     pjmedia-i386-win32-vc8-release-dynamic:stream_info.obj
 0002:00004bac       _ID_RTPMAP                 0045cbac     pjmedia-i386-win32-vc8-release-dynamic:stream_info.obj
 0002:00004bb4       _ID_TELEPHONE_EVENT        0045cbb4     pjmedia-i386-win32-vc8-release-dynamic:stream_info.obj
 0002:00004c40       _digitmap                  0045cc40     pjmedia-i386-win32-vc8-release-dynamic:stream.obj
 0002:000051d0       _STR_RTCP_MUX              0045d1d0     pjmedia-i386-win32-vc8-release-dynamic:transport_udp.obj
 0002:00005798       _err_str                   0045d798     pjmedia-i386-win32-vc8-release-dynamic:errno.obj
 0002:0000fc90       _ID_RTP_AVP                00467c90     pjmedia-i386-win32-vc8-release-dynamic:transport_srtp.obj
 0002:0000fc98       _ID_RTP_SAVP               00467c98     pjmedia-i386-win32-vc8-release-dynamic:transport_srtp.obj
 0002:0000fca0       _ID_CRYPTO                 00467ca0     pjmedia-i386-win32-vc8-release-dynamic:transport_srtp.obj
 0002:00010650       _err_str                   00468650     pjlib-util-i386-win32-vc8-release-dynamic:errno.obj
 0002:000119e8       _base64_char               004699e8     pjlib-util-i386-win32-vc8-release-dynamic:base64.obj
 0002:00011ae0       _err_str                   00469ae0     pjlib-i386-win32-vc8-release-dynamic:errno.obj
 0002:00012488       _gaErrorList               0046a488     pjlib-i386-win32-vc8-release-dynamic:os_error_win32.obj
 0002:00012e44       _qos_map                   0046ae44     pjlib-i386-win32-vc8-release-dynamic:sock_qos_common.obj
 0002:00013220       ?table@?1??hypergeom_gain@@9@9 0046b220     libspeex-i386-win32-vc8-release-dynamic:preprocess.obj
 0002:00013bb8       _srtp_null_cipher_description 0046bbb8     libsrtp-i386-win32-vc8-release-dynamic:null_cipher.obj
 0002:00013bc4       _srtp_null_cipher_test_0   0046bbc4     libsrtp-i386-win32-vc8-release-dynamic:null_cipher.obj
 0002:00013c7c       _srtp_aes_icm_128_description 0046bc7c     libsrtp-i386-win32-vc8-release-dynamic:aes_icm.obj
 0002:00013c9c       _srtp_aes_icm_256_description 0046bc9c     libsrtp-i386-win32-vc8-release-dynamic:aes_icm.obj
 0002:00013cbc       _srtp_aes_icm_128_test_case_0_key 0046bcbc     libsrtp-i386-win32-vc8-release-dynamic:aes_icm.obj
 0002:00013cdc       _srtp_aes_icm_128_test_case_0_plaintext 0046bcdc     libsrtp-i386-win32-vc8-release-dynamic:aes_icm.obj
 0002:00013cfc       _srtp_aes_icm_128_test_case_0_ciphertext 0046bcfc     libsrtp-i386-win32-vc8-release-dynamic:aes_icm.obj
 0002:00013d1c       _srtp_aes_icm_128_test_case_0 0046bd1c     libsrtp-i386-win32-vc8-release-dynamic:aes_icm.obj
 0002:00013d48       _srtp_aes_icm_256_test_case_0_key 0046bd48     libsrtp-i386-win32-vc8-release-dynamic:aes_icm.obj
 0002:00013d78       _srtp_aes_icm_256_test_case_0_plaintext 0046bd78     libsrtp-i386-win32-vc8-release-dynamic:aes_icm.obj
 0002:00013d98       _srtp_aes_icm_256_test_case_0_ciphertext 0046bd98     libsrtp-i386-win32-vc8-release-dynamic:aes_icm.obj
 0002:00013db8       _srtp_aes_icm_256_test_case_0 0046bdb8     libsrtp-i386-win32-vc8-release-dynamic:aes_icm.obj
 0002:00013ed0       _srtp_null_auth_test_case_0 0046bed0     libsrtp-i386-win32-vc8-release-dynamic:null_auth.obj
 0002:00013eec       _srtp_null_auth_description 0046beec     libsrtp-i386-win32-vc8-release-dynamic:null_auth.obj
 0002:00013f88       _srtp_hmac_test_case_0_key 0046bf88     libsrtp-i386-win32-vc8-release-dynamic:hmac.obj
 0002:00013f9c       _srtp_hmac_test_case_0_data 0046bf9c     libsrtp-i386-win32-vc8-release-dynamic:hmac.obj
 0002:00013fa4       _srtp_hmac_test_case_0_tag 0046bfa4     libsrtp-i386-win32-vc8-release-dynamic:hmac.obj
 0002:00013fb8       _srtp_hmac_test_case_0     0046bfb8     libsrtp-i386-win32-vc8-release-dynamic:hmac.obj
 0002:00013fd4       _srtp_hmac_description     0046bfd4     libsrtp-i386-win32-vc8-release-dynamic:hmac.obj
 0002:00014040       _T0                        0046c040     libsrtp-i386-win32-vc8-release-dynamic:aes.obj
 0002:00014440       _T1                        0046c440     libsrtp-i386-win32-vc8-release-dynamic:aes.obj
 0002:00014840       _T2                        0046c840     libsrtp-i386-win32-vc8-release-dynamic:aes.obj
 0002:00014c40       _T3                        0046cc40     libsrtp-i386-win32-vc8-release-dynamic:aes.obj
 0002:00015040       _U0                        0046d040     libsrtp-i386-win32-vc8-release-dynamic:aes.obj
 0002:00015440       _U1                        0046d440     libsrtp-i386-win32-vc8-release-dynamic:aes.obj
 0002:00015840       _U2                        0046d840     libsrtp-i386-win32-vc8-release-dynamic:aes.obj
 0002:00015c40       _U3                        0046dc40     libsrtp-i386-win32-vc8-release-dynamic:aes.obj
 0002:00016040       _aes_sbox                  0046e040     libsrtp-i386-win32-vc8-release-dynamic:aes.obj
 0002:00016140       _aes_inv_sbox              0046e140     libsrtp-i386-win32-vc8-release-dynamic:aes.obj
 0002:000162f0       _GS_ExceptionPointers      0046e2f0     MSVCRT:gs_report.obj
 0002:00016300       _Int32ToUInt32             0046e300     MSVCRT:ftol3.obj
 0002:00016308       _DP2to32                   0046e308     MSVCRT:ftol3.obj
 0002:00016310       _MantissaMask              0046e310     MSVCRT:ftol3.obj
 0002:00016318       _IntegerBit                0046e318     MSVCRT:ftol3.obj
 0002:00016320       _SignBit64                 0046e320     MSVCRT:ftol3.obj
 0002:00016328       _MinFP64                   0046e328     MSVCRT:ftol3.obj
 0002:00016330       _MinInt64                  0046e330     MSVCRT:ftol3.obj
 0002:00016338       _MaxInt64                  0046e338     MSVCRT:ftol3.obj
 0002:00016340       _MaxUInt64                 0046e340     MSVCRT:ftol3.obj
 0002:00016348       _MaxFP32                   0046e348     MSVCRT:ftol3.obj
 0002:00016350       _MinFP32                   0046e350     MSVCRT:ftol3.obj
 0002:00016358       _MinSubInexact             0046e358     MSVCRT:ftol3.obj
 0002:00016360       _FpExcptTable              0046e360     MSVCRT:ftol3.obj
 0002:00016370       _i1075                     0046e370     MSVCRT:ftol3.obj
 0002:00016374       _i1087                     0046e374     MSVCRT:ftol3.obj
 0002:00016378       _x0800                     0046e378     MSVCRT:ftol3.obj
 0002:0001637c       _x17FF                     0046e37c     MSVCRT:ftol3.obj
 0002:00016380       _CWMask                    0046e380     MSVCRT:ftol3.obj
 0002:000166a0       __sehtable$?__scrt_common_main_seh@@YAHXZ 0046e6a0     MSVCRT:exe_main.obj
 0002:000166c0       __sehtable$___scrt_is_nonwritable_in_current_image 0046e6c0     MSVCRT:utility.obj
 0002:00016aa0       .idata$6                   0046eaa0     ole32:ole32.dll
 0002:00016af0       .idata$6                   0046eaf0     ws2_32:WS2_32.dll
 0002:00016cbc       .idata$6                   0046ecbc     winmm:WINMM.dll
 0002:0001702c       .idata$6                   0046f02c     kernel32:KERNEL32.dll
 0002:0001709c       .idata$6                   0046f09c     vcruntime:VCRUNTIME140.dll
 0002:00017418       .idata$6                   0046f418     ucrt:api-ms-win-crt-stdio-l1-1-0.dll
 0002:00017438       .idata$6                   0046f438     ucrt:api-ms-win-crt-convert-l1-1-0.dll
 0002:0001745a       .idata$6                   0046f45a     ucrt:api-ms-win-crt-string-l1-1-0.dll
 0002:0001747c       .idata$6                   0046f47c     ucrt:api-ms-win-crt-math-l1-1-0.dll
 0002:0001749c       .idata$6                   0046f49c     ucrt:api-ms-win-crt-heap-l1-1-0.dll
 0002:000174bc       .idata$6                   0046f4bc     ucrt:api-ms-win-crt-utility-l1-1-0.dll
 0002:000174de       .idata$6                   0046f4de     ucrt:api-ms-win-crt-runtime-l1-1-0.dll
 0002:00017500       .idata$6                   0046f500     ucrt:api-ms-win-crt-locale-l1-1-0.dll
 0003:00000000       $SG30129                   00470000     simpleua.obj
 0003:00000010       $SG30160                   00470010     simpleua.obj
 0003:0000001c       $SG29990                   0047001c     simpleua.obj
 0003:00000030       $SG30038                   00470030     simpleua.obj
 0003:00000034       $SG30040                   00470034     simpleua.obj
 0003:0000003c       $SG30042                   0047003c     simpleua.obj
 0003:00000044       $SG30044                   00470044     simpleua.obj
 0003:0000004c       $SG30046                   0047004c     simpleua.obj
 0003:00000050       $SG30047                   00470050     simpleua.obj
 0003:0000005c       $SG30051                   0047005c     simpleua.obj
 0003:00000080       $SG30055                   00470080     simpleua.obj
 0003:000000a4       $SG30059                   004700a4     simpleua.obj
 0003:000000c4       $SG30063                   004700c4     simpleua.obj
 0003:000000e8       $SG30067                   004700e8     simpleua.obj
 0003:00000110       $SG30070                   00470110     simpleua.obj
 0003:0000012c       $SG30089                   0047012c     simpleua.obj
 0003:0000015c       _mod_simpleua              0047015c     simpleua.obj
 0003:00000198       $SG30139                   00470198     simpleua.obj
 0003:000001c8       $SG30140                   004701c8     simpleua.obj
 0003:000001d4       $SG30150                   004701d4     simpleua.obj
 0003:00000204       $SG30151                   00470204     simpleua.obj
 0003:00000210       _msg_logger                00470210     simpleua.obj
 0003:0000024c       $SG30275                   0047024c     simpleua.obj
 0003:0000026c       $SG30276                   0047026c     simpleua.obj
 0003:00000278       $SG30286                   00470278     simpleua.obj
 0003:0000029c       $SG30287                   0047029c     simpleua.obj
 0003:000002a8       $SG30291                   004702a8     simpleua.obj
 0003:000002cc       $SG30292                   004702cc     simpleua.obj
 0003:000002d8       $SG30293                   004702d8     simpleua.obj
 0003:000002f0       $SG30295                   004702f0     simpleua.obj
 0003:0000030c       $SG30296                   0047030c     simpleua.obj
 0003:00000318       $SG30302                   00470318     simpleua.obj
 0003:0000033c       $SG30303                   0047033c     simpleua.obj
 0003:00000348       $SG30304                   00470348     simpleua.obj
 0003:00000354       $SG30329                   00470354     simpleua.obj
 0003:00000378       $SG30330                   00470378     simpleua.obj
 0003:00000384       $SG30332                   00470384     simpleua.obj
 0003:000003b0       $SG30333                   004703b0     simpleua.obj
 0003:000003bc       $SG30335                   004703bc     simpleua.obj
 0003:000003d8       $SG30336                   004703d8     simpleua.obj
 0003:000003e4       $SG30395                   004703e4     simpleua.obj
 0003:0000040c       $SG30397                   0047040c     simpleua.obj
 0003:00000428       $SG30399                   00470428     simpleua.obj
 0003:00000454       $SG30401                   00470454     simpleua.obj
 0003:00000478       $SG30402                   00470478     simpleua.obj
 0003:00000484       $SG30403                   00470484     simpleua.obj
 0003:0000049c       $SG30425                   0047049c     simpleua.obj
 0003:000004b8       $SG30426                   004704b8     simpleua.obj
 0003:000004c4       $SG30428                   004704c4     simpleua.obj
 0003:000004e8       $SG30429                   004704e8     simpleua.obj
 0003:000004f4       $SG30431                   004704f4     simpleua.obj
 0003:00000514       $SG30432                   00470514     simpleua.obj
 0003:00000520       $SG30434                   00470520     simpleua.obj
 0003:00000540       $SG30435                   00470540     simpleua.obj
 0003:00000550       _inv_state_handler         00470550     pjsip-ua-i386-win32-vc8-release-dynamic:sip_inv.obj
 0003:00000570       _mod_inv                   00470570     pjsip-ua-i386-win32-vc8-release-dynamic:sip_inv.obj
 0003:000005d8       _inv_state_names           004705d8     pjsip-ua-i386-win32-vc8-release-dynamic:sip_inv.obj
 0003:000005f8       _mod_100rel                004705f8     pjsip-ua-i386-win32-vc8-release-dynamic:sip_100rel.obj
 0003:00000638       _se_hdr_vptr               00470638     pjsip-ua-i386-win32-vc8-release-dynamic:sip_timer.obj
 0003:00000644       _min_se_hdr_vptr           00470644     pjsip-ua-i386-win32-vc8-release-dynamic:sip_timer.obj
 0003:00000650       _method_names              00470650     pjsip-core-i386-win32-vc8-release-dynamic:sip_msg.obj
 0003:00000668       _generic_hdr_vptr          00470668     pjsip-core-i386-win32-vc8-release-dynamic:sip_msg.obj
 0003:00000674       _generic_int_hdr_vptr      00470674     pjsip-core-i386-win32-vc8-release-dynamic:sip_msg.obj
 0003:00000680       _generic_array_hdr_vptr    00470680     pjsip-core-i386-win32-vc8-release-dynamic:sip_msg.obj
 0003:0000068c       _clen_hdr_vptr             0047068c     pjsip-core-i386-win32-vc8-release-dynamic:sip_msg.obj
 0003:00000698       _cseq_hdr_vptr             00470698     pjsip-core-i386-win32-vc8-release-dynamic:sip_msg.obj
 0003:000006a4       _contact_hdr_vptr          004706a4     pjsip-core-i386-win32-vc8-release-dynamic:sip_msg.obj
 0003:000006b0       _ctype_hdr_vptr            004706b0     pjsip-core-i386-win32-vc8-release-dynamic:sip_msg.obj
 0003:000006bc       _fromto_hdr_vptr           004706bc     pjsip-core-i386-win32-vc8-release-dynamic:sip_msg.obj
 0003:000006c8       _routing_hdr_vptr          004706c8     pjsip-core-i386-win32-vc8-release-dynamic:sip_msg.obj
 0003:000006d4       _retry_after_hdr_vptr      004706d4     pjsip-core-i386-win32-vc8-release-dynamic:sip_msg.obj
 0003:000006e0       _via_hdr_vptr              004706e0     pjsip-core-i386-win32-vc8-release-dynamic:sip_msg.obj
 0003:000006f0       _mod_msg_print             004706f0     pjsip-core-i386-win32-vc8-release-dynamic:sip_transport.obj
 0003:00000730       _transport_names           00470730     pjsip-core-i386-win32-vc8-release-dynamic:sip_transport.obj
 0003:000009b0       _event_str                 004709b0     pjsip-core-i386-win32-vc8-release-dynamic:sip_util.obj
 0003:000009cc       _str_TEXT                  004709cc     pjsip-core-i386-win32-vc8-release-dynamic:sip_util.obj
 0003:000009d4       _str_PLAIN                 004709d4     pjsip-core-i386-win32-vc8-release-dynamic:sip_util.obj
 0003:000009e0       _mod_tsx_layer             004709e0     pjsip-core-i386-win32-vc8-release-dynamic:sip_transaction.obj
 0003:00000a2c       _t1_timer_val              00470a2c     pjsip-core-i386-win32-vc8-release-dynamic:sip_transaction.obj
 0003:00000a34       _t2_timer_val              00470a34     pjsip-core-i386-win32-vc8-release-dynamic:sip_transaction.obj
 0003:00000a3c       _t4_timer_val              00470a3c     pjsip-core-i386-win32-vc8-release-dynamic:sip_transaction.obj
 0003:00000a44       _td_timer_val              00470a44     pjsip-core-i386-win32-vc8-release-dynamic:sip_transaction.obj
 0003:00000a4c       _timeout_timer_val         00470a4c     pjsip-core-i386-win32-vc8-release-dynamic:sip_transaction.obj
 0003:00000a54       _state_str                 00470a54     pjsip-core-i386-win32-vc8-release-dynamic:sip_transaction.obj
 0003:00000a74       _role_name                 00470a74     pjsip-core-i386-win32-vc8-release-dynamic:sip_transaction.obj
 0003:00000a7c       _tsx_state_handler_uac     00470a7c     pjsip-core-i386-win32-vc8-release-dynamic:sip_transaction.obj
 0003:00000a9c       _tsx_state_handler_uas     00470a9c     pjsip-core-i386-win32-vc8-release-dynamic:sip_transaction.obj
 0003:00000ac0       _mod_ua                    00470ac0     pjsip-core-i386-win32-vc8-release-dynamic:sip_ua_layer.obj
 0003:00000b40       _pconst                    00470b40     pjsip-core-i386-win32-vc8-release-dynamic:sip_parser.obj
 0003:00000ccc       _sip_str                   00470ccc     pjsip-core-i386-win32-vc8-release-dynamic:sip_uri.obj
 0003:00000cd4       _sips_str                  00470cd4     pjsip-core-i386-win32-vc8-release-dynamic:sip_uri.obj
 0003:00000cdc       _sips_url_vptr             00470cdc     pjsip-core-i386-win32-vc8-release-dynamic:sip_uri.obj
 0003:00000cf0       _sip_url_vptr              00470cf0     pjsip-core-i386-win32-vc8-release-dynamic:sip_uri.obj
 0003:00000d04       _name_addr_vptr            00470d04     pjsip-core-i386-win32-vc8-release-dynamic:sip_uri.obj
 0003:00000d18       _other_uri_vptr            00470d18     pjsip-core-i386-win32-vc8-release-dynamic:sip_uri.obj
 0003:00000d2c       _pjsip_ISUB_STR            00470d2c     pjsip-core-i386-win32-vc8-release-dynamic:sip_tel_uri.obj
 0003:00000d34       _pjsip_EXT_STR             00470d34     pjsip-core-i386-win32-vc8-release-dynamic:sip_tel_uri.obj
 0003:00000d3c       _pjsip_PH_CTX_STR          00470d3c     pjsip-core-i386-win32-vc8-release-dynamic:sip_tel_uri.obj
 0003:00000d44       _tel_uri_vptr              00470d44     pjsip-core-i386-win32-vc8-release-dynamic:sip_tel_uri.obj
 0003:00000d94       _authorization_hdr_vptr    00470d94     pjsip-core-i386-win32-vc8-release-dynamic:sip_auth_msg.obj
 0003:00000da0       _www_authenticate_hdr_vptr 00470da0     pjsip-core-i386-win32-vc8-release-dynamic:sip_auth_msg.obj
 0003:00000dac       _stream_op                 00470dac     pjmedia-audiodev-i386-win32-vc8-release-dynamic:wmme_dev.obj
 0003:00000dc4       _factory_op                00470dc4     pjmedia-audiodev-i386-win32-vc8-release-dynamic:wmme_dev.obj
 0003:00000de8       _g711_op                   00470de8     pjmedia-i386-win32-vc8-release-dynamic:g711.obj
 0003:00000e08       _g711_factory_op           00470e08     pjmedia-i386-win32-vc8-release-dynamic:g711.obj
 0003:00000e20       _state_str                 00470e20     pjmedia-i386-win32-vc8-release-dynamic:sdp_neg.obj
 0003:00000e34       _transport_udp_op          00470e34     pjmedia-i386-win32-vc8-release-dynamic:transport_udp.obj
 0003:00000e68       _cap_infos                 00470e68     pjmedia-i386-win32-vc8-release-dynamic:audiodev.obj
 0003:00000ed8       _plc_wsola                 00470ed8     pjmedia-i386-win32-vc8-release-dynamic:plc_common.obj
 0003:00000ee4       _echo_supp_op              00470ee4     pjmedia-i386-win32-vc8-release-dynamic:echo_common.obj
 0003:00000f00       _speex_aec_op              00470f00     pjmedia-i386-win32-vc8-release-dynamic:echo_common.obj
 0003:00000f38       _crypto_suites             00470f38     pjmedia-i386-win32-vc8-release-dynamic:transport_srtp.obj
 0003:00001014       _transport_srtp_op         00471014     pjmedia-i386-win32-vc8-release-dynamic:transport_srtp.obj
 0003:00001048       ?liberr@?1??get_libsrtp_errstr@@9@9 00471048     pjmedia-i386-win32-vc8-release-dynamic:transport_srtp.obj
 0003:000010ac       _sdes_op                   004710ac     pjmedia-i386-win32-vc8-release-dynamic:transport_srtp.obj
 0003:000010e8       _state_names               004710e8     pjlib-util-i386-win32-vc8-release-dynamic:resolver.obj
 0003:000010f4       _thread_tls_id             004710f4     pjlib-i386-win32-vc8-release-dynamic:os_core_win32.obj
 0003:000010f8       _pool_sizes                004710f8     pjlib-i386-win32-vc8-release-dynamic:pool_caching.obj
 0003:00001138       _pj_log_max_level          00471138     pjlib-i386-win32-vc8-release-dynamic:log.obj
 0003:0000113c       _thread_suspended_tls_id   0047113c     pjlib-i386-win32-vc8-release-dynamic:log.obj
 0003:00001140       _thread_indent_tls_id      00471140     pjlib-i386-win32-vc8-release-dynamic:log.obj
 0003:00001144       _log_writer                00471144     pjlib-i386-win32-vc8-release-dynamic:log.obj
 0003:00001148       _log_decor                 00471148     pjlib-i386-win32-vc8-release-dynamic:log.obj
 0003:0000114c       _PJ_LOG_COLOR_0            0047114c     pjlib-i386-win32-vc8-release-dynamic:log.obj
 0003:00001150       _PJ_LOG_COLOR_1            00471150     pjlib-i386-win32-vc8-release-dynamic:log.obj
 0003:00001154       _PJ_LOG_COLOR_2            00471154     pjlib-i386-win32-vc8-release-dynamic:log.obj
 0003:00001158       _PJ_LOG_COLOR_3            00471158     pjlib-i386-win32-vc8-release-dynamic:log.obj
 0003:0000115c       _PJ_LOG_COLOR_4            0047115c     pjlib-i386-win32-vc8-release-dynamic:log.obj
 0003:00001160       _PJ_LOG_COLOR_5            00471160     pjlib-i386-win32-vc8-release-dynamic:log.obj
 0003:00001164       _PJ_LOG_COLOR_6            00471164     pjlib-i386-win32-vc8-release-dynamic:log.obj
 0003:00001168       _PJ_LOG_COLOR_77           00471168     pjlib-i386-win32-vc8-release-dynamic:log.obj
 0003:0000116c       ?ltexts@?2??pj_log@@9@9    0047116c     pjlib-i386-win32-vc8-release-dynamic:log.obj
 0003:00001188       ?wdays@?3??pj_log@@9@9     00471188     pjlib-i386-win32-vc8-release-dynamic:log.obj
 0003:000011b4       _mutex_lock_template       004711b4     pjlib-i386-win32-vc8-release-dynamic:lock.obj
 0003:000011c8       _null_lock_template        004711c8     pjlib-i386-win32-vc8-release-dynamic:lock.obj
 0003:000011dc       _sem_lock_template         004711dc     pjlib-i386-win32-vc8-release-dynamic:lock.obj
 0003:000011f0       _thread_local_id           004711f0     pjlib-i386-win32-vc8-release-dynamic:except.obj
 0003:000011f4       ?hex@?1??hex2digit@@9@9    004711f4     pjlib-i386-win32-vc8-release-dynamic:guid_win32.obj
 0003:00001204       _tls                       00471204     pjlib-i386-win32-vc8-release-dynamic:pool_buf.obj
 0003:0000120c       _id                        0047120c     pjlib-i386-win32-vc8-release-dynamic:config.obj
 0003:00001210       ?ntryh@?1??drfti1@@9@9     00471210     libspeex-i386-win32-vc8-release-dynamic:smallft.obj
 0003:00001220       ?tpi@?1??drfti1@@9@9       00471220     libspeex-i386-win32-vc8-release-dynamic:smallft.obj
 0003:00001224       ?hsqt2@?1??dradf4@@9@9     00471224     libspeex-i386-win32-vc8-release-dynamic:smallft.obj
 0003:00001228       ?tpi@?1??dradfg@@9@9       00471228     libspeex-i386-win32-vc8-release-dynamic:smallft.obj
 0003:0000122c       ?taur@?1??dradb3@@9@9      0047122c     libspeex-i386-win32-vc8-release-dynamic:smallft.obj
 0003:00001230       ?taui@?1??dradb3@@9@9      00471230     libspeex-i386-win32-vc8-release-dynamic:smallft.obj
 0003:00001234       ?sqrt2@?1??dradb4@@9@9     00471234     libspeex-i386-win32-vc8-release-dynamic:smallft.obj
 0003:00001238       ?tpi@?1??dradbg@@9@9       00471238     libspeex-i386-win32-vc8-release-dynamic:smallft.obj
 0003:00001244       _srtp_event_handler        00471244     libsrtp-i386-win32-vc8-release-dynamic:srtp.obj
 0003:000016e0       _g_complete                004716e0     simpleua.obj
 0003:000016e4       _g_endpt                   004716e4     simpleua.obj
 0003:000016e8       _cp                        004716e8     simpleua.obj
 0003:000018ac       _g_med_endpt               004718ac     simpleua.obj
 0003:000018b0       _g_med_tpinfo              004718b0     simpleua.obj
 0003:00001e68       _g_med_transport           00471e68     simpleua.obj
 0003:00001e70       _g_sock_info               00471e70     simpleua.obj
 0003:00001ef0       _g_inv                     00471ef0     simpleua.obj
 0003:00001ef4       _g_med_stream              00471ef4     simpleua.obj
 0003:00001ef8       _g_snd_port                00471ef8     simpleua.obj
 0003:00001efc       _is_initialized            00471efc     pjsip-ua-i386-win32-vc8-release-dynamic:sip_timer.obj
 0003:00001f00       _status_phrase             00471f00     pjsip-core-i386-win32-vc8-release-dynamic:sip_msg.obj
 0003:00003530       ?is_initialized@?1??pjsip_get_status_text@@9@9 00473530     pjsip-core-i386-win32-vc8-release-dynamic:sip_msg.obj
 0003:00003538       _handler                   00473538     pjsip-core-i386-win32-vc8-release-dynamic:sip_parser.obj
 0003:00004bb8       _handler_count             00474bb8     pjsip-core-i386-win32-vc8-release-dynamic:sip_parser.obj
 0003:00004bbc       _parser_is_initialized     00474bbc     pjsip-core-i386-win32-vc8-release-dynamic:sip_parser.obj
 0003:00004bc0       _uri_handler               00474bc0     pjsip-core-i386-win32-vc8-release-dynamic:sip_parser.obj
 0003:00004bf0       _uri_handler_count         00474bf0     pjsip-core-i386-win32-vc8-release-dynamic:sip_parser.obj
 0003:00004bf8       _cis_buf                   00474bf8     pjsip-core-i386-win32-vc8-release-dynamic:sip_parser.obj
 0003:00005000       _pjsip_TEL_NUMBER_SPEC     00475000     pjsip-core-i386-win32-vc8-release-dynamic:sip_tel_uri.obj
 0003:00005008       _pjsip_TEL_EXT_VALUE_SPEC  00475008     pjsip-core-i386-win32-vc8-release-dynamic:sip_tel_uri.obj
 0003:00005010       _pjsip_TEL_PHONE_CONTEXT_SPEC 00475010     pjsip-core-i386-win32-vc8-release-dynamic:sip_tel_uri.obj
 0003:00005018       _pjsip_TEL_URIC_SPEC       00475018     pjsip-core-i386-win32-vc8-release-dynamic:sip_tel_uri.obj
 0003:00005020       _pjsip_TEL_PNAME_SPEC      00475020     pjsip-core-i386-win32-vc8-release-dynamic:sip_tel_uri.obj
 0003:00005028       _pjsip_TEL_PVALUE_SPEC     00475028     pjsip-core-i386-win32-vc8-release-dynamic:sip_tel_uri.obj
 0003:00005030       _cis_buf                   00475030     pjsip-core-i386-win32-vc8-release-dynamic:sip_tel_uri.obj
 0003:00005434       _pjsip_TEL_VISUAL_SEP_SPEC 00475434     pjsip-core-i386-win32-vc8-release-dynamic:sip_tel_uri.obj
 0003:0000543c       _pjsip_TEL_PVALUE_SPEC_ESC 0047543c     pjsip-core-i386-win32-vc8-release-dynamic:sip_tel_uri.obj
 0003:00005444       _pjsip_TEL_PARSING_PVALUE_SPEC 00475444     pjsip-core-i386-win32-vc8-release-dynamic:sip_tel_uri.obj
 0003:0000544c       _pjsip_TEL_PARSING_PVALUE_SPEC_ESC 0047544c     pjsip-core-i386-win32-vc8-release-dynamic:sip_tel_uri.obj
 0003:00005454       ?name@?1??get_fmt_name@@9@9 00475454     pjmedia-audiodev-i386-win32-vc8-release-dynamic:wmme_dev.obj
 0003:0000545c       ?rec_cnt@?1??wmme_dev_thread@@9@9 0047545c     pjmedia-audiodev-i386-win32-vc8-release-dynamic:wmme_dev.obj
 0003:00005460       ?play_cnt@?1??wmme_dev_thread@@9@9 00475460     pjmedia-audiodev-i386-win32-vc8-release-dynamic:wmme_dev.obj
 0003:00005464       _g711_factory              00475464     pjmedia-i386-win32-vc8-release-dynamic:g711.obj
 0003:00005498       _fmt_match_cb_cnt          00475498     pjmedia-i386-win32-vc8-release-dynamic:sdp_neg.obj
 0003:000054a0       _fmt_match_cb              004754a0     pjmedia-i386-win32-vc8-release-dynamic:sdp_neg.obj
 0003:00005500       _zero_frame                00475500     pjmedia-i386-win32-vc8-release-dynamic:stream.obj
 0003:00005c80       _is_initialized            00475c80     pjmedia-i386-win32-vc8-release-dynamic:sdp.obj
 0003:00005c88       _cis_buf                   00475c88     pjmedia-i386-win32-vc8-release-dynamic:sdp.obj
 0003:0000608c       _cs_digit                  0047608c     pjmedia-i386-win32-vc8-release-dynamic:sdp.obj
 0003:00006094       _cs_token                  00476094     pjmedia-i386-win32-vc8-release-dynamic:sdp.obj
 0003:000060a0       _aud_subsys                004760a0     pjmedia-i386-win32-vc8-release-dynamic:audiodev.obj
 0003:00006570       _event_manager_instance    00476570     pjmedia-i386-win32-vc8-release-dynamic:event.obj
 0003:00006578       ?ev_queue@?9??pjmedia_event_publish@@9@9 00476578     pjmedia-i386-win32-vc8-release-dynamic:event.obj
 0003:00006988       ?msg@?3??get_libsrtp_errstr@@9@9 00476988     pjmedia-i386-win32-vc8-release-dynamic:transport_srtp.obj
 0003:000069a8       _libsrtp_initialized       004769a8     pjmedia-i386-win32-vc8-release-dynamic:transport_srtp.obj
 0003:000069b0       ___getopt_initialized      004769b0     pjlib-util-i386-win32-vc8-release-dynamic:getopt.obj
 0003:000069b4       _nextchar                  004769b4     pjlib-util-i386-win32-vc8-release-dynamic:getopt.obj
 0003:000069b8       _ordering                  004769b8     pjlib-util-i386-win32-vc8-release-dynamic:getopt.obj
 0003:000069bc       _posixly_correct           004769bc     pjlib-util-i386-win32-vc8-release-dynamic:getopt.obj
 0003:000069c0       _first_nonopt              004769c0     pjlib-util-i386-win32-vc8-release-dynamic:getopt.obj
 0003:000069c4       _last_nonopt               004769c4     pjlib-util-i386-win32-vc8-release-dynamic:getopt.obj
 0003:000069c8       _initialized               004769c8     pjlib-i386-win32-vc8-release-dynamic:os_core_win32.obj
 0003:000069cc       _atexit_count              004769cc     pjlib-i386-win32-vc8-release-dynamic:os_core_win32.obj
 0003:000069d0       _main_thread               004769d0     pjlib-i386-win32-vc8-release-dynamic:os_core_win32.obj
 0003:00006ad0       _critical_section_mutex    00476ad0     pjlib-i386-win32-vc8-release-dynamic:os_core_win32.obj
 0003:00006b08       _atexit_func               00476b08     pjlib-i386-win32-vc8-release-dynamic:os_core_win32.obj
 0003:00006b88       _err_msg_hnd_cnt           00476b88     pjlib-i386-win32-vc8-release-dynamic:errno.obj
 0003:00006b90       _err_msg_hnd               00476b90     pjlib-i386-win32-vc8-release-dynamic:errno.obj
 0003:00006c08       ?buf@?1??pj_gethostname@@9@9 00476c08     pjlib-i386-win32-vc8-release-dynamic:sock_bsd.obj
 0003:00006c88       ?hostname@?1??pj_gethostname@@9@9 00476c88     pjlib-i386-win32-vc8-release-dynamic:sock_bsd.obj
 0003:00006c90       _g_last_thread             00476c90     pjlib-i386-win32-vc8-release-dynamic:log.obj
 0003:00006c98       _base_time                 00476c98     pjlib-i386-win32-vc8-release-dynamic:os_time_win32.obj
 0003:00006ca0       _exception_id_names        00476ca0     pjlib-i386-win32-vc8-release-dynamic:except.obj
 0003:00006ce0       ?unknown_name@?1??pj_exception_id_name@@9@9 00476ce0     pjlib-i386-win32-vc8-release-dynamic:except.obj
 0003:00006d00       _stack_based_factory       00476d00     pjlib-i386-win32-vc8-release-dynamic:pool_buf.obj
 0003:00006d24       _is_initialized            00476d24     pjlib-i386-win32-vc8-release-dynamic:pool_buf.obj
 0003:00006d28       _s_hDLL                    00476d28     pjlib-i386-win32-vc8-release-dynamic:ip_helper_win32.obj
 0003:00006d2c       _s_pfnGetIpAddrTable       00476d2c     pjlib-i386-win32-vc8-release-dynamic:ip_helper_win32.obj
 0003:00006d30       _s_pfnGetAdapterAddresses  00476d30     pjlib-i386-win32-vc8-release-dynamic:ip_helper_win32.obj
 0003:00006d34       _s_pfnGetIpForwardTable    00476d34     pjlib-i386-win32-vc8-release-dynamic:ip_helper_win32.obj
 0003:00006d38       _s_pfnGetIfEntry           00476d38     pjlib-i386-win32-vc8-release-dynamic:ip_helper_win32.obj
 0003:00006d3c       _srtp_log_handler          00476d3c     libsrtp-i386-win32-vc8-release-dynamic:srtp.obj
 0003:00006d40       _srtp_log_handler_data     00476d40     libsrtp-i386-win32-vc8-release-dynamic:srtp.obj
 0003:00006d58       _srtp_aes_icm_128_test_case_0_nonce 00476d58     libsrtp-i386-win32-vc8-release-dynamic:aes_icm.obj
 0003:00006d68       _srtp_aes_icm_256_test_case_0_nonce 00476d68     libsrtp-i386-win32-vc8-release-dynamic:aes_icm.obj
 0003:00006d78       _GS_ExceptionRecord        00476d78     MSVCRT:gs_report.obj
 0003:00006dc8       _GS_ContextRecord          00476dc8     MSVCRT:gs_report.obj
 0003:000070a4       ?is_initialized_as_dll@@3_NA 004770a4     MSVCRT:utility.obj
 0003:000070a5       ?module_local_atexit_table_initialized@@3_NA 004770a5     MSVCRT:utility.obj
 0003:000070a8       ?module_local_atexit_table@@3U_onexit_table_t@@A 004770a8     MSVCRT:utility.obj
 0003:000070b4       ?module_local_at_quick_exit_table@@3U_onexit_table_t@@A 004770b4     MSVCRT:utility.obj
 0004:00000000       _static_const_table        00478000     MSVCRT:svml_dcos2_sse2.obj
 0004:00000200       __e02PI                    00478200     MSVCRT:svml_dtrig.obj
 0004:000003a0       __e04PI                    004783a0     MSVCRT:svml_dtrig.obj
 0004:00000530       _2il0floatpacket_2         00478530     MSVCRT:svml_dtrig.obj
 0004:00000540       _2il0floatpacket_9         00478540     MSVCRT:svml_dtrig.obj
 0004:00000550       _2il0floatpacket_12        00478550     MSVCRT:svml_dtrig.obj
 0004:00000560       __dPI02                    00478560     MSVCRT:svml_dtrig.obj
 0004:00000570       __d02PI                    00478570     MSVCRT:svml_dtrig.obj
 0004:00000580       __DP4                      00478580     MSVCRT:svml_dtrig.obj
 0004:000005a0       __dPI04                    004785a0     MSVCRT:svml_dtrig.obj
 0004:000005b0       __d04PI                    004785b0     MSVCRT:svml_dtrig.obj
 0004:000005c0       __QP4                      004785c0     MSVCRT:svml_dtrig.obj
