 sipstateless

 Timestamp is 5ce476f8 (Wed May 22 07:08:56 2019)

 Preferred load address is 00400000

 Start         Length     Name                   Class
 0001:00000000 0002186cH .text$mn                CODE
 0002:00000000 00000208H .idata$5                DATA
 0002:00000208 00000004H .00cfg                  DATA
 0002:0000020c 00000004H .CRT$XCA                DATA
 0002:00000210 00000004H .CRT$XCAA               DATA
 0002:00000214 00000004H .CRT$XCZ                DATA
 0002:00000218 00000004H .CRT$XIA                DATA
 0002:0000021c 00000004H .CRT$XIAA               DATA
 0002:00000220 00000004H .CRT$XIAC               DATA
 0002:00000224 00000004H .CRT$XIZ                DATA
 0002:00000228 00000004H .CRT$XPA                DATA
 0002:0000022c 00000004H .CRT$XPZ                DATA
 0002:00000230 00000004H .CRT$XTA                DATA
 0002:00000234 0000000cH .CRT$XTZ                DATA
 0002:00000238 00000000H .gfids$y                DATA
 0002:00000240 00005da0H .rdata                  DATA
 0002:00005fe0 00000004H .rdata$sxdata           DATA
 0002:00005fe4 0000022cH .rdata$zzzdbg           DATA
 0002:00006210 00000004H .rtc$IAA                DATA
 0002:00006214 00000004H .rtc$IZZ                DATA
 0002:00006218 00000004H .rtc$TAA                DATA
 0002:0000621c 00000004H .rtc$TZZ                DATA
 0002:00006220 0000003cH .xdata$x                DATA
 0002:0000625c 00000000H .edata                  DATA
 0002:0000625c 000000f0H .idata$2                DATA
 0002:0000634c 00000014H .idata$3                DATA
 0002:00006360 00000208H .idata$4                DATA
 0002:00006568 000007aaH .idata$6                DATA
 0003:00000000 00000b20H .data                   DATA
 0003:00000b20 00003c94H .bss                    DATA

  Address         Publics by Value              Rva+Base       Lib:Object

 0000:00000000       ___hybrid_auxiliary_iat    00000000     <absolute>
 0000:00000000       ___dynamic_value_reloc_table 00000000     <absolute>
 0000:00000000       ___guard_iat_table         00000000     <absolute>
 0000:00000000       ___hybrid_code_map_count   00000000     <absolute>
 0000:00000000       ___volatile_metadata       00000000     <absolute>
 0000:00000000       ___guard_longjmp_table     00000000     <absolute>
 0000:00000000       ___guard_fids_table        00000000     <absolute>
 0000:00000000       ___guard_fids_count        00000000     <absolute>
 0000:00000000       ___guard_longjmp_count     00000000     <absolute>
 0000:00000000       ___enclave_config          00000000     <absolute>
 0000:00000000       ___guard_iat_count         00000000     <absolute>
 0000:00000000       ___hybrid_code_map         00000000     <absolute>
 0000:00000001       ___safe_se_handler_count   00000001     <absolute>
 0000:00000100       ___guard_flags             00000100     <absolute>
 0000:00000000       ___ImageBase               00400000     <linker-defined>
 0001:000000b0       _main                      004010b0 f   sipstateless.obj
 0001:00001780       ___local_stdio_printf_options 00402780 f i pjsip-core-i386-win32-vc8-release:sip_msg.obj
 0001:00001cb0       _pjsip_accept_hdr_create   00402cb0 f   pjsip-core-i386-win32-vc8-release:sip_msg.obj
 0001:00001d00       _pjsip_allow_hdr_create    00402d00 f   pjsip-core-i386-win32-vc8-release:sip_msg.obj
 0001:00001d50       _pjsip_cid_hdr_create      00402d50 f   pjsip-core-i386-win32-vc8-release:sip_msg.obj
 0001:00001dc0       _pjsip_clen_hdr_create     00402dc0 f   pjsip-core-i386-win32-vc8-release:sip_msg.obj
 0001:00001e20       _pjsip_clone_text_data     00402e20 f   pjsip-core-i386-win32-vc8-release:sip_msg.obj
 0001:00001e60       _pjsip_contact_hdr_create  00402e60 f   pjsip-core-i386-win32-vc8-release:sip_msg.obj
 0001:00001ee0       _pjsip_cseq_hdr_create     00402ee0 f   pjsip-core-i386-win32-vc8-release:sip_msg.obj
 0001:00001f40       _pjsip_ctype_hdr_create    00402f40 f   pjsip-core-i386-win32-vc8-release:sip_msg.obj
 0001:00001fb0       _pjsip_expires_hdr_create  00402fb0 f   pjsip-core-i386-win32-vc8-release:sip_msg.obj
 0001:00002000       _pjsip_from_hdr_create     00403000 f   pjsip-core-i386-win32-vc8-release:sip_msg.obj
 0001:000020d0       _pjsip_fromto_hdr_set_from 004030d0 f   pjsip-core-i386-win32-vc8-release:sip_msg.obj
 0001:00002100       _pjsip_fromto_hdr_set_to   00403100 f   pjsip-core-i386-win32-vc8-release:sip_msg.obj
 0001:00002130       _pjsip_generic_string_hdr_create 00403130 f   pjsip-core-i386-win32-vc8-release:sip_msg.obj
 0001:000021c0       _pjsip_get_ack_method      004031c0 f   pjsip-core-i386-win32-vc8-release:sip_msg.obj
 0001:000021d0       _pjsip_get_status_text     004031d0 f   pjsip-core-i386-win32-vc8-release:sip_msg.obj
 0001:00002210       _pjsip_hdr_clone           00403210 f   pjsip-core-i386-win32-vc8-release:sip_msg.obj
 0001:00002230       _pjsip_hdr_print_on        00403230 f   pjsip-core-i386-win32-vc8-release:sip_msg.obj
 0001:00002250       _pjsip_hdr_shallow_clone   00403250 f   pjsip-core-i386-win32-vc8-release:sip_msg.obj
 0001:00002270       _pjsip_max_fwd_hdr_create  00403270 f   pjsip-core-i386-win32-vc8-release:sip_msg.obj
 0001:000022c0       _pjsip_media_type_cp       004032c0 f   pjsip-core-i386-win32-vc8-release:sip_msg.obj
 0001:00002310       _pjsip_media_type_init     00403310 f   pjsip-core-i386-win32-vc8-release:sip_msg.obj
 0001:00002360       _pjsip_media_type_print    00403360 f   pjsip-core-i386-win32-vc8-release:sip_msg.obj
 0001:00002370       _pjsip_method_copy         00403370 f   pjsip-core-i386-win32-vc8-release:sip_msg.obj
 0001:000023b0       _pjsip_method_init_np      004033b0 f   pjsip-core-i386-win32-vc8-release:sip_msg.obj
 0001:00002420       _pjsip_min_expires_hdr_create 00403420 f   pjsip-core-i386-win32-vc8-release:sip_msg.obj
 0001:00002470       _pjsip_msg_body_clone      00403470 f   pjsip-core-i386-win32-vc8-release:sip_msg.obj
 0001:00002510       _pjsip_msg_create          00403510 f   pjsip-core-i386-win32-vc8-release:sip_msg.obj
 0001:00002540       _pjsip_msg_find_hdr        00403540 f   pjsip-core-i386-win32-vc8-release:sip_msg.obj
 0001:00002570       _pjsip_msg_print           00403570 f   pjsip-core-i386-win32-vc8-release:sip_msg.obj
 0001:00002890       _pjsip_print_text_body     00403890 f   pjsip-core-i386-win32-vc8-release:sip_msg.obj
 0001:000028c0       _pjsip_require_hdr_create  004038c0 f   pjsip-core-i386-win32-vc8-release:sip_msg.obj
 0001:00002910       _pjsip_retry_after_hdr_create 00403910 f   pjsip-core-i386-win32-vc8-release:sip_msg.obj
 0001:00002970       _pjsip_route_hdr_create    00403970 f   pjsip-core-i386-win32-vc8-release:sip_msg.obj
 0001:000029d0       _pjsip_rr_hdr_create       004039d0 f   pjsip-core-i386-win32-vc8-release:sip_msg.obj
 0001:00002a30       _pjsip_supported_hdr_create 00403a30 f   pjsip-core-i386-win32-vc8-release:sip_msg.obj
 0001:00002aa0       _pjsip_to_hdr_create       00403aa0 f   pjsip-core-i386-win32-vc8-release:sip_msg.obj
 0001:00002b70       _pjsip_unsupported_hdr_create 00403b70 f   pjsip-core-i386-win32-vc8-release:sip_msg.obj
 0001:00002bc0       _pjsip_via_hdr_create      00403bc0 f   pjsip-core-i386-win32-vc8-release:sip_msg.obj
 0001:00002cb0       __snprintf                 00403cb0 f i pjsip-core-i386-win32-vc8-release:sip_endpoint.obj
 0001:00002f90       _pjsip_endpt_acquire_transport2 00403f90 f   pjsip-core-i386-win32-vc8-release:sip_endpoint.obj
 0001:00002fc0       _pjsip_endpt_atexit        00403fc0 f   pjsip-core-i386-win32-vc8-release:sip_endpoint.obj
 0001:00003020       _pjsip_endpt_cancel_timer  00404020 f   pjsip-core-i386-win32-vc8-release:sip_endpoint.obj
 0001:00003040       _pjsip_endpt_create        00404040 f   pjsip-core-i386-win32-vc8-release:sip_endpoint.obj
 0001:00003300       _pjsip_endpt_create_pool   00404300 f   pjsip-core-i386-win32-vc8-release:sip_endpoint.obj
 0001:00003350       _pjsip_endpt_create_tdata  00404350 f   pjsip-core-i386-win32-vc8-release:sip_endpoint.obj
 0001:00003370       _pjsip_endpt_get_ioqueue   00404370 f   pjsip-core-i386-win32-vc8-release:sip_endpoint.obj
 0001:00003380       _pjsip_endpt_get_request_headers 00404380 f   pjsip-core-i386-win32-vc8-release:sip_endpoint.obj
 0001:00003390       _pjsip_endpt_get_timer_heap 00404390 f   pjsip-core-i386-win32-vc8-release:sip_endpoint.obj
 0001:000033a0       _pjsip_endpt_get_tpmgr     004043a0 f   pjsip-core-i386-win32-vc8-release:sip_endpoint.obj
 0001:000033b0       _pjsip_endpt_handle_events 004043b0 f   pjsip-core-i386-win32-vc8-release:sip_endpoint.obj
 0001:00003480       _pjsip_endpt_log_error     00404480 f   pjsip-core-i386-win32-vc8-release:sip_endpoint.obj
 0001:00003560       _pjsip_endpt_process_rx_data 00404560 f   pjsip-core-i386-win32-vc8-release:sip_endpoint.obj
 0001:000036f0       _pjsip_endpt_register_module 004046f0 f   pjsip-core-i386-win32-vc8-release:sip_endpoint.obj
 0001:00003810       _pjsip_endpt_release_pool  00404810 f   pjsip-core-i386-win32-vc8-release:sip_endpoint.obj
 0001:00003830       _pjsip_endpt_resolve       00404830 f   pjsip-core-i386-win32-vc8-release:sip_endpoint.obj
 0001:00003850       _pjsip_endpt_schedule_timer 00404850 f   pjsip-core-i386-win32-vc8-release:sip_endpoint.obj
 0001:00003870       _pjsip_endpt_unregister_module 00404870 f   pjsip-core-i386-win32-vc8-release:sip_endpoint.obj
 0001:00003b90       _pjsip_endpt_create_ack    00404b90 f   pjsip-core-i386-win32-vc8-release:sip_util.obj
 0001:00003d40       _pjsip_endpt_create_request_from_hdr 00404d40 f   pjsip-core-i386-win32-vc8-release:sip_util.obj
 0001:00003f60       _pjsip_endpt_create_response 00404f60 f   pjsip-core-i386-win32-vc8-release:sip_util.obj
 0001:000041c0       _pjsip_endpt_respond_stateless 004051c0 f   pjsip-core-i386-win32-vc8-release:sip_util.obj
 0001:00004340       _pjsip_endpt_send_request_stateless 00405340 f   pjsip-core-i386-win32-vc8-release:sip_util.obj
 0001:00004420       _pjsip_endpt_send_response 00405420 f   pjsip-core-i386-win32-vc8-release:sip_util.obj
 0001:00004510       _pjsip_event_str           00405510 f   pjsip-core-i386-win32-vc8-release:sip_util.obj
 0001:00004520       _pjsip_get_dest_info       00405520 f   pjsip-core-i386-win32-vc8-release:sip_util.obj
 0001:000046c0       _pjsip_get_response_addr   004056c0 f   pjsip-core-i386-win32-vc8-release:sip_util.obj
 0001:000047f0       _pjsip_process_route_set   004057f0 f   pjsip-core-i386-win32-vc8-release:sip_util.obj
 0001:00005260       _pjsip_udp_transport_start 00406260 f   pjsip-core-i386-win32-vc8-release:sip_transport_udp.obj
 0001:00005320       _pjsip_udp_transport_start2 00406320 f   pjsip-core-i386-win32-vc8-release:sip_transport_udp.obj
 0001:00006bc0       _pjsip_tcp_transport_lis_start 00407bc0 f   pjsip-core-i386-win32-vc8-release:sip_transport_tcp.obj
 0001:00007070       _pjsip_tcp_transport_start 00408070 f   pjsip-core-i386-win32-vc8-release:sip_transport_tcp.obj
 0001:00007140       _pjsip_tcp_transport_start3 00408140 f   pjsip-core-i386-win32-vc8-release:sip_transport_tcp.obj
 0001:00008a50       _pjsip_name_addr_assign    00409a50 f   pjsip-core-i386-win32-vc8-release:sip_uri.obj
 0001:00008a90       _pjsip_name_addr_create    00409a90 f   pjsip-core-i386-win32-vc8-release:sip_uri.obj
 0001:00008ac0       _pjsip_name_addr_init      00409ac0 f   pjsip-core-i386-win32-vc8-release:sip_uri.obj
 0001:00008af0       _pjsip_other_uri_create    00409af0 f   pjsip-core-i386-win32-vc8-release:sip_uri.obj
 0001:00008b10       _pjsip_param_clone         00409b10 f   pjsip-core-i386-win32-vc8-release:sip_uri.obj
 0001:00008b80       _pjsip_param_find          00409b80 f   pjsip-core-i386-win32-vc8-release:sip_uri.obj
 0001:00008bc0       _pjsip_param_print_on      00409bc0 f   pjsip-core-i386-win32-vc8-release:sip_uri.obj
 0001:00008cc0       _pjsip_param_shallow_clone 00409cc0 f   pjsip-core-i386-win32-vc8-release:sip_uri.obj
 0001:00008d20       _pjsip_sip_uri_create      00409d20 f   pjsip-core-i386-win32-vc8-release:sip_uri.obj
 0001:00008d70       _deinit_sip_parser         00409d70 f   pjsip-core-i386-win32-vc8-release:sip_parser.obj
 0001:00009650       _init_sip_parser           0040a650 f   pjsip-core-i386-win32-vc8-release:sip_parser.obj
 0001:0000bd30       _pjsip_find_msg            0040cd30 f   pjsip-core-i386-win32-vc8-release:sip_parser.obj
 0001:0000c050       _pjsip_parse_end_hdr_imp   0040d050 f   pjsip-core-i386-win32-vc8-release:sip_parser.obj
 0001:0000c080       _pjsip_parse_headers       0040d080 f   pjsip-core-i386-win32-vc8-release:sip_parser.obj
 0001:0000c360       _pjsip_parse_param_imp     0040d360 f   pjsip-core-i386-win32-vc8-release:sip_parser.obj
 0001:0000c390       _pjsip_parse_rdata         0040d390 f   pjsip-core-i386-win32-vc8-release:sip_parser.obj
 0001:0000c3f0       _pjsip_parser_const        0040d3f0 f   pjsip-core-i386-win32-vc8-release:sip_parser.obj
 0001:0000c400       _pjsip_register_hdr_parser 0040d400 f   pjsip-core-i386-win32-vc8-release:sip_parser.obj
 0001:0000c4f0       _pjsip_register_uri_parser 0040d4f0 f   pjsip-core-i386-win32-vc8-release:sip_parser.obj
 0001:0000c820       _pjsip_resolve             0040d820 f   pjsip-core-i386-win32-vc8-release:sip_resolve.obj
 0001:0000ced0       _pjsip_resolver_create     0040ded0 f   pjsip-core-i386-win32-vc8-release:sip_resolve.obj
 0001:0000d2e0       _pjsip_rx_data_get_info    0040e2e0 f   pjsip-core-i386-win32-vc8-release:sip_transport.obj
 0001:0000d370       _pjsip_tpmgr_acquire_transport2 0040e370 f   pjsip-core-i386-win32-vc8-release:sip_transport.obj
 0001:0000d660       _pjsip_tpmgr_create        0040e660 f   pjsip-core-i386-win32-vc8-release:sip_transport.obj
 0001:0000d750       _pjsip_tpmgr_destroy       0040e750 f   pjsip-core-i386-win32-vc8-release:sip_transport.obj
 0001:0000d890       _pjsip_tpmgr_get_state_cb  0040e890 f   pjsip-core-i386-win32-vc8-release:sip_transport.obj
 0001:0000d8b0       _pjsip_tpmgr_receive_packet 0040e8b0 f   pjsip-core-i386-win32-vc8-release:sip_transport.obj
 0001:0000dd70       _pjsip_tpmgr_register_tpfactory 0040ed70 f   pjsip-core-i386-win32-vc8-release:sip_transport.obj
 0001:0000de00       _pjsip_tpmgr_unregister_tpfactory 0040ee00 f   pjsip-core-i386-win32-vc8-release:sip_transport.obj
 0001:0000de30       _pjsip_tpselector_dec_ref  0040ee30 f   pjsip-core-i386-win32-vc8-release:sip_transport.obj
 0001:0000de50       _pjsip_transport_add_ref   0040ee50 f   pjsip-core-i386-win32-vc8-release:sip_transport.obj
 0001:0000df20       _pjsip_transport_add_state_listener 0040ef20 f   pjsip-core-i386-win32-vc8-release:sip_transport.obj
 0001:0000dfe0       _pjsip_transport_dec_ref   0040efe0 f   pjsip-core-i386-win32-vc8-release:sip_transport.obj
 0001:0000e0e0       _pjsip_transport_destroy   0040f0e0 f   pjsip-core-i386-win32-vc8-release:sip_transport.obj
 0001:0000e150       _pjsip_transport_get_default_port_for_type 0040f150 f   pjsip-core-i386-win32-vc8-release:sip_transport.obj
 0001:0000e190       _pjsip_transport_get_flag_from_type 0040f190 f   pjsip-core-i386-win32-vc8-release:sip_transport.obj
 0001:0000e1d0       _pjsip_transport_get_type_desc 0040f1d0 f   pjsip-core-i386-win32-vc8-release:sip_transport.obj
 0001:0000e210       _pjsip_transport_get_type_from_flag 0040f210 f   pjsip-core-i386-win32-vc8-release:sip_transport.obj
 0001:0000e250       _pjsip_transport_get_type_from_name 0040f250 f   pjsip-core-i386-win32-vc8-release:sip_transport.obj
 0001:0000e2a0       _pjsip_transport_get_type_name 0040f2a0 f   pjsip-core-i386-win32-vc8-release:sip_transport.obj
 0001:0000e2e0       _pjsip_transport_register  0040f2e0 f   pjsip-core-i386-win32-vc8-release:sip_transport.obj
 0001:0000e3c0       _pjsip_transport_remove_state_listener 0040f3c0 f   pjsip-core-i386-win32-vc8-release:sip_transport.obj
 0001:0000e460       _pjsip_transport_send      0040f460 f   pjsip-core-i386-win32-vc8-release:sip_transport.obj
 0001:0000e5c0       _pjsip_transport_shutdown  0040f5c0 f   pjsip-core-i386-win32-vc8-release:sip_transport.obj
 0001:0000e6b0       _pjsip_transport_type_get_af 0040f6b0 f   pjsip-core-i386-win32-vc8-release:sip_transport.obj
 0001:0000e6d0       _pjsip_tx_data_add_ref     0040f6d0 f   pjsip-core-i386-win32-vc8-release:sip_transport.obj
 0001:0000e6f0       _pjsip_tx_data_create      0040f6f0 f   pjsip-core-i386-win32-vc8-release:sip_transport.obj
 0001:0000e800       _pjsip_tx_data_dec_ref     0040f800 f   pjsip-core-i386-win32-vc8-release:sip_transport.obj
 0001:0000e840       _pjsip_tx_data_encode      0040f840 f   pjsip-core-i386-win32-vc8-release:sip_transport.obj
 0001:0000e930       _pjsip_tx_data_get_info    0040f930 f   pjsip-core-i386-win32-vc8-release:sip_transport.obj
 0001:0000e990       _pjsip_tx_data_invalidate_msg 0040f990 f   pjsip-core-i386-win32-vc8-release:sip_transport.obj
 0001:0000eba0       _pjsip_strerror            0040fba0 f   pjsip-core-i386-win32-vc8-release:sip_errno.obj
 0001:0000f010       _pjsip_tel_nb_cmp          00410010 f   pjsip-core-i386-win32-vc8-release:sip_tel_uri.obj
 0001:0000f130       _pjsip_tel_uri_subsys_init 00410130 f   pjsip-core-i386-win32-vc8-release:sip_tel_uri.obj
 0001:0000f520       ___scrt_initialize_winrt   00410520 f   MSVCRT:utility_desktop.obj
 0001:0000f520       __get_startup_thread_locale_mode 00410520 f   MSVCRT:thread_locale.obj
 0001:0000f520       __get_startup_commit_mode  00410520 f   MSVCRT:commit_mode.obj
 0001:0000f520       ___scrt_stub_for_initialize_mta 00410520 f   MSVCRT:utility_desktop.obj
 0001:0000f520       ___scrt_exe_initialize_mta 00410520 f   MSVCRT:utility_desktop.obj
 0001:0000f520       __get_startup_new_mode     00410520 f   MSVCRT:new_mode.obj
 0001:0000f520       __matherr                  00410520 f   MSVCRT:matherr.obj
 0001:00010da0       _pjsip_rdata_get_tsx       00411da0 f   pjsip-core-i386-win32-vc8-release:sip_transaction.obj
 0001:00010dc0       _pjsip_tsx_create_key      00411dc0 f   pjsip-core-i386-win32-vc8-release:sip_transaction.obj
 0001:00010e30       _pjsip_tsx_recv_msg        00411e30 f   pjsip-core-i386-win32-vc8-release:sip_transaction.obj
 0001:00012230       _pjsip_multipart_parse     00413230 f   pjsip-core-i386-win32-vc8-release:sip_multipart.obj
 0001:00012b10       _pjsip_auth_init_parser    00413b10 f   pjsip-core-i386-win32-vc8-release:sip_auth_parser.obj
 0001:00013100       _pjsip_authorization_hdr_create 00414100 f   pjsip-core-i386-win32-vc8-release:sip_auth_msg.obj
 0001:00013170       _pjsip_proxy_authenticate_hdr_create 00414170 f   pjsip-core-i386-win32-vc8-release:sip_auth_msg.obj
 0001:000131e0       _pjsip_proxy_authorization_hdr_create 004141e0 f   pjsip-core-i386-win32-vc8-release:sip_auth_msg.obj
 0001:00013250       _pjsip_www_authenticate_hdr_create 00414250 f   pjsip-core-i386-win32-vc8-release:sip_auth_msg.obj
 0001:00013a70       _pjlib_util_init           00414a70 f   pjlib-util-i386-win32-vc8-release:errno.obj
 0001:00013a90       _pjlib_util_strerror       00414a90 f   pjlib-util-i386-win32-vc8-release:errno.obj
 0001:00014410       _pj_getopt                 00415410 f   pjlib-util-i386-win32-vc8-release:getopt.obj
 0001:00014430       _pj_str_unescape           00415430 f   pjlib-util-i386-win32-vc8-release:string.obj
 0001:00014510       _pj_strncpy2_escape        00415510 f   pjlib-util-i386-win32-vc8-release:string.obj
 0001:00014860       _pj_dns_parse_addr_response 00415860 f   pjlib-util-i386-win32-vc8-release:resolver.obj
 0001:00014b30       _pj_dns_resolver_cancel_query 00415b30 f   pjlib-util-i386-win32-vc8-release:resolver.obj
 0001:00014bb0       _pj_dns_resolver_start_query 00415bb0 f   pjlib-util-i386-win32-vc8-release:resolver.obj
 0001:00015410       _pj_cis_add_alpha          00416410 f   pjlib-util-i386-win32-vc8-release:scanner.obj
 0001:00015460       _pj_cis_add_cis            00416460 f   pjlib-util-i386-win32-vc8-release:scanner.obj
 0001:000154a0       _pj_cis_add_num            004164a0 f   pjlib-util-i386-win32-vc8-release:scanner.obj
 0001:000154d0       _pj_cis_add_str            004164d0 f   pjlib-util-i386-win32-vc8-release:scanner.obj
 0001:00015500       _pj_cis_buf_init           00416500 f   pjlib-util-i386-win32-vc8-release:scanner.obj
 0001:00015530       _pj_cis_del_str            00416530 f   pjlib-util-i386-win32-vc8-release:scanner.obj
 0001:00015560       _pj_cis_dup                00416560 f   pjlib-util-i386-win32-vc8-release:scanner.obj
 0001:000155f0       _pj_cis_init               004165f0 f   pjlib-util-i386-win32-vc8-release:scanner.obj
 0001:00015640       _pj_cis_invert             00416640 f   pjlib-util-i386-win32-vc8-release:scanner.obj
 0001:00015680       _pj_scan_advance_n         00416680 f   pjlib-util-i386-win32-vc8-release:scanner.obj
 0001:000156c0       _pj_scan_fini              004166c0 f   pjlib-util-i386-win32-vc8-release:scanner.obj
 0001:000156e0       _pj_scan_get               004166e0 f   pjlib-util-i386-win32-vc8-release:scanner.obj
 0001:00015750       _pj_scan_get_char          00416750 f   pjlib-util-i386-win32-vc8-release:scanner.obj
 0001:00015790       _pj_scan_get_n             00416790 f   pjlib-util-i386-win32-vc8-release:scanner.obj
 0001:000157e0       _pj_scan_get_newline       004167e0 f   pjlib-util-i386-win32-vc8-release:scanner.obj
 0001:00015820       _pj_scan_get_quote         00416820 f   pjlib-util-i386-win32-vc8-release:scanner.obj
 0001:000158f0       _pj_scan_get_until_ch      004168f0 f   pjlib-util-i386-win32-vc8-release:scanner.obj
 0001:00015950       _pj_scan_init              00416950 f   pjlib-util-i386-win32-vc8-release:scanner.obj
 0001:000159a0       _pj_scan_peek              004169a0 f   pjlib-util-i386-win32-vc8-release:scanner.obj
 0001:00015a00       _pj_scan_skip_line         00416a00 f   pjlib-util-i386-win32-vc8-release:scanner.obj
 0001:00015a30       _pj_scan_skip_whitespace   00416a30 f   pjlib-util-i386-win32-vc8-release:scanner.obj
 0001:00015b20       _pj_dns_get_type_name      00416b20 f   pjlib-util-i386-win32-vc8-release:dns.obj
 0001:00015bd0       _pj_dns_make_query         00416bd0 f   pjlib-util-i386-win32-vc8-release:dns.obj
 0001:00016b50       _pj_dns_srv_resolve        00417b50 f   pjlib-util-i386-win32-vc8-release:srv_resolver.obj
 0001:00016d70       _pj_atexit                 00417d70 f   pjlib-i386-win32-vc8-release:os_core_win32.obj
 0001:00016da0       _pj_atomic_create          00417da0 f   pjlib-i386-win32-vc8-release:os_core_win32.obj
 0001:00016dd0       _pj_atomic_dec_and_get     00417dd0 f   pjlib-i386-win32-vc8-release:os_core_win32.obj
 0001:00016e20       _pj_atomic_destroy         00417e20 f   pjlib-i386-win32-vc8-release:os_core_win32.obj
 0001:00016e40       _pj_atomic_get             00417e40 f   pjlib-i386-win32-vc8-release:os_core_win32.obj
 0001:00016e90       _pj_atomic_inc             00417e90 f   pjlib-i386-win32-vc8-release:os_core_win32.obj
 0001:00016ee0       _pj_atomic_inc_and_get     00417ee0 f   pjlib-i386-win32-vc8-release:os_core_win32.obj
 0001:00016f30       _pj_atomic_set             00417f30 f   pjlib-i386-win32-vc8-release:os_core_win32.obj
 0001:00016f80       _pj_enter_critical_section 00417f80 f   pjlib-i386-win32-vc8-release:os_core_win32.obj
 0001:00016ff0       _pj_init                   00417ff0 f   pjlib-i386-win32-vc8-release:os_core_win32.obj
 0001:00017200       _pj_leave_critical_section 00418200 f   pjlib-i386-win32-vc8-release:os_core_win32.obj
 0001:00017260       _pj_mutex_create           00418260 f   pjlib-i386-win32-vc8-release:os_core_win32.obj
 0001:000172b0       _pj_mutex_create_recursive 004182b0 f   pjlib-i386-win32-vc8-release:os_core_win32.obj
 0001:000172b0       _pj_mutex_create_simple    004182b0 f   pjlib-i386-win32-vc8-release:os_core_win32.obj
 0001:00017300       _pj_mutex_destroy          00418300 f   pjlib-i386-win32-vc8-release:os_core_win32.obj
 0001:00017370       _pj_mutex_lock             00418370 f   pjlib-i386-win32-vc8-release:os_core_win32.obj
 0001:000173e0       _pj_mutex_trylock          004183e0 f   pjlib-i386-win32-vc8-release:os_core_win32.obj
 0001:00017460       _pj_mutex_unlock           00418460 f   pjlib-i386-win32-vc8-release:os_core_win32.obj
 0001:000174d0       _pj_rwmutex_create         004184d0 f   pjlib-i386-win32-vc8-release:os_core_win32.obj
 0001:00017670       _pj_rwmutex_destroy        00418670 f   pjlib-i386-win32-vc8-release:os_core_win32.obj
 0001:00017700       _pj_rwmutex_lock_read      00418700 f   pjlib-i386-win32-vc8-release:os_core_win32.obj
 0001:00017750       _pj_rwmutex_lock_write     00418750 f   pjlib-i386-win32-vc8-release:os_core_win32.obj
 0001:00017770       _pj_rwmutex_unlock_read    00418770 f   pjlib-i386-win32-vc8-release:os_core_win32.obj
 0001:000177b0       _pj_rwmutex_unlock_write   004187b0 f   pjlib-i386-win32-vc8-release:os_core_win32.obj
 0001:000177d0       _pj_sem_destroy            004187d0 f   pjlib-i386-win32-vc8-release:os_core_win32.obj
 0001:00017860       _pj_sem_post               00418860 f   pjlib-i386-win32-vc8-release:os_core_win32.obj
 0001:00017900       _pj_sem_trywait            00418900 f   pjlib-i386-win32-vc8-release:os_core_win32.obj
 0001:00017960       _pj_sem_wait               00418960 f   pjlib-i386-win32-vc8-release:os_core_win32.obj
 0001:00017a70       _pj_term_set_color         00418a70 f   pjlib-i386-win32-vc8-release:os_core_win32.obj
 0001:00017b40       _pj_thread_check_stack     00418b40 f   pjlib-i386-win32-vc8-release:os_core_win32.obj
 0001:00017b90       _pj_thread_get_name        00418b90 f   pjlib-i386-win32-vc8-release:os_core_win32.obj
 0001:00017be0       _pj_thread_local_alloc     00418be0 f   pjlib-i386-win32-vc8-release:os_core_win32.obj
 0001:00017c30       _pj_thread_local_free      00418c30 f   pjlib-i386-win32-vc8-release:os_core_win32.obj
 0001:00017c80       _pj_thread_local_get       00418c80 f   pjlib-i386-win32-vc8-release:os_core_win32.obj
 0001:00017c90       _pj_thread_local_set       00418c90 f   pjlib-i386-win32-vc8-release:os_core_win32.obj
 0001:00017cd0       _pj_thread_sleep           00418cd0 f   pjlib-i386-win32-vc8-release:os_core_win32.obj
 0001:00017d20       _pj_thread_this            00418d20 f   pjlib-i386-win32-vc8-release:os_core_win32.obj
 0001:00017d30       _pj_list_erase             00418d30 f   pjlib-i386-win32-vc8-release:list.obj
 0001:00017d50       _pj_list_find_node         00418d50 f   pjlib-i386-win32-vc8-release:list.obj
 0001:00017d80       _pj_list_insert_after      00418d80 f   pjlib-i386-win32-vc8-release:list.obj
 0001:00017da0       _pj_list_insert_before     00418da0 f   pjlib-i386-win32-vc8-release:list.obj
 0001:00017dc0       _pj_list_insert_nodes_before 00418dc0 f   pjlib-i386-win32-vc8-release:list.obj
 0001:00017de0       _pj_list_search            00418de0 f   pjlib-i386-win32-vc8-release:list.obj
 0001:00017e20       _pj_gethostname            00418e20 f   pjlib-i386-win32-vc8-release:sock_bsd.obj
 0001:00017ea0       _pj_htonl                  00418ea0 f   pjlib-i386-win32-vc8-release:sock_bsd.obj
 0001:00017eb0       _pj_htons                  00418eb0 f   pjlib-i386-win32-vc8-release:sock_bsd.obj
 0001:00017ec0       _pj_inet_aton              00418ec0 f   pjlib-i386-win32-vc8-release:sock_bsd.obj
 0001:00017f50       _pj_inet_ntop              00418f50 f   pjlib-i386-win32-vc8-release:sock_bsd.obj
 0001:00018070       _pj_inet_pton              00419070 f   pjlib-i386-win32-vc8-release:sock_bsd.obj
 0001:000181d0       _pj_ntohl                  004191d0 f   pjlib-i386-win32-vc8-release:sock_bsd.obj
 0001:000181e0       _pj_ntohs                  004191e0 f   pjlib-i386-win32-vc8-release:sock_bsd.obj
 0001:000181f0       _pj_sock_accept            004191f0 f   pjlib-i386-win32-vc8-release:sock_bsd.obj
 0001:00018260       _pj_sock_bind              00419260 f   pjlib-i386-win32-vc8-release:sock_bsd.obj
 0001:000182d0       _pj_sock_close             004192d0 f   pjlib-i386-win32-vc8-release:sock_bsd.obj
 0001:00018320       _pj_sock_connect           00419320 f   pjlib-i386-win32-vc8-release:sock_bsd.obj
 0001:00018380       _pj_sock_getsockname       00419380 f   pjlib-i386-win32-vc8-release:sock_bsd.obj
 0001:000183e0       _pj_sock_getsockopt        004193e0 f   pjlib-i386-win32-vc8-release:sock_bsd.obj
 0001:00018450       _pj_sock_listen            00419450 f   pjlib-i386-win32-vc8-release:sock_bsd.obj
 0001:000184a0       _pj_sock_recv              004194a0 f   pjlib-i386-win32-vc8-release:sock_bsd.obj
 0001:00018510       _pj_sock_recvfrom          00419510 f   pjlib-i386-win32-vc8-release:sock_bsd.obj
 0001:00018580       _pj_sock_send              00419580 f   pjlib-i386-win32-vc8-release:sock_bsd.obj
 0001:000185f0       _pj_sock_sendto            004195f0 f   pjlib-i386-win32-vc8-release:sock_bsd.obj
 0001:00018660       _pj_sock_setsockopt        00419660 f   pjlib-i386-win32-vc8-release:sock_bsd.obj
 0001:000186e0       _pj_sock_setsockopt_params 004196e0 f   pjlib-i386-win32-vc8-release:sock_bsd.obj
 0001:000187f0       _pj_sock_socket            004197f0 f   pjlib-i386-win32-vc8-release:sock_bsd.obj
 0001:000188a0       _pj_NO_MEMORY_EXCEPTION    004198a0 f   pjlib-i386-win32-vc8-release:pool.obj
 0001:000188b0       _pj_pool_alloc             004198b0 f   pjlib-i386-win32-vc8-release:pool.obj
 0001:00018a20       _pj_pool_calloc            00419a20 f   pjlib-i386-win32-vc8-release:pool.obj
 0001:00018a50       _pj_pool_create            00419a50 f   pjlib-i386-win32-vc8-release:pool.obj
 0001:00018a60       _pj_pool_create_int        00419a60 f   pjlib-i386-win32-vc8-release:pool.obj
 0001:00018b70       _pj_pool_destroy_int       00419b70 f   pjlib-i386-win32-vc8-release:pool.obj
 0001:00018bb0       _pj_pool_get_capacity      00419bb0 f   pjlib-i386-win32-vc8-release:pool.obj
 0001:00018bc0       _pj_pool_get_used_size     00419bc0 f   pjlib-i386-win32-vc8-release:pool.obj
 0001:00018bf0       _pj_pool_getobjname        00419bf0 f   pjlib-i386-win32-vc8-release:pool.obj
 0001:00018c00       _pj_pool_init_int          00419c00 f   pjlib-i386-win32-vc8-release:pool.obj
 0001:00018c70       _pj_pool_release           00419c70 f   pjlib-i386-win32-vc8-release:pool.obj
 0001:00018c90       _pj_pool_reset             00419c90 f   pjlib-i386-win32-vc8-release:pool.obj
 0001:00018ca0       _pj_pool_safe_release      00419ca0 f   pjlib-i386-win32-vc8-release:pool.obj
 0001:000190d0       _pj_caching_pool_init      0041a0d0 f   pjlib-i386-win32-vc8-release:pool_caching.obj
 0001:00019190       _pj_str                    0041a190 f   pjlib-i386-win32-vc8-release:string.obj
 0001:000191b0       _pj_strcat                 0041a1b0 f   pjlib-i386-win32-vc8-release:string.obj
 0001:000191e0       _pj_strcat2                0041a1e0 f   pjlib-i386-win32-vc8-release:string.obj
 0001:00019220       _pj_strcmp                 0041a220 f   pjlib-i386-win32-vc8-release:string.obj
 0001:000192d0       _pj_strcpy                 0041a2d0 f   pjlib-i386-win32-vc8-release:string.obj
 0001:00019300       _pj_strcpy2                0041a300 f   pjlib-i386-win32-vc8-release:string.obj
 0001:00019340       _pj_strdup                 0041a340 f   pjlib-i386-win32-vc8-release:string.obj
 0001:00019380       _pj_strdup2                0041a380 f   pjlib-i386-win32-vc8-release:string.obj
 0001:000193e0       _pj_strdup_with_null       0041a3e0 f   pjlib-i386-win32-vc8-release:string.obj
 0001:00019430       _pj_stricmp                0041a430 f   pjlib-i386-win32-vc8-release:string.obj
 0001:00019490       _pj_stricmp2               0041a490 f   pjlib-i386-win32-vc8-release:string.obj
 0001:00019500       _pj_strltrim               0041a500 f   pjlib-i386-win32-vc8-release:string.obj
 0001:00019540       _pj_strncpy                0041a540 f   pjlib-i386-win32-vc8-release:string.obj
 0001:00019580       _pj_strncpy_with_null      0041a580 f   pjlib-i386-win32-vc8-release:string.obj
 0001:000195c0       _pj_strnicmp               0041a5c0 f   pjlib-i386-win32-vc8-release:string.obj
 0001:00019600       _pj_strstr                 0041a600 f   pjlib-i386-win32-vc8-release:string.obj
 0001:00019650       _pj_strtol2                0041a650 f   pjlib-i386-win32-vc8-release:string.obj
 0001:000197d0       _pj_strtoul                0041a7d0 f   pjlib-i386-win32-vc8-release:string.obj
 0001:00019830       _pj_strtrim                0041a830 f   pjlib-i386-win32-vc8-release:string.obj
 0001:000198b0       _pj_utoa                   0041a8b0 f   pjlib-i386-win32-vc8-release:string.obj
 0001:00019930       _pj_utoa_pad               0041a930 f   pjlib-i386-win32-vc8-release:string.obj
 0001:00019a10       _pj_log                    0041aa10 f   pjlib-i386-win32-vc8-release:log.obj
 0001:00019f10       _pj_log_1                  0041af10 f   pjlib-i386-win32-vc8-release:log.obj
 0001:00019f30       _pj_log_2                  0041af30 f   pjlib-i386-win32-vc8-release:log.obj
 0001:00019f50       _pj_log_3                  0041af50 f   pjlib-i386-win32-vc8-release:log.obj
 0001:00019f70       _pj_log_4                  0041af70 f   pjlib-i386-win32-vc8-release:log.obj
 0001:00019f90       _pj_log_5                  0041af90 f   pjlib-i386-win32-vc8-release:log.obj
 0001:00019fb0       _pj_log_get_color          0041afb0 f   pjlib-i386-win32-vc8-release:log.obj
 0001:0001a020       _pj_log_get_decor          0041b020 f   pjlib-i386-win32-vc8-release:log.obj
 0001:0001a030       _pj_log_get_level          0041b030 f   pjlib-i386-win32-vc8-release:log.obj
 0001:0001a040       _pj_log_init               0041b040 f   pjlib-i386-win32-vc8-release:log.obj
 0001:0001a0b0       _pj_log_pop_indent         0041b0b0 f   pjlib-i386-win32-vc8-release:log.obj
 0001:0001a0e0       _pj_log_push_indent        0041b0e0 f   pjlib-i386-win32-vc8-release:log.obj
 0001:0001a1f0       _pj_perror                 0041b1f0 f   pjlib-i386-win32-vc8-release:errno.obj
 0001:0001a210       _pj_perror_2               0041b210 f   pjlib-i386-win32-vc8-release:errno.obj
 0001:0001a230       _pj_perror_3               0041b230 f   pjlib-i386-win32-vc8-release:errno.obj
 0001:0001a250       _pj_perror_4               0041b250 f   pjlib-i386-win32-vc8-release:errno.obj
 0001:0001a440       _pj_register_strerror      0041b440 f   pjlib-i386-win32-vc8-release:errno.obj
 0001:0001a510       _pj_strerror               0041b510 f   pjlib-i386-win32-vc8-release:errno.obj
 0001:0001a710       _ioqueue_dispatch_read_event 0041b710 f   pjlib-i386-win32-vc8-release:ioqueue_select.obj
 0001:0001a920       _ioqueue_dispatch_write_event 0041b920 f   pjlib-i386-win32-vc8-release:ioqueue_select.obj
 0001:0001abb0       _pj_ioqueue_accept         0041bbb0 f   pjlib-i386-win32-vc8-release:ioqueue_select.obj
 0001:0001ad00       _pj_ioqueue_connect        0041bd00 f   pjlib-i386-win32-vc8-release:ioqueue_select.obj
 0001:0001ade0       _pj_ioqueue_create         0041bde0 f   pjlib-i386-win32-vc8-release:ioqueue_select.obj
 0001:0001afb0       _pj_ioqueue_destroy        0041bfb0 f   pjlib-i386-win32-vc8-release:ioqueue_select.obj
 0001:0001b070       _pj_ioqueue_get_user_data  0041c070 f   pjlib-i386-win32-vc8-release:ioqueue_select.obj
 0001:0001b090       _pj_ioqueue_is_pending     0041c090 f   pjlib-i386-win32-vc8-release:ioqueue_select.obj
 0001:0001b0a0       _pj_ioqueue_lock_key       0041c0a0 f   pjlib-i386-win32-vc8-release:ioqueue_select.obj
 0001:0001b0d0       _pj_ioqueue_op_key_init    0041c0d0 f   pjlib-i386-win32-vc8-release:ioqueue_select.obj
 0001:0001b0f0       _pj_ioqueue_poll           0041c0f0 f   pjlib-i386-win32-vc8-release:ioqueue_select.obj
 0001:0001b5d0       _pj_ioqueue_recv           0041c5d0 f   pjlib-i386-win32-vc8-release:ioqueue_select.obj
 0001:0001b6f0       _pj_ioqueue_recvfrom       0041c6f0 f   pjlib-i386-win32-vc8-release:ioqueue_select.obj
 0001:0001b820       _pj_ioqueue_register_sock2 0041c820 f   pjlib-i386-win32-vc8-release:ioqueue_select.obj
 0001:0001b9b0       _pj_ioqueue_send           0041c9b0 f   pjlib-i386-win32-vc8-release:ioqueue_select.obj
 0001:0001bb50       _pj_ioqueue_sendto         0041cb50 f   pjlib-i386-win32-vc8-release:ioqueue_select.obj
 0001:0001bcf0       _pj_ioqueue_set_concurrency 0041ccf0 f   pjlib-i386-win32-vc8-release:ioqueue_select.obj
 0001:0001bd10       _pj_ioqueue_unlock_key     0041cd10 f   pjlib-i386-win32-vc8-release:ioqueue_select.obj
 0001:0001bd40       _pj_ioqueue_unregister     0041cd40 f   pjlib-i386-win32-vc8-release:ioqueue_select.obj
 0001:0001c1b0       _pj_grp_lock_acquire       0041d1b0 f   pjlib-i386-win32-vc8-release:lock.obj
 0001:0001c1c0       _pj_grp_lock_add_handler   0041d1c0 f   pjlib-i386-win32-vc8-release:lock.obj
 0001:0001c210       _pj_grp_lock_add_ref       0041d210 f   pjlib-i386-win32-vc8-release:lock.obj
 0001:0001c230       _pj_grp_lock_create        0041d230 f   pjlib-i386-win32-vc8-release:lock.obj
 0001:0001c320       _pj_grp_lock_dec_ref       0041d320 f   pjlib-i386-win32-vc8-release:lock.obj
 0001:0001c350       _pj_grp_lock_release       0041d350 f   pjlib-i386-win32-vc8-release:lock.obj
 0001:0001c360       _pj_grp_lock_tryacquire    0041d360 f   pjlib-i386-win32-vc8-release:lock.obj
 0001:0001c370       _pj_lock_acquire           0041d370 f   pjlib-i386-win32-vc8-release:lock.obj
 0001:0001c390       _pj_lock_create_null_mutex 0041d390 f   pjlib-i386-win32-vc8-release:lock.obj
 0001:0001c3b0       _pj_lock_create_recursive_mutex 0041d3b0 f   pjlib-i386-win32-vc8-release:lock.obj
 0001:0001c3d0       _pj_lock_create_simple_mutex 0041d3d0 f   pjlib-i386-win32-vc8-release:lock.obj
 0001:0001c3f0       _pj_lock_destroy           0041d3f0 f   pjlib-i386-win32-vc8-release:lock.obj
 0001:0001c410       _pj_lock_release           0041d410 f   pjlib-i386-win32-vc8-release:lock.obj
 0001:0001c430       _pj_lock_tryacquire        0041d430 f   pjlib-i386-win32-vc8-release:lock.obj
 0001:0001c510       _pj_timer_entry_running    0041d510 f   pjlib-i386-win32-vc8-release:timer.obj
 0001:0001c530       _pj_timer_heap_cancel      0041d530 f   pjlib-i386-win32-vc8-release:timer.obj
 0001:0001c550       _pj_timer_heap_cancel_if_active 0041d550 f   pjlib-i386-win32-vc8-release:timer.obj
 0001:0001c570       _pj_timer_heap_create      0041d570 f   pjlib-i386-win32-vc8-release:timer.obj
 0001:0001c720       _pj_timer_heap_destroy     0041d720 f   pjlib-i386-win32-vc8-release:timer.obj
 0001:0001c750       _pj_timer_heap_poll        0041d750 f   pjlib-i386-win32-vc8-release:timer.obj
 0001:0001c920       _pj_timer_heap_schedule    0041d920 f   pjlib-i386-win32-vc8-release:timer.obj
 0001:0001c940       _pj_timer_heap_schedule_w_grp_lock 0041d940 f   pjlib-i386-win32-vc8-release:timer.obj
 0001:0001c960       _pj_timer_heap_set_lock    0041d960 f   pjlib-i386-win32-vc8-release:timer.obj
 0001:0001c990       _pj_timer_heap_set_max_timed_out_per_poll 0041d990 f   pjlib-i386-win32-vc8-release:timer.obj
 0001:0001cd70       _pj_get_netos_error        0041dd70 f   pjlib-i386-win32-vc8-release:os_error_win32.obj
 0001:0001cd90       _platform_strerror         0041dd90 f   pjlib-i386-win32-vc8-release:os_error_win32.obj
 0001:0001ceb0       _pj_exception_id_alloc     0041deb0 f   pjlib-i386-win32-vc8-release:except.obj
 0001:0001cf00       _pj_exception_id_free      0041df00 f   pjlib-i386-win32-vc8-release:except.obj
 0001:0001cf40       _pj_exception_id_name      0041df40 f   pjlib-i386-win32-vc8-release:except.obj
 0001:0001cf80       _pj_pop_exception_handler_ 0041df80 f   pjlib-i386-win32-vc8-release:except.obj
 0001:0001cfb0       _pj_push_exception_handler_ 0041dfb0 f   pjlib-i386-win32-vc8-release:except.obj
 0001:0001d000       _pj_throw_exception_       0041e000 f   pjlib-i386-win32-vc8-release:except.obj
 0001:0001d080       _pj_GUID_STRING_LENGTH     0041e080 f   pjlib-i386-win32-vc8-release:guid_win32.obj
 0001:0001d090       _pj_generate_unique_string 0041e090 f   pjlib-i386-win32-vc8-release:guid_win32.obj
 0001:0001d140       _pj_create_unique_string   0041e140 f   pjlib-i386-win32-vc8-release:guid.obj
 0001:0001d170       _pj_rand                   0041e170 f   pjlib-i386-win32-vc8-release:rand.obj
 0001:0001d1a0       _pj_addr_str_print         0041e1a0 f   pjlib-i386-win32-vc8-release:sock_common.obj
 0001:0001d270       _pj_gethostip              0041e270 f   pjlib-i386-win32-vc8-release:sock_common.obj
 0001:0001dc30       _pj_getipinterface         0041ec30 f   pjlib-i386-win32-vc8-release:sock_common.obj
 0001:0001de40       _pj_sockaddr_cmp           0041ee40 f   pjlib-i386-win32-vc8-release:sock_common.obj
 0001:0001dfc0       _pj_sockaddr_copy_addr     0041efc0 f   pjlib-i386-win32-vc8-release:sock_common.obj
 0001:0001e040       _pj_sockaddr_cp            0041f040 f   pjlib-i386-win32-vc8-release:sock_common.obj
 0001:0001e0a0       _pj_sockaddr_get_addr      0041f0a0 f   pjlib-i386-win32-vc8-release:sock_common.obj
 0001:0001e0e0       _pj_sockaddr_get_addr_len  0041f0e0 f   pjlib-i386-win32-vc8-release:sock_common.obj
 0001:0001e120       _pj_sockaddr_get_len       0041f120 f   pjlib-i386-win32-vc8-release:sock_common.obj
 0001:0001e160       _pj_sockaddr_get_port      0041f160 f   pjlib-i386-win32-vc8-release:sock_common.obj
 0001:0001e190       _pj_sockaddr_has_addr      0041f190 f   pjlib-i386-win32-vc8-release:sock_common.obj
 0001:0001e240       _pj_sockaddr_in_init       0041f240 f   pjlib-i386-win32-vc8-release:sock_common.obj
 0001:0001e290       _pj_sockaddr_in_set_str_addr 0041f290 f   pjlib-i386-win32-vc8-release:sock_common.obj
 0001:0001e380       _pj_sockaddr_init          0041f380 f   pjlib-i386-win32-vc8-release:sock_common.obj
 0001:0001e520       _pj_sockaddr_print         0041f520 f   pjlib-i386-win32-vc8-release:sock_common.obj
 0001:0001e630       _pj_sockaddr_set_port      0041f630 f   pjlib-i386-win32-vc8-release:sock_common.obj
 0001:0001e670       _pj_qos_get_params         0041f670 f   pjlib-i386-win32-vc8-release:sock_qos_common.obj
 0001:0001e6a0       _pj_sock_apply_qos2        0041f6a0 f   pjlib-i386-win32-vc8-release:sock_qos_common.obj
 0001:0001e770       _pj_gettimeofday           0041f770 f   pjlib-i386-win32-vc8-release:os_time_win32.obj
 0001:0001e820       _pj_time_decode            0041f820 f   pjlib-i386-win32-vc8-release:os_time_win32.obj
 0001:0001e8d0       _pj_time_val_normalize     0041f8d0 f   pjlib-i386-win32-vc8-release:types.obj
 0001:0001ed50       _pj_activesock_cfg_default 0041fd50 f   pjlib-i386-win32-vc8-release:activesock.obj
 0001:0001ed80       _pj_activesock_close       0041fd80 f   pjlib-i386-win32-vc8-release:activesock.obj
 0001:0001edd0       _pj_activesock_create      0041fdd0 f   pjlib-i386-win32-vc8-release:activesock.obj
 0001:0001ef40       _pj_activesock_get_user_data 0041ff40 f   pjlib-i386-win32-vc8-release:activesock.obj
 0001:0001ef60       _pj_activesock_send        0041ff60 f   pjlib-i386-win32-vc8-release:activesock.obj
 0001:0001f030       _pj_activesock_start_accept 00420030 f   pjlib-i386-win32-vc8-release:activesock.obj
 0001:0001f100       _pj_activesock_start_connect 00420100 f   pjlib-i386-win32-vc8-release:activesock.obj
 0001:0001f130       _pj_activesock_start_read2 00420130 f   pjlib-i386-win32-vc8-release:activesock.obj
 0001:0001f290       _pj_gettickcount           00420290 f   pjlib-i386-win32-vc8-release:os_timestamp_common.obj
 0001:0001f570       _pj_hash_calc              00420570 f   pjlib-i386-win32-vc8-release:hash.obj
 0001:0001f600       _pj_hash_calc_tolower      00420600 f   pjlib-i386-win32-vc8-release:hash.obj
 0001:0001f650       _pj_hash_count             00420650 f   pjlib-i386-win32-vc8-release:hash.obj
 0001:0001f660       _pj_hash_create            00420660 f   pjlib-i386-win32-vc8-release:hash.obj
 0001:0001f6b0       _pj_hash_first             004206b0 f   pjlib-i386-win32-vc8-release:hash.obj
 0001:0001f6f0       _pj_hash_get               004206f0 f   pjlib-i386-win32-vc8-release:hash.obj
 0001:0001f720       _pj_hash_get_lower         00420720 f   pjlib-i386-win32-vc8-release:hash.obj
 0001:0001f750       _pj_hash_next              00420750 f   pjlib-i386-win32-vc8-release:hash.obj
 0001:0001f7a0       _pj_hash_set               004207a0 f   pjlib-i386-win32-vc8-release:hash.obj
 0001:0001f800       _pj_hash_set_lower         00420800 f   pjlib-i386-win32-vc8-release:hash.obj
 0001:0001f860       _pj_hash_set_np            00420860 f   pjlib-i386-win32-vc8-release:hash.obj
 0001:0001f8c0       _pj_hash_this              004208c0 f   pjlib-i386-win32-vc8-release:hash.obj
 0001:0001f8e0       _pj_getaddrinfo            004208e0 f   pjlib-i386-win32-vc8-release:addr_resolv_sock.obj
 0001:0001faa0       _pj_get_timestamp          00420aa0 f   pjlib-i386-win32-vc8-release:os_timestamp_win32.obj
 0001:0001fb00       _pj_get_timestamp_freq     00420b00 f   pjlib-i386-win32-vc8-release:os_timestamp_win32.obj
 0001:0001fb60       _pj_pool_create_on_buf     00420b60 f   pjlib-i386-win32-vc8-release:pool_buf.obj
 0001:0001fc70       _pj_log_write              00420c70 f   pjlib-i386-win32-vc8-release:log_writer_stdout.obj
 0001:0001fcd0       _printf                    00420cd0 f i pjlib-i386-win32-vc8-release:log_writer_stdout.obj
 0001:0001fd00       _PJ_FD_CLR                 00420d00 f   pjlib-i386-win32-vc8-release:sock_select.obj
 0001:0001fd80       _PJ_FD_COUNT               00420d80 f   pjlib-i386-win32-vc8-release:sock_select.obj
 0001:0001fd90       _PJ_FD_ISSET               00420d90 f   pjlib-i386-win32-vc8-release:sock_select.obj
 0001:0001fdc0       _PJ_FD_SET                 00420dc0 f   pjlib-i386-win32-vc8-release:sock_select.obj
 0001:0001fe30       _PJ_FD_ZERO                00420e30 f   pjlib-i386-win32-vc8-release:sock_select.obj
 0001:0001fe60       _pj_sock_select            00420e60 f   pjlib-i386-win32-vc8-release:sock_select.obj
 0001:00020210       _pj_enum_ip_interface      00421210 f   pjlib-i386-win32-vc8-release:ip_helper_win32.obj
 0001:000204a0       _pj_sock_set_qos_params    004214a0 f   pjlib-i386-win32-vc8-release:sock_qos_bsd.obj
 0001:000205c0       _pj_sock_set_qos_type      004215c0 f   pjlib-i386-win32-vc8-release:sock_qos_bsd.obj
 0001:000206fc       ___WSAFDIsSet@8            004216fc f   ws2_32:WS2_32.dll
 0001:00020702       @__security_check_cookie@4 00421702 f   MSVCRT:secchk.obj
 0001:0002095a       _mainCRTStartup            0042195a f   MSVCRT:exe_main.obj
 0001:00020964       ___raise_securityfailure   00421964 f   MSVCRT:gs_report.obj
 0001:0002098c       ___report_gsfailure        0042198c f   MSVCRT:gs_report.obj
 0001:00020a85       ___report_rangecheckfailure 00421a85 f   MSVCRT:gs_report.obj
 0001:00020a91       ___report_securityfailure  00421a91 f   MSVCRT:gs_report.obj
 0001:00020b5f       ___isa_available_init      00421b5f f   MSVCRT:cpu_disp.obj
 0001:00020d00       __alldiv                   00421d00 f   MSVCRT:lldiv.obj
 0001:00020db0       __allmul                   00421db0 f   MSVCRT:llmul.obj
 0001:00020df0       __ftoui3                   00421df0 f   MSVCRT:ftol3.obj
 0001:00020dff       __ftoul3                   00421dff f   MSVCRT:ftol3.obj
 0001:00020e0e       __ftol3                    00421e0e f   MSVCRT:ftol3.obj
 0001:00020e1b       __ftol3_NaN                00421e1b f   MSVCRT:ftol3.obj
 0001:00020e33       __ftol3_work               00421e33 f   MSVCRT:ftol3.obj
 0001:00020eb9       __ftol3_common             00421eb9 f   MSVCRT:ftol3.obj
 0001:00020f7b       __ftol3_arg_error          00421f7b f   MSVCRT:ftol3.obj
 0001:00020f8d       __ftol3_except             00421f8d f   MSVCRT:ftol3.obj
 0001:00020fd1       __dtoui3                   00421fd1 f   MSVCRT:ftol3.obj
 0001:00020fe0       __dtoul3                   00421fe0 f   MSVCRT:ftol3.obj
 0001:00020fef       __dtol3                    00421fef f   MSVCRT:ftol3.obj
 0001:00020ffc       __dtol3_NaN                00421ffc f   MSVCRT:ftol3.obj
 0001:00021019       __dtol3_work               00422019 f   MSVCRT:ftol3.obj
 0001:00021100       __ultod3                   00422100 f   MSVCRT:ftol3.obj
 0001:00021140       __ltod3                    00422140 f   MSVCRT:ftol3.obj
 0001:000211ab       ___scrt_acquire_startup_lock 004221ab f   MSVCRT:utility.obj
 0001:000211dd       ___scrt_initialize_crt     004221dd f   MSVCRT:utility.obj
 0001:00021216       ___scrt_initialize_onexit_tables 00422216 f   MSVCRT:utility.obj
 0001:000212bb       ___scrt_is_nonwritable_in_current_image 004222bb f   MSVCRT:utility.obj
 0001:0002134f       ___scrt_release_startup_lock 0042234f f   MSVCRT:utility.obj
 0001:0002136c       ___scrt_uninitialize_crt   0042236c f   MSVCRT:utility.obj
 0001:00021394       __onexit                   00422394 f   MSVCRT:utility.obj
 0001:000213cf       _atexit                    004223cf f   MSVCRT:utility.obj
 0001:00021431       ___security_init_cookie    00422431 f   MSVCRT:gs_support.obj
 0001:0002147c       __get_startup_argv_mode    0042247c f   MSVCRT:argv_mode.obj
 0001:00021480       __get_startup_file_mode    00422480 f   MSVCRT:file_mode.obj
 0001:00021486       ?__scrt_initialize_type_info@@YAXXZ 00422486 f   MSVCRT:tncleanup.obj
 0001:00021492       ___vcrt_uninitialize       00422492 f   MSVCRT:ucrt_stubs.obj
 0001:00021492       ___vcrt_initialize         00422492 f   MSVCRT:ucrt_stubs.obj
 0001:00021492       ___scrt_stub_for_acrt_uninitialize 00422492 f   MSVCRT:ucrt_stubs.obj
 0001:00021492       __should_initialize_environment 00422492 f   MSVCRT:env_mode.obj
 0001:00021492       ___scrt_stub_for_acrt_initialize 00422492 f   MSVCRT:ucrt_stubs.obj
 0001:00021492       ___acrt_uninitialize       00422492 f   MSVCRT:ucrt_stubs.obj
 0001:00021492       ___acrt_initialize         00422492 f   MSVCRT:ucrt_stubs.obj
 0001:00021495       __initialize_default_precision 00422495 f   MSVCRT:default_precision.obj
 0001:000214b6       __initialize_denormal_control 004224b6 f   MSVCRT:denormal_control.obj
 0001:000214b6       __initialize_invalid_parameter_handler 004224b6 f   MSVCRT:invalid_parameter_handler.obj
 0001:000214b6       @_guard_check_icall_nop@4  004224b6 f   MSVCRT:guard_support.obj
 0001:000214b7       ___local_stdio_scanf_options 004224b7 f i MSVCRT:default_local_stdio_options.obj
 0001:000214bd       ___scrt_initialize_default_local_stdio_options 004224bd f   MSVCRT:default_local_stdio_options.obj
 0001:000214da       ___scrt_is_user_matherr_present 004224da f   MSVCRT:matherr_detection.obj
 0001:000214e6       ___scrt_get_dyn_tls_init_callback 004224e6 f   MSVCRT:dyn_tls_init.obj
 0001:000214ec       ___scrt_get_dyn_tls_dtor_callback 004224ec f   MSVCRT:dyn_tls_dtor.obj
 0001:000214f2       ___scrt_fastfail           004224f2 f   MSVCRT:utility_desktop.obj
 0001:0002160c       ___scrt_initialize_mta     0042260c f   MSVCRT:utility_desktop.obj
 0001:00021611       ___scrt_is_managed_app     00422611 f   MSVCRT:utility_desktop.obj
 0001:00021654       ___scrt_set_unhandled_exception_filter 00422654 f   MSVCRT:utility_desktop.obj
 0001:00021660       ___scrt_unhandled_exception_filter@4 00422660 f   MSVCRT:utility_desktop.obj
 0001:000216a1       __crt_debugger_hook        004226a1 f   MSVCRT:utility_desktop.obj
 0001:000216a9       __RTC_Initialize           004226a9 f   MSVCRT:initsect.obj
 0001:000216d5       __RTC_Terminate            004226d5 f   MSVCRT:initsect.obj
 0001:00021710       __SEH_prolog4              00422710 f   MSVCRT:sehprolg4.obj
 0001:00021756       __SEH_epilog4              00422756 f   MSVCRT:sehprolg4.obj
 0001:0002176b       __except_handler4          0042276b f   MSVCRT:chandler4gs.obj
 0001:0002178e       ___scrt_is_ucrt_dll_in_use 0042278e f   MSVCRT:ucrt_detection.obj
 0001:0002179a       _IsProcessorFeaturePresent@4 0042279a f   kernel32:KERNEL32.dll
 0001:000217a0       _memchr                    004227a0 f   vcruntime:VCRUNTIME140.dll
 0001:000217a6       _memcpy                    004227a6 f   vcruntime:VCRUNTIME140.dll
 0001:000217ac       _memset                    004227ac f   vcruntime:VCRUNTIME140.dll
 0001:000217b2       __setjmp3                  004227b2 f   vcruntime:VCRUNTIME140.dll
 0001:000217b8       _memmove                   004227b8 f   vcruntime:VCRUNTIME140.dll
 0001:000217be       _strchr                    004227be f   vcruntime:VCRUNTIME140.dll
 0001:000217c4       _longjmp                   004227c4 f   vcruntime:VCRUNTIME140.dll
 0001:000217ca       __except_handler4_common   004227ca f   vcruntime:VCRUNTIME140.dll
 0001:000217d0       __CIfmod                   004227d0 f   ucrt:api-ms-win-crt-math-l1-1-0.dll
 0001:000217d6       __seh_filter_exe           004227d6 f   ucrt:api-ms-win-crt-runtime-l1-1-0.dll
 0001:000217dc       __set_app_type             004227dc f   ucrt:api-ms-win-crt-runtime-l1-1-0.dll
 0001:000217e2       ___setusermatherr          004227e2 f   ucrt:api-ms-win-crt-math-l1-1-0.dll
 0001:000217e8       __configure_narrow_argv    004227e8 f   ucrt:api-ms-win-crt-runtime-l1-1-0.dll
 0001:000217ee       __initialize_narrow_environment 004227ee f   ucrt:api-ms-win-crt-runtime-l1-1-0.dll
 0001:000217f4       __get_initial_narrow_environment 004227f4 f   ucrt:api-ms-win-crt-runtime-l1-1-0.dll
 0001:000217fa       __initterm                 004227fa f   ucrt:api-ms-win-crt-runtime-l1-1-0.dll
 0001:00021800       __initterm_e               00422800 f   ucrt:api-ms-win-crt-runtime-l1-1-0.dll
 0001:00021806       _exit                      00422806 f   ucrt:api-ms-win-crt-runtime-l1-1-0.dll
 0001:0002180c       __exit                     0042280c f   ucrt:api-ms-win-crt-runtime-l1-1-0.dll
 0001:00021812       __set_fmode                00422812 f   ucrt:api-ms-win-crt-stdio-l1-1-0.dll
 0001:00021818       ___p___argc                00422818 f   ucrt:api-ms-win-crt-runtime-l1-1-0.dll
 0001:0002181e       ___p___argv                0042281e f   ucrt:api-ms-win-crt-runtime-l1-1-0.dll
 0001:00021824       __cexit                    00422824 f   ucrt:api-ms-win-crt-runtime-l1-1-0.dll
 0001:0002182a       __c_exit                   0042282a f   ucrt:api-ms-win-crt-runtime-l1-1-0.dll
 0001:00021830       __register_thread_local_exe_atexit_callback 00422830 f   ucrt:api-ms-win-crt-runtime-l1-1-0.dll
 0001:00021836       __configthreadlocale       00422836 f   ucrt:api-ms-win-crt-locale-l1-1-0.dll
 0001:0002183c       __set_new_mode             0042283c f   ucrt:api-ms-win-crt-heap-l1-1-0.dll
 0001:00021842       ___p__commode              00422842 f   ucrt:api-ms-win-crt-stdio-l1-1-0.dll
 0001:00021848       __except1                  00422848 f   ucrt:api-ms-win-crt-math-l1-1-0.dll
 0001:0002184e       __initialize_onexit_table  0042284e f   ucrt:api-ms-win-crt-runtime-l1-1-0.dll
 0001:00021854       __register_onexit_function 00422854 f   ucrt:api-ms-win-crt-runtime-l1-1-0.dll
 0001:0002185a       __crt_atexit               0042285a f   ucrt:api-ms-win-crt-runtime-l1-1-0.dll
 0001:00021860       __controlfp_s              00422860 f   ucrt:api-ms-win-crt-runtime-l1-1-0.dll
 0001:00021866       _terminate                 00422866 f   ucrt:api-ms-win-crt-runtime-l1-1-0.dll
 0002:00000000       __imp__UnhandledExceptionFilter@4 00423000     kernel32:KERNEL32.dll
 0002:00000004       __imp__GetModuleHandleW@4  00423004     kernel32:KERNEL32.dll
 0002:00000008       __imp__IsDebuggerPresent@0 00423008     kernel32:KERNEL32.dll
 0002:0000000c       __imp__InitializeSListHead@4 0042300c     kernel32:KERNEL32.dll
 0002:00000010       __imp__GetSystemTimeAsFileTime@4 00423010     kernel32:KERNEL32.dll
 0002:00000014       __imp__IsProcessorFeaturePresent@4 00423014     kernel32:KERNEL32.dll
 0002:00000018       __imp__TerminateProcess@8  00423018     kernel32:KERNEL32.dll
 0002:0000001c       __imp__GetCurrentProcess@0 0042301c     kernel32:KERNEL32.dll
 0002:00000020       __imp__SetUnhandledExceptionFilter@4 00423020     kernel32:KERNEL32.dll
 0002:00000024       __imp__LoadLibraryA@4      00423024     kernel32:KERNEL32.dll
 0002:00000028       __imp__GetProcAddress@8    00423028     kernel32:KERNEL32.dll
 0002:0000002c       __imp__FreeLibrary@4       0042302c     kernel32:KERNEL32.dll
 0002:00000030       __imp__QueryPerformanceFrequency@4 00423030     kernel32:KERNEL32.dll
 0002:00000034       __imp__QueryPerformanceCounter@4 00423034     kernel32:KERNEL32.dll
 0002:00000038       __imp__SystemTimeToFileTime@8 00423038     kernel32:KERNEL32.dll
 0002:0000003c       __imp__FileTimeToSystemTime@8 0042303c     kernel32:KERNEL32.dll
 0002:00000040       __imp__GetLocalTime@4      00423040     kernel32:KERNEL32.dll
 0002:00000044       __imp__FormatMessageA@28   00423044     kernel32:KERNEL32.dll
 0002:00000048       __imp__SetConsoleTextAttribute@8 00423048     kernel32:KERNEL32.dll
 0002:0000004c       __imp__CreateSemaphoreA@16 0042304c     kernel32:KERNEL32.dll
 0002:00000050       __imp__TlsFree@4           00423050     kernel32:KERNEL32.dll
 0002:00000054       __imp__TlsSetValue@8       00423054     kernel32:KERNEL32.dll
 0002:00000058       __imp__TlsGetValue@4       00423058     kernel32:KERNEL32.dll
 0002:0000005c       __imp__TlsAlloc@0          0042305c     kernel32:KERNEL32.dll
 0002:00000060       __imp__GetCurrentThreadId@0 00423060     kernel32:KERNEL32.dll
 0002:00000064       __imp__GetCurrentThread@0  00423064     kernel32:KERNEL32.dll
 0002:00000068       __imp__GetCurrentProcessId@0 00423068     kernel32:KERNEL32.dll
 0002:0000006c       __imp__Sleep@4             0042306c     kernel32:KERNEL32.dll
 0002:00000070       __imp__GetStdHandle@4      00423070     kernel32:KERNEL32.dll
 0002:00000074       __imp__CloseHandle@4       00423074     kernel32:KERNEL32.dll
 0002:00000078       __imp__GetLastError@0      00423078     kernel32:KERNEL32.dll
 0002:0000007c       __imp__InitializeCriticalSection@4 0042307c     kernel32:KERNEL32.dll
 0002:00000080       __imp__EnterCriticalSection@4 00423080     kernel32:KERNEL32.dll
 0002:00000084       __imp__LeaveCriticalSection@4 00423084     kernel32:KERNEL32.dll
 0002:00000088       __imp__TryEnterCriticalSection@4 00423088     kernel32:KERNEL32.dll
 0002:0000008c       __imp__DeleteCriticalSection@4 0042308c     kernel32:KERNEL32.dll
 0002:00000090       __imp__ReleaseSemaphore@12 00423090     kernel32:KERNEL32.dll
 0002:00000094       __imp__WaitForSingleObject@8 00423094     kernel32:KERNEL32.dll
 0002:00000098       \177KERNEL32_NULL_THUNK_DATA 00423098     kernel32:KERNEL32.dll
 0002:0000009c       __imp___setjmp3            0042309c     vcruntime:VCRUNTIME140.dll
 0002:000000a0       __imp__memset              004230a0     vcruntime:VCRUNTIME140.dll
 0002:000000a4       __imp__memcpy              004230a4     vcruntime:VCRUNTIME140.dll
 0002:000000a8       __imp__memchr              004230a8     vcruntime:VCRUNTIME140.dll
 0002:000000ac       __imp__memmove             004230ac     vcruntime:VCRUNTIME140.dll
 0002:000000b0       __imp___except_handler4_common 004230b0     vcruntime:VCRUNTIME140.dll
 0002:000000b4       __imp__longjmp             004230b4     vcruntime:VCRUNTIME140.dll
 0002:000000b8       __imp__strchr              004230b8     vcruntime:VCRUNTIME140.dll
 0002:000000bc       \177VCRUNTIME140_NULL_THUNK_DATA 004230bc     vcruntime:VCRUNTIME140.dll
 0002:000000c0       __imp__setsockopt@20       004230c0     ws2_32:WS2_32.dll
 0002:000000c4       __imp__sendto@24           004230c4     ws2_32:WS2_32.dll
 0002:000000c8       __imp__send@16             004230c8     ws2_32:WS2_32.dll
 0002:000000cc       __imp__recvfrom@24         004230cc     ws2_32:WS2_32.dll
 0002:000000d0       __imp__recv@16             004230d0     ws2_32:WS2_32.dll
 0002:000000d4       __imp__ntohs@4             004230d4     ws2_32:WS2_32.dll
 0002:000000d8       __imp__ntohl@4             004230d8     ws2_32:WS2_32.dll
 0002:000000dc       __imp__listen@8            004230dc     ws2_32:WS2_32.dll
 0002:000000e0       __imp__WSAIoctl@36         004230e0     ws2_32:WS2_32.dll
 0002:000000e4       __imp__htons@4             004230e4     ws2_32:WS2_32.dll
 0002:000000e8       __imp__htonl@4             004230e8     ws2_32:WS2_32.dll
 0002:000000ec       __imp__getsockopt@20       004230ec     ws2_32:WS2_32.dll
 0002:000000f0       __imp__WSASocketA@24       004230f0     ws2_32:WS2_32.dll
 0002:000000f4       __imp__gethostname@8       004230f4     ws2_32:WS2_32.dll
 0002:000000f8       __imp__connect@12          004230f8     ws2_32:WS2_32.dll
 0002:000000fc       __imp__closesocket@4       004230fc     ws2_32:WS2_32.dll
 0002:00000100       __imp__bind@12             00423100     ws2_32:WS2_32.dll
 0002:00000104       __imp__accept@12           00423104     ws2_32:WS2_32.dll
 0002:00000108       __imp__WSAGetLastError@0   00423108     ws2_32:WS2_32.dll
 0002:0000010c       __imp__WSAStartup@8        0042310c     ws2_32:WS2_32.dll
 0002:00000110       __imp__WSAAddressToStringA@20 00423110     ws2_32:WS2_32.dll
 0002:00000114       __imp__WSAStringToAddressA@20 00423114     ws2_32:WS2_32.dll
 0002:00000118       __imp__ioctlsocket@12      00423118     ws2_32:WS2_32.dll
 0002:0000011c       __imp__gethostbyname@4     0042311c     ws2_32:WS2_32.dll
 0002:00000120       __imp____WSAFDIsSet@8      00423120     ws2_32:WS2_32.dll
 0002:00000124       __imp__select@20           00423124     ws2_32:WS2_32.dll
 0002:00000128       __imp__inet_addr@4         00423128     ws2_32:WS2_32.dll
 0002:0000012c       __imp__getsockname@12      0042312c     ws2_32:WS2_32.dll
 0002:00000130       \177WS2_32_NULL_THUNK_DATA 00423130     ws2_32:WS2_32.dll
 0002:00000134       __imp__atoi                00423134     ucrt:api-ms-win-crt-convert-l1-1-0.dll
 0002:00000138       \177api-ms-win-crt-convert-l1-1-0_NULL_THUNK_DATA 00423138     ucrt:api-ms-win-crt-convert-l1-1-0.dll
 0002:0000013c       __imp___set_new_mode       0042313c     ucrt:api-ms-win-crt-heap-l1-1-0.dll
 0002:00000140       __imp__free                00423140     ucrt:api-ms-win-crt-heap-l1-1-0.dll
 0002:00000144       __imp__malloc              00423144     ucrt:api-ms-win-crt-heap-l1-1-0.dll
 0002:00000148       \177api-ms-win-crt-heap-l1-1-0_NULL_THUNK_DATA 00423148     ucrt:api-ms-win-crt-heap-l1-1-0.dll
 0002:0000014c       __imp___configthreadlocale 0042314c     ucrt:api-ms-win-crt-locale-l1-1-0.dll
 0002:00000150       \177api-ms-win-crt-locale-l1-1-0_NULL_THUNK_DATA 00423150     ucrt:api-ms-win-crt-locale-l1-1-0.dll
 0002:00000154       __imp____setusermatherr    00423154     ucrt:api-ms-win-crt-math-l1-1-0.dll
 0002:00000158       __imp___CIfmod             00423158     ucrt:api-ms-win-crt-math-l1-1-0.dll
 0002:0000015c       __imp___except1            0042315c     ucrt:api-ms-win-crt-math-l1-1-0.dll
 0002:00000160       \177api-ms-win-crt-math-l1-1-0_NULL_THUNK_DATA 00423160     ucrt:api-ms-win-crt-math-l1-1-0.dll
 0002:00000164       __imp___controlfp_s        00423164     ucrt:api-ms-win-crt-runtime-l1-1-0.dll
 0002:00000168       __imp___initialize_onexit_table 00423168     ucrt:api-ms-win-crt-runtime-l1-1-0.dll
 0002:0000016c       __imp___crt_atexit         0042316c     ucrt:api-ms-win-crt-runtime-l1-1-0.dll
 0002:00000170       __imp__terminate           00423170     ucrt:api-ms-win-crt-runtime-l1-1-0.dll
 0002:00000174       __imp___register_onexit_function 00423174     ucrt:api-ms-win-crt-runtime-l1-1-0.dll
 0002:00000178       __imp___register_thread_local_exe_atexit_callback 00423178     ucrt:api-ms-win-crt-runtime-l1-1-0.dll
 0002:0000017c       __imp___seh_filter_exe     0042317c     ucrt:api-ms-win-crt-runtime-l1-1-0.dll
 0002:00000180       __imp___set_app_type       00423180     ucrt:api-ms-win-crt-runtime-l1-1-0.dll
 0002:00000184       __imp____p___argc          00423184     ucrt:api-ms-win-crt-runtime-l1-1-0.dll
 0002:00000188       __imp___configure_narrow_argv 00423188     ucrt:api-ms-win-crt-runtime-l1-1-0.dll
 0002:0000018c       __imp___initialize_narrow_environment 0042318c     ucrt:api-ms-win-crt-runtime-l1-1-0.dll
 0002:00000190       __imp___get_initial_narrow_environment 00423190     ucrt:api-ms-win-crt-runtime-l1-1-0.dll
 0002:00000194       __imp___initterm           00423194     ucrt:api-ms-win-crt-runtime-l1-1-0.dll
 0002:00000198       __imp___initterm_e         00423198     ucrt:api-ms-win-crt-runtime-l1-1-0.dll
 0002:0000019c       __imp__exit                0042319c     ucrt:api-ms-win-crt-runtime-l1-1-0.dll
 0002:000001a0       __imp___exit               004231a0     ucrt:api-ms-win-crt-runtime-l1-1-0.dll
 0002:000001a4       __imp___c_exit             004231a4     ucrt:api-ms-win-crt-runtime-l1-1-0.dll
 0002:000001a8       __imp___cexit              004231a8     ucrt:api-ms-win-crt-runtime-l1-1-0.dll
 0002:000001ac       __imp____p___argv          004231ac     ucrt:api-ms-win-crt-runtime-l1-1-0.dll
 0002:000001b0       \177api-ms-win-crt-runtime-l1-1-0_NULL_THUNK_DATA 004231b0     ucrt:api-ms-win-crt-runtime-l1-1-0.dll
 0002:000001b4       __imp____stdio_common_vfprintf 004231b4     ucrt:api-ms-win-crt-stdio-l1-1-0.dll
 0002:000001b8       __imp___set_fmode          004231b8     ucrt:api-ms-win-crt-stdio-l1-1-0.dll
 0002:000001bc       __imp__puts                004231bc     ucrt:api-ms-win-crt-stdio-l1-1-0.dll
 0002:000001c0       __imp____p__commode        004231c0     ucrt:api-ms-win-crt-stdio-l1-1-0.dll
 0002:000001c4       __imp____acrt_iob_func     004231c4     ucrt:api-ms-win-crt-stdio-l1-1-0.dll
 0002:000001c8       __imp____stdio_common_vsprintf 004231c8     ucrt:api-ms-win-crt-stdio-l1-1-0.dll
 0002:000001cc       \177api-ms-win-crt-stdio-l1-1-0_NULL_THUNK_DATA 004231cc     ucrt:api-ms-win-crt-stdio-l1-1-0.dll
 0002:000001d0       __imp__toupper             004231d0     ucrt:api-ms-win-crt-string-l1-1-0.dll
 0002:000001d4       __imp___strnicmp           004231d4     ucrt:api-ms-win-crt-string-l1-1-0.dll
 0002:000001d8       __imp__isdigit             004231d8     ucrt:api-ms-win-crt-string-l1-1-0.dll
 0002:000001dc       __imp__strncpy             004231dc     ucrt:api-ms-win-crt-string-l1-1-0.dll
 0002:000001e0       __imp__isxdigit            004231e0     ucrt:api-ms-win-crt-string-l1-1-0.dll
 0002:000001e4       __imp__strncmp             004231e4     ucrt:api-ms-win-crt-string-l1-1-0.dll
 0002:000001e8       __imp__isspace             004231e8     ucrt:api-ms-win-crt-string-l1-1-0.dll
 0002:000001ec       __imp__strtok              004231ec     ucrt:api-ms-win-crt-string-l1-1-0.dll
 0002:000001f0       __imp__tolower             004231f0     ucrt:api-ms-win-crt-string-l1-1-0.dll
 0002:000001f4       \177api-ms-win-crt-string-l1-1-0_NULL_THUNK_DATA 004231f4     ucrt:api-ms-win-crt-string-l1-1-0.dll
 0002:000001f8       __imp__rand                004231f8     ucrt:api-ms-win-crt-utility-l1-1-0.dll
 0002:000001fc       \177api-ms-win-crt-utility-l1-1-0_NULL_THUNK_DATA 004231fc     ucrt:api-ms-win-crt-utility-l1-1-0.dll
 0002:00000200       __imp__CoCreateGuid@4      00423200     ole32:ole32.dll
 0002:00000204       \177ole32_NULL_THUNK_DATA  00423204     ole32:ole32.dll
 0002:00000208       ___guard_check_icall_fptr  00423208     MSVCRT:guard_support.obj
 0002:0000020c       ___xc_a                    0042320c     MSVCRT:initializers.obj
 0002:00000214       ___xc_z                    00423214     MSVCRT:initializers.obj
 0002:00000218       ___xi_a                    00423218     MSVCRT:initializers.obj
 0002:00000224       ___xi_z                    00423224     MSVCRT:initializers.obj
 0002:00000228       ___xp_a                    00423228     MSVCRT:initializers.obj
 0002:0000022c       ___xp_z                    0042322c     MSVCRT:initializers.obj
 0002:00000230       ___xt_a                    00423230     MSVCRT:initializers.obj
 0002:00000234       ___xt_z                    00423234     MSVCRT:initializers.obj
 0002:00000240       ??_C@_08BMKPPPGG@SIP?12?40?1@ 00423240     pjsip-core-i386-win32-vc8-release:sip_msg.obj
 0002:00000249       ??_C@_00CNPNBAHC@@         00423249     pjsip-core-i386-win32-vc8-release:sip_msg.obj
 0002:0000024c       ??_C@_05ODKKKCAM@?$DLttl?$DN@ 0042324c     pjsip-core-i386-win32-vc8-release:sip_msg.obj
 0002:00000254       ??_C@_06IKMHKLF@?$DLrport@ 00423254     pjsip-core-i386-win32-vc8-release:sip_msg.obj
 0002:0000025c       ??_C@_07IONINLDO@?$DLmaddr?$DN@ 0042325c     pjsip-core-i386-win32-vc8-release:sip_msg.obj
 0002:00000264       ??_C@_0L@IMDGLAJB@?$DLreceived?$DN@ 00423264     pjsip-core-i386-win32-vc8-release:sip_msg.obj
 0002:00000270       ??_C@_08LMLOEMIC@?$DLbranch?$DN@ 00423270     pjsip-core-i386-win32-vc8-release:sip_msg.obj
 0002:00000280       _pjsip_invite_method       00423280     pjsip-core-i386-win32-vc8-release:sip_msg.obj
 0002:0000028c       _pjsip_cancel_method       0042328c     pjsip-core-i386-win32-vc8-release:sip_msg.obj
 0002:00000298       _pjsip_ack_method          00423298     pjsip-core-i386-win32-vc8-release:sip_msg.obj
 0002:000002a4       _pjsip_bye_method          004232a4     pjsip-core-i386-win32-vc8-release:sip_msg.obj
 0002:000002b0       _pjsip_register_method     004232b0     pjsip-core-i386-win32-vc8-release:sip_msg.obj
 0002:000002bc       _pjsip_options_method      004232bc     pjsip-core-i386-win32-vc8-release:sip_msg.obj
 0002:000002c8       _pjsip_hdr_names           004232c8     pjsip-core-i386-win32-vc8-release:sip_msg.obj
 0002:000004e4       ??_C@_06DBKGGLMH@INVITE@   004234e4     pjsip-core-i386-win32-vc8-release:sip_msg.obj
 0002:000004ec       ??_C@_06JHILMIHF@CANCEL@   004234ec     pjsip-core-i386-win32-vc8-release:sip_msg.obj
 0002:000004f4       ??_C@_03JMECLKOM@ACK@      004234f4     pjsip-core-i386-win32-vc8-release:sip_msg.obj
 0002:000004f8       ??_C@_03BMFBOCK@BYE@       004234f8     pjsip-core-i386-win32-vc8-release:sip_msg.obj
 0002:000004fc       ??_C@_08EINEADGI@REGISTER@ 004234fc     pjsip-core-i386-win32-vc8-release:sip_msg.obj
 0002:00000508       ??_C@_07KDKMIPIP@OPTIONS@  00423508     pjsip-core-i386-win32-vc8-release:sip_msg.obj
 0002:00000510       ??_C@_06MDEHPNLG@Accept@   00423510     pjsip-core-i386-win32-vc8-release:sip_msg.obj
 0002:00000518       ??_C@_0BA@KDJCHKHJ@Accept?9Encoding@ 00423518     pjsip-core-i386-win32-vc8-release:sip_msg.obj
 0002:00000528       ??_C@_0BA@POEGPCPD@Accept?9Language@ 00423528     pjsip-core-i386-win32-vc8-release:sip_msg.obj
 0002:00000538       ??_C@_0L@DDNEKGOG@Alert?9Info@ 00423538     pjsip-core-i386-win32-vc8-release:sip_msg.obj
 0002:00000544       ??_C@_05IEPODGEO@Allow@    00423544     pjsip-core-i386-win32-vc8-release:sip_msg.obj
 0002:0000054c       ??_C@_0BE@KPJFGFDH@Authentication?9Info@ 0042354c     pjsip-core-i386-win32-vc8-release:sip_msg.obj
 0002:00000560       ??_C@_0O@NAFGPKMI@Authorization@ 00423560     pjsip-core-i386-win32-vc8-release:sip_msg.obj
 0002:00000570       ??_C@_07IKPMLMAJ@Call?9ID@ 00423570     pjsip-core-i386-win32-vc8-release:sip_msg.obj
 0002:00000578       ??_C@_01KBJDNOO@i@         00423578     pjsip-core-i386-win32-vc8-release:sip_msg.obj
 0002:0000057c       ??_C@_09HCKFEBLC@Call?9Info@ 0042357c     pjsip-core-i386-win32-vc8-release:sip_msg.obj
 0002:00000588       ??_C@_07PMMFKIFM@Contact@  00423588     pjsip-core-i386-win32-vc8-release:sip_msg.obj
 0002:00000590       ??_C@_01GOHFPIOK@m@        00423590     pjsip-core-i386-win32-vc8-release:sip_msg.obj
 0002:00000594       ??_C@_0BE@LMOOGHBG@Content?9Disposition@ 00423594     pjsip-core-i386-win32-vc8-release:sip_msg.obj
 0002:000005a8       ??_C@_0BB@KFPPKJHF@Content?9Encoding@ 004235a8     pjsip-core-i386-win32-vc8-release:sip_msg.obj
 0002:000005bc       ??_C@_01KGKMHCOC@e@        004235bc     pjsip-core-i386-win32-vc8-release:sip_msg.obj
 0002:000005c0       ??_C@_0BB@PICLCBPP@Content?9Language@ 004235c0     pjsip-core-i386-win32-vc8-release:sip_msg.obj
 0002:000005d4       ??_C@_0P@HOJGPHBA@Content?9Length@ 004235d4     pjsip-core-i386-win32-vc8-release:sip_msg.obj
 0002:000005e4       ??_C@_01HHGOMJKL@l@        004235e4     pjsip-core-i386-win32-vc8-release:sip_msg.obj
 0002:000005e8       ??_C@_0N@LAFFMKKA@Content?9Type@ 004235e8     pjsip-core-i386-win32-vc8-release:sip_msg.obj
 0002:000005f8       ??_C@_01PAPGNFGE@c@        004235f8     pjsip-core-i386-win32-vc8-release:sip_msg.obj
 0002:000005fc       ??_C@_04IHAOMLEL@CSeq@     004235fc     pjsip-core-i386-win32-vc8-release:sip_msg.obj
 0002:00000604       ??_C@_04FMEGDJGD@Date@     00423604     pjsip-core-i386-win32-vc8-release:sip_msg.obj
 0002:0000060c       ??_C@_0L@PGKFFKEH@Error?9Info@ 0042360c     pjsip-core-i386-win32-vc8-release:sip_msg.obj
 0002:00000618       ??_C@_07DABPCBEH@Expires@  00423618     pjsip-core-i386-win32-vc8-release:sip_msg.obj
 0002:00000620       ??_C@_04LMIAFEOL@From@     00423620     pjsip-core-i386-win32-vc8-release:sip_msg.obj
 0002:00000628       ??_C@_01INIBCBCB@f@        00423628     pjsip-core-i386-win32-vc8-release:sip_msg.obj
 0002:0000062c       ??_C@_0M@OJFKFNND@In?9Reply?9To@ 0042362c     pjsip-core-i386-win32-vc8-release:sip_msg.obj
 0002:00000638       ??_C@_0N@KAKEBINL@Max?9Forwards@ 00423638     pjsip-core-i386-win32-vc8-release:sip_msg.obj
 0002:00000648       ??_C@_0N@PNJFOFFK@MIME?9Version@ 00423648     pjsip-core-i386-win32-vc8-release:sip_msg.obj
 0002:00000658       ??_C@_0M@BHCNHHNF@Min?9Expires@ 00423658     pjsip-core-i386-win32-vc8-release:sip_msg.obj
 0002:00000664       ??_C@_0N@MHPBIIPD@Organization@ 00423664     pjsip-core-i386-win32-vc8-release:sip_msg.obj
 0002:00000674       ??_C@_08KGEIBGG@Priority@  00423674     pjsip-core-i386-win32-vc8-release:sip_msg.obj
 0002:00000680       ??_C@_0BD@GKJFGNG@Proxy?9Authenticate@ 00423680     pjsip-core-i386-win32-vc8-release:sip_msg.obj
 0002:00000694       ??_C@_0BE@DCLKKIPG@Proxy?9Authorization@ 00423694     pjsip-core-i386-win32-vc8-release:sip_msg.obj
 0002:000006a8       ??_C@_0O@ICDCLCHE@Proxy?9Require@ 004236a8     pjsip-core-i386-win32-vc8-release:sip_msg.obj
 0002:000006b8       ??_C@_0N@KJFPNEHF@Record?9Route@ 004236b8     pjsip-core-i386-win32-vc8-release:sip_msg.obj
 0002:000006c8       ??_C@_08GBENDHCN@Reply?9To@ 004236c8     pjsip-core-i386-win32-vc8-release:sip_msg.obj
 0002:000006d4       ??_C@_07KMMNJNOB@Require@  004236d4     pjsip-core-i386-win32-vc8-release:sip_msg.obj
 0002:000006dc       ??_C@_0M@CMFFKFHP@Retry?9After@ 004236dc     pjsip-core-i386-win32-vc8-release:sip_msg.obj
 0002:000006e8       ??_C@_05DIKBIPM@Route@     004236e8     pjsip-core-i386-win32-vc8-release:sip_msg.obj
 0002:000006f0       ??_C@_06LGMEBDBC@Server@   004236f0     pjsip-core-i386-win32-vc8-release:sip_msg.obj
 0002:000006f8       ??_C@_07GEKACEDI@Subject@  004236f8     pjsip-core-i386-win32-vc8-release:sip_msg.obj
 0002:00000700       ??_C@_01LKDEMHDF@s@        00423700     pjsip-core-i386-win32-vc8-release:sip_msg.obj
 0002:00000704       ??_C@_09GFDKPDGA@Supported@ 00423704     pjsip-core-i386-win32-vc8-release:sip_msg.obj
 0002:00000710       ??_C@_01DICPFPGM@k@        00423710     pjsip-core-i386-win32-vc8-release:sip_msg.obj
 0002:00000714       ??_C@_09KDGENIOP@Timestamp@ 00423714     pjsip-core-i386-win32-vc8-release:sip_msg.obj
 0002:00000720       ??_C@_02IJGONHOJ@To@       00423720     pjsip-core-i386-win32-vc8-release:sip_msg.obj
 0002:00000724       ??_C@_01PFHFFBPC@t@        00423724     pjsip-core-i386-win32-vc8-release:sip_msg.obj
 0002:00000728       ??_C@_0M@BEECMOIL@Unsupported@ 00423728     pjsip-core-i386-win32-vc8-release:sip_msg.obj
 0002:00000734       ??_C@_0L@DMPACEMJ@User?9Agent@ 00423734     pjsip-core-i386-win32-vc8-release:sip_msg.obj
 0002:00000740       ??_C@_03LDNNKNE@Via@       00423740     pjsip-core-i386-win32-vc8-release:sip_msg.obj
 0002:00000744       ??_C@_01MHEDDDHA@v@        00423744     pjsip-core-i386-win32-vc8-release:sip_msg.obj
 0002:00000748       ??_C@_07KGMMFLDN@Warning@  00423748     pjsip-core-i386-win32-vc8-release:sip_msg.obj
 0002:00000750       ??_C@_0BB@KEDJJIFI@WWW?9Authenticate@ 00423750     pjsip-core-i386-win32-vc8-release:sip_msg.obj
 0002:00000764       ??_C@_0BA@MKEDBJEA@_Unknown?9Header@ 00423764     pjsip-core-i386-win32-vc8-release:sip_msg.obj
 0002:00000774       ??_C@_02KEGNLNML@?0?5@     00423774     pjsip-core-i386-win32-vc8-release:sip_msg.obj
 0002:00000778       ??_C@_03MGEKBFJK@?$DLq?$DN@ 00423778     pjsip-core-i386-win32-vc8-release:sip_msg.obj
 0002:0000077c       ??_C@_09JFABAEBI@?$DLexpires?$DN@ 0042377c     pjsip-core-i386-win32-vc8-release:sip_msg.obj
 0002:00000788       ??_C@_05IIDIOKEA@?$DLtag?$DN@ 00423788     pjsip-core-i386-win32-vc8-release:sip_msg.obj
 0002:00000790       ??_C@_04JBGCGIBB@sips@     00423790     pjsip-core-i386-win32-vc8-release:sip_msg.obj
 0002:00000798       ??_C@_03MPAIKGMI@sip@      00423798     pjsip-core-i386-win32-vc8-release:sip_msg.obj
 0002:0000079c       ??_C@_04IBOFHAPJ@hide@     0042379c     pjsip-core-i386-win32-vc8-release:sip_msg.obj
 0002:000007a4       ??_C@_0BH@JEAOBKFE@Default?5status?5message@ 004237a4     pjsip-core-i386-win32-vc8-release:sip_msg.obj
 0002:000007bc       ??_C@_06CJPKGAJC@Trying@   004237bc     pjsip-core-i386-win32-vc8-release:sip_msg.obj
 0002:000007c4       ??_C@_07KEMHLLKP@Ringing@  004237c4     pjsip-core-i386-win32-vc8-release:sip_msg.obj
 0002:000007cc       ??_C@_0BI@HBFDMPGA@Call?5Is?5Being?5Forwarded@ 004237cc     pjsip-core-i386-win32-vc8-release:sip_msg.obj
 0002:000007e4       ??_C@_06POGAFBAL@Queued@   004237e4     pjsip-core-i386-win32-vc8-release:sip_msg.obj
 0002:000007ec       ??_C@_0BB@FKJCNOGD@Session?5Progress@ 004237ec     pjsip-core-i386-win32-vc8-release:sip_msg.obj
 0002:00000800       ??_C@_02GIPFHKNO@OK@       00423800     pjsip-core-i386-win32-vc8-release:sip_msg.obj
 0002:00000804       ??_C@_08DOBOODLA@Accepted@ 00423804     pjsip-core-i386-win32-vc8-release:sip_msg.obj
 0002:00000810       ??_C@_0BB@HLFEHKPE@Multiple?5Choices@ 00423810     pjsip-core-i386-win32-vc8-release:sip_msg.obj
 0002:00000824       ??_C@_0BC@BPBCNFPI@Moved?5Permanently@ 00423824     pjsip-core-i386-win32-vc8-release:sip_msg.obj
 0002:00000838       ??_C@_0BC@LODIMCJL@Moved?5Temporarily@ 00423838     pjsip-core-i386-win32-vc8-release:sip_msg.obj
 0002:0000084c       ??_C@_09JFBGBFIM@Use?5Proxy@ 0042384c     pjsip-core-i386-win32-vc8-release:sip_msg.obj
 0002:00000858       ??_C@_0BE@MCFGMBHK@Alternative?5Service@ 00423858     pjsip-core-i386-win32-vc8-release:sip_msg.obj
 0002:0000086c       ??_C@_0M@LNAIDEEG@Bad?5Request@ 0042386c     pjsip-core-i386-win32-vc8-release:sip_msg.obj
 0002:00000878       ??_C@_0N@OOAPMOJA@Unauthorized@ 00423878     pjsip-core-i386-win32-vc8-release:sip_msg.obj
 0002:00000888       ??_C@_0BB@LMPIHCBH@Payment?5Required@ 00423888     pjsip-core-i386-win32-vc8-release:sip_msg.obj
 0002:0000089c       ??_C@_09LMDIMFJD@Forbidden@ 0042389c     pjsip-core-i386-win32-vc8-release:sip_msg.obj
 0002:000008a8       ??_C@_09CFCBFJND@Not?5Found@ 004238a8     pjsip-core-i386-win32-vc8-release:sip_msg.obj
 0002:000008b4       ??_C@_0BD@CCIPIALO@Method?5Not?5Allowed@ 004238b4     pjsip-core-i386-win32-vc8-release:sip_msg.obj
 0002:000008c8       ??_C@_0P@HHIDFAOI@Not?5Acceptable@ 004238c8     pjsip-core-i386-win32-vc8-release:sip_msg.obj
 0002:000008d8       ??_C@_0BO@ONPAAOGI@Proxy?5Authentication?5Required@ 004238d8     pjsip-core-i386-win32-vc8-release:sip_msg.obj
 0002:000008f8       ??_C@_0BA@HALFGGF@Request?5Timeout@ 004238f8     pjsip-core-i386-win32-vc8-release:sip_msg.obj
 0002:00000908       ??_C@_04OKIIBCCG@Gone@     00423908     pjsip-core-i386-win32-vc8-release:sip_msg.obj
 0002:00000910       ??_C@_0BJ@MMEIEOIG@Request?5Entity?5Too?5Large@ 00423910     pjsip-core-i386-win32-vc8-release:sip_msg.obj
 0002:0000092c       ??_C@_0BF@LPICFNOC@Request?5URI?5Too?5Long@ 0042392c     pjsip-core-i386-win32-vc8-release:sip_msg.obj
 0002:00000944       ??_C@_0BH@HLJJIAEN@Unsupported?5Media?5Type@ 00423944     pjsip-core-i386-win32-vc8-release:sip_msg.obj
 0002:0000095c       ??_C@_0BH@HMDPMBIK@Unsupported?5URI?5Scheme@ 0042395c     pjsip-core-i386-win32-vc8-release:sip_msg.obj
 0002:00000974       ??_C@_0O@EABFLJJG@Bad?5Extension@ 00423974     pjsip-core-i386-win32-vc8-release:sip_msg.obj
 0002:00000984       ??_C@_0BD@LEDCNIMD@Extension?5Required@ 00423984     pjsip-core-i386-win32-vc8-release:sip_msg.obj
 0002:00000998       ??_C@_0BI@DEDCGMIH@Session?5Timer?5Too?5Small@ 00423998     pjsip-core-i386-win32-vc8-release:sip_msg.obj
 0002:000009b0       ??_C@_0BD@NHGMJMLN@Interval?5Too?5Brief@ 004239b0     pjsip-core-i386-win32-vc8-release:sip_msg.obj
 0002:000009c4       ??_C@_0BI@JBJKOKGE@Temporarily?5Unavailable@ 004239c4     pjsip-core-i386-win32-vc8-release:sip_msg.obj
 0002:000009dc       ??_C@_0CA@DPKMEAMP@Call?1Transaction?5Does?5Not?5Exist@ 004239dc     pjsip-core-i386-win32-vc8-release:sip_msg.obj
 0002:000009fc       ??_C@_0O@KJBLEGOO@Loop?5Detected@ 004239fc     pjsip-core-i386-win32-vc8-release:sip_msg.obj
 0002:00000a0c       ??_C@_0O@CFHODMHD@Too?5Many?5Hops@ 00423a0c     pjsip-core-i386-win32-vc8-release:sip_msg.obj
 0002:00000a1c       ??_C@_0BD@HOIPLGB@Address?5Incomplete@ 00423a1c     pjsip-core-i386-win32-vc8-release:sip_msg.obj
 0002:00000a30       ??_C@_09FNGPAEJC@Ambiguous@ 00423a30     pjsip-core-i386-win32-vc8-release:sip_msg.obj
 0002:00000a3c       ??_C@_09ELAJPHFG@Busy?5Here@ 00423a3c     pjsip-core-i386-win32-vc8-release:sip_msg.obj
 0002:00000a48       ??_C@_0BD@IGJOBDDO@Request?5Terminated@ 00423a48     pjsip-core-i386-win32-vc8-release:sip_msg.obj
 0002:00000a5c       ??_C@_0BE@HMIMPLAH@Not?5Acceptable?5Here@ 00423a5c     pjsip-core-i386-win32-vc8-release:sip_msg.obj
 0002:00000a70       ??_C@_09HKNLJBHH@Bad?5Event@ 00423a70     pjsip-core-i386-win32-vc8-release:sip_msg.obj
 0002:00000a7c       ??_C@_0BA@DKJEBJFB@Request?5Updated@ 00423a7c     pjsip-core-i386-win32-vc8-release:sip_msg.obj
 0002:00000a8c       ??_C@_0BA@KLOCDLCK@Request?5Pending@ 00423a8c     pjsip-core-i386-win32-vc8-release:sip_msg.obj
 0002:00000a9c       ??_C@_0P@EIPIHDNL@Undecipherable@ 00423a9c     pjsip-core-i386-win32-vc8-release:sip_msg.obj
 0002:00000aac       ??_C@_0BG@NJGANGCC@Internal?5Server?5Error@ 00423aac     pjsip-core-i386-win32-vc8-release:sip_msg.obj
 0002:00000ac4       ??_C@_0BA@JGKGKAME@Not?5Implemented@ 00423ac4     pjsip-core-i386-win32-vc8-release:sip_msg.obj
 0002:00000ad4       ??_C@_0M@BNCNLPGM@Bad?5Gateway@ 00423ad4     pjsip-core-i386-win32-vc8-release:sip_msg.obj
 0002:00000ae0       ??_C@_0BE@NGHLFKBN@Service?5Unavailable@ 00423ae0     pjsip-core-i386-win32-vc8-release:sip_msg.obj
 0002:00000af4       ??_C@_0P@KPHBHCBP@Server?5Timeout@ 00423af4     pjsip-core-i386-win32-vc8-release:sip_msg.obj
 0002:00000b04       ??_C@_0BG@DGJHJFEF@Version?5Not?5Supported@ 00423b04     pjsip-core-i386-win32-vc8-release:sip_msg.obj
 0002:00000b1c       ??_C@_0BC@FOIGPIGF@Message?5Too?5Large@ 00423b1c     pjsip-core-i386-win32-vc8-release:sip_msg.obj
 0002:00000b30       ??_C@_0BF@PJIFKKPF@Precondition?5Failure@ 00423b30     pjsip-core-i386-win32-vc8-release:sip_msg.obj
 0002:00000b48       ??_C@_0BA@BNEEJKIK@Busy?5Everywhere@ 00423b48     pjsip-core-i386-win32-vc8-release:sip_msg.obj
 0002:00000b58       ??_C@_07CAMLKJDK@Decline@  00423b58     pjsip-core-i386-win32-vc8-release:sip_msg.obj
 0002:00000b60       ??_C@_0BI@JILKKJAA@Does?5Not?5Exist?5Anywhere@ 00423b60     pjsip-core-i386-win32-vc8-release:sip_msg.obj
 0002:00000b78       ??_C@_0CE@LJDLADFN@No?5response?5from?5destination?5se@ 00423b78     pjsip-core-i386-win32-vc8-release:sip_msg.obj
 0002:00000b9c       ??_C@_0CF@KIECMFPG@Unable?5to?5resolve?5destination?5s@ 00423b9c     pjsip-core-i386-win32-vc8-release:sip_msg.obj
 0002:00000bc4       ??_C@_0CM@KOHFAKJI@Error?5sending?5message?5to?5destin@ 00423bc4     pjsip-core-i386-win32-vc8-release:sip_msg.obj
 0002:00000bf0       ??_C@_0BB@NFGDEPJM@Content?9Length?3?5@ 00423bf0     pjsip-core-i386-win32-vc8-release:sip_msg.obj
 0002:00000c04       ??_C@_03BDDDCMLM@l?3?5@    00423c04     pjsip-core-i386-win32-vc8-release:sip_msg.obj
 0002:00000c08       ??_C@_0L@GLHKEHNL@?5SIP?12?40?$AN?6@ 00423c08     pjsip-core-i386-win32-vc8-release:sip_msg.obj
 0002:00000c14       ??_C@_08JLDHODKJ@SIP?12?40?5@ 00423c14     pjsip-core-i386-win32-vc8-release:sip_msg.obj
 0002:00000c20       ??_C@_0DH@DHKJLILJ@Header?5with?5no?5vptr?5encountered@ 00423c20     pjsip-core-i386-win32-vc8-release:sip_msg.obj
 0002:00000c58       ??_C@_07KCAKOOLP@sip_msg@  00423c58     pjsip-core-i386-win32-vc8-release:sip_msg.obj
 0002:00000c60       ??_C@_0P@GJMOGDPG@Content?9Type?3?5@ 00423c60     pjsip-core-i386-win32-vc8-release:sip_msg.obj
 0002:00000c70       ??_C@_03ELFADMOK@c?3?5@    00423c70     pjsip-core-i386-win32-vc8-release:sip_msg.obj
 0002:00000c74       ??_C@_0BJ@MGECBGBK@Module?5?$CC?$CF?4?$CKs?$CC?5registered@ 00423c74     pjsip-core-i386-win32-vc8-release:sip_endpoint.obj
 0002:00000c90       ??_C@_0P@EGLGAFCL@sip_endpoint?4c@ 00423c90     pjsip-core-i386-win32-vc8-release:sip_endpoint.obj
 0002:00000ca0       ??_C@_0CK@DNCAODEI@Module?5?$CC?$CF?4?$CKs?$CC?5can?5not?5be?5unregi@ 00423ca0     pjsip-core-i386-win32-vc8-release:sip_endpoint.obj
 0002:00000ccc       ??_C@_0BL@HDLPHBNM@Module?5?$CC?$CF?4?$CKs?$CC?5unregistered@ 00423ccc     pjsip-core-i386-win32-vc8-release:sip_endpoint.obj
 0002:00000ce8       ??_C@_0BO@COOMMINE@Creating?5endpoint?5instance?4?4?4@ 00423ce8     pjsip-core-i386-win32-vc8-release:sip_endpoint.obj
 0002:00000d08       ??_C@_06NKPEEELK@pept?$CFp@ 00423d08     pjsip-core-i386-win32-vc8-release:sip_endpoint.obj
 0002:00000d10       ??_C@_05BKDCOKEM@ept?$CFp@ 00423d10     pjsip-core-i386-win32-vc8-release:sip_endpoint.obj
 0002:00000d18       ??_C@_06CEEOCEHG@edpt?$CFp@ 00423d18     pjsip-core-i386-win32-vc8-release:sip_endpoint.obj
 0002:00000d20       ??_C@_0CB@HGCDKNNC@Error?5creating?5resolver?5instanc@ 00423d20     pjsip-core-i386-win32-vc8-release:sip_endpoint.obj
 0002:00000d44       ??_C@_0BI@MLLMLNGM@Error?5creating?5endpoint@ 00423d44     pjsip-core-i386-win32-vc8-release:sip_endpoint.obj
 0002:00000d5c       ??_C@_0BK@KKFMILKM@Unable?5to?5create?5pool?5?$CFs?$CB@ 00423d5c     pjsip-core-i386-win32-vc8-release:sip_endpoint.obj
 0002:00000d78       ??_C@_0CC@POJNFGFL@Distributing?5rdata?5to?5modules?3?5@ 00423d78     pjsip-core-i386-win32-vc8-release:sip_endpoint.obj
 0002:00000d9c       ??_C@_05MMMMAHGD@?5From@   00423d9c     pjsip-core-i386-win32-vc8-release:sip_endpoint.obj
 0002:00000da4       ??_C@_03PHFJHONJ@?5To@     00423da4     pjsip-core-i386-win32-vc8-release:sip_endpoint.obj
 0002:00000da8       ??_C@_04CNJKNNNB@?5Via@    00423da8     pjsip-core-i386-win32-vc8-release:sip_endpoint.obj
 0002:00000db0       ??_C@_05PHECJIMD@?5CSeq@   00423db0     pjsip-core-i386-win32-vc8-release:sip_endpoint.obj
 0002:00000db8       ??_C@_0EM@MDGMOKGH@Error?5processing?5packet?5from?5?$CFs@ 00423db8     pjsip-core-i386-win32-vc8-release:sip_endpoint.obj
 0002:00000e04       ??_C@_0CA@HOLDFAO@Processing?5incoming?5message?3?5?$CFs@ 00423e04     pjsip-core-i386-win32-vc8-release:sip_endpoint.obj
 0002:00000e24       ??_C@_0DD@CJCKLIHE@?$CFs?5from?5?$CFs?3?$CFd?5was?5dropped?1unhan@ 00423e24     pjsip-core-i386-win32-vc8-release:sip_endpoint.obj
 0002:00000e58       ??_C@_0M@HFADNKMO@?3?5?$FLerr?5?$CFd?$FN?5@ 00423e58     pjsip-core-i386-win32-vc8-release:sip_endpoint.obj
 0002:00000e64       ??_C@_0N@IDBMKGKC@UNIDENTIFIED@ 00423e64     pjsip-core-i386-win32-vc8-release:sip_util.obj
 0002:00000e74       ??_C@_05BLGDNOJI@TIMER@    00423e74     pjsip-core-i386-win32-vc8-release:sip_util.obj
 0002:00000e7c       ??_C@_06FHCLPGGO@TX_MSG@   00423e7c     pjsip-core-i386-win32-vc8-release:sip_util.obj
 0002:00000e84       ??_C@_06DEPLMDFE@RX_MSG@   00423e84     pjsip-core-i386-win32-vc8-release:sip_util.obj
 0002:00000e8c       ??_C@_0BA@DJFINPGH@TRANSPORT_ERROR@ 00423e8c     pjsip-core-i386-win32-vc8-release:sip_util.obj
 0002:00000e9c       ??_C@_09DGJBKMAD@TSX_STATE@ 00423e9c     pjsip-core-i386-win32-vc8-release:sip_util.obj
 0002:00000ea8       ??_C@_04OOEKJIOI@USER@     00423ea8     pjsip-core-i386-win32-vc8-release:sip_util.obj
 0002:00000eb0       ??_C@_04CIMGMMMG@text@     00423eb0     pjsip-core-i386-win32-vc8-release:sip_util.obj
 0002:00000eb8       ??_C@_05CGDPOPDB@plain@    00423eb8     pjsip-core-i386-win32-vc8-release:sip_util.obj
 0002:00000ec0       ??_C@_0M@PJOLBNIF@?$CFs?5created?4@ 00423ec0     pjsip-core-i386-win32-vc8-release:sip_util.obj
 0002:00000ecc       ??_C@_08OKOOPKMJ@endpoint@ 00423ecc     pjsip-core-i386-win32-vc8-release:sip_util.obj
 0002:00000ed8       ??_C@_0L@IOBEOHFD@?$CFs?5created@ 00423ed8     pjsip-core-i386-win32-vc8-release:sip_util.obj
 0002:00000ee8       ??_C@_0ED@BNKEGDBC@Automatic?5switch?5to?5TLS?5transpo@ 00423ee8     pjsip-core-i386-win32-vc8-release:sip_util.obj
 0002:00000f2c       ??_C@_07LDFFKCFH@z9hG4bK@  00423f2c     pjsip-core-i386-win32-vc8-release:sip_util.obj
 0002:00000f34       ??_C@_05NKHOCLEE@alias@    00423f34     pjsip-core-i386-win32-vc8-release:sip_util.obj
 0002:00000f3c       ??_C@_0DF@HEHPNNHP@?$CFs?5exceeds?5UDP?5size?5threshold?5?$CI@ 00423f3c     pjsip-core-i386-win32-vc8-release:sip_util.obj
 0002:00000f74       ??_C@_0DO@JCGKHENM@?$CFs?3?5skipping?5target?5resolution?5@ 00423f74     pjsip-core-i386-win32-vc8-release:sip_util.obj
 0002:00000fb4       ??_C@_0BN@BEFELMIM@Warning?3?5pj_ioqueue_recvfrom@ 00423fb4     pjsip-core-i386-win32-vc8-release:sip_transport_udp.obj
 0002:00000fd8       ??_C@_0EC@ICGMJAB@FATAL?3?5pj_ioqueue_recvfrom?$CI?$CJ?5er@ 00423fd8     pjsip-core-i386-win32-vc8-release:sip_transport_udp.obj
 0002:0000101c       ??_C@_0BM@INPFFNPD@SIP?5UDP?5transport?5destroyed@ 0042401c     pjsip-core-i386-win32-vc8-release:sip_transport_udp.obj
 0002:00001038       ??_C@_0BJ@MMFAKBFN@udp?5?$CFs?5?$FLpublished?5as?5?$CFs?$FN@ 00424038     pjsip-core-i386-win32-vc8-release:sip_transport_udp.obj
 0002:00001054       ??_C@_07LINNJFLK@udpv6?$CFp@ 00424054     pjsip-core-i386-win32-vc8-release:sip_transport_udp.obj
 0002:0000105c       ??_C@_01OHGJGJJP@?$FL@     0042405c     pjsip-core-i386-win32-vc8-release:sip_transport_udp.obj
 0002:00001060       ??_C@_01LBDDMOBJ@?$FN@     00424060     pjsip-core-i386-win32-vc8-release:sip_transport_udp.obj
 0002:00001064       ??_C@_05DOGEOMC@udp?$CFp@  00424064     pjsip-core-i386-win32-vc8-release:sip_transport_udp.obj
 0002:0000106c       ??_C@_03OPEAKHDL@UDP@      0042406c     pjsip-core-i386-win32-vc8-release:sip_transport_udp.obj
 0002:00001070       ??_C@_07OHKHACFK@0?40?40?40@ 00424070     pjsip-core-i386-win32-vc8-release:sip_transport_udp.obj
 0002:00001078       ??_C@_03LHJHGOJD@?3?30@    00424078     pjsip-core-i386-win32-vc8-release:sip_transport_udp.obj
 0002:0000107c       ??_C@_05KBHICJDA@rtd?$CFp@ 0042407c     pjsip-core-i386-win32-vc8-release:sip_transport_udp.obj
 0002:00001084       ??_C@_0DB@MDELAJDF@SIP?5?$CFs?5started?0?5published?5addre@ 00424084     pjsip-core-i386-win32-vc8-release:sip_transport_udp.obj
 0002:000010b8       ??_C@_0BC@BDGDHMHI@SIP?5UDP?5transport@ 004240b8     pjsip-core-i386-win32-vc8-release:sip_transport_udp.obj
 0002:000010cc       ??_C@_0BE@KOJAAPOH@sip_transport_udp?4c@ 004240cc     pjsip-core-i386-win32-vc8-release:sip_transport_udp.obj
 0002:000010e0       ??_C@_0BB@IDOBLAPN@?$CFs?3?5?$CFs?5?$FLcode?$DN?$CFd?$FN@ 004240e0     pjsip-core-i386-win32-vc8-release:sip_transport_tcp.obj
 0002:000010f4       ??_C@_08MPFFJDIO@tcptp?3?$CFd@ 004240f4     pjsip-core-i386-win32-vc8-release:sip_transport_tcp.obj
 0002:00001100       ??_C@_0BJ@FIMDAGCE@tcp?5?$CFs?5?$FLpublished?5as?5?$CFs?$FN@ 00424100     pjsip-core-i386-win32-vc8-release:sip_transport_tcp.obj
 0002:0000111c       ??_C@_0DG@DPHCIHLF@SIP?5TCP?5listener?5ready?5for?5inco@ 0042411c     pjsip-core-i386-win32-vc8-release:sip_transport_tcp.obj
 0002:00001154       ??_C@_0BP@LNLAIFOB@SIP?5TCP?5is?5ready?5?$CIclient?5only?$CJ@ 00424154     pjsip-core-i386-win32-vc8-release:sip_transport_tcp.obj
 0002:00001174       ??_C@_05BHOEAFPA@tcptp@    00424174     pjsip-core-i386-win32-vc8-release:sip_transport_tcp.obj
 0002:0000117c       ??_C@_01DHDKHMHF@6@        0042417c     pjsip-core-i386-win32-vc8-release:sip_transport_tcp.obj
 0002:00001180       ??_C@_0BM@HKGJKAHK@SIP?5TCP?5transport?5destroyed@ 00424180     pjsip-core-i386-win32-vc8-release:sip_transport_tcp.obj
 0002:0000119c       ??_C@_04FMMHFHOO@?$AN?6?$AN?6@ 0042419c     pjsip-core-i386-win32-vc8-release:sip_transport_tcp.obj
 0002:000011a4       ??_C@_03FPEIBLKH@tcp@      004241a4     pjsip-core-i386-win32-vc8-release:sip_transport_tcp.obj
 0002:000011a8       ??_C@_06GFDFLLAN@tcps?$CFp@ 004241a8     pjsip-core-i386-win32-vc8-release:sip_transport_tcp.obj
 0002:000011b0       ??_C@_06DFCMOMJC@tcpc?$CFp@ 004241b0     pjsip-core-i386-win32-vc8-release:sip_transport_tcp.obj
 0002:000011b8       ??_C@_08CNIFCNBJ@?$CFs?5to?5?$CFs@ 004241b8     pjsip-core-i386-win32-vc8-release:sip_transport_tcp.obj
 0002:000011c4       ??_C@_06HJHJCKIO@server@   004241c4     pjsip-core-i386-win32-vc8-release:sip_transport_tcp.obj
 0002:000011cc       ??_C@_06DGDLPBAN@client@   004241cc     pjsip-core-i386-win32-vc8-release:sip_transport_tcp.obj
 0002:000011d4       ??_C@_0BJ@DFHDKEKC@TCP?5?$CFs?5transport?5created@ 004241d4     pjsip-core-i386-win32-vc8-release:sip_transport_tcp.obj
 0002:000011f0       ??_C@_0CL@FENNCGAI@TCP?5transport?5destroyed?5with?5re@ 004241f0     pjsip-core-i386-win32-vc8-release:sip_transport_tcp.obj
 0002:0000121c       ??_C@_0CB@PCGILDE@TCP?5transport?5destroyed?5normall@ 0042421c     pjsip-core-i386-win32-vc8-release:sip_transport_tcp.obj
 0002:00001240       ??_C@_0BG@HHDCAEDN@Unable?5to?5create?5pool@ 00424240     pjsip-core-i386-win32-vc8-release:sip_transport_tcp.obj
 0002:00001258       ??_C@_0CM@POHAPFFF@pj_activesock_start_read?$CI?$CJ?5erro@ 00424258     pjsip-core-i386-win32-vc8-release:sip_transport_tcp.obj
 0002:00001284       ??_C@_0BI@FPEGINLL@outgoing?5SIP?5TCP?5socket@ 00424284     pjsip-core-i386-win32-vc8-release:sip_transport_tcp.obj
 0002:0000129c       ??_C@_0CI@ILHHONCL@TCP?5transport?5?$CFs?5is?5connecting?5@ 0042429c     pjsip-core-i386-win32-vc8-release:sip_transport_tcp.obj
 0002:000012c4       ??_C@_0DO@EBBJGFLM@TCP?5listener?5?$CFs?3?5got?5incoming?5T@ 004242c4     pjsip-core-i386-win32-vc8-release:sip_transport_tcp.obj
 0002:00001304       ??_C@_0BI@LLEHCIEH@incoming?5SIP?5TCP?5socket@ 00424304     pjsip-core-i386-win32-vc8-release:sip_transport_tcp.obj
 0002:0000131c       ??_C@_0BI@EPFKOGCB@New?5transport?5cancelled@ 0042431c     pjsip-core-i386-win32-vc8-release:sip_transport_tcp.obj
 0002:00001334       ??_C@_0BK@CIEPOKAA@TCP?5send?$CI?$CJ?5error?0?5sent?$DN?$CFd@ 00424334     pjsip-core-i386-win32-vc8-release:sip_transport_tcp.obj
 0002:00001350       ??_C@_0BG@IILKCFP@TCP?5connection?5closed@ 00424350     pjsip-core-i386-win32-vc8-release:sip_transport_tcp.obj
 0002:00001368       ??_C@_0BE@FIBBDPPG@TCP?5connect?$CI?$CJ?5error@ 00424368     pjsip-core-i386-win32-vc8-release:sip_transport_tcp.obj
 0002:0000137c       ??_C@_0CE@BPIOHMBA@TCP?5transport?5?$CFs?5is?5connected?5t@ 0042437c     pjsip-core-i386-win32-vc8-release:sip_transport_tcp.obj
 0002:000013a0       ??_C@_0CE@CHIBLCGN@Sending?5?$CFd?5byte?$CIs?$CJ?5keep?9alive?5t@ 004243a0     pjsip-core-i386-win32-vc8-release:sip_transport_tcp.obj
 0002:000013c4       ??_C@_0CA@COAPONPJ@Error?5sending?5keep?9alive?5packet@ 004243c4     pjsip-core-i386-win32-vc8-release:sip_transport_tcp.obj
 0002:000013e4       ??_C@_0BI@POMKCEN@SIP?5TCP?5listener?5socket@ 004243e4     pjsip-core-i386-win32-vc8-release:sip_transport_tcp.obj
 0002:000013fc       ??_C@_0BD@DMEJLMEH@fail?5set?5reuseaddr@ 004243fc     pjsip-core-i386-win32-vc8-release:sip_transport_tcp.obj
 0002:00001410       ??_C@_05EHILDPJH@TRACE@    00424410     pjsip-core-i386-win32-vc8-release:sip_transport_tcp.obj
 0002:00001418       ??_C@_0CF@JENAKNGB@Warning?3?5error?5applying?5SO_REUS@ 00424418     pjsip-core-i386-win32-vc8-release:sip_transport_tcp.obj
 0002:00001440       ??_C@_06BMAPCEPF@?$DLuser?$DN@ 00424440     pjsip-core-i386-win32-vc8-release:sip_uri.obj
 0002:00001448       ??_C@_08FIHANMDK@?$DLmethod?$DN@ 00424448     pjsip-core-i386-win32-vc8-release:sip_uri.obj
 0002:00001454       ??_C@_0M@OGEJDPOO@?$DLtransport?$DN@ 00424454     pjsip-core-i386-win32-vc8-release:sip_uri.obj
 0002:00001460       ??_C@_03KFFFHGHD@?$DLlr@   00424460     pjsip-core-i386-win32-vc8-release:sip_uri.obj
 0002:00001464       ??_C@_04CCHAHKJA@user@     00424464     pjsip-core-i386-win32-vc8-release:sip_parser.obj
 0002:0000146c       ??_C@_06GABBCIBA@method@   0042446c     pjsip-core-i386-win32-vc8-release:sip_parser.obj
 0002:00001474       ??_C@_09PBENLGJM@transport@ 00424474     pjsip-core-i386-win32-vc8-release:sip_parser.obj
 0002:00001480       ??_C@_05LIJGAEPJ@maddr@    00424480     pjsip-core-i386-win32-vc8-release:sip_parser.obj
 0002:00001488       ??_C@_02FMHKAPNN@lr@       00424488     pjsip-core-i386-win32-vc8-release:sip_parser.obj
 0002:0000148c       ??_C@_03LNLCDKEI@tel@      0042448c     pjsip-core-i386-win32-vc8-release:sip_parser.obj
 0002:00001490       ??_C@_06KAEOJLJM@branch@   00424490     pjsip-core-i386-win32-vc8-release:sip_parser.obj
 0002:00001498       ??_C@_03KAFGPDAP@ttl@      00424498     pjsip-core-i386-win32-vc8-release:sip_parser.obj
 0002:0000149c       ??_C@_08CIDECLFI@received@ 0042449c     pjsip-core-i386-win32-vc8-release:sip_parser.obj
 0002:000014a8       ??_C@_01IIACKFLH@q@        004244a8     pjsip-core-i386-win32-vc8-release:sip_parser.obj
 0002:000014ac       ??_C@_07MJGJEDBB@expires@  004244ac     pjsip-core-i386-win32-vc8-release:sip_parser.obj
 0002:000014b4       ??_C@_03FJEPELFP@tag@      004244b4     pjsip-core-i386-win32-vc8-release:sip_parser.obj
 0002:000014b8       ??_C@_05IOGGPFMA@rport@    004244b8     pjsip-core-i386-win32-vc8-release:sip_parser.obj
 0002:000014c0       ??_C@_0EG@NDDOOCLK@NULL?5input?5string?0?5invalid?5inpu@ 004244c0     pjsip-core-i386-win32-vc8-release:sip_parser.obj
 0002:00001508       ??_C@_0DG@PAKEPEOC@String?5value?5was?5less?5than?5the?5@ 00424508     pjsip-core-i386-win32-vc8-release:sip_parser.obj
 0002:00001540       ??_C@_0DJ@LBDEGIMP@String?5value?5was?5greater?5than?5t@ 00424540     pjsip-core-i386-win32-vc8-release:sip_parser.obj
 0002:0000157c       ??_C@_0O@NIPGCINC@Unknown?5error@ 0042457c     pjsip-core-i386-win32-vc8-release:sip_parser.obj
 0002:0000158c       ??_C@_0BJ@JCIGOHAI@Error?5parsing?5?8?$CF?4?$CKs?8?3?5?$CFs@ 0042458c     pjsip-core-i386-win32-vc8-release:sip_parser.obj
 0002:000015a8       ??_C@_0N@CDHGOKB@sip_parser?4c@ 004245a8     pjsip-core-i386-win32-vc8-release:sip_parser.obj
 0002:000015b8       ??_C@_0BN@NMLJIDND@Can?8t?5parse?5input?5string?3?5?$CFs@ 004245b8     pjsip-core-i386-win32-vc8-release:sip_parser.obj
 0002:000015d8       ??_C@_0BD@IGJCFAAL@PJSIP?5syntax?5error@ 004245d8     pjsip-core-i386-win32-vc8-release:sip_parser.obj
 0002:000015ec       ??_C@_0BK@PNNGKLIN@PJSIP?5invalid?5value?5error@ 004245ec     pjsip-core-i386-win32-vc8-release:sip_parser.obj
 0002:00001608       ??_C@_02PCIJFNDE@?$AN?6@   00424608     pjsip-core-i386-win32-vc8-release:sip_parser.obj
 0002:0000160c       ??_C@_03MGGIELLM@?0?$AN?6@ 0042460c     pjsip-core-i386-win32-vc8-release:sip_parser.obj
 0002:00001610       ??_C@_0L@LGCFMBHL@?9?4?$CB?$CF?$CK_?$GA?8?$HO?$CL@ 00424610     pjsip-core-i386-win32-vc8-release:sip_parser.obj
 0002:0000161c       ??_C@_01FGNFDNOH@?$CF@     0042461c     pjsip-core-i386-win32-vc8-release:sip_parser.obj
 0002:00001620       ??_C@_01JLIPDDHJ@?3@       00424620     pjsip-core-i386-win32-vc8-release:sip_parser.obj
 0002:00001624       ??_C@_03HGEHODII@_?9?4@    00424624     pjsip-core-i386-win32-vc8-release:sip_parser.obj
 0002:00001628       ??_C@_0N@INHGOOCE@abcdefABCDEF@ 00424628     pjsip-core-i386-win32-vc8-release:sip_parser.obj
 0002:00001638       ??_C@_0BC@EIHPKHIH@?$FL?$FN?1?3?$CG?$CL$?9_?4?$CB?$HO?$CK?8?$CI?$CJ?$CF@ 00424638     pjsip-core-i386-win32-vc8-release:sip_parser.obj
 0002:0000164c       ??_C@_0BC@DHLPLEEN@?$FL?$FN?1?$DP?3?$CL$?9_?4?$CB?$HO?$CK?8?$CI?$CJ?$CF@ 0042464c     pjsip-core-i386-win32-vc8-release:sip_parser.obj
 0002:00001660       ??_C@_0BD@FAKEDBHK@?9_?4?$CB?$HO?$CK?8?$CI?$CJ?$CF?$CG?$DN?$CL$?0?$DL?$DP?1@ 00424660     pjsip-core-i386-win32-vc8-release:sip_parser.obj
 0002:00001674       ??_C@_01IPJKGB@?$CD@       00424674     pjsip-core-i386-win32-vc8-release:sip_parser.obj
 0002:00001678       ??_C@_0BA@GJPAFF@?9_?4?$CB?$HO?$CK?8?$CI?$CJ?$CF?$CG?$DN?$CL$?0@ 00424678     pjsip-core-i386-win32-vc8-release:sip_parser.obj
 0002:00001688       ??_C@_04INEOGBDO@?$EA?5?6?$DO@ 00424688     pjsip-core-i386-win32-vc8-release:sip_parser.obj
 0002:00001690       ??_C@_04FOECIMDB@?3?$AN?6?$DM@ 00424690     pjsip-core-i386-win32-vc8-release:sip_parser.obj
 0002:00001698       ??_C@_0BH@KMKLEGFJ@?$CD?$DP?$DL?3?$EA?$CG?$DN?$CL?9_?4?$CB?$HO?$CK?8?$CI?$CJ?$CF$?0?1?$CF@ 00424698     pjsip-core-i386-win32-vc8-release:sip_parser.obj
 0002:000016b0       ??_C@_03EDDBLLFO@?6?$AN?6@ 004246b0     pjsip-core-i386-win32-vc8-release:sip_parser.obj
 0002:000016b4       ??_C@_03MCPDGLLE@SIP@      004246b4     pjsip-core-i386-win32-vc8-release:sip_parser.obj
 0002:000016b8       ??_C@_03GJAMENNA@2?40@     004246b8     pjsip-core-i386-win32-vc8-release:sip_parser.obj
 0002:000016bc       ??_C@_09FEKOPBOI@multipart@ 004246bc     pjsip-core-i386-win32-vc8-release:sip_parser.obj
 0002:000016c8       ??_C@_0N@KMCODECP@Request?5Line@ 004246c8     pjsip-core-i386-win32-vc8-release:sip_parser.obj
 0002:000016d8       ??_C@_0M@KNCMEJPH@Status?5Line@ 004246d8     pjsip-core-i386-win32-vc8-release:sip_parser.obj
 0002:000016e4       ??_C@_01CLKCMJKC@?5@       004246e4     pjsip-core-i386-win32-vc8-release:sip_parser.obj
 0002:000016e8       ??_C@_0CM@MBFLJJMP@Error?5parsing?5header?3?5?8?$CF?4?$CKs?8?5li@ 004246e8     pjsip-core-i386-win32-vc8-release:sip_parser.obj
 0002:00001718       ??_C@_0FJ@MFGCGKIL@DNS?5resolver?5not?5available?0?5tar@ 00424718     pjsip-core-i386-win32-vc8-release:sip_resolve.obj
 0002:00001774       ??_C@_0O@DMBGNNMG@sip_resolve?4c@ 00424774     pjsip-core-i386-win32-vc8-release:sip_resolve.obj
 0002:00001784       ??_C@_0DH@DPGIKKNN@Target?5?8?$CF?4?$CKs?3?$CFd?8?5type?$DN?$CFs?5resolv@ 00424784     pjsip-core-i386-win32-vc8-release:sip_resolve.obj
 0002:000017bc       ??_C@_0M@EKOGDFHO@_sips?4_tcp?4@ 004247bc     pjsip-core-i386-win32-vc8-release:sip_resolve.obj
 0002:000017c8       ??_C@_0L@CGLNHIHI@_sip?4_tcp?4@ 004247c8     pjsip-core-i386-win32-vc8-release:sip_resolve.obj
 0002:000017d4       ??_C@_0L@IGAKGJHB@_sip?4_udp?4@ 004247d4     pjsip-core-i386-win32-vc8-release:sip_resolve.obj
 0002:000017e0       ??_C@_0EE@KKBDDFND@Starting?5async?5DNS?5?$CFs?5query?3?5ta@ 004247e0     pjsip-core-i386-win32-vc8-release:sip_resolve.obj
 0002:00001824       ??_C@_0CG@CBPKEJKE@Failed?5to?5resolve?5?8?$CF?4?$CKs?8?4?5Err?$DN?$CF@ 00424824     pjsip-core-i386-win32-vc8-release:sip_resolve.obj
 0002:0000184c       ??_C@_0CD@MNOGDEHE@DNS?5A?5record?5resolution?5failed?3@ 0042484c     pjsip-core-i386-win32-vc8-release:sip_resolve.obj
 0002:00001870       ??_C@_0CG@MIJEEMDF@DNS?5AAAA?5record?5resolution?5fail@ 00424870     pjsip-core-i386-win32-vc8-release:sip_resolve.obj
 0002:00001898       ??_C@_0CI@CCJDGPEP@DNS?5A?1AAAA?5record?5resolution?5fa@ 00424898     pjsip-core-i386-win32-vc8-release:sip_resolve.obj
 0002:000018c0       ??_C@_0O@EMLDOJH@mod?9msg?9print@ 004248c0     pjsip-core-i386-win32-vc8-release:sip_transport.obj
 0002:000018d0       ??_C@_0M@NNPCGPMF@Unspecified@ 004248d0     pjsip-core-i386-win32-vc8-release:sip_transport.obj
 0002:000018dc       ??_C@_0O@KHAHCMDL@UDP?5transport@ 004248dc     pjsip-core-i386-win32-vc8-release:sip_transport.obj
 0002:000018ec       ??_C@_03FCLDNGNL@TCP@      004248ec     pjsip-core-i386-win32-vc8-release:sip_transport.obj
 0002:000018f0       ??_C@_0O@EHHLMLBF@TCP?5transport@ 004248f0     pjsip-core-i386-win32-vc8-release:sip_transport.obj
 0002:00001900       ??_C@_03HCMCMCCF@TLS@      00424900     pjsip-core-i386-win32-vc8-release:sip_transport.obj
 0002:00001904       ??_C@_0O@BHJFMMNA@TLS?5transport@ 00424904     pjsip-core-i386-win32-vc8-release:sip_transport.obj
 0002:00001914       ??_C@_04BOMBJBBC@SCTP@     00424914     pjsip-core-i386-win32-vc8-release:sip_transport.obj
 0002:0000191c       ??_C@_0P@BEPMAJFA@SCTP?5transport@ 0042491c     pjsip-core-i386-win32-vc8-release:sip_transport.obj
 0002:0000192c       ??_C@_04KGNEGCGI@LOOP@     0042492c     pjsip-core-i386-win32-vc8-release:sip_transport.obj
 0002:00001934       ??_C@_0BD@IJLEDLFM@Loopback?5transport@ 00424934     pjsip-core-i386-win32-vc8-release:sip_transport.obj
 0002:00001948       ??_C@_0L@PGGNCDOP@LOOP?9DGRAM@ 00424948     pjsip-core-i386-win32-vc8-release:sip_transport.obj
 0002:00001954       ??_C@_0BM@JFHDLEFO@Loopback?5datagram?5transport@ 00424954     pjsip-core-i386-win32-vc8-release:sip_transport.obj
 0002:00001970       ??_C@_0BD@LIBJHFGK@UDP?5IPv6?5transport@ 00424970     pjsip-core-i386-win32-vc8-release:sip_transport.obj
 0002:00001984       ??_C@_0BD@IONFPPFG@TCP?5IPv6?5transport@ 00424984     pjsip-core-i386-win32-vc8-release:sip_transport.obj
 0002:00001998       ??_C@_0BD@CLDAAALK@TLS?5IPv6?5transport@ 00424998     pjsip-core-i386-win32-vc8-release:sip_transport.obj
 0002:000019ac       ??_C@_06HHKALCGB@tdta?$CFp@ 004249ac     pjsip-core-i386-win32-vc8-release:sip_transport.obj
 0002:000019b4       ??_C@_0BF@FNAOFPOF@Destroying?5txdata?5?$CFs@ 004249b4     pjsip-core-i386-win32-vc8-release:sip_transport.obj
 0002:000019cc       ??_C@_0M@JCCICOOO@INVALID?5MSG@ 004249cc     pjsip-core-i386-win32-vc8-release:sip_transport.obj
 0002:000019d8       ??_C@_0BO@FBJFIDDA@Request?5msg?5?$CF?4?$CKs?1cseq?$DN?$CFd?5?$CI?$CFs?$CJ@ 004249d8     pjsip-core-i386-win32-vc8-release:sip_transport.obj
 0002:000019f8       ??_C@_0CC@DIPPPFIF@Response?5msg?5?$CFd?1?$CF?4?$CKs?1cseq?$DN?$CFd?5?$CI?$CF@ 004249f8     pjsip-core-i386-win32-vc8-release:sip_transport.obj
 0002:00001a1c       ??_C@_04HIBGFPH@NULL@      00424a1c     pjsip-core-i386-win32-vc8-release:sip_transport.obj
 0002:00001a24       ??_C@_0BA@BCOMPIDA@sip_transport?4c@ 00424a24     pjsip-core-i386-win32-vc8-release:sip_transport.obj
 0002:00001a34       ??_C@_05MIOBCJBH@rdata@    00424a34     pjsip-core-i386-win32-vc8-release:sip_transport.obj
 0002:00001a3c       ??_C@_02BBAHNLBA@?$CFp@    00424a3c     pjsip-core-i386-win32-vc8-release:sip_transport.obj
 0002:00001a40       ??_C@_0CG@GHPNJCCG@Unable?5to?5send?5?$CFs?3?5message?5is?5p@ 00424a40     pjsip-core-i386-win32-vc8-release:sip_transport.obj
 0002:00001a68       ??_C@_0CF@OPJOJNIN@Transport?5?$CFs?5shutting?5down?0?5for@ 00424a68     pjsip-core-i386-win32-vc8-release:sip_transport.obj
 0002:00001a90       ??_C@_06DFEDPGIK@tmgr?$CFp@ 00424a90     pjsip-core-i386-win32-vc8-release:sip_transport.obj
 0002:00001a98       ??_C@_0BL@FCLJOKON@Transport?5manager?5created?4@ 00424a98     pjsip-core-i386-win32-vc8-release:sip_transport.obj
 0002:00001ab4       ??_C@_0BN@ICLNKKAJ@Destroying?5transport?5manager@ 00424ab4     pjsip-core-i386-win32-vc8-release:sip_transport.obj
 0002:00001ad4       ??_C@_0CI@HJKHOKAG@Cleaned?5up?5dangling?5transmit?5bu@ 00424ad4     pjsip-core-i386-win32-vc8-release:sip_transport.obj
 0002:00001afc       ??_C@_0DM@LJBJFPEI@?3?5?$CFs?5exception?5when?5parsing?5?8?$CF?4@ 00424afc     pjsip-core-i386-win32-vc8-release:sip_transport.obj
 0002:00001b38       ??_C@_0EM@JMILNFHN@Error?5processing?5?$CFd?5bytes?5packe@ 00424b38     pjsip-core-i386-win32-vc8-release:sip_transport.obj
 0002:00001b84       ??_C@_0DG@FPJFHIHG@Specified?5factory?5for?5creating?5@ 00424b84     pjsip-core-i386-win32-vc8-release:sip_transport.obj
 0002:00001e28       ??_C@_0BN@NDHPCAAG@Object?5is?5busy?5?$CIPJSIP_EBUSY?$CJ@ 00424e28     pjsip-core-i386-win32-vc8-release:sip_errno.obj
 0002:00001e48       ??_C@_0DF@LHIGDAHP@Object?5with?5the?5same?5type?5exist@ 00424e48     pjsip-core-i386-win32-vc8-release:sip_errno.obj
 0002:00001e80       ??_C@_0CK@JJDNDGNE@SIP?5stack?5shutting?5down?5?$CIPJSIP_@ 00424e80     pjsip-core-i386-win32-vc8-release:sip_errno.obj
 0002:00001eac       ??_C@_0DH@GEJHNFDM@SIP?5object?5is?5not?5initialized?4?5@ 00424eac     pjsip-core-i386-win32-vc8-release:sip_errno.obj
 0002:00001ee4       ??_C@_0DF@DFCKLJD@Missing?5route?5set?5?$CIfor?5tel?3?5URI@ 00424ee4     pjsip-core-i386-win32-vc8-release:sip_errno.obj
 0002:00001f1c       ??_C@_0DB@LNGCHBD@Invalid?5message?1syntax?5error?5?$CIP@ 00424f1c     pjsip-core-i386-win32-vc8-release:sip_errno.obj
 0002:00001f50       ??_C@_0DB@NNKMNMEK@Expecting?5request?5message?5?$CIPJSI@ 00424f50     pjsip-core-i386-win32-vc8-release:sip_errno.obj
 0002:00001f84       ??_C@_0DD@MODFKCPK@Expecting?5response?5message?5?$CIPJS@ 00424f84     pjsip-core-i386-win32-vc8-release:sip_errno.obj
 0002:00001fb8       ??_C@_0CF@NOACODOC@Message?5too?5long?5?$CIPJSIP_EMSGTOO@ 00424fb8     pjsip-core-i386-win32-vc8-release:sip_errno.obj
 0002:00001fe0       ??_C@_0CE@FONCLLMK@Partial?5message?5?$CIPJSIP_EPARTIAL@ 00424fe0     pjsip-core-i386-win32-vc8-release:sip_errno.obj
 0002:00002004       ??_C@_0DK@HMGLEHFD@Invalid?1unexpected?5SIP?5status?5c@ 00425004     pjsip-core-i386-win32-vc8-release:sip_errno.obj
 0002:00002040       ??_C@_0CA@ICJGNPBL@Invalid?5URI?5?$CIPJSIP_EINVALIDURI?$CJ@ 00425040     pjsip-core-i386-win32-vc8-release:sip_errno.obj
 0002:00002060       ??_C@_0CK@PDIHHAGH@Invalid?5URI?5scheme?5?$CIPJSIP_EINVA@ 00425060     pjsip-core-i386-win32-vc8-release:sip_errno.obj
 0002:0000208c       ??_C@_0CL@FGPCAKCH@Missing?5Request?9URI?5?$CIPJSIP_EMIS@ 0042508c     pjsip-core-i386-win32-vc8-release:sip_errno.obj
 0002:000020b8       ??_C@_0CL@JOKFDOLI@Invalid?5Request?5URI?5?$CIPJSIP_EINV@ 004250b8     pjsip-core-i386-win32-vc8-release:sip_errno.obj
 0002:000020e4       ??_C@_0CE@NBJPLEOO@URI?5is?5too?5long?5?$CIPJSIP_EURITOOL@ 004250e4     pjsip-core-i386-win32-vc8-release:sip_errno.obj
 0002:00002108       ??_C@_0CP@PNHNBIME@Missing?5required?5header?$CIs?$CJ?5?$CIPJS@ 00425108     pjsip-core-i386-win32-vc8-release:sip_errno.obj
 0002:00002138       ??_C@_0CJ@GFIBJIAO@Invalid?5header?5field?5?$CIPJSIP_EIN@ 00425138     pjsip-core-i386-win32-vc8-release:sip_errno.obj
 0002:00002164       ??_C@_0CH@NDGOCBBP@Invalid?5Via?5header?5?$CIPJSIP_EINVA@ 00425164     pjsip-core-i386-win32-vc8-release:sip_errno.obj
 0002:0000218c       ??_C@_0DG@HLMABLPG@Multiple?5Via?5headers?5in?5respons@ 0042518c     pjsip-core-i386-win32-vc8-release:sip_errno.obj
 0002:000021c4       ??_C@_0CK@LJCOFGPN@Missing?5message?5body?5?$CIPJSIP_EMI@ 004251c4     pjsip-core-i386-win32-vc8-release:sip_errno.obj
 0002:000021f0       ??_C@_0DB@NINEONMP@Invalid?1unexpected?5method?5?$CIPJSI@ 004251f0     pjsip-core-i386-win32-vc8-release:sip_errno.obj
 0002:00002224       ??_C@_0CO@MKNJKJDL@Unsupported?5transport?5?$CIPJSIP_EU@ 00425224     pjsip-core-i386-win32-vc8-release:sip_errno.obj
 0002:00002254       ??_C@_0DD@FMJGJHHJ@Transmit?5buffer?5already?5pending@ 00425254     pjsip-core-i386-win32-vc8-release:sip_errno.obj
 0002:00002288       ??_C@_0CH@FGKEPDFL@Rx?5buffer?5overflow?5?$CIPJSIP_ERXOV@ 00425288     pjsip-core-i386-win32-vc8-release:sip_errno.obj
 0002:000022b0       ??_C@_0CH@IPJBAOPN@Buffer?5destroyed?5?$CIPJSIP_EBUFDES@ 004252b0     pjsip-core-i386-win32-vc8-release:sip_errno.obj
 0002:000022d8       ??_C@_0DF@PBAMDOH@Unsuitable?5transport?5selected?5?$CI@ 004252d8     pjsip-core-i386-win32-vc8-release:sip_errno.obj
 0002:00002310       ??_C@_0DE@NJLNEKOM@Transport?5not?5available?5for?5use@ 00425310     pjsip-core-i386-win32-vc8-release:sip_errno.obj
 0002:00002344       ??_C@_0DF@DPMOHHML@Transaction?5has?5been?5destroyed?5@ 00425344     pjsip-core-i386-win32-vc8-release:sip_errno.obj
 0002:00002380       ??_C@_0FM@JGDLJGMK@No?5transaction?5is?5associated?5wi@ 00425380     pjsip-core-i386-win32-vc8-release:sip_errno.obj
 0002:000023dc       ??_C@_0CH@EBPFAGMB@URI?5scheme?5mismatch?5?$CIPJSIP_ECMP@ 004253dc     pjsip-core-i386-win32-vc8-release:sip_errno.obj
 0002:00002404       ??_C@_0CI@DCNDLDIL@URI?5user?5part?5mismatch?5?$CIPJSIP_E@ 00425404     pjsip-core-i386-win32-vc8-release:sip_errno.obj
 0002:0000242c       ??_C@_0CO@NLCBDNGP@URI?5password?5part?5mismatch?5?$CIPJS@ 0042542c     pjsip-core-i386-win32-vc8-release:sip_errno.obj
 0002:0000245c       ??_C@_0CI@CAAENIBN@URI?5host?5part?5mismatch?5?$CIPJSIP_E@ 0042545c     pjsip-core-i386-win32-vc8-release:sip_errno.obj
 0002:00002484       ??_C@_0CD@LGFLCNGN@URI?5port?5mismatch?5?$CIPJSIP_ECMPPO@ 00425484     pjsip-core-i386-win32-vc8-release:sip_errno.obj
 0002:000024a8       ??_C@_0DG@KAIIGJOM@URI?5transport?5param?5mismatch?5?$CIP@ 004254a8     pjsip-core-i386-win32-vc8-release:sip_errno.obj
 0002:000024e0       ??_C@_0CM@PONOAHFI@URI?5ttl?5param?5mismatch?5?$CIPJSIP_E@ 004254e0     pjsip-core-i386-win32-vc8-release:sip_errno.obj
 0002:0000250c       ??_C@_0CO@PNILAMMK@URI?5user?5param?5mismatch?5?$CIPJSIP_@ 0042550c     pjsip-core-i386-win32-vc8-release:sip_errno.obj
 0002:0000253c       ??_C@_0DC@BPANLPFC@URI?5method?5param?5mismatch?5?$CIPJSI@ 0042553c     pjsip-core-i386-win32-vc8-release:sip_errno.obj
 0002:00002570       ??_C@_0DA@HIHPGKKA@URI?5maddr?5param?5mismatch?5?$CIPJSIP@ 00425570     pjsip-core-i386-win32-vc8-release:sip_errno.obj
 0002:000025a0       ??_C@_0DA@DADPPELC@URI?5other?5param?5mismatch?5?$CIPJSIP@ 004255a0     pjsip-core-i386-win32-vc8-release:sip_errno.obj
 0002:000025d0       ??_C@_0DG@CFNMFPOM@URI?5header?5parameter?5mismatch?5?$CI@ 004255d0     pjsip-core-i386-win32-vc8-release:sip_errno.obj
 0002:00002608       ??_C@_0DM@LOOBEDNN@Credential?5failed?5to?5authentica@ 00425608     pjsip-core-i386-win32-vc8-release:sip_errno.obj
 0002:00002644       ??_C@_0CN@IIEEILJJ@No?5suitable?5credential?5?$CIPJSIP_E@ 00425644     pjsip-core-i386-win32-vc8-release:sip_errno.obj
 0002:00002674       ??_C@_0DP@NGPGIDFF@Invalid?1unsupported?5digest?5algo@ 00425674     pjsip-core-i386-win32-vc8-release:sip_errno.obj
 0002:000026b4       ??_C@_0DD@GJOGBLMF@Invalid?1unsupported?5digest?5qop?5@ 004256b4     pjsip-core-i386-win32-vc8-release:sip_errno.obj
 0002:000026e8       ??_C@_0DN@GPEKONDD@Unsupported?5authentication?5sche@ 004256e8     pjsip-core-i386-win32-vc8-release:sip_errno.obj
 0002:00002728       ??_C@_0CO@BMGFFPME@No?5previous?5challenge?5?$CIPJSIP_EA@ 00425728     pjsip-core-i386-win32-vc8-release:sip_errno.obj
 0002:00002758       ??_C@_0DF@DNNICPPN@No?5suitable?5authorization?5heade@ 00425758     pjsip-core-i386-win32-vc8-release:sip_errno.obj
 0002:00002790       ??_C@_0DJ@LPEDCKOO@Account?5or?5credential?5not?5found@ 00425790     pjsip-core-i386-win32-vc8-release:sip_errno.obj
 0002:000027cc       ??_C@_0DL@CMLHLLPG@Account?5or?5credential?5is?5disabl@ 004257cc     pjsip-core-i386-win32-vc8-release:sip_errno.obj
 0002:00002808       ??_C@_0DG@HIIKPIBJ@Invalid?5authorization?5realm?5?$CIPJ@ 00425808     pjsip-core-i386-win32-vc8-release:sip_errno.obj
 0002:00002840       ??_C@_0DI@MHHCMF@Invalid?5authorization?5digest?5?$CIP@ 00425840     pjsip-core-i386-win32-vc8-release:sip_errno.obj
 0002:00002878       ??_C@_0EB@JCHOOAEG@Maximum?5number?5of?5stale?5retries@ 00425878     pjsip-core-i386-win32-vc8-release:sip_errno.obj
 0002:000028c0       ??_C@_0EF@LIONEPAL@Invalid?5nonce?5value?5in?5authenti@ 004258c0     pjsip-core-i386-win32-vc8-release:sip_errno.obj
 0002:00002908       ??_C@_0CO@PNJFNJKN@Invalid?5AKA?5credential?5?$CIPJSIP_E@ 00425908     pjsip-core-i386-win32-vc8-release:sip_errno.obj
 0002:00002938       ??_C@_0CK@IIJPHHCN@No?5challenge?5is?5found?5?$CIPJSIP_EA@ 00425938     pjsip-core-i386-win32-vc8-release:sip_errno.obj
 0002:00002964       ??_C@_0DC@HLPJEBKI@Missing?5From?1To?5tag?5parameter?5?$CI@ 00425964     pjsip-core-i386-win32-vc8-release:sip_errno.obj
 0002:00002998       ??_C@_0CK@NLEHMEII@Expecting?5REFER?5request?5?$CIPJSIP_@ 00425998     pjsip-core-i386-win32-vc8-release:sip_errno.obj
 0002:000029c4       ??_C@_0DP@GMKFENNH@Not?5associated?5with?5REFER?5subsc@ 004259c4     pjsip-core-i386-win32-vc8-release:sip_errno.obj
 0002:00002a04       ??_C@_0DN@EOKOKJCK@INVITE?5session?5already?5terminat@ 00425a04     pjsip-core-i386-win32-vc8-release:sip_errno.obj
 0002:00002a44       ??_C@_0DD@DMBFAKPC@Invalid?5INVITE?5session?5state?5?$CIP@ 00425a44     pjsip-core-i386-win32-vc8-release:sip_errno.obj
 0002:00002a78       ??_C@_0DK@CJAGEDOD@Require?5secure?5session?1transpor@ 00425a78     pjsip-core-i386-win32-vc8-release:sip_errno.obj
 0002:00002ab4       ??_C@_0CH@HBADBAEP@Unknown?5TLS?5error?5?$CIPJSIP_TLS_EU@ 00425ab4     pjsip-core-i386-win32-vc8-release:sip_errno.obj
 0002:00002adc       ??_C@_0DD@NFLPGFPJ@Invalid?5SSL?5protocol?5method?5?$CIPJ@ 00425adc     pjsip-core-i386-win32-vc8-release:sip_errno.obj
 0002:00002b10       ??_C@_0DN@LHDHPIOK@Error?5loading?1verifying?5SSL?5CA?5@ 00425b10     pjsip-core-i386-win32-vc8-release:sip_errno.obj
 0002:00002b50       ??_C@_0DP@NPMNFNID@Error?5loading?5SSL?5certificate?5c@ 00425b50     pjsip-core-i386-win32-vc8-release:sip_errno.obj
 0002:00002b90       ??_C@_0EI@PNDINLEB@Error?5adding?5private?5key?5from?5S@ 00425b90     pjsip-core-i386-win32-vc8-release:sip_errno.obj
 0002:00002bd8       ??_C@_0DC@HMDIEPNK@Error?5setting?5SSL?5cipher?5list?5?$CI@ 00425bd8     pjsip-core-i386-win32-vc8-release:sip_errno.obj
 0002:00002c0c       ??_C@_0CM@KJHKFFIL@Error?5creating?5SSL?5context?5?$CIPJS@ 00425c0c     pjsip-core-i386-win32-vc8-release:sip_errno.obj
 0002:00002c38       ??_C@_0DK@GBGOJKMK@Error?5creating?5SSL?5connection?5o@ 00425c38     pjsip-core-i386-win32-vc8-release:sip_errno.obj
 0002:00002c78       ??_C@_0EB@LOJLDGBN@Unknown?5error?5when?5performing?5S@ 00425c78     pjsip-core-i386-win32-vc8-release:sip_errno.obj
 0002:00002cbc       ??_C@_0DP@CGFDGHCM@Unknown?5error?5when?5performing?5S@ 00425cbc     pjsip-core-i386-win32-vc8-release:sip_errno.obj
 0002:00002cfc       ??_C@_0DG@LGELLHGA@Unknown?5error?5when?5sending?5SSL?5@ 00425cfc     pjsip-core-i386-win32-vc8-release:sip_errno.obj
 0002:00002d34       ??_C@_0DG@GNCBAFL@Unknown?5error?5when?5reading?5SSL?5@ 00425d34     pjsip-core-i386-win32-vc8-release:sip_errno.obj
 0002:00002d6c       ??_C@_0DE@NMMHGAJD@SSL?5negotiation?5has?5timed?5out?5?$CI@ 00425d6c     pjsip-core-i386-win32-vc8-release:sip_errno.obj
 0002:00002da0       ??_C@_0DK@PDMPPIHB@SSL?5certificate?5verification?5er@ 00425da0     pjsip-core-i386-win32-vc8-release:sip_errno.obj
 0002:00002ddc       ??_C@_0BH@IINGFMKF@Unknown?5pjsip?5error?5?$CFd@ 00425ddc     pjsip-core-i386-win32-vc8-release:sip_errno.obj
 0002:00002df4       ??_C@_04NBIELBDC@isub@     00425df4     pjsip-core-i386-win32-vc8-release:sip_tel_uri.obj
 0002:00002dfc       ??_C@_03MDPCKCMI@ext@      00425dfc     pjsip-core-i386-win32-vc8-release:sip_tel_uri.obj
 0002:00002e00       ??_C@_0O@IMLAOJJD@phone?9context@ 00425e00     pjsip-core-i386-win32-vc8-release:sip_tel_uri.obj
 0002:00002e10       ??_C@_05OGMJFBEO@?$DLext?$DN@ 00425e10     pjsip-core-i386-win32-vc8-release:sip_tel_uri.obj
 0002:00002e18       ??_C@_06CECEBCPK@?$DLisub?$DN@ 00425e18     pjsip-core-i386-win32-vc8-release:sip_tel_uri.obj
 0002:00002e20       ??_C@_0BA@JDMJBMEF@?$DLphone?9context?$DN@ 00425e20     pjsip-core-i386-win32-vc8-release:sip_tel_uri.obj
 0002:00002e30       ??_C@_0P@KBNHNABO@0123456789?9?4?$CI?$CJ@ 00425e30     pjsip-core-i386-win32-vc8-release:sip_tel_uri.obj
 0002:00002e40       ??_C@_0CM@MMELMJHM@0123456789aAbBcCdDeEfF?$CK?$CD?9?4?$CI?$CJ?$CL01@ 00425e40     pjsip-core-i386-win32-vc8-release:sip_tel_uri.obj
 0002:00002e6c       ??_C@_04DCHJLDOJ@?9?4?$CI?$CJ@ 00425e6c     pjsip-core-i386-win32-vc8-release:sip_tel_uri.obj
 0002:00002e74       ??_C@_0BA@NHFLMIGM@?$CL0123456789?9?4?$CI?$CJ@ 00425e74     pjsip-core-i386-win32-vc8-release:sip_tel_uri.obj
 0002:00002e84       ??_C@_0BP@LJHGJILO@?1?3?$EA?$CG$?0?$CL0123456789?9_?4?$CB?$HO?$CK?8?$CI?$CJ?$CF?$FL?$FN?$CL@ 00425e84     pjsip-core-i386-win32-vc8-release:sip_tel_uri.obj
 0002:00002ea4       ??_C@_01JOAMLHOP@?9@       00425ea4     pjsip-core-i386-win32-vc8-release:sip_tel_uri.obj
 0002:00002ea8       ??_C@_0BM@IILGPONN@?$FL?$FN?1?3?$CG?$CL$0123456789?9_?4?$CB?$HO?$CK?8?$CI?$CJ?$CF@ 00425ea8     pjsip-core-i386-win32-vc8-release:sip_tel_uri.obj
 0002:00002ec4       ??_C@_01NEMOKFLO@?$DN@     00425ec4     pjsip-core-i386-win32-vc8-release:sip_tel_uri.obj
 0002:00002ec8       ??_C@_0O@CDKJIHHI@mod?9tsx?9layer@ 00425ec8     pjsip-core-i386-win32-vc8-release:sip_transaction.obj
 0002:00002ed8       ??_C@_04KHKKIIL@Null@      00425ed8     pjsip-core-i386-win32-vc8-release:sip_transaction.obj
 0002:00002ee0       ??_C@_07BNCBFEGH@Calling@  00425ee0     pjsip-core-i386-win32-vc8-release:sip_transaction.obj
 0002:00002ee8       ??_C@_0L@BKKAFK@Proceeding@ 00425ee8     pjsip-core-i386-win32-vc8-release:sip_transaction.obj
 0002:00002ef4       ??_C@_09MIJAKHKB@Completed@ 00425ef4     pjsip-core-i386-win32-vc8-release:sip_transaction.obj
 0002:00002f00       ??_C@_09ONANMLIC@Confirmed@ 00425f00     pjsip-core-i386-win32-vc8-release:sip_transaction.obj
 0002:00002f0c       ??_C@_0L@NNDINIPK@Terminated@ 00425f0c     pjsip-core-i386-win32-vc8-release:sip_transaction.obj
 0002:00002f18       ??_C@_09KDBKJCNL@Destroyed@ 00425f18     pjsip-core-i386-win32-vc8-release:sip_transaction.obj
 0002:00002f24       ??_C@_03IIGECEEC@UAC@      00425f24     pjsip-core-i386-win32-vc8-release:sip_transaction.obj
 0002:00002f28       ??_C@_03MCKGDGBD@UAS@      00425f28     pjsip-core-i386-win32-vc8-release:sip_transaction.obj
 0002:00002f2c       ??_C@_0BC@LHFGMDJJ@sip_transaction?4c@ 00425f2c     pjsip-core-i386-win32-vc8-release:sip_transaction.obj
 0002:00002f40       ??_C@_0CC@CEIKILH@Stopping?5transaction?5layer?5modu@ 00425f40     pjsip-core-i386-win32-vc8-release:sip_transaction.obj
 0002:00002f64       ??_C@_0CB@HOMFNBLL@Stopped?5transaction?5layer?5modul@ 00425f64     pjsip-core-i386-win32-vc8-release:sip_transaction.obj
 0002:00002f88       ??_C@_0CD@MKMHPCL@Transaction?5layer?5module?5destro@ 00425f88     pjsip-core-i386-win32-vc8-release:sip_transaction.obj
 0002:00002fac       ??_C@_0DF@EFJDAPKP@Failed?5to?5register?5transaction?5@ 00425fac     pjsip-core-i386-win32-vc8-release:sip_transaction.obj
 0002:00002fe4       ??_C@_0CI@CEFAFFOL@Retransmiting?5?$CFs?0?5count?$DN?$CFd?0?5res@ 00425fe4     pjsip-core-i386-win32-vc8-release:sip_transaction.obj
 0002:0000300c       ??_C@_0CK@BFJIAGKI@Received?5illegal?5ACK?5for?5?$CF?4?$CKs?5t@ 0042600c     pjsip-core-i386-win32-vc8-release:sip_transaction.obj
 0002:00003038       ??_C@_0DE@PFNICBJL@Will?5destroy?5later?5because?5tran@ 00426038     pjsip-core-i386-win32-vc8-release:sip_transaction.obj
 0002:0000306c       ??_C@_0CG@BHDJKKPD@State?5changed?5from?5?$CFs?5to?5?$CFs?0?5ev@ 0042606c     pjsip-core-i386-win32-vc8-release:sip_transaction.obj
 0002:00003094       ??_C@_0CB@LPCILHMH@Request?5to?5terminate?5transactio@ 00426094     pjsip-core-i386-win32-vc8-release:sip_transaction.obj
 0002:000030b8       ??_C@_0BI@PADDBGDM@Incoming?5?$CFs?5in?5state?5?$CFs@ 004260b8     pjsip-core-i386-win32-vc8-release:sip_transaction.obj
 0002:000030d0       ??_C@_0BP@MFDMMFDJ@Failed?5to?5send?5?$CFs?$CB?5err?$DN?$CFd?5?$CI?$CFs?$CJ@ 004260d0     pjsip-core-i386-win32-vc8-release:sip_transaction.obj
 0002:000030f0       ??_C@_0DG@HCJJGEJB@Temporary?5failure?5in?5sending?5?$CFs@ 004260f0     pjsip-core-i386-win32-vc8-release:sip_transaction.obj
 0002:00003128       ??_C@_0CJ@CBOMABNM@Transport?5failed?5to?5send?5?$CFs?$CB?5Er@ 00426128     pjsip-core-i386-win32-vc8-release:sip_transaction.obj
 0002:00003154       ??_C@_0BB@HMFOJBGF@Error?5sending?5?$CFs@ 00426154     pjsip-core-i386-win32-vc8-release:sip_transaction.obj
 0002:00003168       ??_C@_0DG@EDJHIGCF@Transport?5error?0?5terminating?5tr@ 00426168     pjsip-core-i386-win32-vc8-release:sip_transaction.obj
 0002:000031a0       ??_C@_08KIKGFOKI@boundary@ 004261a0     pjsip-core-i386-win32-vc8-release:sip_multipart.obj
 0002:000031ac       ??_C@_05IPHDHIPP@mixed@    004261ac     pjsip-core-i386-win32-vc8-release:sip_multipart.obj
 0002:000031b4       ??_C@_0CI@MEJEAPPA@Warning?3?5error?5parsing?5multipar@ 004261b4     pjsip-core-i386-win32-vc8-release:sip_multipart.obj
 0002:000031dc       ??_C@_0BA@LBAHDFBC@sip_multipart?4c@ 004261dc     pjsip-core-i386-win32-vc8-release:sip_multipart.obj
 0002:000031ec       ??_C@_06IJPNAHC@digest@    004261ec     pjsip-core-i386-win32-vc8-release:sip_multipart.obj
 0002:000031f4       ??_C@_07ONPBMBOP@message@  004261f4     pjsip-core-i386-win32-vc8-release:sip_multipart.obj
 0002:000031fc       ??_C@_06OGFLLFJI@rfc822@   004261fc     pjsip-core-i386-win32-vc8-release:sip_multipart.obj
 0002:00003208       ??_C@_0FD@FFFCNLOH@Warning?3?5boundary?5parameter?5not@ 00426208     pjsip-core-i386-win32-vc8-release:sip_multipart.obj
 0002:00003260       ??_C@_0EO@HHPEFGCJ@Error?3?5multipart?5boundary?5not?5s@ 00426260     pjsip-core-i386-win32-vc8-release:sip_multipart.obj
 0002:000032b0       _pjsip_USERNAME_STR        004262b0     pjsip-core-i386-win32-vc8-release:sip_auth_parser.obj
 0002:000032b8       _pjsip_REALM_STR           004262b8     pjsip-core-i386-win32-vc8-release:sip_auth_parser.obj
 0002:000032c0       _pjsip_NONCE_STR           004262c0     pjsip-core-i386-win32-vc8-release:sip_auth_parser.obj
 0002:000032c8       _pjsip_URI_STR             004262c8     pjsip-core-i386-win32-vc8-release:sip_auth_parser.obj
 0002:000032d0       _pjsip_RESPONSE_STR        004262d0     pjsip-core-i386-win32-vc8-release:sip_auth_parser.obj
 0002:000032d8       _pjsip_ALGORITHM_STR       004262d8     pjsip-core-i386-win32-vc8-release:sip_auth_parser.obj
 0002:000032e0       _pjsip_DOMAIN_STR          004262e0     pjsip-core-i386-win32-vc8-release:sip_auth_parser.obj
 0002:000032e8       _pjsip_STALE_STR           004262e8     pjsip-core-i386-win32-vc8-release:sip_auth_parser.obj
 0002:000032f0       _pjsip_QOP_STR             004262f0     pjsip-core-i386-win32-vc8-release:sip_auth_parser.obj
 0002:000032f8       _pjsip_CNONCE_STR          004262f8     pjsip-core-i386-win32-vc8-release:sip_auth_parser.obj
 0002:00003300       _pjsip_OPAQUE_STR          00426300     pjsip-core-i386-win32-vc8-release:sip_auth_parser.obj
 0002:00003308       _pjsip_NC_STR              00426308     pjsip-core-i386-win32-vc8-release:sip_auth_parser.obj
 0002:00003310       _pjsip_TRUE_STR            00426310     pjsip-core-i386-win32-vc8-release:sip_auth_parser.obj
 0002:00003318       _pjsip_FALSE_STR           00426318     pjsip-core-i386-win32-vc8-release:sip_auth_parser.obj
 0002:00003320       _pjsip_DIGEST_STR          00426320     pjsip-core-i386-win32-vc8-release:sip_auth_parser.obj
 0002:00003328       _pjsip_PGP_STR             00426328     pjsip-core-i386-win32-vc8-release:sip_auth_parser.obj
 0002:00003330       _pjsip_MD5_STR             00426330     pjsip-core-i386-win32-vc8-release:sip_auth_parser.obj
 0002:00003338       _pjsip_AUTH_STR            00426338     pjsip-core-i386-win32-vc8-release:sip_auth_parser.obj
 0002:00003340       _pjsip_QUOTED_TRUE_STR     00426340     pjsip-core-i386-win32-vc8-release:sip_auth_parser.obj
 0002:00003348       _pjsip_QUOTED_FALSE_STR    00426348     pjsip-core-i386-win32-vc8-release:sip_auth_parser.obj
 0002:00003350       _pjsip_QUOTED_DIGEST_STR   00426350     pjsip-core-i386-win32-vc8-release:sip_auth_parser.obj
 0002:00003358       _pjsip_QUOTED_PGP_STR      00426358     pjsip-core-i386-win32-vc8-release:sip_auth_parser.obj
 0002:00003360       _pjsip_QUOTED_MD5_STR      00426360     pjsip-core-i386-win32-vc8-release:sip_auth_parser.obj
 0002:00003368       _pjsip_QUOTED_AUTH_STR     00426368     pjsip-core-i386-win32-vc8-release:sip_auth_parser.obj
 0002:00003370       ??_C@_08ODGEKKOL@username@ 00426370     pjsip-core-i386-win32-vc8-release:sip_auth_parser.obj
 0002:0000337c       ??_C@_05ELABLNGD@realm@    0042637c     pjsip-core-i386-win32-vc8-release:sip_auth_parser.obj
 0002:00003384       ??_C@_05OOEDLKEB@nonce@    00426384     pjsip-core-i386-win32-vc8-release:sip_auth_parser.obj
 0002:0000338c       ??_C@_03GBBABMJN@uri@      0042638c     pjsip-core-i386-win32-vc8-release:sip_auth_parser.obj
 0002:00003390       ??_C@_08HKMEAON@response@  00426390     pjsip-core-i386-win32-vc8-release:sip_auth_parser.obj
 0002:0000339c       ??_C@_09JPNFBOJG@algorithm@ 0042639c     pjsip-core-i386-win32-vc8-release:sip_auth_parser.obj
 0002:000033a8       ??_C@_06LKIIGAOE@domain@   004263a8     pjsip-core-i386-win32-vc8-release:sip_auth_parser.obj
 0002:000033b0       ??_C@_05BFAEFKPM@stale@    004263b0     pjsip-core-i386-win32-vc8-release:sip_auth_parser.obj
 0002:000033b8       ??_C@_03GBIMBCPB@qop@      004263b8     pjsip-core-i386-win32-vc8-release:sip_auth_parser.obj
 0002:000033bc       ??_C@_06HILDJCOE@cnonce@   004263bc     pjsip-core-i386-win32-vc8-release:sip_auth_parser.obj
 0002:000033c4       ??_C@_06CJCOLNBB@opaque@   004263c4     pjsip-core-i386-win32-vc8-release:sip_auth_parser.obj
 0002:000033cc       ??_C@_02MCHPIKD@nc@        004263cc     pjsip-core-i386-win32-vc8-release:sip_auth_parser.obj
 0002:000033d0       ??_C@_04LOAJBDKD@true@     004263d0     pjsip-core-i386-win32-vc8-release:sip_auth_parser.obj
 0002:000033d8       ??_C@_06JMFPOLAJ@?$CCtrue?$CC@ 004263d8     pjsip-core-i386-win32-vc8-release:sip_auth_parser.obj
 0002:000033e0       ??_C@_05LAPONLG@false@     004263e0     pjsip-core-i386-win32-vc8-release:sip_auth_parser.obj
 0002:000033e8       ??_C@_07MGKGDKEI@?$CCfalse?$CC@ 004263e8     pjsip-core-i386-win32-vc8-release:sip_auth_parser.obj
 0002:000033f0       ??_C@_06MHCCOJOO@Digest@   004263f0     pjsip-core-i386-win32-vc8-release:sip_auth_parser.obj
 0002:000033f8       ??_C@_08MPOLMKFE@?$CCDigest?$CC@ 004263f8     pjsip-core-i386-win32-vc8-release:sip_auth_parser.obj
 0002:00003404       ??_C@_03NKNIOJFA@PGP@      00426404     pjsip-core-i386-win32-vc8-release:sip_auth_parser.obj
 0002:00003408       ??_C@_05PBIHDNLO@?$CCPGP?$CC@ 00426408     pjsip-core-i386-win32-vc8-release:sip_auth_parser.obj
 0002:00003410       ??_C@_03PKBIKOHH@md5@      00426410     pjsip-core-i386-win32-vc8-release:sip_auth_parser.obj
 0002:00003414       ??_C@_05FEKNEIJC@?$CCmd5?$CC@ 00426414     pjsip-core-i386-win32-vc8-release:sip_auth_parser.obj
 0002:0000341c       ??_C@_04DPLCCHJC@auth@     0042641c     pjsip-core-i386-win32-vc8-release:sip_auth_parser.obj
 0002:00003424       ??_C@_06MNAAFAAH@?$CCauth?$CC@ 00426424     pjsip-core-i386-win32-vc8-release:sip_auth_parser.obj
 0002:0000342c       ??_C@_0BC@OBBFELDN@mod?9stateful?9util@ 0042642c     pjsip-core-i386-win32-vc8-release:sip_util_statefull.obj
 0002:00003440       ??_C@_09FNNDBHOE@username?$DN@ 00426440     pjsip-core-i386-win32-vc8-release:sip_auth_msg.obj
 0002:0000344c       ??_C@_08FIMOKBNA@?0?5realm?$DN@ 0042644c     pjsip-core-i386-win32-vc8-release:sip_auth_msg.obj
 0002:00003458       ??_C@_08INALKCDD@?0?5nonce?$DN@ 00426458     pjsip-core-i386-win32-vc8-release:sip_auth_msg.obj
 0002:00003464       ??_C@_06LAMIMJOG@?0?5uri?$DN@ 00426464     pjsip-core-i386-win32-vc8-release:sip_auth_msg.obj
 0002:0000346c       ??_C@_0M@LHKMMNIM@?0?5response?$DN@ 0042646c     pjsip-core-i386-win32-vc8-release:sip_auth_msg.obj
 0002:00003478       ??_C@_0N@CGBNHFEJ@?0?5algorithm?$DN@ 00426478     pjsip-core-i386-win32-vc8-release:sip_auth_msg.obj
 0002:00003488       ??_C@_09JMMPALKP@?0?5cnonce?$DN@ 00426488     pjsip-core-i386-win32-vc8-release:sip_auth_msg.obj
 0002:00003494       ??_C@_09FBEJJABD@?0?5opaque?$DN@ 00426494     pjsip-core-i386-win32-vc8-release:sip_auth_msg.obj
 0002:000034a0       ??_C@_06PEMMHIJL@?0?5qop?$DN@ 004264a0     pjsip-core-i386-win32-vc8-release:sip_auth_msg.obj
 0002:000034a8       ??_C@_05EBCAJOC@?0?5nc?$DN@ 004264a8     pjsip-core-i386-win32-vc8-release:sip_auth_msg.obj
 0002:000034b0       ??_C@_03NHCDCECM@pgp@      004264b0     pjsip-core-i386-win32-vc8-release:sip_auth_msg.obj
 0002:000034b4       ??_C@_06LOBIHJOB@realm?$DN@ 004264b4     pjsip-core-i386-win32-vc8-release:sip_auth_msg.obj
 0002:000034bc       ??_C@_08CKNLFMMP@?0domain?$DN@ 004264bc     pjsip-core-i386-win32-vc8-release:sip_auth_msg.obj
 0002:000034c8       ??_C@_07DNEKANAM@?0nonce?$DN@ 004264c8     pjsip-core-i386-win32-vc8-release:sip_auth_msg.obj
 0002:000034d0       ??_C@_08OHJPPMIB@?0opaque?$DN@ 004264d0     pjsip-core-i386-win32-vc8-release:sip_auth_msg.obj
 0002:000034dc       ??_C@_07IIGBIFNN@?0stale?$DN@ 004264dc     pjsip-core-i386-win32-vc8-release:sip_auth_msg.obj
 0002:000034e4       ??_C@_0M@HOHCEKCL@?0algorithm?$DN@ 004264e4     pjsip-core-i386-win32-vc8-release:sip_auth_msg.obj
 0002:000034f0       ??_C@_05KHLNJFNF@?0qop?$DN@ 004264f0     pjsip-core-i386-win32-vc8-release:sip_auth_msg.obj
 0002:000036d8       ??_C@_0DI@FPKNFLPC@Unable?5to?5resolve?5STUN?5server?5?$CI@ 004266d8     pjlib-util-i386-win32-vc8-release:errno.obj
 0002:00003710       ??_C@_0DG@MLIAHJMC@Unknown?5STUN?5message?5type?5?$CIPJLI@ 00426710     pjlib-util-i386-win32-vc8-release:errno.obj
 0002:00003748       ??_C@_0DH@BGLGMNML@Invalid?5STUN?5message?5length?5?$CIPJ@ 00426748     pjlib-util-i386-win32-vc8-release:errno.obj
 0002:00003780       ??_C@_0DI@MNKBLDCO@STUN?5attribute?5length?5error?5?$CIPJ@ 00426780     pjlib-util-i386-win32-vc8-release:errno.obj
 0002:000037b8       ??_C@_0DJ@GEFJCPHI@Invalid?5STUN?5attribute?5type?5?$CIPJ@ 004267b8     pjlib-util-i386-win32-vc8-release:errno.obj
 0002:000037f4       ??_C@_0DL@JFEBBJAB@Invalid?5STUN?5server?1socket?5inde@ 004267f4     pjlib-util-i386-win32-vc8-release:errno.obj
 0002:00003830       ??_C@_0EE@OMBAKMPD@No?5STUN?5binding?5response?5in?5the@ 00426830     pjlib-util-i386-win32-vc8-release:errno.obj
 0002:00003874       ??_C@_0DM@JJJKHKHH@Received?5STUN?5error?5attribute?5?$CI@ 00426874     pjlib-util-i386-win32-vc8-release:errno.obj
 0002:000038b0       ??_C@_0DJ@BDPKKDEL@No?5STUN?5mapped?5address?5attribut@ 004268b0     pjlib-util-i386-win32-vc8-release:errno.obj
 0002:000038f0       ??_C@_0ED@MIOBPJDH@Received?5no?5response?5from?5STUN?5@ 004268f0     pjlib-util-i386-win32-vc8-release:errno.obj
 0002:00003934       ??_C@_0DK@OILEGGA@Symetric?5NAT?5detected?5by?5STUN?5?$CI@ 00426934     pjlib-util-i386-win32-vc8-release:errno.obj
 0002:00003970       ??_C@_0CI@OKGDIDF@Invalid?5XML?5message?5?$CIPJLIB_UTIL@ 00426970     pjlib-util-i386-win32-vc8-release:errno.obj
 0002:00003998       ??_C@_0CL@IPLFEOJE@Invalid?5JSON?5document?5?$CIPJLIB_UT@ 00426998     pjlib-util-i386-win32-vc8-release:errno.obj
 0002:000039c8       ??_C@_0EC@KJLJANIE@DNS?5query?5packet?5buffer?5is?5too?5@ 004269c8     pjlib-util-i386-win32-vc8-release:errno.obj
 0002:00003a0c       ??_C@_0DC@JFKHADAC@Invalid?5DNS?5packet?5length?5?$CIPJLI@ 00426a0c     pjlib-util-i386-win32-vc8-release:errno.obj
 0002:00003a40       ??_C@_0CL@OCFDFFNM@Invalid?5DNS?5class?5?$CIPJLIB_UTIL_E@ 00426a40     pjlib-util-i386-win32-vc8-release:errno.obj
 0002:00003a6c       ??_C@_0DE@FIPILDGP@Invalid?5DNS?5name?5pointer?5?$CIPJLIB@ 00426a6c     pjlib-util-i386-win32-vc8-release:errno.obj
 0002:00003aa0       ??_C@_0DJ@NBOGGJL@Invalid?5DNS?5nameserver?5address?5@ 00426aa0     pjlib-util-i386-win32-vc8-release:errno.obj
 0002:00003adc       ??_C@_0DH@LFJGDOHB@No?5nameserver?5is?5in?5DNS?5resolve@ 00426adc     pjlib-util-i386-win32-vc8-release:errno.obj
 0002:00003b14       ??_C@_0DH@PHJBLCKD@No?5working?5DNS?5nameserver?5?$CIPJLI@ 00426b14     pjlib-util-i386-win32-vc8-release:errno.obj
 0002:00003b50       ??_C@_0EC@HJFBNLFC@No?5answer?5record?5in?5the?5DNS?5res@ 00426b50     pjlib-util-i386-win32-vc8-release:errno.obj
 0002:00003b94       ??_C@_0CN@DEFBDJKF@Invalid?5DNS?5answer?5?$CIPJLIB_UTIL_@ 00426b94     pjlib-util-i386-win32-vc8-release:errno.obj
 0002:00003bc4       ??_C@_0CN@BCAAPMPM@DNS?5?$CCFormat?5error?$CC?5?$CIPJLIB_UTIL_@ 00426bc4     pjlib-util-i386-win32-vc8-release:errno.obj
 0002:00003bf4       ??_C@_0DA@NBPIIAHM@DNS?5?$CCServer?5failure?$CC?5?$CIPJLIB_UTI@ 00426bf4     pjlib-util-i386-win32-vc8-release:errno.obj
 0002:00003c24       ??_C@_0CM@CNNJNBCA@DNS?5?$CCName?5Error?$CC?5?$CIPJLIB_UTIL_ED@ 00426c24     pjlib-util-i386-win32-vc8-release:errno.obj
 0002:00003c50       ??_C@_0DA@DIMDKHPM@DNS?5?$CCNot?5Implemented?$CC?5?$CIPJLIB_UT@ 00426c50     pjlib-util-i386-win32-vc8-release:errno.obj
 0002:00003c80       ??_C@_0CI@LDMKLLKJ@DNS?5?$CCRefused?$CC?5?$CIPJLIB_UTIL_EDNS_@ 00426c80     pjlib-util-i386-win32-vc8-release:errno.obj
 0002:00003ca8       ??_C@_0DB@PFAMNHPJ@DNS?5?$CCThe?5name?5exists?$CC?5?$CIPJLIB_UT@ 00426ca8     pjlib-util-i386-win32-vc8-release:errno.obj
 0002:00003cdc       ??_C@_0DO@OIIHMCI@DNS?5?$CCThe?5RRset?5?$CIname?0?5type?$CJ?5exi@ 00426cdc     pjlib-util-i386-win32-vc8-release:errno.obj
 0002:00003d20       ??_C@_0EG@OMHMBNML@DNS?5?$CCThe?5RRset?5?$CIname?0?5type?$CJ?5doe@ 00426d20     pjlib-util-i386-win32-vc8-release:errno.obj
 0002:00003d68       ??_C@_0CP@HJODAHHO@DNS?5?$CCNot?5authorized?$CC?5?$CIPJLIB_UTI@ 00426d68     pjlib-util-i386-win32-vc8-release:errno.obj
 0002:00003d98       ??_C@_0EB@GKEHOPAE@DNS?5?$CCThe?5zone?5specified?5is?5not?5@ 00426d98     pjlib-util-i386-win32-vc8-release:errno.obj
 0002:00003ddc       ??_C@_0DH@EMGNELGL@Too?5many?5STUN?5attributes?5?$CIPJLIB@ 00426ddc     pjlib-util-i386-win32-vc8-release:errno.obj
 0002:00003e14       ??_C@_0DF@KMIPDCMM@Unknown?5STUN?5attribute?5?$CIPJLIB_U@ 00426e14     pjlib-util-i386-win32-vc8-release:errno.obj
 0002:00003e4c       ??_C@_0DP@PDBNFLFH@Invalid?5STUN?5socket?5address?5len@ 00426e4c     pjlib-util-i386-win32-vc8-release:errno.obj
 0002:00003e90       ??_C@_0EA@NAKPKGDE@STUN?5IPv6?5attribute?5not?5support@ 00426e90     pjlib-util-i386-win32-vc8-release:errno.obj
 0002:00003ed0       ??_C@_0DO@LEKPMIHP@Expecting?5STUN?5response?5message@ 00426ed0     pjlib-util-i386-win32-vc8-release:errno.obj
 0002:00003f10       ??_C@_0DJ@DDEJFFIL@STUN?5transaction?5ID?5mismatch?5?$CIP@ 00426f10     pjlib-util-i386-win32-vc8-release:errno.obj
 0002:00003f50       ??_C@_0EI@BNLBFIKH@Unable?5to?5find?5STUN?5handler?5for@ 00426f50     pjlib-util-i386-win32-vc8-release:errno.obj
 0002:00003f98       ??_C@_0FA@DIAPLEFD@Found?5non?9FINGERPRINT?5attr?4?5aft@ 00426f98     pjlib-util-i386-win32-vc8-release:errno.obj
 0002:00003fe8       ??_C@_0ED@CNMDGMPD@Found?5STUN?5attribute?5after?5FING@ 00426fe8     pjlib-util-i386-win32-vc8-release:errno.obj
 0002:0000402c       ??_C@_0DN@JLMAJAKN@Missing?5STUN?5USERNAME?5attribute@ 0042702c     pjlib-util-i386-win32-vc8-release:errno.obj
 0002:00004070       ??_C@_0EK@LMHKLKC@Missing?1invalid?5STUN?5MESSAGE?9IN@ 00427070     pjlib-util-i386-win32-vc8-release:errno.obj
 0002:000040bc       ??_C@_0DJ@BCFNCGF@Found?5duplicate?5STUN?5attribute?5@ 004270bc     pjlib-util-i386-win32-vc8-release:errno.obj
 0002:000040f8       ??_C@_0DH@MMHMOPBG@Missing?5STUN?5REALM?5attribute?5?$CIP@ 004270f8     pjlib-util-i386-win32-vc8-release:errno.obj
 0002:00004130       ??_C@_0EB@FGOGNHPO@Missing?1stale?5STUN?5NONCE?5attrib@ 00427130     pjlib-util-i386-win32-vc8-release:errno.obj
 0002:00004178       ??_C@_0EF@HAPLEMIK@STUN?5transaction?5terminates?5wit@ 00427178     pjlib-util-i386-win32-vc8-release:errno.obj
 0002:000041c0       ??_C@_0CL@GOOAEBLJ@Invalid?5URL?5format?5?$CIPJLIB_UTIL_@ 004271c0     pjlib-util-i386-win32-vc8-release:errno.obj
 0002:000041ec       ??_C@_0DB@BDFJPAOA@Invalid?5URL?5port?5number?5?$CIPJLIB_@ 004271ec     pjlib-util-i386-win32-vc8-release:errno.obj
 0002:00004220       ??_C@_0DN@CABCKELB@Incomplete?5response?5header?5rece@ 00427220     pjlib-util-i386-win32-vc8-release:errno.obj
 0002:00004260       ??_C@_0CN@MKMAKFDH@Insufficient?5buffer?5?$CIPJLIB_UTIL@ 00427260     pjlib-util-i386-win32-vc8-release:errno.obj
 0002:00004290       ??_C@_0CH@JNBFBBKA@Connection?5lost?5?$CIPJLIB_UTIL_EHT@ 00427290     pjlib-util-i386-win32-vc8-release:errno.obj
 0002:000042b8       ??_C@_0CE@DHMMOEGP@Exit?5current?5session?5?$CIPJ_CLI_EE@ 004272b8     pjlib-util-i386-win32-vc8-release:errno.obj
 0002:000042dc       ??_C@_0CG@LEDMCEME@Missing?5argument?5?$CIPJ_CLI_EMISSI@ 004272dc     pjlib-util-i386-win32-vc8-release:errno.obj
 0002:00004304       ??_C@_0CJ@ECODGDHL@Too?5many?5arguments?5?$CIPJ_CLI_ETOO@ 00427304     pjlib-util-i386-win32-vc8-release:errno.obj
 0002:00004330       ??_C@_0CC@NLPGOLED@Invalid?5argument?5?$CIPJ_CLI_EINVAR@ 00427330     pjlib-util-i386-win32-vc8-release:errno.obj
 0002:00004354       ??_C@_0CO@OOEOBCH@Command?5name?5already?5exists?5?$CIPJ@ 00427354     pjlib-util-i386-win32-vc8-release:errno.obj
 0002:00004384       ??_C@_0CK@MKOACJP@Command?5id?5already?5exists?5?$CIPJ_C@ 00427384     pjlib-util-i386-win32-vc8-release:errno.obj
 0002:000043b0       ??_C@_0CE@LHHCBFML@Invalid?5XML?5format?5?$CIPJ_CLI_EBAD@ 004273b0     pjlib-util-i386-win32-vc8-release:errno.obj
 0002:000043d4       ??_C@_0CF@CKMLJLLP@Connection?5lost?5?$CIPJ_CLI_ETELNET@ 004273d4     pjlib-util-i386-win32-vc8-release:errno.obj
 0002:000043fc       ??_C@_0BM@LDLEGOFO@Unknown?5pjlib?9util?5error?5?$CFd@ 004273fc     pjlib-util-i386-win32-vc8-release:errno.obj
 0002:00004418       ??_C@_02BAABKJLB@?9?9@     00427418     pjlib-util-i386-win32-vc8-release:getopt.obj
 0002:0000441c       ??_C@_0BB@JCEFLFJE@0123456789abcdef@ 0042741c     pjlib-util-i386-win32-vc8-release:string.obj
 0002:00004430       ??_C@_07IAIHCIDD@Probing@  00427430     pjlib-util-i386-win32-vc8-release:resolver.obj
 0002:00004438       ??_C@_06MAFFGDO@Active@    00427438     pjlib-util-i386-win32-vc8-release:resolver.obj
 0002:00004440       ??_C@_03KHCCLPOB@Bad@      00427440     pjlib-util-i386-win32-vc8-release:resolver.obj
 0002:00004444       ??_C@_0BH@PPEBBIFJ@?0?5will?5try?5again?5later@ 00427444     pjlib-util-i386-win32-vc8-release:resolver.obj
 0002:0000445c       ??_C@_0DC@GOFLGJND@Socket?5busy?5in?5transmitting?5DNS@ 0042745c     pjlib-util-i386-win32-vc8-release:resolver.obj
 0002:00004490       ??_C@_0N@IBGJGPJN@Transmitting@ 00427490     pjlib-util-i386-win32-vc8-release:resolver.obj
 0002:000044a0       ??_C@_0BA@JFAGDHFD@Re?9transmitting@ 004274a0     pjlib-util-i386-win32-vc8-release:resolver.obj
 0002:000044b0       ??_C@_0DC@PBGKNNLN@?$CFs?5?$CFd?5bytes?5to?5NS?5?$CFd?5?$CI?$CFs?3?$CFd?$CJ?3?5D@ 004274b0     pjlib-util-i386-win32-vc8-release:resolver.obj
 0002:000044e4       ??_C@_0DE@LLACOPGB@Picked?5up?5DNS?5?$CFs?5record?5for?5?$CF?4?$CK@ 004274e4     pjlib-util-i386-win32-vc8-release:resolver.obj
 0002:00004518       ??_C@_0CJ@MMDCPKPE@Nameserver?5?$CFs?3?$CFd?5state?5changed?5@ 00427518     pjlib-util-i386-win32-vc8-release:resolver.obj
 0002:00004544       ??_C@_0BP@GLADIPED@Error?5transmitting?5request?3?5?$CFs@ 00427544     pjlib-util-i386-win32-vc8-release:resolver.obj
 0002:00004570       __xmm@ffffffffffffffffffffffffffffffff 00427570     pjlib-util-i386-win32-vc8-release:resolver.obj
 0002:00004580       ??_C@_0DL@LHIPNDIG@d?3?2pjsip?2pjproject?92?48?2pjlib?9ut@ 00427580     pjlib-util-i386-win32-vc8-release:scanner.obj
 0002:000045bc       ??_C@_01FHEEJDEE@A@        004275bc     pjlib-util-i386-win32-vc8-release:dns.obj
 0002:000045c0       ??_C@_04OHNMNPPA@AAAA@     004275c0     pjlib-util-i386-win32-vc8-release:dns.obj
 0002:000045c8       ??_C@_03IENKIAKD@SRV@      004275c8     pjlib-util-i386-win32-vc8-release:dns.obj
 0002:000045cc       ??_C@_02OLCMIILA@NS@       004275cc     pjlib-util-i386-win32-vc8-release:dns.obj
 0002:000045d0       ??_C@_05PGNGFKDN@CNAME@    004275d0     pjlib-util-i386-win32-vc8-release:dns.obj
 0002:000045d8       ??_C@_03PGIOJGPL@PTR@      004275d8     pjlib-util-i386-win32-vc8-release:dns.obj
 0002:000045dc       ??_C@_02KJOOPCC@MX@        004275dc     pjlib-util-i386-win32-vc8-release:dns.obj
 0002:000045e0       ??_C@_03CGKMFPEO@TXT@      004275e0     pjlib-util-i386-win32-vc8-release:dns.obj
 0002:000045e4       ??_C@_05DGMJPCKB@NAPTR@    004275e4     pjlib-util-i386-win32-vc8-release:dns.obj
 0002:000045ec       ??_C@_09ONJBBFFA@?$CIUnknown?$CJ@ 004275ec     pjlib-util-i386-win32-vc8-release:dns.obj
 0002:000045f8       ??_C@_01LFCBOECM@?4@       004275f8     pjlib-util-i386-win32-vc8-release:srv_resolver.obj
 0002:000045fc       ??_C@_0DA@GGGKMBOI@Starting?5async?5DNS?5?$CFs?5query_job@ 004275fc     pjlib-util-i386-win32-vc8-release:srv_resolver.obj
 0002:0000462c       ??_C@_0CL@ICCMMEFF@Received?5non?5SRV?5answer?5for?5SRV@ 0042762c     pjlib-util-i386-win32-vc8-release:srv_resolver.obj
 0002:00004658       ??_C@_0BG@OENDJHLB@Hostname?5is?5too?5long?$CB@ 00427658     pjlib-util-i386-win32-vc8-release:srv_resolver.obj
 0002:00004670       ??_C@_0CJ@IGNPBKGN@Could?5not?5find?5SRV?5record?5in?5DN@ 00427670     pjlib-util-i386-win32-vc8-release:srv_resolver.obj
 0002:000046a0       ??_C@_0EE@LPMFAMKM@SRV?5query_job?5for?5?$CF?4?$CKs?5complete@ 004276a0     pjlib-util-i386-win32-vc8-release:srv_resolver.obj
 0002:000046e4       ??_C@_0BM@MJBLDIAG@?5?$CFd?3?5SRV?5?$CFd?5?$CFd?5?$CFd?5?$CF?4?$CKs?5?$CI?$CFs?$CJ@ 004276e4     pjlib-util-i386-win32-vc8-release:srv_resolver.obj
 0002:00004700       ??_C@_0CI@IBPJGCBL@Starting?5async?5DNS?5A?5query_job?5@ 00427700     pjlib-util-i386-win32-vc8-release:srv_resolver.obj
 0002:00004728       ??_C@_0CH@COCLGFLO@DNS?5SRV?5resolution?5failed?5for?5?$CF@ 00427728     pjlib-util-i386-win32-vc8-release:srv_resolver.obj
 0002:00004750       ??_C@_0EM@PBBBMOKP@DNS?5SRV?5resolution?5failed?5for?5?$CF@ 00427750     pjlib-util-i386-win32-vc8-release:srv_resolver.obj
 0002:0000479c       ??_C@_0DC@FOMADMGC@DNS?5?$CFs?5record?5parse?5error?5for?5?8@ 0042779c     pjlib-util-i386-win32-vc8-release:srv_resolver.obj
 0002:000047d0       ??_C@_0CM@GNPJLEOH@Bad?5address?5family?5in?5DNS?5?$CFs?5qu@ 004277d0     pjlib-util-i386-win32-vc8-release:srv_resolver.obj
 0002:000047fc       ??_C@_0BE@BLHHGJAP@DNS?5?$CFs?5for?5?$CF?4?$CKs?3?5?$CFs@ 004277fc     pjlib-util-i386-win32-vc8-release:srv_resolver.obj
 0002:00004810       ??_C@_0CE@INBOJAA@DNS?5?$CFs?5record?5resolution?5failed@ 00427810     pjlib-util-i386-win32-vc8-release:srv_resolver.obj
 0002:00004834       ??_C@_0DF@NMOAKAGH@Server?5resolution?5complete?0?5?$CFd?5@ 00427834     pjlib-util-i386-win32-vc8-release:srv_resolver.obj
 0002:0000486c       ??_C@_0DH@GBMACLIM@DNS?5?$CFs?5record?5resolution?5error?5@ 0042786c     pjlib-util-i386-win32-vc8-release:srv_resolver.obj
 0002:000048a4       ??_C@_04IFCNACLH@pj?$CFp@  004278a4     pjlib-i386-win32-vc8-release:os_core_win32.obj
 0002:000048ac       ??_C@_0BA@NGJFHJA@PJLIB?1No?5memory@ 004278ac     pjlib-i386-win32-vc8-release:os_core_win32.obj
 0002:000048bc       ??_C@_0BP@NGEKBPIB@pjlib?5?$CFs?5for?5win32?5initialized@ 004278bc     pjlib-i386-win32-vc8-release:os_core_win32.obj
 0002:000048dc       ??_C@_0BA@FNCACAIG@os_core_win32?4c@ 004278dc     pjlib-i386-win32-vc8-release:os_core_win32.obj
 0002:000048ec       ??_C@_0DE@FMBDMABK@d?3?2pjsip?2pjproject?92?48?2pjlib?2sr@ 004278ec     pjlib-i386-win32-vc8-release:os_core_win32.obj
 0002:00004920       ??_C@_05KHEDLION@thr?$CFp@ 00427920     pjlib-i386-win32-vc8-release:os_core_win32.obj
 0002:00004928       ??_C@_05EJDHHBFJ@mtx?$CFp@ 00427928     pjlib-i386-win32-vc8-release:os_core_win32.obj
 0002:00004930       ??_C@_05EKKMALCN@sem?$CFp@ 00427930     pjlib-i386-win32-vc8-release:os_core_win32.obj
 0002:00004938       _PJ_AF_UNSPEC              00427938     pjlib-i386-win32-vc8-release:sock_bsd.obj
 0002:0000493c       _PJ_AF_UNIX                0042793c     pjlib-i386-win32-vc8-release:sock_bsd.obj
 0002:00004940       _PJ_AF_INET                00427940     pjlib-i386-win32-vc8-release:sock_bsd.obj
 0002:00004944       _PJ_AF_INET6               00427944     pjlib-i386-win32-vc8-release:sock_bsd.obj
 0002:00004948       _PJ_AF_PACKET              00427948     pjlib-i386-win32-vc8-release:sock_bsd.obj
 0002:0000494c       _PJ_AF_IRDA                0042794c     pjlib-i386-win32-vc8-release:sock_bsd.obj
 0002:00004950       _PJ_SOCK_STREAM            00427950     pjlib-i386-win32-vc8-release:sock_bsd.obj
 0002:00004954       _PJ_SOCK_DGRAM             00427954     pjlib-i386-win32-vc8-release:sock_bsd.obj
 0002:00004958       _PJ_SOCK_RAW               00427958     pjlib-i386-win32-vc8-release:sock_bsd.obj
 0002:0000495c       _PJ_SOCK_RDM               0042795c     pjlib-i386-win32-vc8-release:sock_bsd.obj
 0002:00004960       _PJ_SOL_SOCKET             00427960     pjlib-i386-win32-vc8-release:sock_bsd.obj
 0002:00004964       _PJ_SOL_IP                 00427964     pjlib-i386-win32-vc8-release:sock_bsd.obj
 0002:00004968       _PJ_SOL_TCP                00427968     pjlib-i386-win32-vc8-release:sock_bsd.obj
 0002:0000496c       _PJ_SOL_UDP                0042796c     pjlib-i386-win32-vc8-release:sock_bsd.obj
 0002:00004970       _PJ_SOL_IPV6               00427970     pjlib-i386-win32-vc8-release:sock_bsd.obj
 0002:00004974       _PJ_IP_TOS                 00427974     pjlib-i386-win32-vc8-release:sock_bsd.obj
 0002:00004978       _PJ_IPTOS_LOWDELAY         00427978     pjlib-i386-win32-vc8-release:sock_bsd.obj
 0002:0000497c       _PJ_IPTOS_THROUGHPUT       0042797c     pjlib-i386-win32-vc8-release:sock_bsd.obj
 0002:00004980       _PJ_IPTOS_RELIABILITY      00427980     pjlib-i386-win32-vc8-release:sock_bsd.obj
 0002:00004984       _PJ_IPTOS_MINCOST          00427984     pjlib-i386-win32-vc8-release:sock_bsd.obj
 0002:00004988       _PJ_IPV6_TCLASS            00427988     pjlib-i386-win32-vc8-release:sock_bsd.obj
 0002:0000498c       _PJ_SO_TYPE                0042798c     pjlib-i386-win32-vc8-release:sock_bsd.obj
 0002:00004990       _PJ_SO_RCVBUF              00427990     pjlib-i386-win32-vc8-release:sock_bsd.obj
 0002:00004994       _PJ_SO_SNDBUF              00427994     pjlib-i386-win32-vc8-release:sock_bsd.obj
 0002:00004998       _PJ_TCP_NODELAY            00427998     pjlib-i386-win32-vc8-release:sock_bsd.obj
 0002:0000499c       _PJ_SO_REUSEADDR           0042799c     pjlib-i386-win32-vc8-release:sock_bsd.obj
 0002:000049a0       _PJ_SO_NOSIGPIPE           004279a0     pjlib-i386-win32-vc8-release:sock_bsd.obj
 0002:000049a4       _PJ_SO_PRIORITY            004279a4     pjlib-i386-win32-vc8-release:sock_bsd.obj
 0002:000049a8       _PJ_IP_MULTICAST_IF        004279a8     pjlib-i386-win32-vc8-release:sock_bsd.obj
 0002:000049ac       _PJ_IP_MULTICAST_TTL       004279ac     pjlib-i386-win32-vc8-release:sock_bsd.obj
 0002:000049b0       _PJ_IP_MULTICAST_LOOP      004279b0     pjlib-i386-win32-vc8-release:sock_bsd.obj
 0002:000049b4       _PJ_IP_ADD_MEMBERSHIP      004279b4     pjlib-i386-win32-vc8-release:sock_bsd.obj
 0002:000049b8       _PJ_IP_DROP_MEMBERSHIP     004279b8     pjlib-i386-win32-vc8-release:sock_bsd.obj
 0002:000049bc       _PJ_MSG_OOB                004279bc     pjlib-i386-win32-vc8-release:sock_bsd.obj
 0002:000049c0       _PJ_MSG_PEEK               004279c0     pjlib-i386-win32-vc8-release:sock_bsd.obj
 0002:000049c4       _PJ_MSG_DONTROUTE          004279c4     pjlib-i386-win32-vc8-release:sock_bsd.obj
 0002:000049c8       ??_C@_0CP@NNJMEPMJ@d?3?2pjsip?2pjproject?92?48?2pjlib?2sr@ 004279c8     pjlib-i386-win32-vc8-release:sock_bsd.obj
 0002:000049f8       ??_C@_0CE@IJGJDCPP@Warning?3?5error?5applying?5sock?5op@ 004279f8     pjlib-i386-win32-vc8-release:sock_bsd.obj
 0002:00004a1c       ??_C@_0L@NNKPLKFK@sock_bsd?4c@ 00427a1c     pjlib-i386-win32-vc8-release:sock_bsd.obj
 0002:00004a28       ??_C@_0CL@HKMFJDGH@d?3?2pjsip?2pjproject?92?48?2pjlib?2sr@ 00427a28     pjlib-i386-win32-vc8-release:pool.obj
 0002:00004a54       ??_C@_0DD@LHMLAEOO@d?3?2pjsip?2pjproject?92?48?2pjlib?2sr@ 00427a54     pjlib-i386-win32-vc8-release:pool_caching.obj
 0002:00004a88       ??_C@_0M@IGFPEOLJ@cachingpool@ 00427a88     pjlib-i386-win32-vc8-release:pool_caching.obj
 0002:00004a94       ??_C@_0BH@BBPHJKOA@?5Dumping?5caching?5pool?3@ 00427a94     pjlib-i386-win32-vc8-release:pool_caching.obj
 0002:00004aac       ??_C@_08COPEICHG@cachpool@ 00427aac     pjlib-i386-win32-vc8-release:pool_caching.obj
 0002:00004ab8       ??_C@_0CN@DOKPIIOH@?5?5?5Capacity?$DN?$CFu?0?5max_capacity?$DN?$CFu@ 00427ab8     pjlib-i386-win32-vc8-release:pool_caching.obj
 0002:00004ae8       ??_C@_0BM@IDLDGCC@?5?5Dumping?5all?5active?5pools?3@ 00427ae8     pjlib-i386-win32-vc8-release:pool_caching.obj
 0002:00004b04       ??_C@_0CA@MMLIKIEG@?5?5?5?$CF16s?3?5?$CF8d?5of?5?$CF8d?5?$CI?$CFd?$CF?$CF?$CJ?5used@ 00427b04     pjlib-i386-win32-vc8-release:pool_caching.obj
 0002:00004b24       ??_C@_0CB@GKBJPDKG@?5?5Total?5?$CF9d?5of?5?$CF9d?5?$CI?$CFd?5?$CF?$CF?$CJ?5used@ 00427b24     pjlib-i386-win32-vc8-release:pool_caching.obj
 0002:00004b48       ??_C@_0CN@KGLAKEMO@d?3?2pjsip?2pjproject?92?48?2pjlib?2sr@ 00427b48     pjlib-i386-win32-vc8-release:string.obj
 0002:00004b78       ??_C@_06DDFOEFIF@FATAL?3@  00427b78     pjlib-i386-win32-vc8-release:log.obj
 0002:00004b80       ??_C@_06PONDCDME@ERROR?3@  00427b80     pjlib-i386-win32-vc8-release:log.obj
 0002:00004b88       ??_C@_06OHJPOJDB@?5WARN?3@ 00427b88     pjlib-i386-win32-vc8-release:log.obj
 0002:00004b90       ??_C@_06ICKKLHPE@?5INFO?3@ 00427b90     pjlib-i386-win32-vc8-release:log.obj
 0002:00004b98       ??_C@_06DNOFLLB@DEBUG?3@   00427b98     pjlib-i386-win32-vc8-release:log.obj
 0002:00004ba0       ??_C@_06ELIFFDKB@TRACE?3@  00427ba0     pjlib-i386-win32-vc8-release:log.obj
 0002:00004ba8       ??_C@_06HGKAKJPG@DETRC?3@  00427ba8     pjlib-i386-win32-vc8-release:log.obj
 0002:00004bb0       ??_C@_03KOEHGMDN@Sun@      00427bb0     pjlib-i386-win32-vc8-release:log.obj
 0002:00004bb4       ??_C@_03PDAGKDH@Mon@       00427bb4     pjlib-i386-win32-vc8-release:log.obj
 0002:00004bb8       ??_C@_03NAGEINEP@Tue@      00427bb8     pjlib-i386-win32-vc8-release:log.obj
 0002:00004bbc       ??_C@_03MHOMLAJA@Wed@      00427bbc     pjlib-i386-win32-vc8-release:log.obj
 0002:00004bc0       ??_C@_03IOFIKPDN@Thu@      00427bc0     pjlib-i386-win32-vc8-release:log.obj
 0002:00004bc4       ??_C@_03IDIOELNC@Fri@      00427bc4     pjlib-i386-win32-vc8-release:log.obj
 0002:00004bc8       ??_C@_03FEFJNEK@Sat@       00427bc8     pjlib-i386-win32-vc8-release:log.obj
 0002:00004bcc       ??_C@_0CK@PMBLHNIA@d?3?2pjsip?2pjproject?92?48?2pjlib?2sr@ 00427bcc     pjlib-i386-win32-vc8-release:log.obj
 0002:00004bf8       ??_C@_0BO@BGMDCDKP@?$DMlogging?5error?3?5msg?5too?5long?$DO@ 00427bf8     pjlib-i386-win32-vc8-release:log.obj
 0002:00004c18       ??_C@_0DJ@NPDLGDNP@d?3?2pjsip?2pjproject?92?48?2pjlib?2sr@ 00427c18     pjlib-i386-win32-vc8-release:pool_policy_malloc.obj
 0002:00004d18       ??_C@_0BM@FLPPOGAG@Unknown?5Error?5?$CIPJ_EUNKNOWN?$CJ@ 00427d18     pjlib-i386-win32-vc8-release:errno.obj
 0002:00004d34       ??_C@_0CA@DCLOOJGD@Pending?5operation?5?$CIPJ_EPENDING?$CJ@ 00427d34     pjlib-i386-win32-vc8-release:errno.obj
 0002:00004d54       ??_C@_0CO@GABEOAFF@Too?5many?5connecting?5sockets?5?$CIPJ@ 00427d54     pjlib-i386-win32-vc8-release:errno.obj
 0002:00004d84       ??_C@_0CG@CBCJBJGD@Invalid?5value?5or?5argument?5?$CIPJ_E@ 00427d84     pjlib-i386-win32-vc8-release:errno.obj
 0002:00004dac       ??_C@_0CA@GJABNEKD@Name?5too?5long?5?$CIPJ_ENAMETOOLONG?$CJ@ 00427dac     pjlib-i386-win32-vc8-release:errno.obj
 0002:00004dcc       ??_C@_0BJ@JNKLPII@Not?5found?5?$CIPJ_ENOTFOUND?$CJ@ 00427dcc     pjlib-i386-win32-vc8-release:errno.obj
 0002:00004de8       ??_C@_0BO@GOLCMJKK@Not?5enough?5memory?5?$CIPJ_ENOMEM?$CJ@ 00427de8     pjlib-i386-win32-vc8-release:errno.obj
 0002:00004e08       ??_C@_0BI@HHGDCAID@BUG?5DETECTED?$CB?5?$CIPJ_EBUG?$CJ@ 00427e08     pjlib-i386-win32-vc8-release:errno.obj
 0002:00004e20       ??_C@_0CD@JOGIDHPJ@Operation?5timed?5out?5?$CIPJ_ETIMEDO@ 00427e20     pjlib-i386-win32-vc8-release:errno.obj
 0002:00004e44       ??_C@_0DF@MIFNAIHL@Too?5many?5objects?5of?5the?5specifi@ 00427e44     pjlib-i386-win32-vc8-release:errno.obj
 0002:00004e7c       ??_C@_0BK@OMPILOH@Object?5is?5busy?5?$CIPJ_EBUSY?$CJ@ 00427e7c     pjlib-i386-win32-vc8-release:errno.obj
 0002:00004e98       ??_C@_0CP@BAIBJOJE@Option?1operation?5is?5not?5support@ 00427e98     pjlib-i386-win32-vc8-release:errno.obj
 0002:00004ec8       ??_C@_0CC@OEEEEEML@Invalid?5operation?5?$CIPJ_EINVALIDO@ 00427ec8     pjlib-i386-win32-vc8-release:errno.obj
 0002:00004eec       ??_C@_0CE@KDDMJLGF@Operation?5cancelled?5?$CIPJ_ECANCEL@ 00427eec     pjlib-i386-win32-vc8-release:errno.obj
 0002:00004f10       ??_C@_0CD@LODOFNLC@Object?5already?5exists?5?$CIPJ_EEXIS@ 00427f10     pjlib-i386-win32-vc8-release:errno.obj
 0002:00004f34       ??_C@_0BG@GMBDFNLN@End?5of?5file?5?$CIPJ_EEOF?$CJ@ 00427f34     pjlib-i386-win32-vc8-release:errno.obj
 0002:00004f4c       ??_C@_0BN@PCCNBFLN@Size?5is?5too?5big?5?$CIPJ_ETOOBIG?$CJ@ 00427f4c     pjlib-i386-win32-vc8-release:errno.obj
 0002:00004f6c       ??_C@_0DB@FDCHLEID@gethostbyname?$CI?$CJ?5has?5returned?5er@ 00427f6c     pjlib-i386-win32-vc8-release:errno.obj
 0002:00004fa0       ??_C@_0CB@MGGLJMNO@Size?5is?5too?5short?5?$CIPJ_ETOOSMALL@ 00427fa0     pjlib-i386-win32-vc8-release:errno.obj
 0002:00004fc4       ??_C@_0BG@NBDJGAFI@Ignored?5?$CIPJ_EIGNORED?$CJ@ 00427fc4     pjlib-i386-win32-vc8-release:errno.obj
 0002:00004fdc       ??_C@_0CH@OGOOBJBE@IPv6?5is?5not?5supported?5?$CIPJ_EIPV6@ 00427fdc     pjlib-i386-win32-vc8-release:errno.obj
 0002:00005004       ??_C@_0CK@DJAHHNOI@Unsupported?5address?5family?5?$CIPJ_@ 00428004     pjlib-i386-win32-vc8-release:errno.obj
 0002:00005030       ??_C@_0CD@PDGCJOJH@Object?5no?5longer?5exists?5?$CIPJ_EGO@ 00428030     pjlib-i386-win32-vc8-release:errno.obj
 0002:00005054       ??_C@_0CI@LBHALONI@Socket?5is?5in?5bad?5state?5?$CIPJ_ESOC@ 00428054     pjlib-i386-win32-vc8-release:errno.obj
 0002:0000507c       ??_C@_0BH@ONDLFCEA@Unknown?5pjlib?5error?5?$CFd@ 0042807c     pjlib-i386-win32-vc8-release:errno.obj
 0002:00005094       ??_C@_07PBILKAFL@Success@  00428094     pjlib-i386-win32-vc8-release:errno.obj
 0002:0000509c       ??_C@_0BB@BIKLJNJD@Unknown?5error?5?$CFd@ 0042809c     pjlib-i386-win32-vc8-release:errno.obj
 0002:000050b0       ??_C@_05NAOIJFC@Error@     004280b0     pjlib-i386-win32-vc8-release:errno.obj
 0002:000050b8       ??_C@_06DJHOIPC@?$CFs?3?5?$CFs@ 004280b8     pjlib-i386-win32-vc8-release:errno.obj
 0002:000050c0       ??_C@_0DJ@IJGBOMPN@d?3?2pjsip?2pjproject?92?48?2pjlib?2sr@ 004280c0     pjlib-i386-win32-vc8-release:ioqueue_select.obj
 0002:000050fc       ??_C@_05LIJONKFG@ioq?$CFp@ 004280fc     pjlib-i386-win32-vc8-release:ioqueue_select.obj
 0002:00005104       ??_C@_0CA@IMDCINDN@select?$CI?$CJ?5I?1O?5Queue?5created?5?$CI?$CFp?$CJ@ 00428104     pjlib-i386-win32-vc8-release:ioqueue_select.obj
 0002:00005124       ??_C@_05PHKAINEA@pjlib@    00428124     pjlib-i386-win32-vc8-release:ioqueue_select.obj
 0002:0000512c       ??_C@_0CJ@NPMLHLI@Bad?5ioqueue?5count?5in?5key?5unregi@ 0042812c     pjlib-i386-win32-vc8-release:ioqueue_select.obj
 0002:00005158       ??_C@_0L@CAJCIPAG@ioq_select@ 00428158     pjlib-i386-win32-vc8-release:ioqueue_select.obj
 0002:00005164       ??_C@_06HALIBNKJ@glck?$CFp@ 00428164     pjlib-i386-win32-vc8-release:lock.obj
 0002:0000516c       ??_C@_0CM@MDKHFPDP@d?3?2pjsip?2pjproject?92?48?2pjlib?2sr@ 0042816c     pjlib-i386-win32-vc8-release:timer.obj
 0002:000051a0       __xmm@00000003000000020000000100000000 004281a0     pjlib-i386-win32-vc8-release:timer.obj
 0002:00005340       ??_C@_0CD@FNMHLHMI@Interrupted?5system?5call?5?$CIWSAEIN@ 00428340     pjlib-i386-win32-vc8-release:os_error_win32.obj
 0002:00005364       ??_C@_0BL@OKPDNKLH@Bad?5file?5number?5?$CIWSAEBADF?$CJ@ 00428364     pjlib-i386-win32-vc8-release:os_error_win32.obj
 0002:00005380       ??_C@_0BO@BMBEEPBP@Permission?5denied?5?$CIWSAEACCES?$CJ@ 00428380     pjlib-i386-win32-vc8-release:os_error_win32.obj
 0002:000053a0       ??_C@_0BI@LAKHPJJ@Bad?5address?5?$CIWSAEFAULT?$CJ@ 004283a0     pjlib-i386-win32-vc8-release:os_error_win32.obj
 0002:000053b8       ??_C@_0BN@FEIDINKH@Invalid?5argument?5?$CIWSAEINVAL?$CJ@ 004283b8     pjlib-i386-win32-vc8-release:os_error_win32.obj
 0002:000053d8       ??_C@_0CC@HMKKNDGL@Too?5many?5open?5sockets?5?$CIWSAEMFIL@ 004283d8     pjlib-i386-win32-vc8-release:os_error_win32.obj
 0002:000053fc       ??_C@_0CH@GCPPFMGM@Operation?5would?5block?5?$CIWSAEWOUL@ 004283fc     pjlib-i386-win32-vc8-release:os_error_win32.obj
 0002:00005424       ??_C@_0CL@DKGHEPCD@Operation?5now?5in?5progress?5?$CIWSAE@ 00428424     pjlib-i386-win32-vc8-release:os_error_win32.obj
 0002:00005450       ??_C@_0CM@BEMCBKDH@Operation?5already?5in?5progress?5?$CI@ 00428450     pjlib-i386-win32-vc8-release:os_error_win32.obj
 0002:0000547c       ??_C@_0CN@PAFKDEBN@Socket?5operation?5on?5non?9socket?5@ 0042847c     pjlib-i386-win32-vc8-release:os_error_win32.obj
 0002:000054ac       ??_C@_0CP@HCDICECK@Destination?5address?5required?5?$CIW@ 004284ac     pjlib-i386-win32-vc8-release:os_error_win32.obj
 0002:000054dc       ??_C@_0BP@LNFPBFEK@Message?5too?5long?5?$CIWSAEMSGSIZE?$CJ@ 004284dc     pjlib-i386-win32-vc8-release:os_error_win32.obj
 0002:000054fc       ??_C@_0CP@MMIMIEMF@Protocol?5wrong?5type?5for?5socket?5@ 004284fc     pjlib-i386-win32-vc8-release:os_error_win32.obj
 0002:0000552c       ??_C@_0CF@HNFLHOHA@Bad?5protocol?5option?5?$CIWSAENOPROT@ 0042852c     pjlib-i386-win32-vc8-release:os_error_win32.obj
 0002:00005554       ??_C@_0CM@HPGHEHCE@Protocol?5not?5supported?5?$CIWSAEPRO@ 00428554     pjlib-i386-win32-vc8-release:os_error_win32.obj
 0002:00005580       ??_C@_0CP@JLBNHCOL@Socket?5type?5not?5supported?5?$CIWSAE@ 00428580     pjlib-i386-win32-vc8-release:os_error_win32.obj
 0002:000055b0       ??_C@_0DC@GJMFANID@Operation?5not?5supported?5on?5sock@ 004285b0     pjlib-i386-win32-vc8-release:os_error_win32.obj
 0002:000055e4       ??_C@_0DA@GFNBENIG@Protocol?5family?5not?5supported?5?$CI@ 004285e4     pjlib-i386-win32-vc8-release:os_error_win32.obj
 0002:00005614       ??_C@_0CP@MMKHGIFC@Address?5family?5not?5supported?5?$CIW@ 00428614     pjlib-i386-win32-vc8-release:os_error_win32.obj
 0002:00005644       ??_C@_0CH@OCKNFBKE@Address?5already?5in?5use?5?$CIWSAEADD@ 00428644     pjlib-i386-win32-vc8-release:os_error_win32.obj
 0002:0000566c       ??_C@_0DC@FJJPJPOD@Can?8t?5assign?5requested?5address?5@ 0042866c     pjlib-i386-win32-vc8-release:os_error_win32.obj
 0002:000056a0       ??_C@_0BO@IICKDHLJ@Network?5is?5down?5?$CIWSAENETDOWN?$CJ@ 004286a0     pjlib-i386-win32-vc8-release:os_error_win32.obj
 0002:000056c0       ??_C@_0CI@NKJAACME@Network?5is?5unreachable?5?$CIWSAENET@ 004286c0     pjlib-i386-win32-vc8-release:os_error_win32.obj
 0002:000056e8       ??_C@_0CE@LJEEEFEC@Net?5connection?5reset?5?$CIWSAENETRE@ 004286e8     pjlib-i386-win32-vc8-release:os_error_win32.obj
 0002:0000570c       ??_C@_0DD@PGDIHOBG@Software?5caused?5connection?5abor@ 0042870c     pjlib-i386-win32-vc8-release:os_error_win32.obj
 0002:00005740       ??_C@_0CJ@PJHCFAAN@Connection?5reset?5by?5peer?5?$CIWSAEC@ 00428740     pjlib-i386-win32-vc8-release:os_error_win32.obj
 0002:0000576c       ??_C@_0CH@EKNGIMKN@No?5buffer?5space?5available?5?$CIWSAE@ 0042876c     pjlib-i386-win32-vc8-release:os_error_win32.obj
 0002:00005794       ??_C@_0CJ@JOPBNNOD@Socket?5is?5already?5connected?5?$CIWS@ 00428794     pjlib-i386-win32-vc8-release:os_error_win32.obj
 0002:000057c0       ??_C@_0CG@CECDMHLL@Socket?5is?5not?5connected?5?$CIWSAENO@ 004287c0     pjlib-i386-win32-vc8-release:os_error_win32.obj
 0002:000057e8       ??_C@_0DA@JGJMJPNM@Can?8t?5send?5after?5socket?5shutdow@ 004287e8     pjlib-i386-win32-vc8-release:os_error_win32.obj
 0002:00005818       ??_C@_0DE@CAILNFFE@Too?5many?5references?0?5can?8t?5spli@ 00428818     pjlib-i386-win32-vc8-release:os_error_win32.obj
 0002:0000584c       ??_C@_0CE@IIKHBGF@Connection?5timed?5out?5?$CIWSAETIMED@ 0042884c     pjlib-i386-win32-vc8-release:os_error_win32.obj
 0002:00005870       ??_C@_0CF@JMKFBJH@Connection?5refused?5?$CIWSAECONNREF@ 00428870     pjlib-i386-win32-vc8-release:os_error_win32.obj
 0002:00005898       ??_C@_0CN@FCKBNFMB@Too?5many?5levels?5of?5symbolic?5lin@ 00428898     pjlib-i386-win32-vc8-release:os_error_win32.obj
 0002:000058c8       ??_C@_0CF@MOFKOMBB@File?5name?5too?5long?5?$CIWSAENAMETOO@ 004288c8     pjlib-i386-win32-vc8-release:os_error_win32.obj
 0002:000058f0       ??_C@_0BM@NCJCEEDP@Host?5is?5down?5?$CIWSAEHOSTDOWN?$CJ@ 004288f0     pjlib-i386-win32-vc8-release:os_error_win32.obj
 0002:0000590c       ??_C@_0CD@ECJOJHBH@No?5route?5to?5host?5?$CIWSAEHOSTUNREA@ 0042890c     pjlib-i386-win32-vc8-release:os_error_win32.obj
 0002:00005930       ??_C@_0CD@NEFLEHEG@Directory?5not?5empty?5?$CIWSAENOTEMP@ 00428930     pjlib-i386-win32-vc8-release:os_error_win32.obj
 0002:00005954       ??_C@_0CB@GPCGLHOJ@Too?5many?5processes?5?$CIWSAEPROCLIM@ 00428954     pjlib-i386-win32-vc8-release:os_error_win32.obj
 0002:00005978       ??_C@_0BL@IGHJMJKO@Too?5many?5users?5?$CIWSAEUSERS?$CJ@ 00428978     pjlib-i386-win32-vc8-release:os_error_win32.obj
 0002:00005994       ??_C@_0CA@MIOFDKMA@Disc?5quota?5exceeded?5?$CIWSAEDQUOT?$CJ@ 00428994     pjlib-i386-win32-vc8-release:os_error_win32.obj
 0002:000059b4       ??_C@_0CC@IMLIDHNH@Stale?5NFS?5file?5handle?5?$CIWSAESTAL@ 004289b4     pjlib-i386-win32-vc8-release:os_error_win32.obj
 0002:000059d8       ??_C@_0CP@MLAFGPOA@Too?5many?5levels?5of?5remote?5in?5pa@ 004289d8     pjlib-i386-win32-vc8-release:os_error_win32.obj
 0002:00005a08       ??_C@_0CP@IBAEMKGH@Network?5system?5is?5unavailable?5?$CI@ 00428a08     pjlib-i386-win32-vc8-release:os_error_win32.obj
 0002:00005a38       ??_C@_0DC@BLAKHMMJ@Winsock?5version?5out?5of?5range?5?$CIW@ 00428a38     pjlib-i386-win32-vc8-release:os_error_win32.obj
 0002:00005a6c       ??_C@_0CO@HPDHHDHA@WSAStartup?5not?5yet?5called?5?$CIWSAN@ 00428a6c     pjlib-i386-win32-vc8-release:os_error_win32.obj
 0002:00005a9c       ??_C@_0CL@GFDHEKLB@Graceful?5shutdown?5in?5progress?5?$CI@ 00428a9c     pjlib-i386-win32-vc8-release:os_error_win32.obj
 0002:00005ac8       ??_C@_0CD@OEALOMDH@Host?5not?5found?5?$CIWSAHOST_NOT_FOU@ 00428ac8     pjlib-i386-win32-vc8-release:os_error_win32.obj
 0002:00005aec       ??_C@_0DB@KFPHELLI@No?5host?5data?5of?5that?5type?5was?5f@ 00428aec     pjlib-i386-win32-vc8-release:os_error_win32.obj
 0002:00005b20       ??_C@_0BE@JPHLLAEM@Win32?5error?5code?5?$CFu@ 00428b20     pjlib-i386-win32-vc8-release:os_error_win32.obj
 0002:00005b34       ??_C@_0CD@KFHCCJFN@?$CB?$CB?$CBFATAL?3?5unhandled?5exception?5?$CF@ 00428b34     pjlib-i386-win32-vc8-release:except.obj
 0002:00005b58       ??_C@_08PDFMOJIE@except?4c@ 00428b58     pjlib-i386-win32-vc8-release:except.obj
 0002:00005b64       ??_C@_0N@GJOLEKJC@?$DMInvalid?5ID?$DO@ 00428b64     pjlib-i386-win32-vc8-release:except.obj
 0002:00005b74       ??_C@_0N@LJPLLMIL@exception?5?$CFd@ 00428b74     pjlib-i386-win32-vc8-release:except.obj
 0002:00005b84       _PJ_GUID_STRING_LENGTH     00428b84     pjlib-i386-win32-vc8-release:guid_win32.obj
 0002:00005b88       ??_C@_0DB@LMMCJAJB@d?3?2pjsip?2pjproject?92?48?2pjlib?2sr@ 00428b88     pjlib-i386-win32-vc8-release:guid_win32.obj
 0002:00005bbc       ??_C@_0CL@CPIEOCGB@d?3?2pjsip?2pjproject?92?48?2pjlib?2sr@ 00428bbc     pjlib-i386-win32-vc8-release:rand.obj
 0002:00005be8       ??_C@_03HODKBCIO@?3?$CFd@  00428be8     pjlib-i386-win32-vc8-release:sock_common.obj
 0002:00005bec       ??_C@_08KJEDNCKC@?$CFs?$CFs?$CFs?$CFs@ 00428bec     pjlib-i386-win32-vc8-release:sock_common.obj
 0002:00005bf8       ??_C@_0DC@FCBHBCDO@d?3?2pjsip?2pjproject?92?48?2pjlib?2sr@ 00428bf8     pjlib-i386-win32-vc8-release:sock_common.obj
 0002:00005c2c       ??_C@_07EBPGIHEF@1?41?41?41@ 00428c2c     pjlib-i386-win32-vc8-release:sock_common.obj
 0002:00005c34       ??_C@_04NFKLOGOF@1?3?31@   00428c34     pjlib-i386-win32-vc8-release:sock_common.obj
 0002:00005c3c       ??_C@_0M@HMJLLIPA@?$CFs?$CF?4?$CKs?$CFs?3?$CFd@ 00428c3c     pjlib-i386-win32-vc8-release:sock_common.obj
 0002:00005c48       ??_C@_08JLADFOFK@?$CFs?$CF?4?$CKs?$CFs@ 00428c48     pjlib-i386-win32-vc8-release:sock_common.obj
 0002:00005c84       ??_C@_0BC@GPHMAKPK@sock_qos_common?4c@ 00428c84     pjlib-i386-win32-vc8-release:sock_qos_common.obj
 0002:00005c98       ??_C@_06HBELJPBO@socket@   00428c98     pjlib-i386-win32-vc8-release:sock_qos_common.obj
 0002:00005ca0       ??_C@_0CA@EBJCMLJI@Error?5setting?5QoS?5type?5?$CFd?5to?5?$CFs@ 00428ca0     pjlib-i386-win32-vc8-release:sock_qos_common.obj
 0002:00005cc0       ??_C@_0CK@CGDCCPNL@Error?5setting?5QoS?5params?5?$CIflags@ 00428cc0     pjlib-i386-win32-vc8-release:sock_qos_common.obj
 0002:00005cec       ??_C@_0CM@KDINLFNB@d?3?2pjsip?2pjproject?92?48?2pjlib?2sr@ 00428cec     pjlib-i386-win32-vc8-release:types.obj
 0002:00005d18       ??_C@_0GB@HHNNKDBF@Received?5?$CFd?5consecutive?5errors?3@ 00428d18     pjlib-i386-win32-vc8-release:activesock.obj
 0002:00005d80       __real@3ff0000000000000    00428d80     pjlib-i386-win32-vc8-release:os_timestamp_common.obj
 0002:00005d88       __real@408f400000000000    00428d88     pjlib-i386-win32-vc8-release:os_timestamp_common.obj
 0002:00005d90       ??_C@_0CL@DOIMMNGK@d?3?2pjsip?2pjproject?92?48?2pjlib?2sr@ 00428d90     pjlib-i386-win32-vc8-release:hash.obj
 0002:00005dbc       ??_C@_08DOCHLGNA@config?4c@ 00428dbc     pjlib-i386-win32-vc8-release:config.obj
 0002:00005dc8       ??_C@_03KBNFMHNI@2?48@     00428dc8     pjlib-i386-win32-vc8-release:config.obj
 0002:00005dcc       ??_C@_0DI@DHEDKGDI@d?3?2pjsip?2pjproject?92?48?2pjlib?2sr@ 00428dcc     pjlib-i386-win32-vc8-release:log_writer_stdout.obj
 0002:00005e04       ??_C@_02DKCKIIND@?$CFs@    00428e04     pjlib-i386-win32-vc8-release:log_writer_stdout.obj
 0002:00005e08       ??_C@_0DC@NPGHJPKE@d?3?2pjsip?2pjproject?92?48?2pjlib?2sr@ 00428e08     pjlib-i386-win32-vc8-release:sock_select.obj
 0002:00005e3c       ??_C@_08PFPBFMIL@IpHlpApi@ 00428e3c     pjlib-i386-win32-vc8-release:ip_helper_win32.obj
 0002:00005e48       ??_C@_0P@PMIJPFPM@GetIpAddrTable@ 00428e48     pjlib-i386-win32-vc8-release:ip_helper_win32.obj
 0002:00005e58       ??_C@_0BF@LHFCIIHE@GetAdaptersAddresses@ 00428e58     pjlib-i386-win32-vc8-release:ip_helper_win32.obj
 0002:00005e70       ??_C@_0L@BLHMKEDC@GetIfEntry@ 00428e70     pjlib-i386-win32-vc8-release:ip_helper_win32.obj
 0002:00005f40       __load_config_used         00428f40     MSVCRT:loadcfg.obj
 0002:00005fe0       ___safe_se_handler_table   00428fe0     <linker-defined>
 0002:00006210       ___rtc_iaa                 00429210     MSVCRT:initsect.obj
 0002:00006214       ___rtc_izz                 00429214     MSVCRT:initsect.obj
 0002:00006218       ___rtc_taa                 00429218     MSVCRT:initsect.obj
 0002:0000621c       ___rtc_tzz                 0042921c     MSVCRT:initsect.obj
 0002:0000625c       __IMPORT_DESCRIPTOR_ole32  0042925c     ole32:ole32.dll
 0002:00006270       __IMPORT_DESCRIPTOR_WS2_32 00429270     ws2_32:WS2_32.dll
 0002:00006284       __IMPORT_DESCRIPTOR_KERNEL32 00429284     kernel32:KERNEL32.dll
 0002:00006298       __IMPORT_DESCRIPTOR_VCRUNTIME140 00429298     vcruntime:VCRUNTIME140.dll
 0002:000062ac       __IMPORT_DESCRIPTOR_api-ms-win-crt-string-l1-1-0 004292ac     ucrt:api-ms-win-crt-string-l1-1-0.dll
 0002:000062c0       __IMPORT_DESCRIPTOR_api-ms-win-crt-stdio-l1-1-0 004292c0     ucrt:api-ms-win-crt-stdio-l1-1-0.dll
 0002:000062d4       __IMPORT_DESCRIPTOR_api-ms-win-crt-convert-l1-1-0 004292d4     ucrt:api-ms-win-crt-convert-l1-1-0.dll
 0002:000062e8       __IMPORT_DESCRIPTOR_api-ms-win-crt-heap-l1-1-0 004292e8     ucrt:api-ms-win-crt-heap-l1-1-0.dll
 0002:000062fc       __IMPORT_DESCRIPTOR_api-ms-win-crt-utility-l1-1-0 004292fc     ucrt:api-ms-win-crt-utility-l1-1-0.dll
 0002:00006310       __IMPORT_DESCRIPTOR_api-ms-win-crt-math-l1-1-0 00429310     ucrt:api-ms-win-crt-math-l1-1-0.dll
 0002:00006324       __IMPORT_DESCRIPTOR_api-ms-win-crt-runtime-l1-1-0 00429324     ucrt:api-ms-win-crt-runtime-l1-1-0.dll
 0002:00006338       __IMPORT_DESCRIPTOR_api-ms-win-crt-locale-l1-1-0 00429338     ucrt:api-ms-win-crt-locale-l1-1-0.dll
 0002:0000634c       __NULL_IMPORT_DESCRIPTOR   0042934c     ole32:ole32.dll
 0003:000003f0       _PJSIP_SYN_ERR_EXCEPTION   0042a3f0     pjsip-core-i386-win32-vc8-release:sip_parser.obj
 0003:000003f4       _PJSIP_EINVAL_ERR_EXCEPTION 0042a3f4     pjsip-core-i386-win32-vc8-release:sip_parser.obj
 0003:00000530       _pjsip_sip_cfg_var         0042a530     pjsip-core-i386-win32-vc8-release:sip_config.obj
 0003:00000954       _mod_stateful_util         0042a954     pjsip-core-i386-win32-vc8-release:sip_util_statefull.obj
 0003:000009a8       _pj_optind                 0042a9a8     pjlib-util-i386-win32-vc8-release:getopt.obj
 0003:000009ac       _pj_optopt                 0042a9ac     pjlib-util-i386-win32-vc8-release:getopt.obj
 0003:00000a6c       _pj_pool_factory_default_policy 0042aa6c     pjlib-i386-win32-vc8-release:pool_policy_malloc.obj
 0003:00000ad0       _PJ_VERSION                0042aad0     pjlib-i386-win32-vc8-release:config.obj
 0003:00000ad8       ___security_cookie_complement 0042aad8     MSVCRT:gs_cookie.obj
 0003:00000adc       ___security_cookie         0042aadc     MSVCRT:gs_cookie.obj
 0003:00000ae0       ___isa_enabled             0042aae0     MSVCRT:cpu_disp.obj
 0003:00000ae4       __fltused                  0042aae4     MSVCRT:fltused.obj
 0003:00000af0       ___scrt_native_dllmain_reason 0042aaf0     MSVCRT:utility.obj
 0003:00000af4       ___scrt_default_matherr    0042aaf4     MSVCRT:matherr.obj
 0003:00000b00       ___scrt_ucrt_dll_is_in_use 0042ab00     MSVCRT:ucrt_stubs.obj
 0003:0000407c       _pj_optarg                 0042e07c     pjlib-util-i386-win32-vc8-release:getopt.obj
 0003:0000472c       ___isa_available           0042e72c     MSVCRT:cpu_disp.obj
 0003:00004730       ___favor                   0042e730     MSVCRT:cpu_disp.obj
 0003:00004734       ___scrt_current_native_startup_state 0042e734     MSVCRT:utility.obj
 0003:00004738       ___scrt_native_startup_lock 0042e738     MSVCRT:utility.obj
 0003:00004758       ?__type_info_root_node@@3U__type_info_node@@A 0042e758     MSVCRT:tncleanup.obj
 0003:00004760       ?_OptionsStorage@?1??__local_stdio_scanf_options@@9@4_KA 0042e760     MSVCRT:default_local_stdio_options.obj
 0003:00004768       ___scrt_debugger_hook_flag 0042e768     MSVCRT:utility_desktop.obj
 0003:00004780       _hdr_list                  0042e780     <common>
 0003:000047a0       ?_OptionsStorage@?1??__local_stdio_printf_options@@9@9 0042e7a0     <common>
 0003:000047a8       _PJ_NO_MEMORY_EXCEPTION    0042e7a8     <common>
 0003:000047ac       ___dyn_tls_dtor_callback   0042e7ac     <common>
 0003:000047b0       ___dyn_tls_init_callback   0042e7b0     <common>

 entry point at        0001:0002095a

 Static symbols

 0001:00000000       _pj_list_init              00401000 f   sipstateless.obj
 0001:00000010       _pj_list_push_back         00401010 f   sipstateless.obj
 0001:00000020       _usage                     00401020 f   sipstateless.obj
 0001:00000070       _on_rx_request             00401070 f   sipstateless.obj
 0001:00000420       _pjsip_via_hdr_print       00401420 f   pjsip-core-i386-win32-vc8-release:sip_msg.obj
 0001:00000770       _pjsip_via_hdr_clone       00401770 f   pjsip-core-i386-win32-vc8-release:sip_msg.obj
 0001:00000870       _pjsip_via_hdr_shallow_clone 00401870 f   pjsip-core-i386-win32-vc8-release:sip_msg.obj
 0001:000008b0       _pjsip_generic_string_hdr_print 004018b0 f   pjsip-core-i386-win32-vc8-release:sip_msg.obj
 0001:00000920       _pjsip_generic_string_hdr_clone 00401920 f   pjsip-core-i386-win32-vc8-release:sip_msg.obj
 0001:00000960       _pjsip_generic_string_hdr_shallow_clone 00401960 f   pjsip-core-i386-win32-vc8-release:sip_msg.obj
 0001:00000990       _pjsip_generic_int_hdr_print 00401990 f   pjsip-core-i386-win32-vc8-release:sip_msg.obj
 0001:000009f0       _pjsip_generic_int_hdr_clone 004019f0 f   pjsip-core-i386-win32-vc8-release:sip_msg.obj
 0001:000009f0       _pjsip_generic_int_hdr_shallow_clone 004019f0 f   pjsip-core-i386-win32-vc8-release:sip_msg.obj
 0001:00000a20       _pjsip_generic_array_hdr_print 00401a20 f   pjsip-core-i386-win32-vc8-release:sip_msg.obj
 0001:00000b10       _pjsip_generic_array_hdr_clone 00401b10 f   pjsip-core-i386-win32-vc8-release:sip_msg.obj
 0001:00000b80       _pjsip_generic_array_hdr_shallow_clone 00401b80 f   pjsip-core-i386-win32-vc8-release:sip_msg.obj
 0001:00000bb0       _pjsip_clen_hdr_print      00401bb0 f   pjsip-core-i386-win32-vc8-release:sip_msg.obj
 0001:00000c20       _pjsip_clen_hdr_clone      00401c20 f   pjsip-core-i386-win32-vc8-release:sip_msg.obj
 0001:00000c90       _pjsip_cseq_hdr_print      00401c90 f   pjsip-core-i386-win32-vc8-release:sip_msg.obj
 0001:00000d00       _pjsip_cseq_hdr_clone      00401d00 f   pjsip-core-i386-win32-vc8-release:sip_msg.obj
 0001:00000da0       _pjsip_cseq_hdr_shallow_clone 00401da0 f   pjsip-core-i386-win32-vc8-release:sip_msg.obj
 0001:00000dd0       _pjsip_contact_hdr_print   00401dd0 f   pjsip-core-i386-win32-vc8-release:sip_msg.obj
 0001:00000fb0       _pjsip_contact_hdr_clone   00401fb0 f   pjsip-core-i386-win32-vc8-release:sip_msg.obj
 0001:00001070       _pjsip_routing_hdr_shallow_clone 00402070 f   pjsip-core-i386-win32-vc8-release:sip_msg.obj
 0001:00001070       _pjsip_contact_hdr_shallow_clone 00402070 f   pjsip-core-i386-win32-vc8-release:sip_msg.obj
 0001:000010b0       _pjsip_ctype_hdr_print     004020b0 f   pjsip-core-i386-win32-vc8-release:sip_msg.obj
 0001:00001130       _pjsip_ctype_hdr_clone     00402130 f   pjsip-core-i386-win32-vc8-release:sip_msg.obj
 0001:000011e0       _pjsip_fromto_hdr_print    004021e0 f   pjsip-core-i386-win32-vc8-release:sip_msg.obj
 0001:000012f0       _pjsip_fromto_hdr_clone    004022f0 f   pjsip-core-i386-win32-vc8-release:sip_msg.obj
 0001:00001420       _pjsip_fromto_hdr_shallow_clone 00402420 f   pjsip-core-i386-win32-vc8-release:sip_msg.obj
 0001:00001460       _pjsip_routing_hdr_print   00402460 f   pjsip-core-i386-win32-vc8-release:sip_msg.obj
 0001:00001590       _pjsip_routing_hdr_clone   00402590 f   pjsip-core-i386-win32-vc8-release:sip_msg.obj
 0001:000015e0       _pjsip_retry_after_hdr_print 004025e0 f   pjsip-core-i386-win32-vc8-release:sip_msg.obj
 0001:000016c0       _pjsip_retry_after_hdr_clone 004026c0 f   pjsip-core-i386-win32-vc8-release:sip_msg.obj
 0001:00001740       _pjsip_retry_after_hdr_shallow_clone 00402740 f   pjsip-core-i386-win32-vc8-release:sip_msg.obj
 0001:00001790       _init_hdr                  00402790 f   pjsip-core-i386-win32-vc8-release:sip_msg.obj
 0001:000017f0       _init_status_phrase        004027f0 f   pjsip-core-i386-win32-vc8-release:sip_msg.obj
 0001:00002c40       _print_media_type          00403c40 f   pjsip-core-i386-win32-vc8-release:sip_msg.obj
 0001:00002cf0       _cmp_mod_name              00403cf0 f   pjsip-core-i386-win32-vc8-release:sip_endpoint.obj
 0001:00002d10       _endpt_on_rx_msg           00403d10 f   pjsip-core-i386-win32-vc8-release:sip_endpoint.obj
 0001:00002f00       _endpt_on_tx_msg           00403f00 f   pjsip-core-i386-win32-vc8-release:sip_endpoint.obj
 0001:00003930       _pool_callback             00404930 f   pjsip-core-i386-win32-vc8-release:sip_endpoint.obj
 0001:00003940       _unload_module             00404940 f   pjsip-core-i386-win32-vc8-release:sip_endpoint.obj
 0001:000039a0       _init_request_throw        004049a0 f   pjsip-core-i386-win32-vc8-release:sip_util.obj
 0001:00004a30       _send_response_resolver_cb 00405a30 f   pjsip-core-i386-win32-vc8-release:sip_util.obj
 0001:00004b30       _send_response_transport_cb 00405b30 f   pjsip-core-i386-win32-vc8-release:sip_util.obj
 0001:00004b70       _stateless_send_resolver_callback 00405b70 f   pjsip-core-i386-win32-vc8-release:sip_util.obj
 0001:00004ce0       _stateless_send_transport_cb 00405ce0 f   pjsip-core-i386-win32-vc8-release:sip_util.obj
 0001:00004fe0       _create_socket             00405fe0 f   pjsip-core-i386-win32-vc8-release:sip_transport_udp.obj
 0001:000050b0       _get_published_name        004060b0 f   pjsip-core-i386-win32-vc8-release:sip_transport_udp.obj
 0001:00005200       _init_rdata                00406200 f   pjsip-core-i386-win32-vc8-release:sip_transport_udp.obj
 0001:00005460       _register_to_ioqueue       00406460 f   pjsip-core-i386-win32-vc8-release:sip_transport_udp.obj
 0001:00005500       _start_async_read          00406500 f   pjsip-core-i386-win32-vc8-release:sip_transport_udp.obj
 0001:00005790       _transport_attach          00406790 f   pjsip-core-i386-win32-vc8-release:sip_transport_udp.obj
 0001:00005ab0       _udp_destroy               00406ab0 f   pjsip-core-i386-win32-vc8-release:sip_transport_udp.obj
 0001:00005bf0       _udp_on_destroy            00406bf0 f   pjsip-core-i386-win32-vc8-release:sip_transport_udp.obj
 0001:00005c70       _udp_on_read_complete      00406c70 f   pjsip-core-i386-win32-vc8-release:sip_transport_udp.obj
 0001:00005e60       _udp_on_write_complete     00406e60 f   pjsip-core-i386-win32-vc8-release:sip_transport_udp.obj
 0001:00005ea0       _udp_send_msg              00406ea0 f   pjsip-core-i386-win32-vc8-release:sip_transport_udp.obj
 0001:00005f40       _udp_set_pub_name          00406f40 f   pjsip-core-i386-win32-vc8-release:sip_transport_udp.obj
 0001:00006000       _udp_shutdown              00407000 f   pjsip-core-i386-win32-vc8-release:sip_transport_udp.obj
 0001:00006010       _lis_create_transport      00407010 f   pjsip-core-i386-win32-vc8-release:sip_transport_tcp.obj
 0001:00006370       _lis_destroy               00407370 f   pjsip-core-i386-win32-vc8-release:sip_transport_tcp.obj
 0001:00006420       _lis_on_destroy            00407420 f   pjsip-core-i386-win32-vc8-release:sip_transport_tcp.obj
 0001:00006470       _on_accept_complete        00407470 f   pjsip-core-i386-win32-vc8-release:sip_transport_tcp.obj
 0001:000066b0       _on_connect_complete       004076b0 f   pjsip-core-i386-win32-vc8-release:sip_transport_tcp.obj
 0001:00006a10       _on_data_read              00407a10 f   pjsip-core-i386-win32-vc8-release:sip_transport_tcp.obj
 0001:00006b10       _on_data_sent              00407b10 f   pjsip-core-i386-win32-vc8-release:sip_transport_tcp.obj
 0001:00007310       _sockaddr_to_host_port     00408310 f   pjsip-core-i386-win32-vc8-release:sip_transport_tcp.obj
 0001:00007360       _tcp_create                00408360 f   pjsip-core-i386-win32-vc8-release:sip_transport_tcp.obj
 0001:00007700       _tcp_destroy               00408700 f   pjsip-core-i386-win32-vc8-release:sip_transport_tcp.obj
 0001:00007850       _tcp_destroy_transport     00408850 f   pjsip-core-i386-win32-vc8-release:sip_transport_tcp.obj
 0001:00007880       _tcp_init_shutdown         00408880 f   pjsip-core-i386-win32-vc8-release:sip_transport_tcp.obj
 0001:00007910       _tcp_initial_timer         00408910 f   pjsip-core-i386-win32-vc8-release:sip_transport_tcp.obj
 0001:00007930       _tcp_keep_alive_timer      00408930 f   pjsip-core-i386-win32-vc8-release:sip_transport_tcp.obj
 0001:00007b00       _tcp_on_destroy            00408b00 f   pjsip-core-i386-win32-vc8-release:sip_transport_tcp.obj
 0001:00007be0       _tcp_send_msg              00408be0 f   pjsip-core-i386-win32-vc8-release:sip_transport_tcp.obj
 0001:00007d70       _tcp_shutdown              00408d70 f   pjsip-core-i386-win32-vc8-release:sip_transport_tcp.obj
 0001:00007dd0       _tcp_start_read            00408dd0 f   pjsip-core-i386-win32-vc8-release:sip_transport_tcp.obj
 0001:00007f40       _pjsip_url_get_scheme      00408f40 f   pjsip-core-i386-win32-vc8-release:sip_uri.obj
 0001:00007f50       _pjsips_url_get_scheme     00408f50 f   pjsip-core-i386-win32-vc8-release:sip_uri.obj
 0001:00007f60       _pjsip_name_addr_get_scheme 00408f60 f   pjsip-core-i386-win32-vc8-release:sip_uri.obj
 0001:00007f80       _pjsip_get_uri             00408f80 f   pjsip-core-i386-win32-vc8-release:sip_uri.obj
 0001:00007f80       _other_uri_get_uri         00408f80 f   pjsip-core-i386-win32-vc8-release:sip_uri.obj
 0001:00007f80       _tel_uri_get_uri           00408f80 f   pjsip-core-i386-win32-vc8-release:sip_tel_uri.obj
 0001:00007f90       _pjsip_name_addr_get_uri   00408f90 f   pjsip-core-i386-win32-vc8-release:sip_uri.obj
 0001:00007fb0       _pjsip_name_addr_clone     00408fb0 f   pjsip-core-i386-win32-vc8-release:sip_uri.obj
 0001:00008020       _pjsip_name_addr_print     00409020 f   pjsip-core-i386-win32-vc8-release:sip_uri.obj
 0001:00008110       _pjsip_name_addr_compare   00409110 f   pjsip-core-i386-win32-vc8-release:sip_uri.obj
 0001:00008160       _pjsip_url_print           00409160 f   pjsip-core-i386-win32-vc8-release:sip_uri.obj
 0001:00008610       _pjsip_url_compare         00409610 f   pjsip-core-i386-win32-vc8-release:sip_uri.obj
 0001:00008810       _pjsip_url_clone           00409810 f   pjsip-core-i386-win32-vc8-release:sip_uri.obj
 0001:00008930       _other_uri_get_scheme      00409930 f   pjsip-core-i386-win32-vc8-release:sip_uri.obj
 0001:00008940       _other_uri_print           00409940 f   pjsip-core-i386-win32-vc8-release:sip_uri.obj
 0001:000089b0       _other_uri_cmp             004099b0 f   pjsip-core-i386-win32-vc8-release:sip_uri.obj
 0001:00008a00       _other_uri_clone           00409a00 f   pjsip-core-i386-win32-vc8-release:sip_uri.obj
 0001:00008df0       _find_handler              00409df0 f   pjsip-core-i386-win32-vc8-release:sip_parser.obj
 0001:00008e70       _find_handler_imp          00409e70 f   pjsip-core-i386-win32-vc8-release:sip_parser.obj
 0001:00008f70       _find_uri_handler          00409f70 f   pjsip-core-i386-win32-vc8-release:sip_parser.obj
 0001:00008fd0       _init_parser               00409fd0 f   pjsip-core-i386-win32-vc8-release:sip_parser.obj
 0001:00009670       _int_parse_contact_param   0040a670 f   pjsip-core-i386-win32-vc8-release:sip_parser.obj
 0001:000099d0       _int_parse_msg             0040a9d0 f   pjsip-core-i386-win32-vc8-release:sip_parser.obj
 0001:00009df0       _int_parse_name_addr       0040adf0 f   pjsip-core-i386-win32-vc8-release:sip_parser.obj
 0001:00009f00       _int_parse_other_uri       0040af00 f   pjsip-core-i386-win32-vc8-release:sip_parser.obj
 0001:00009f70       _int_parse_sip_url         0040af70 f   pjsip-core-i386-win32-vc8-release:sip_parser.obj
 0001:0000a4e0       _int_parse_status_line     0040b4e0 f   pjsip-core-i386-win32-vc8-release:sip_parser.obj
 0001:0000a5c0       _int_parse_uri_or_name_addr 0040b5c0 f   pjsip-core-i386-win32-vc8-release:sip_parser.obj
 0001:0000a670       _int_parse_via_param       0040b670 f   pjsip-core-i386-win32-vc8-release:sip_parser.obj
 0001:0000a930       _int_register_parser       0040b930 f   pjsip-core-i386-win32-vc8-release:sip_parser.obj
 0001:0000aac0       _on_str_parse_error        0040bac0 f   pjsip-core-i386-win32-vc8-release:sip_parser.obj
 0001:0000ab50       _parse_pgp_challenge       0040bb50 f   pjsip-core-i386-win32-vc8-release:sip_auth_parser.obj
 0001:0000ab50       _parse_pgp_credential      0040bb50 f   pjsip-core-i386-win32-vc8-release:sip_auth_parser.obj
 0001:0000ab50       _on_syntax_error           0040bb50 f   pjsip-core-i386-win32-vc8-release:sip_parser.obj
 0001:0000ab60       _parse_generic_array_hdr   0040bb60 f   pjsip-core-i386-win32-vc8-release:sip_parser.obj
 0001:0000ac10       _parse_hdr_accept          0040bc10 f   pjsip-core-i386-win32-vc8-release:sip_parser.obj
 0001:0000ac40       _parse_hdr_allow           0040bc40 f   pjsip-core-i386-win32-vc8-release:sip_parser.obj
 0001:0000ac70       _parse_hdr_call_id         0040bc70 f   pjsip-core-i386-win32-vc8-release:sip_parser.obj
 0001:0000acd0       _parse_hdr_contact         0040bcd0 f   pjsip-core-i386-win32-vc8-release:sip_parser.obj
 0001:0000ae00       _parse_hdr_content_len     0040be00 f   pjsip-core-i386-win32-vc8-release:sip_parser.obj
 0001:0000ae70       _parse_hdr_content_type    0040be70 f   pjsip-core-i386-win32-vc8-release:sip_parser.obj
 0001:0000afd0       _parse_hdr_cseq            0040bfd0 f   pjsip-core-i386-win32-vc8-release:sip_parser.obj
 0001:0000b090       _parse_hdr_expires         0040c090 f   pjsip-core-i386-win32-vc8-release:sip_parser.obj
 0001:0000b100       _parse_hdr_from            0040c100 f   pjsip-core-i386-win32-vc8-release:sip_parser.obj
 0001:0000b140       _parse_hdr_fromto          0040c140 f   pjsip-core-i386-win32-vc8-release:sip_parser.obj
 0001:0000b2b0       _parse_hdr_generic_string  0040c2b0 f   pjsip-core-i386-win32-vc8-release:sip_parser.obj
 0001:0000b400       _parse_hdr_max_forwards    0040c400 f   pjsip-core-i386-win32-vc8-release:sip_parser.obj
 0001:0000b470       _parse_hdr_min_expires     0040c470 f   pjsip-core-i386-win32-vc8-release:sip_parser.obj
 0001:0000b4e0       _parse_hdr_require         0040c4e0 f   pjsip-core-i386-win32-vc8-release:sip_parser.obj
 0001:0000b550       _parse_hdr_retry_after     0040c550 f   pjsip-core-i386-win32-vc8-release:sip_parser.obj
 0001:0000b730       _parse_hdr_route           0040c730 f   pjsip-core-i386-win32-vc8-release:sip_parser.obj
 0001:0000b7c0       _parse_hdr_rr              0040c7c0 f   pjsip-core-i386-win32-vc8-release:sip_parser.obj
 0001:0000b850       _parse_hdr_rr_route        0040c850 f   pjsip-core-i386-win32-vc8-release:sip_parser.obj
 0001:0000b950       _parse_hdr_supported       0040c950 f   pjsip-core-i386-win32-vc8-release:sip_parser.obj
 0001:0000b9c0       _parse_hdr_to              0040c9c0 f   pjsip-core-i386-win32-vc8-release:sip_parser.obj
 0001:0000ba00       _parse_hdr_unsupported     0040ca00 f   pjsip-core-i386-win32-vc8-release:sip_parser.obj
 0001:0000ba30       _parse_hdr_via             0040ca30 f   pjsip-core-i386-win32-vc8-release:sip_parser.obj
 0001:0000bbf0       _parse_param_imp           0040cbf0 f   pjsip-core-i386-win32-vc8-release:sip_parser.obj
 0001:0000bca0       _parse_sip_version         0040cca0 f   pjsip-core-i386-win32-vc8-release:sip_parser.obj
 0001:0000c540       _dns_a_callback            0040d540 f   pjsip-core-i386-win32-vc8-release:sip_resolve.obj
 0001:0000c6a0       _dns_aaaa_callback         0040d6a0 f   pjsip-core-i386-win32-vc8-release:sip_resolve.obj
 0001:0000cf00       _srv_resolver_cb           0040df00 f   pjsip-core-i386-win32-vc8-release:sip_resolve.obj
 0001:0000d0e0       _mod_on_tx_msg             0040e0e0 f   pjsip-core-i386-win32-vc8-release:sip_transport.obj
 0001:0000d0f0       _destroy_transport         0040e0f0 f   pjsip-core-i386-win32-vc8-release:sip_transport.obj
 0001:0000d1c0       _get_msg_info              0040e1c0 f   pjsip-core-i386-win32-vc8-release:sip_transport.obj
 0001:0000d290       _is_transport_valid        0040e290 f   pjsip-core-i386-win32-vc8-release:sip_transport.obj
 0001:0000e9b0       _tp_state_callback         0040f9b0 f   pjsip-core-i386-win32-vc8-release:sip_transport.obj
 0001:0000ea20       _transport_idle_callback   0040fa20 f   pjsip-core-i386-win32-vc8-release:sip_transport.obj
 0001:0000ea90       _transport_send_callback   0040fa90 f   pjsip-core-i386-win32-vc8-release:sip_transport.obj
 0001:0000eae0       _tx_data_destroy           0040fae0 f   pjsip-core-i386-win32-vc8-release:sip_transport.obj
 0001:0000ecc0       _tel_uri_get_scheme        0040fcc0 f   pjsip-core-i386-win32-vc8-release:sip_tel_uri.obj
 0001:0000ecd0       _tel_uri_print             0040fcd0 f   pjsip-core-i386-win32-vc8-release:sip_tel_uri.obj
 0001:0000ee60       _tel_uri_cmp               0040fe60 f   pjsip-core-i386-win32-vc8-release:sip_tel_uri.obj
 0001:0000ef90       _tel_uri_clone             0040ff90 f   pjsip-core-i386-win32-vc8-release:sip_tel_uri.obj
 0001:0000f330       _tel_uri_parse             00410330 f   pjsip-core-i386-win32-vc8-release:sip_tel_uri.obj
 0001:0000f520       _mod_tsx_layer_load        00410520 f   pjsip-core-i386-win32-vc8-release:sip_transaction.obj
 0001:0000f520       _null_op                   00410520 f   pjlib-i386-win32-vc8-release:lock.obj
 0001:0000f520       _mod_tsx_layer_start       00410520 f   pjsip-core-i386-win32-vc8-release:sip_transaction.obj
 0001:0000f530       _mod_tsx_layer_stop        00410530 f   pjsip-core-i386-win32-vc8-release:sip_transaction.obj
 0001:0000f6a0       _mod_tsx_layer_unload      004106a0 f   pjsip-core-i386-win32-vc8-release:sip_transaction.obj
 0001:0000f740       _mod_tsx_layer_on_rx_request 00410740 f   pjsip-core-i386-win32-vc8-release:sip_transaction.obj
 0001:0000f7e0       _mod_tsx_layer_on_rx_response 004107e0 f   pjsip-core-i386-win32-vc8-release:sip_transaction.obj
 0001:0000f880       _tsx_on_state_null         00410880 f   pjsip-core-i386-win32-vc8-release:sip_transaction.obj
 0001:0000fab0       _tsx_on_state_calling      00410ab0 f   pjsip-core-i386-win32-vc8-release:sip_transaction.obj
 0001:0000fc10       _tsx_on_state_trying       00410c10 f   pjsip-core-i386-win32-vc8-release:sip_transaction.obj
 0001:0000fce0       _tsx_on_state_proceeding_uas 00410ce0 f   pjsip-core-i386-win32-vc8-release:sip_transaction.obj
 0001:00010250       _tsx_on_state_proceeding_uac 00411250 f   pjsip-core-i386-win32-vc8-release:sip_transaction.obj
 0001:00010740       _tsx_on_state_completed_uas 00411740 f   pjsip-core-i386-win32-vc8-release:sip_transaction.obj
 0001:00010a00       _tsx_on_state_completed_uac 00411a00 f   pjsip-core-i386-win32-vc8-release:sip_transaction.obj
 0001:00010a80       _tsx_on_state_confirmed    00411a80 f   pjsip-core-i386-win32-vc8-release:sip_transaction.obj
 0001:00010ae0       _tsx_on_state_terminated   00411ae0 f   pjsip-core-i386-win32-vc8-release:sip_transaction.obj
 0001:00010b10       _tsx_on_state_destroyed    00411b10 f   pjsip-core-i386-win32-vc8-release:sip_transaction.obj
 0001:00010b20       _create_tsx_key_2543       00411b20 f   pjsip-core-i386-win32-vc8-release:sip_transaction.obj
 0001:00010ca0       _create_tsx_key_3261       00411ca0 f   pjsip-core-i386-win32-vc8-release:sip_transaction.obj
 0001:00010d50       _mod_tsx_layer_unregister_tsx 00411d50 f   pjsip-core-i386-win32-vc8-release:sip_transaction.obj
 0001:00010eb0       _send_msg_callback         00411eb0 f   pjsip-core-i386-win32-vc8-release:sip_transaction.obj
 0001:00011350       _transport_callback        00412350 f   pjsip-core-i386-win32-vc8-release:sip_transaction.obj
 0001:00011450       _tsx_cancel_timer          00412450 f   pjsip-core-i386-win32-vc8-release:sip_transaction.obj
 0001:00011470       _tsx_layer_destroy         00412470 f   pjsip-core-i386-win32-vc8-release:sip_transaction.obj
 0001:000114c0       _tsx_resched_retransmission 004124c0 f   pjsip-core-i386-win32-vc8-release:sip_transaction.obj
 0001:00011570       _tsx_retransmit            00412570 f   pjsip-core-i386-win32-vc8-release:sip_transaction.obj
 0001:00011620       _tsx_schedule_timer        00412620 f   pjsip-core-i386-win32-vc8-release:sip_transaction.obj
 0001:00011650       _tsx_send_msg              00412650 f   pjsip-core-i386-win32-vc8-release:sip_transaction.obj
 0001:00011920       _tsx_set_state             00412920 f   pjsip-core-i386-win32-vc8-release:sip_transaction.obj
 0001:00011b00       _tsx_shutdown              00412b00 f   pjsip-core-i386-win32-vc8-release:sip_transaction.obj
 0001:00011bf0       _tsx_tp_state_callback     00412bf0 f   pjsip-core-i386-win32-vc8-release:sip_transaction.obj
 0001:00011c70       _tsx_update_transport      00412c70 f   pjsip-core-i386-win32-vc8-release:sip_transaction.obj
 0001:00011d00       _multipart_clone_data      00412d00 f   pjsip-core-i386-win32-vc8-release:sip_multipart.obj
 0001:00011dd0       _multipart_print_body      00412dd0 f   pjsip-core-i386-win32-vc8-release:sip_multipart.obj
 0001:00012050       _parse_multipart_part      00413050 f   pjsip-core-i386-win32-vc8-release:sip_multipart.obj
 0001:000125b0       _int_parse_hdr_authenticate 004135b0 f   pjsip-core-i386-win32-vc8-release:sip_auth_parser.obj
 0001:000127d0       _int_parse_hdr_authorization 004137d0 f   pjsip-core-i386-win32-vc8-release:sip_auth_parser.obj
 0001:00012a50       _parse_hdr_authorization   00413a50 f   pjsip-core-i386-win32-vc8-release:sip_auth_parser.obj
 0001:00012a80       _parse_hdr_proxy_authenticate 00413a80 f   pjsip-core-i386-win32-vc8-release:sip_auth_parser.obj
 0001:00012ab0       _parse_hdr_proxy_authorization 00413ab0 f   pjsip-core-i386-win32-vc8-release:sip_auth_parser.obj
 0001:00012ae0       _parse_hdr_www_authenticate 00413ae0 f   pjsip-core-i386-win32-vc8-release:sip_auth_parser.obj
 0001:00012b70       _mod_util_on_tsx_state     00413b70 f   pjsip-core-i386-win32-vc8-release:sip_util_statefull.obj
 0001:00012bc0       _pjsip_authorization_hdr_clone 00413bc0 f   pjsip-core-i386-win32-vc8-release:sip_auth_msg.obj
 0001:00012d80       _pjsip_authorization_hdr_shallow_clone 00413d80 f   pjsip-core-i386-win32-vc8-release:sip_auth_msg.obj
 0001:00012dc0       _pjsip_authorization_hdr_print 00413dc0 f   pjsip-core-i386-win32-vc8-release:sip_auth_msg.obj
 0001:00012e80       _pjsip_www_authenticate_hdr_print 00413e80 f   pjsip-core-i386-win32-vc8-release:sip_auth_msg.obj
 0001:00012f40       _pjsip_www_authenticate_hdr_clone 00413f40 f   pjsip-core-i386-win32-vc8-release:sip_auth_msg.obj
 0001:000130c0       _pjsip_www_authenticate_hdr_shallow_clone 004140c0 f   pjsip-core-i386-win32-vc8-release:sip_auth_msg.obj
 0001:000132c0       _print_digest_challenge    004142c0 f   pjsip-core-i386-win32-vc8-release:sip_auth_msg.obj
 0001:000135f0       _print_digest_credential   004145f0 f   pjsip-core-i386-win32-vc8-release:sip_auth_msg.obj
 0001:00013b60       __getopt_internal          00414b60 f   pjlib-util-i386-win32-vc8-release:getopt.obj
 0001:000142f0       _exchange                  004152f0 f   pjlib-util-i386-win32-vc8-release:getopt.obj
 0001:000143e0       _my_index                  004153e0 f   pjlib-util-i386-win32-vc8-release:getopt.obj
 0001:000145c0       _alloc_qnode               004155c0 f   pjlib-util-i386-win32-vc8-release:resolver.obj
 0001:00014640       _init_res_key              00415640 f   pjlib-util-i386-win32-vc8-release:resolver.obj
 0001:000146b0       _on_timeout                004156b0 f   pjlib-util-i386-win32-vc8-release:resolver.obj
 0001:00014ee0       _set_nameserver_state      00415ee0 f   pjlib-util-i386-win32-vc8-release:resolver.obj
 0001:00014fc0       _transmit_query            00415fc0 f   pjlib-util-i386-win32-vc8-release:resolver.obj
 0001:00015b80       $LN16                      00416b80     pjlib-util-i386-win32-vc8-release:dns.obj
 0001:00015ba8       $LN14                      00416ba8     pjlib-util-i386-win32-vc8-release:dns.obj
 0001:00015cc0       _build_server_entries      00416cc0 f   pjlib-util-i386-win32-vc8-release:srv_resolver.obj
 0001:00016300       _dns_callback              00417300 f   pjlib-util-i386-win32-vc8-release:srv_resolver.obj
 0001:00016cd0       _init_mutex                00417cd0 f   pjlib-i386-win32-vc8-release:os_core_win32.obj
 0001:000179c0       _pj_sem_wait_for           004189c0 f   pjlib-i386-win32-vc8-release:os_core_win32.obj
 0001:00018cd0       _reset_pool                00419cd0 f   pjlib-i386-win32-vc8-release:pool.obj
 0001:00018d50       _cpool_create_pool         00419d50 f   pjlib-i386-win32-vc8-release:pool_caching.obj
 0001:00018e80       _cpool_dump_status         00419e80 f   pjlib-i386-win32-vc8-release:pool_caching.obj
 0001:00018fd0       _cpool_on_block_alloc      00419fd0 f   pjlib-i386-win32-vc8-release:pool_caching.obj
 0001:00018ff0       _cpool_on_block_free       00419ff0 f   pjlib-i386-win32-vc8-release:pool_caching.obj
 0001:00019000       _cpool_release_pool        0041a000 f   pjlib-i386-win32-vc8-release:pool_caching.obj
 0001:000199d0       _logging_shutdown          0041a9d0 f   pjlib-i386-win32-vc8-release:log.obj
 0001:00019ffc       $LN14                      0041affc     pjlib-i386-win32-vc8-release:log.obj
 0001:0001a110       _default_block_alloc       0041b110 f   pjlib-i386-win32-vc8-release:pool_policy_malloc.obj
 0001:0001a170       _default_block_free        0041b170 f   pjlib-i386-win32-vc8-release:pool_policy_malloc.obj
 0001:0001a1b0       _default_pool_callback     0041b1b0 f   pjlib-i386-win32-vc8-release:pool_policy_malloc.obj
 0001:0001a1d0       _invoke_log                0041b1d0 f   pjlib-i386-win32-vc8-release:errno.obj
 0001:0001a270       _pj_perror_imp             0041b270 f   pjlib-i386-win32-vc8-release:errno.obj
 0001:0001a650       _decrement_counter         0041b650 f   pjlib-i386-win32-vc8-release:ioqueue_select.obj
 0001:0001a6e0       _increment_counter         0041b6e0 f   pjlib-i386-win32-vc8-release:ioqueue_select.obj
 0001:0001be80       _scan_closing_keys         0041ce80 f   pjlib-i386-win32-vc8-release:ioqueue_select.obj
 0001:0001bf00       _create_mutex_lock         0041cf00 f   pjlib-i386-win32-vc8-release:lock.obj
 0001:0001bf70       _grp_lock_acquire          0041cf70 f   pjlib-i386-win32-vc8-release:lock.obj
 0001:0001bfe0       _grp_lock_destroy          0041cfe0 f   pjlib-i386-win32-vc8-release:lock.obj
 0001:0001c090       _grp_lock_release          0041d090 f   pjlib-i386-win32-vc8-release:lock.obj
 0001:0001c100       _grp_lock_tryacquire       0041d100 f   pjlib-i386-win32-vc8-release:lock.obj
 0001:0001c450       _cancel_timer              0041d450 f   pjlib-i386-win32-vc8-release:timer.obj
 0001:0001c9b0       _reheap_up                 0041d9b0 f   pjlib-i386-win32-vc8-release:timer.obj
 0001:0001ca40       _remove_node               0041da40 f   pjlib-i386-win32-vc8-release:timer.obj
 0001:0001cbd0       _schedule_w_grp_lock       0041dbd0 f   pjlib-i386-win32-vc8-release:timer.obj
 0001:0001ce70       _exception_cleanup         0041de70 f   pjlib-i386-win32-vc8-release:except.obj
 0001:0001e960       _ioqueue_on_accept_complete 0041f960 f   pjlib-i386-win32-vc8-release:activesock.obj
 0001:0001eaa0       _ioqueue_on_connect_complete 0041faa0 f   pjlib-i386-win32-vc8-release:activesock.obj
 0001:0001ead0       _ioqueue_on_read_complete  0041fad0 f   pjlib-i386-win32-vc8-release:activesock.obj
 0001:0001ecd0       _ioqueue_on_write_complete 0041fcd0 f   pjlib-i386-win32-vc8-release:activesock.obj
 0001:0001f210       _send_remaining            00420210 f   pjlib-i386-win32-vc8-release:activesock.obj
 0001:0001f360       _find_entry                00420360 f   pjlib-i386-win32-vc8-release:hash.obj
 0001:0001fc00       _pool_buf_cleanup          00420c00 f   pjlib-i386-win32-vc8-release:pool_buf.obj
 0001:0001fc30       _stack_alloc               00420c30 f   pjlib-i386-win32-vc8-release:pool_buf.obj
 0001:0001fed0       _MyGetAdapterAddresses     00420ed0 f   pjlib-i386-win32-vc8-release:ip_helper_win32.obj
 0001:0001ff50       _MyGetIpAddrTable          00420f50 f   pjlib-i386-win32-vc8-release:ip_helper_win32.obj
 0001:0001ffc0       _enum_ipv4_interface       00420fc0 f   pjlib-i386-win32-vc8-release:ip_helper_win32.obj
 0001:00020460       _unload_iphlp_module       00421460 f   pjlib-i386-win32-vc8-release:ip_helper_win32.obj
 0001:00020713       ?pre_c_initialization@@YAHXZ 00421713 f   MSVCRT:exe_main.obj
 0001:000207be       ?post_pgo_initialization@@YAHXZ 004217be f   MSVCRT:exe_main.obj
 0001:000207c6       ?pre_cpp_initialization@@YAXXZ 004217c6 f   MSVCRT:exe_main.obj
 0001:000207d8       ?__scrt_common_main_seh@@YAHXZ 004217d8 f   MSVCRT:exe_main.obj
 0001:00020d00       $$000000                   00421d00     MSVCRT:lldiv.obj
 0001:00020db0       $$000000                   00421db0     MSVCRT:llmul.obj
 0001:00020df0       $$000000                   00421df0     MSVCRT:ftol3.obj
 0001:00021167       ?find_pe_section@@YAPAU_IMAGE_SECTION_HEADER@@QAEI@Z 00422167 f   MSVCRT:utility.obj
 0001:000213e4       ___get_entropy             004223e4 f   MSVCRT:gs_support.obj
 0001:00021710       $$000000                   00422710     MSVCRT:sehprolg4.obj
 0002:00000210       ?pre_cpp_initializer@@3P6AXXZA 00423210     MSVCRT:exe_main.obj
 0002:0000021c       ?pre_c_initializer@@3P6AHXZA 0042321c     MSVCRT:exe_main.obj
 0002:00000220       ?post_pgo_initializer@@3P6AHXZA 00423220     MSVCRT:exe_main.obj
 0002:00001bc0       _err_str                   00424bc0     pjsip-core-i386-win32-vc8-release:sip_errno.obj
 0002:000034f8       _err_str                   004264f8     pjlib-util-i386-win32-vc8-release:errno.obj
 0002:00004c58       _err_str                   00427c58     pjlib-i386-win32-vc8-release:errno.obj
 0002:000051b0       _gaErrorList               004281b0     pjlib-i386-win32-vc8-release:os_error_win32.obj
 0002:00005c54       _qos_map                   00428c54     pjlib-i386-win32-vc8-release:sock_qos_common.obj
 0002:00005e7c       _GS_ExceptionPointers      00428e7c     MSVCRT:gs_report.obj
 0002:00005e90       _Int32ToUInt32             00428e90     MSVCRT:ftol3.obj
 0002:00005e98       _DP2to32                   00428e98     MSVCRT:ftol3.obj
 0002:00005ea0       _MantissaMask              00428ea0     MSVCRT:ftol3.obj
 0002:00005ea8       _IntegerBit                00428ea8     MSVCRT:ftol3.obj
 0002:00005eb0       _SignBit64                 00428eb0     MSVCRT:ftol3.obj
 0002:00005eb8       _MinFP64                   00428eb8     MSVCRT:ftol3.obj
 0002:00005ec0       _MinInt64                  00428ec0     MSVCRT:ftol3.obj
 0002:00005ec8       _MaxInt64                  00428ec8     MSVCRT:ftol3.obj
 0002:00005ed0       _MaxUInt64                 00428ed0     MSVCRT:ftol3.obj
 0002:00005ed8       _MaxFP32                   00428ed8     MSVCRT:ftol3.obj
 0002:00005ee0       _MinFP32                   00428ee0     MSVCRT:ftol3.obj
 0002:00005ee8       _MinSubInexact             00428ee8     MSVCRT:ftol3.obj
 0002:00005ef0       _FpExcptTable              00428ef0     MSVCRT:ftol3.obj
 0002:00005f00       _i1075                     00428f00     MSVCRT:ftol3.obj
 0002:00005f04       _i1087                     00428f04     MSVCRT:ftol3.obj
 0002:00005f08       _x0800                     00428f08     MSVCRT:ftol3.obj
 0002:00005f0c       _x17FF                     00428f0c     MSVCRT:ftol3.obj
 0002:00005f10       _CWMask                    00428f10     MSVCRT:ftol3.obj
 0002:00006220       __sehtable$?__scrt_common_main_seh@@YAHXZ 00429220     MSVCRT:exe_main.obj
 0002:00006240       __sehtable$___scrt_is_nonwritable_in_current_image 00429240     MSVCRT:utility.obj
 0002:00006578       .idata$6                   00429578     ole32:ole32.dll
 0002:000065c8       .idata$6                   004295c8     ws2_32:WS2_32.dll
 0002:000068e0       .idata$6                   004298e0     kernel32:KERNEL32.dll
 0002:00006950       .idata$6                   00429950     vcruntime:VCRUNTIME140.dll
 0002:00006c08       .idata$6                   00429c08     ucrt:api-ms-win-crt-string-l1-1-0.dll
 0002:00006c2a       .idata$6                   00429c2a     ucrt:api-ms-win-crt-stdio-l1-1-0.dll
 0002:00006c4a       .idata$6                   00429c4a     ucrt:api-ms-win-crt-convert-l1-1-0.dll
 0002:00006c6c       .idata$6                   00429c6c     ucrt:api-ms-win-crt-heap-l1-1-0.dll
 0002:00006c8c       .idata$6                   00429c8c     ucrt:api-ms-win-crt-utility-l1-1-0.dll
 0002:00006cae       .idata$6                   00429cae     ucrt:api-ms-win-crt-math-l1-1-0.dll
 0002:00006cce       .idata$6                   00429cce     ucrt:api-ms-win-crt-runtime-l1-1-0.dll
 0002:00006cf0       .idata$6                   00429cf0     ucrt:api-ms-win-crt-locale-l1-1-0.dll
 0003:00000000       _code                      0042a000     sipstateless.obj
 0003:00000004       $SG20207                   0042a004     sipstateless.obj
 0003:0000000c       $SG20208                   0042a00c     sipstateless.obj
 0003:00000030       $SG20210                   0042a030     sipstateless.obj
 0003:0000003c       $SG20212                   0042a03c     sipstateless.obj
 0003:00000078       $SG20211                   0042a078     sipstateless.obj
 0003:000000bc       $SG20213                   0042a0bc     sipstateless.obj
 0003:000000f4       $SG20214                   0042a0f4     sipstateless.obj
 0003:00000108       $SG20215                   0042a108     sipstateless.obj
 0003:00000148       $SG20299                   0042a148     sipstateless.obj
 0003:00000150       $SG20302                   0042a150     sipstateless.obj
 0003:00000160       $SG20304                   0042a160     sipstateless.obj
 0003:00000164       $SG20307                   0042a164     sipstateless.obj
 0003:00000174       $SG20309                   0042a174     sipstateless.obj
 0003:00000178       $SG20312                   0042a178     sipstateless.obj
 0003:00000198       $SG20313                   0042a198     sipstateless.obj
 0003:0000019c       $SG20315                   0042a19c     sipstateless.obj
 0003:000001b0       $SG20316                   0042a1b0     sipstateless.obj
 0003:000001c0       $SG20318                   0042a1c0     sipstateless.obj
 0003:000001d8       $SG20322                   0042a1d8     sipstateless.obj
 0003:000001f4       $SG20324                   0042a1f4     sipstateless.obj
 0003:00000218       $SG20325                   0042a218     sipstateless.obj
 0003:00000228       $SG20328                   0042a228     sipstateless.obj
 0003:00000254       $SG20329                   0042a254     sipstateless.obj
 0003:00000264       $SG20332                   0042a264     sipstateless.obj
 0003:00000290       $SG20333                   0042a290     sipstateless.obj
 0003:000002a0       $SG20336                   0042a2a0     sipstateless.obj
 0003:000002b8       $SG20337                   0042a2b8     sipstateless.obj
 0003:000002c8       _method_names              0042a2c8     pjsip-core-i386-win32-vc8-release:sip_msg.obj
 0003:000002e0       _generic_hdr_vptr          0042a2e0     pjsip-core-i386-win32-vc8-release:sip_msg.obj
 0003:000002ec       _generic_int_hdr_vptr      0042a2ec     pjsip-core-i386-win32-vc8-release:sip_msg.obj
 0003:000002f8       _generic_array_hdr_vptr    0042a2f8     pjsip-core-i386-win32-vc8-release:sip_msg.obj
 0003:00000304       _clen_hdr_vptr             0042a304     pjsip-core-i386-win32-vc8-release:sip_msg.obj
 0003:00000310       _cseq_hdr_vptr             0042a310     pjsip-core-i386-win32-vc8-release:sip_msg.obj
 0003:0000031c       _contact_hdr_vptr          0042a31c     pjsip-core-i386-win32-vc8-release:sip_msg.obj
 0003:00000328       _ctype_hdr_vptr            0042a328     pjsip-core-i386-win32-vc8-release:sip_msg.obj
 0003:00000334       _fromto_hdr_vptr           0042a334     pjsip-core-i386-win32-vc8-release:sip_msg.obj
 0003:00000340       _routing_hdr_vptr          0042a340     pjsip-core-i386-win32-vc8-release:sip_msg.obj
 0003:0000034c       _retry_after_hdr_vptr      0042a34c     pjsip-core-i386-win32-vc8-release:sip_msg.obj
 0003:00000358       _via_hdr_vptr              0042a358     pjsip-core-i386-win32-vc8-release:sip_msg.obj
 0003:00000364       _event_str                 0042a364     pjsip-core-i386-win32-vc8-release:sip_util.obj
 0003:00000380       _str_TEXT                  0042a380     pjsip-core-i386-win32-vc8-release:sip_util.obj
 0003:00000388       _str_PLAIN                 0042a388     pjsip-core-i386-win32-vc8-release:sip_util.obj
 0003:00000390       _sip_str                   0042a390     pjsip-core-i386-win32-vc8-release:sip_uri.obj
 0003:00000398       _sips_str                  0042a398     pjsip-core-i386-win32-vc8-release:sip_uri.obj
 0003:000003a0       _sips_url_vptr             0042a3a0     pjsip-core-i386-win32-vc8-release:sip_uri.obj
 0003:000003b4       _sip_url_vptr              0042a3b4     pjsip-core-i386-win32-vc8-release:sip_uri.obj
 0003:000003c8       _name_addr_vptr            0042a3c8     pjsip-core-i386-win32-vc8-release:sip_uri.obj
 0003:000003dc       _other_uri_vptr            0042a3dc     pjsip-core-i386-win32-vc8-release:sip_uri.obj
 0003:000003f8       _pconst                    0042a3f8     pjsip-core-i386-win32-vc8-release:sip_parser.obj
 0003:00000588       _mod_msg_print             0042a588     pjsip-core-i386-win32-vc8-release:sip_transport.obj
 0003:000005c8       _transport_names           0042a5c8     pjsip-core-i386-win32-vc8-release:sip_transport.obj
 0003:00000848       _pjsip_ISUB_STR            0042a848     pjsip-core-i386-win32-vc8-release:sip_tel_uri.obj
 0003:00000850       _pjsip_EXT_STR             0042a850     pjsip-core-i386-win32-vc8-release:sip_tel_uri.obj
 0003:00000858       _pjsip_PH_CTX_STR          0042a858     pjsip-core-i386-win32-vc8-release:sip_tel_uri.obj
 0003:00000860       _tel_uri_vptr              0042a860     pjsip-core-i386-win32-vc8-release:sip_tel_uri.obj
 0003:00000878       _mod_tsx_layer             0042a878     pjsip-core-i386-win32-vc8-release:sip_transaction.obj
 0003:000008c4       _t1_timer_val              0042a8c4     pjsip-core-i386-win32-vc8-release:sip_transaction.obj
 0003:000008cc       _t2_timer_val              0042a8cc     pjsip-core-i386-win32-vc8-release:sip_transaction.obj
 0003:000008d4       _t4_timer_val              0042a8d4     pjsip-core-i386-win32-vc8-release:sip_transaction.obj
 0003:000008dc       _td_timer_val              0042a8dc     pjsip-core-i386-win32-vc8-release:sip_transaction.obj
 0003:000008e4       _timeout_timer_val         0042a8e4     pjsip-core-i386-win32-vc8-release:sip_transaction.obj
 0003:000008ec       _state_str                 0042a8ec     pjsip-core-i386-win32-vc8-release:sip_transaction.obj
 0003:0000090c       _role_name                 0042a90c     pjsip-core-i386-win32-vc8-release:sip_transaction.obj
 0003:00000914       _tsx_state_handler_uac     0042a914     pjsip-core-i386-win32-vc8-release:sip_transaction.obj
 0003:00000934       _tsx_state_handler_uas     0042a934     pjsip-core-i386-win32-vc8-release:sip_transaction.obj
 0003:00000990       _authorization_hdr_vptr    0042a990     pjsip-core-i386-win32-vc8-release:sip_auth_msg.obj
 0003:0000099c       _www_authenticate_hdr_vptr 0042a99c     pjsip-core-i386-win32-vc8-release:sip_auth_msg.obj
 0003:000009b0       _state_names               0042a9b0     pjlib-util-i386-win32-vc8-release:resolver.obj
 0003:000009bc       _thread_tls_id             0042a9bc     pjlib-i386-win32-vc8-release:os_core_win32.obj
 0003:000009c0       _pool_sizes                0042a9c0     pjlib-i386-win32-vc8-release:pool_caching.obj
 0003:00000a00       _pj_log_max_level          0042aa00     pjlib-i386-win32-vc8-release:log.obj
 0003:00000a04       _thread_suspended_tls_id   0042aa04     pjlib-i386-win32-vc8-release:log.obj
 0003:00000a08       _thread_indent_tls_id      0042aa08     pjlib-i386-win32-vc8-release:log.obj
 0003:00000a0c       _log_writer                0042aa0c     pjlib-i386-win32-vc8-release:log.obj
 0003:00000a10       _log_decor                 0042aa10     pjlib-i386-win32-vc8-release:log.obj
 0003:00000a14       _PJ_LOG_COLOR_0            0042aa14     pjlib-i386-win32-vc8-release:log.obj
 0003:00000a18       _PJ_LOG_COLOR_1            0042aa18     pjlib-i386-win32-vc8-release:log.obj
 0003:00000a1c       _PJ_LOG_COLOR_2            0042aa1c     pjlib-i386-win32-vc8-release:log.obj
 0003:00000a20       _PJ_LOG_COLOR_3            0042aa20     pjlib-i386-win32-vc8-release:log.obj
 0003:00000a24       _PJ_LOG_COLOR_4            0042aa24     pjlib-i386-win32-vc8-release:log.obj
 0003:00000a28       _PJ_LOG_COLOR_5            0042aa28     pjlib-i386-win32-vc8-release:log.obj
 0003:00000a2c       _PJ_LOG_COLOR_6            0042aa2c     pjlib-i386-win32-vc8-release:log.obj
 0003:00000a30       _PJ_LOG_COLOR_77           0042aa30     pjlib-i386-win32-vc8-release:log.obj
 0003:00000a34       ?ltexts@?2??pj_log@@9@9    0042aa34     pjlib-i386-win32-vc8-release:log.obj
 0003:00000a50       ?wdays@?3??pj_log@@9@9     0042aa50     pjlib-i386-win32-vc8-release:log.obj
 0003:00000a7c       _mutex_lock_template       0042aa7c     pjlib-i386-win32-vc8-release:lock.obj
 0003:00000a90       _null_lock_template        0042aa90     pjlib-i386-win32-vc8-release:lock.obj
 0003:00000aa4       _sem_lock_template         0042aaa4     pjlib-i386-win32-vc8-release:lock.obj
 0003:00000ab8       _thread_local_id           0042aab8     pjlib-i386-win32-vc8-release:except.obj
 0003:00000abc       ?hex@?1??hex2digit@@9@9    0042aabc     pjlib-i386-win32-vc8-release:guid_win32.obj
 0003:00000acc       _tls                       0042aacc     pjlib-i386-win32-vc8-release:pool_buf.obj
 0003:00000ad4       _id                        0042aad4     pjlib-i386-win32-vc8-release:config.obj
 0003:00000b20       _sip_endpt                 0042ab20     sipstateless.obj
 0003:00000b24       $SG20209                   0042ab24     sipstateless.obj
 0003:00000b28       _status_phrase             0042ab28     pjsip-core-i386-win32-vc8-release:sip_msg.obj
 0003:00002158       ?is_initialized@?1??pjsip_get_status_text@@9@9 0042c158     pjsip-core-i386-win32-vc8-release:sip_msg.obj
 0003:00002160       _handler                   0042c160     pjsip-core-i386-win32-vc8-release:sip_parser.obj
 0003:000037e0       _handler_count             0042d7e0     pjsip-core-i386-win32-vc8-release:sip_parser.obj
 0003:000037e4       _parser_is_initialized     0042d7e4     pjsip-core-i386-win32-vc8-release:sip_parser.obj
 0003:000037e8       _uri_handler               0042d7e8     pjsip-core-i386-win32-vc8-release:sip_parser.obj
 0003:00003818       _uri_handler_count         0042d818     pjsip-core-i386-win32-vc8-release:sip_parser.obj
 0003:00003820       _cis_buf                   0042d820     pjsip-core-i386-win32-vc8-release:sip_parser.obj
 0003:00003c28       _pjsip_TEL_NUMBER_SPEC     0042dc28     pjsip-core-i386-win32-vc8-release:sip_tel_uri.obj
 0003:00003c30       _pjsip_TEL_EXT_VALUE_SPEC  0042dc30     pjsip-core-i386-win32-vc8-release:sip_tel_uri.obj
 0003:00003c38       _pjsip_TEL_PHONE_CONTEXT_SPEC 0042dc38     pjsip-core-i386-win32-vc8-release:sip_tel_uri.obj
 0003:00003c40       _pjsip_TEL_URIC_SPEC       0042dc40     pjsip-core-i386-win32-vc8-release:sip_tel_uri.obj
 0003:00003c48       _pjsip_TEL_PNAME_SPEC      0042dc48     pjsip-core-i386-win32-vc8-release:sip_tel_uri.obj
 0003:00003c50       _pjsip_TEL_PVALUE_SPEC     0042dc50     pjsip-core-i386-win32-vc8-release:sip_tel_uri.obj
 0003:00003c58       _cis_buf                   0042dc58     pjsip-core-i386-win32-vc8-release:sip_tel_uri.obj
 0003:0000405c       _pjsip_TEL_VISUAL_SEP_SPEC 0042e05c     pjsip-core-i386-win32-vc8-release:sip_tel_uri.obj
 0003:00004064       _pjsip_TEL_PVALUE_SPEC_ESC 0042e064     pjsip-core-i386-win32-vc8-release:sip_tel_uri.obj
 0003:0000406c       _pjsip_TEL_PARSING_PVALUE_SPEC 0042e06c     pjsip-core-i386-win32-vc8-release:sip_tel_uri.obj
 0003:00004074       _pjsip_TEL_PARSING_PVALUE_SPEC_ESC 0042e074     pjsip-core-i386-win32-vc8-release:sip_tel_uri.obj
 0003:00004080       ___getopt_initialized      0042e080     pjlib-util-i386-win32-vc8-release:getopt.obj
 0003:00004084       _nextchar                  0042e084     pjlib-util-i386-win32-vc8-release:getopt.obj
 0003:00004088       _ordering                  0042e088     pjlib-util-i386-win32-vc8-release:getopt.obj
 0003:0000408c       _posixly_correct           0042e08c     pjlib-util-i386-win32-vc8-release:getopt.obj
 0003:00004090       _first_nonopt              0042e090     pjlib-util-i386-win32-vc8-release:getopt.obj
 0003:00004094       _last_nonopt               0042e094     pjlib-util-i386-win32-vc8-release:getopt.obj
 0003:00004098       _initialized               0042e098     pjlib-i386-win32-vc8-release:os_core_win32.obj
 0003:0000409c       _atexit_count              0042e09c     pjlib-i386-win32-vc8-release:os_core_win32.obj
 0003:000040a0       _main_thread               0042e0a0     pjlib-i386-win32-vc8-release:os_core_win32.obj
 0003:000041a0       _critical_section_mutex    0042e1a0     pjlib-i386-win32-vc8-release:os_core_win32.obj
 0003:000041d8       _atexit_func               0042e1d8     pjlib-i386-win32-vc8-release:os_core_win32.obj
 0003:00004258       ?buf@?1??pj_gethostname@@9@9 0042e258     pjlib-i386-win32-vc8-release:sock_bsd.obj
 0003:000042d8       ?hostname@?1??pj_gethostname@@9@9 0042e2d8     pjlib-i386-win32-vc8-release:sock_bsd.obj
 0003:000042e0       _g_last_thread             0042e2e0     pjlib-i386-win32-vc8-release:log.obj
 0003:000042e8       _err_msg_hnd_cnt           0042e2e8     pjlib-i386-win32-vc8-release:errno.obj
 0003:000042f0       _err_msg_hnd               0042e2f0     pjlib-i386-win32-vc8-release:errno.obj
 0003:00004368       _exception_id_names        0042e368     pjlib-i386-win32-vc8-release:except.obj
 0003:000043a8       ?unknown_name@?1??pj_exception_id_name@@9@9 0042e3a8     pjlib-i386-win32-vc8-release:except.obj
 0003:000043c8       _base_time                 0042e3c8     pjlib-i386-win32-vc8-release:os_time_win32.obj
 0003:000043d0       _stack_based_factory       0042e3d0     pjlib-i386-win32-vc8-release:pool_buf.obj
 0003:000043f4       _is_initialized            0042e3f4     pjlib-i386-win32-vc8-release:pool_buf.obj
 0003:000043f8       _s_hDLL                    0042e3f8     pjlib-i386-win32-vc8-release:ip_helper_win32.obj
 0003:000043fc       _s_pfnGetIpAddrTable       0042e3fc     pjlib-i386-win32-vc8-release:ip_helper_win32.obj
 0003:00004400       _s_pfnGetAdapterAddresses  0042e400     pjlib-i386-win32-vc8-release:ip_helper_win32.obj
 0003:00004404       _s_pfnGetIpForwardTable    0042e404     pjlib-i386-win32-vc8-release:ip_helper_win32.obj
 0003:00004408       _s_pfnGetIfEntry           0042e408     pjlib-i386-win32-vc8-release:ip_helper_win32.obj
 0003:00004410       _GS_ExceptionRecord        0042e410     MSVCRT:gs_report.obj
 0003:00004460       _GS_ContextRecord          0042e460     MSVCRT:gs_report.obj
 0003:0000473c       ?is_initialized_as_dll@@3_NA 0042e73c     MSVCRT:utility.obj
 0003:0000473d       ?module_local_atexit_table_initialized@@3_NA 0042e73d     MSVCRT:utility.obj
 0003:00004740       ?module_local_atexit_table@@3U_onexit_table_t@@A 0042e740     MSVCRT:utility.obj
 0003:0000474c       ?module_local_at_quick_exit_table@@3U_onexit_table_t@@A 0042e74c     MSVCRT:utility.obj
