 siprtp

 Timestamp is 5ce478d1 (Wed May 22 07:16:49 2019)

 Preferred load address is 00400000

 Start         Length     Name                   Class
 0001:00000000 00051e1bH .textbss                DATA
 0002:00000000 000aa6eeH .text$mn                CODE
 0003:00000000 00000104H .CRT$XCA                DATA
 0003:00000104 00000104H .CRT$XCAA               DATA
 0003:00000208 00000104H .CRT$XCZ                DATA
 0003:0000030c 00000104H .CRT$XIA                DATA
 0003:00000410 00000104H .CRT$XIAA               DATA
 0003:00000514 00000104H .CRT$XIAC               DATA
 0003:00000618 00000104H .CRT$XIZ                DATA
 0003:0000071c 00000104H .CRT$XPA                DATA
 0003:00000820 00000104H .CRT$XPZ                DATA
 0003:00000924 00000104H .CRT$XTA                DATA
 0003:00000a28 00000108H .CRT$XTZ                DATA
 0003:00000b30 00028de8H .rdata                  DATA
 0003:00029918 000001a0H .rdata$zzzdbg           DATA
 0003:00029ab8 00000104H .rtc$IAA                DATA
 0003:00029bbc 00000104H .rtc$IZZ                DATA
 0003:00029cc0 00000104H .rtc$TAA                DATA
 0003:00029dc4 00000104H .rtc$TZZ                DATA
 0003:00029ec8 00000145H .xdata$x                DATA
 0003:0002a00d 00000000H .edata                  DATA
 0004:00000000 00004140H .data                   DATA
 0004:00004140 0023a1e4H .bss                    DATA
 0005:00000000 0000045cH .idata$5                DATA
 0005:0000045c 00000078H .idata$2                DATA
 0005:000004d4 00000014H .idata$3                DATA
 0005:000004e8 0000045cH .idata$4                DATA
 0005:00000944 00000c6bH .idata$6                DATA
 0006:00000000 00000104H .00cfg                  DATA

  Address         Publics by Value              Rva+Base       Lib:Object

 0000:00000000       ___guard_longjmp_count     00000000     <absolute>
 0000:00000000       ___hybrid_auxiliary_iat    00000000     <absolute>
 0000:00000000       ___dynamic_value_reloc_table 00000000     <absolute>
 0000:00000000       ___guard_iat_count         00000000     <absolute>
 0000:00000000       ___guard_longjmp_table     00000000     <absolute>
 0000:00000000       ___guard_fids_table        00000000     <absolute>
 0000:00000000       ___enclave_config          00000000     <absolute>
 0000:00000000       ___safe_se_handler_count   00000000     <absolute>
 0000:00000000       ___guard_iat_table         00000000     <absolute>
 0000:00000000       ___volatile_metadata       00000000     <absolute>
 0000:00000000       ___safe_se_handler_table   00000000     <absolute>
 0000:00000000       ___hybrid_code_map         00000000     <absolute>
 0000:00000000       ___guard_fids_count        00000000     <absolute>
 0000:00000000       ___hybrid_code_map_count   00000000     <absolute>
 0000:00000100       ___guard_flags             00000100     <absolute>
 0000:00000000       ___ImageBase               00400000     <linker-defined>
 0001:00000000       __enc$textbss$begin        00401000     <linker-defined>
 0001:00051e1b       __enc$textbss$end          00452e1b     <linker-defined>
 0002:00008330       _app_logging_init          0045b330 f   siprtp.obj
 0002:000083a0       _app_logging_shutdown      0045b3a0 f   siprtp.obj
 0002:000083d0       _main                      0045b3d0 f   siprtp.obj
 0002:000099d0       ___local_stdio_printf_options 0045c9d0 f i siprtp.obj
 0002:000099e0       __vfprintf_l               0045c9e0 f i siprtp.obj
 0002:00009a20       __vsnprintf_l              0045ca20 f i siprtp.obj
 0002:00009a90       __vsprintf_l               0045ca90 f i siprtp.obj
 0002:00009ac0       _printf                    0045cac0 f i siprtp.obj
 0002:00009b10       _sprintf                   0045cb10 f i siprtp.obj
 0002:0000c4f0       __snprintf                 0045f4f0 f i pjsip-ua-i386-win32-vc8-debug-dynamic:sip_inv.obj
 0002:0000c540       __vsnprintf                0045f540 f i pjsip-ua-i386-win32-vc8-debug-dynamic:sip_inv.obj
 0002:0000f2c0       _pjsip_create_sdp_body     004622c0 f   pjsip-ua-i386-win32-vc8-debug-dynamic:sip_inv.obj
 0002:0000f3b0       _pjsip_dlg_get_inv_session 004623b0 f   pjsip-ua-i386-win32-vc8-debug-dynamic:sip_inv.obj
 0002:0000f3e0       _pjsip_inv_add_ref         004623e0 f   pjsip-ua-i386-win32-vc8-debug-dynamic:sip_inv.obj
 0002:0000f470       _pjsip_inv_answer          00462470 f   pjsip-ua-i386-win32-vc8-debug-dynamic:sip_inv.obj
 0002:0000f6c0       _pjsip_inv_cancel_reinvite 004626c0 f   pjsip-ua-i386-win32-vc8-debug-dynamic:sip_inv.obj
 0002:0000f860       _pjsip_inv_create_ack      00462860 f   pjsip-ua-i386-win32-vc8-debug-dynamic:sip_inv.obj
 0002:0000f9f0       _pjsip_inv_create_uac      004629f0 f   pjsip-ua-i386-win32-vc8-debug-dynamic:sip_inv.obj
 0002:0000fd10       _pjsip_inv_create_uas      00462d10 f   pjsip-ua-i386-win32-vc8-debug-dynamic:sip_inv.obj
 0002:00010220       _pjsip_inv_dec_ref         00463220 f   pjsip-ua-i386-win32-vc8-debug-dynamic:sip_inv.obj
 0002:00010300       _pjsip_inv_end_session     00463300 f   pjsip-ua-i386-win32-vc8-debug-dynamic:sip_inv.obj
 0002:00010640       _pjsip_inv_initial_answer  00463640 f   pjsip-ua-i386-win32-vc8-debug-dynamic:sip_inv.obj
 0002:000108e0       _pjsip_inv_invite          004638e0 f   pjsip-ua-i386-win32-vc8-debug-dynamic:sip_inv.obj
 0002:00010d50       _pjsip_inv_process_redirect 00463d50 f   pjsip-ua-i386-win32-vc8-debug-dynamic:sip_inv.obj
 0002:000112b0       _pjsip_inv_reinvite        004642b0 f   pjsip-ua-i386-win32-vc8-debug-dynamic:sip_inv.obj
 0002:000115b0       _pjsip_inv_send_msg        004645b0 f   pjsip-ua-i386-win32-vc8-debug-dynamic:sip_inv.obj
 0002:00011920       _pjsip_inv_set_local_sdp   00464920 f   pjsip-ua-i386-win32-vc8-debug-dynamic:sip_inv.obj
 0002:00011a60       _pjsip_inv_set_sdp_answer  00464a60 f   pjsip-ua-i386-win32-vc8-debug-dynamic:sip_inv.obj
 0002:00011b10       _pjsip_inv_state_name      00464b10 f   pjsip-ua-i386-win32-vc8-debug-dynamic:sip_inv.obj
 0002:00011b80       _pjsip_inv_terminate       00464b80 f   pjsip-ua-i386-win32-vc8-debug-dynamic:sip_inv.obj
 0002:00011cb0       _pjsip_inv_uac_restart     00464cb0 f   pjsip-ua-i386-win32-vc8-debug-dynamic:sip_inv.obj
 0002:00011d90       _pjsip_inv_update          00464d90 f   pjsip-ua-i386-win32-vc8-debug-dynamic:sip_inv.obj
 0002:00012190       _pjsip_inv_usage_init      00465190 f   pjsip-ua-i386-win32-vc8-debug-dynamic:sip_inv.obj
 0002:000122f0       _pjsip_inv_usage_instance  004652f0 f   pjsip-ua-i386-win32-vc8-debug-dynamic:sip_inv.obj
 0002:00012310       _pjsip_inv_verify_request  00465310 f   pjsip-ua-i386-win32-vc8-debug-dynamic:sip_inv.obj
 0002:00012360       _pjsip_inv_verify_request2 00465360 f   pjsip-ua-i386-win32-vc8-debug-dynamic:sip_inv.obj
 0002:000123b0       _pjsip_inv_verify_request3 004653b0 f   pjsip-ua-i386-win32-vc8-debug-dynamic:sip_inv.obj
 0002:00013780       _pjsip_rdata_get_sdp_info  00466780 f   pjsip-ua-i386-win32-vc8-debug-dynamic:sip_inv.obj
 0002:00014710       _pjsip_100rel_attach       00467710 f   pjsip-ua-i386-win32-vc8-debug-dynamic:sip_100rel.obj
 0002:000147f0       _pjsip_100rel_create_prack 004677f0 f   pjsip-ua-i386-win32-vc8-debug-dynamic:sip_100rel.obj
 0002:00014d00       _pjsip_100rel_end_session  00467d00 f   pjsip-ua-i386-win32-vc8-debug-dynamic:sip_100rel.obj
 0002:00014dc0       _pjsip_100rel_init_module  00467dc0 f   pjsip-ua-i386-win32-vc8-debug-dynamic:sip_100rel.obj
 0002:00014e00       _pjsip_100rel_is_reliable  00467e00 f   pjsip-ua-i386-win32-vc8-debug-dynamic:sip_100rel.obj
 0002:00014ec0       _pjsip_100rel_on_rx_prack  00467ec0 f   pjsip-ua-i386-win32-vc8-debug-dynamic:sip_100rel.obj
 0002:00015230       _pjsip_100rel_send_prack   00468230 f   pjsip-ua-i386-win32-vc8-debug-dynamic:sip_100rel.obj
 0002:000152e0       _pjsip_100rel_tx_response  004682e0 f   pjsip-ua-i386-win32-vc8-debug-dynamic:sip_100rel.obj
 0002:00015ad0       _pjsip_get_prack_method    00468ad0 f   pjsip-ua-i386-win32-vc8-debug-dynamic:sip_100rel.obj
 0002:000165c0       _pjsip_min_se_hdr_create   004695c0 f   pjsip-ua-i386-win32-vc8-debug-dynamic:sip_timer.obj
 0002:000166a0       _pjsip_sess_expires_hdr_create 004696a0 f   pjsip-ua-i386-win32-vc8-debug-dynamic:sip_timer.obj
 0002:00016790       _pjsip_timer_end_session   00469790 f   pjsip-ua-i386-win32-vc8-debug-dynamic:sip_timer.obj
 0002:00016820       _pjsip_timer_handle_refresh_error 00469820 f   pjsip-ua-i386-win32-vc8-debug-dynamic:sip_timer.obj
 0002:00016b30       _pjsip_timer_init_module   00469b30 f   pjsip-ua-i386-win32-vc8-debug-dynamic:sip_timer.obj
 0002:00016cc0       _pjsip_timer_init_session  00469cc0 f   pjsip-ua-i386-win32-vc8-debug-dynamic:sip_timer.obj
 0002:00016e80       _pjsip_timer_process_req   00469e80 f   pjsip-ua-i386-win32-vc8-debug-dynamic:sip_timer.obj
 0002:00017310       _pjsip_timer_process_resp  0046a310 f   pjsip-ua-i386-win32-vc8-debug-dynamic:sip_timer.obj
 0002:00017af0       _pjsip_timer_setting_default 0046aaf0 f   pjsip-ua-i386-win32-vc8-debug-dynamic:sip_timer.obj
 0002:00017b30       _pjsip_timer_update_req    0046ab30 f   pjsip-ua-i386-win32-vc8-debug-dynamic:sip_timer.obj
 0002:00017ce0       _pjsip_timer_update_resp   0046ace0 f   pjsip-ua-i386-win32-vc8-debug-dynamic:sip_timer.obj
 0002:0001b7b0       _pjsip_accept_hdr_create   0046e7b0 f   pjsip-core-i386-win32-vc8-debug-dynamic:sip_msg.obj
 0002:0001b800       _pjsip_accept_hdr_init     0046e800 f   pjsip-core-i386-win32-vc8-debug-dynamic:sip_msg.obj
 0002:0001b850       _pjsip_allow_hdr_create    0046e850 f   pjsip-core-i386-win32-vc8-debug-dynamic:sip_msg.obj
 0002:0001b8a0       _pjsip_allow_hdr_init      0046e8a0 f   pjsip-core-i386-win32-vc8-debug-dynamic:sip_msg.obj
 0002:0001b910       _pjsip_cid_hdr_create      0046e910 f   pjsip-core-i386-win32-vc8-debug-dynamic:sip_msg.obj
 0002:0001b950       _pjsip_cid_hdr_init        0046e950 f   pjsip-core-i386-win32-vc8-debug-dynamic:sip_msg.obj
 0002:0001b990       _pjsip_clen_hdr_create     0046e990 f   pjsip-core-i386-win32-vc8-debug-dynamic:sip_msg.obj
 0002:0001b9d0       _pjsip_clen_hdr_init       0046e9d0 f   pjsip-core-i386-win32-vc8-debug-dynamic:sip_msg.obj
 0002:0001ba20       _pjsip_clone_text_data     0046ea20 f   pjsip-core-i386-win32-vc8-debug-dynamic:sip_msg.obj
 0002:0001ba80       _pjsip_contact_hdr_create  0046ea80 f   pjsip-core-i386-win32-vc8-debug-dynamic:sip_msg.obj
 0002:0001bac0       _pjsip_contact_hdr_init    0046eac0 f   pjsip-core-i386-win32-vc8-debug-dynamic:sip_msg.obj
 0002:0001bb30       _pjsip_cseq_hdr_create     0046eb30 f   pjsip-core-i386-win32-vc8-debug-dynamic:sip_msg.obj
 0002:0001bb70       _pjsip_cseq_hdr_init       0046eb70 f   pjsip-core-i386-win32-vc8-debug-dynamic:sip_msg.obj
 0002:0001bbe0       _pjsip_ctype_hdr_create    0046ebe0 f   pjsip-core-i386-win32-vc8-debug-dynamic:sip_msg.obj
 0002:0001bc20       _pjsip_ctype_hdr_init      0046ec20 f   pjsip-core-i386-win32-vc8-debug-dynamic:sip_msg.obj
 0002:0001bc80       _pjsip_expires_hdr_create  0046ec80 f   pjsip-core-i386-win32-vc8-debug-dynamic:sip_msg.obj
 0002:0001bcd0       _pjsip_expires_hdr_init    0046ecd0 f   pjsip-core-i386-win32-vc8-debug-dynamic:sip_msg.obj
 0002:0001bd20       _pjsip_from_hdr_create     0046ed20 f   pjsip-core-i386-win32-vc8-debug-dynamic:sip_msg.obj
 0002:0001bd60       _pjsip_from_hdr_init       0046ed60 f   pjsip-core-i386-win32-vc8-debug-dynamic:sip_msg.obj
 0002:0001bdc0       _pjsip_fromto_hdr_set_from 0046edc0 f   pjsip-core-i386-win32-vc8-debug-dynamic:sip_msg.obj
 0002:0001be40       _pjsip_fromto_hdr_set_to   0046ee40 f   pjsip-core-i386-win32-vc8-debug-dynamic:sip_msg.obj
 0002:0001bec0       _pjsip_generic_array_hdr_create 0046eec0 f   pjsip-core-i386-win32-vc8-debug-dynamic:sip_msg.obj
 0002:0001bf10       _pjsip_generic_array_hdr_init 0046ef10 f   pjsip-core-i386-win32-vc8-debug-dynamic:sip_msg.obj
 0002:0001bf90       _pjsip_generic_int_hdr_create 0046ef90 f   pjsip-core-i386-win32-vc8-debug-dynamic:sip_msg.obj
 0002:0001bfe0       _pjsip_generic_int_hdr_init 0046efe0 f   pjsip-core-i386-win32-vc8-debug-dynamic:sip_msg.obj
 0002:0001c060       _pjsip_generic_string_hdr_create 0046f060 f   pjsip-core-i386-win32-vc8-debug-dynamic:sip_msg.obj
 0002:0001c0b0       _pjsip_generic_string_hdr_init 0046f0b0 f   pjsip-core-i386-win32-vc8-debug-dynamic:sip_msg.obj
 0002:0001c140       _pjsip_generic_string_hdr_init2 0046f140 f   pjsip-core-i386-win32-vc8-debug-dynamic:sip_msg.obj
 0002:0001c1e0       _pjsip_get_ack_method      0046f1e0 f   pjsip-core-i386-win32-vc8-debug-dynamic:sip_msg.obj
 0002:0001c200       _pjsip_get_bye_method      0046f200 f   pjsip-core-i386-win32-vc8-debug-dynamic:sip_msg.obj
 0002:0001c220       _pjsip_get_cancel_method   0046f220 f   pjsip-core-i386-win32-vc8-debug-dynamic:sip_msg.obj
 0002:0001c240       _pjsip_get_invite_method   0046f240 f   pjsip-core-i386-win32-vc8-debug-dynamic:sip_msg.obj
 0002:0001c260       _pjsip_get_options_method  0046f260 f   pjsip-core-i386-win32-vc8-debug-dynamic:sip_msg.obj
 0002:0001c280       _pjsip_get_register_method 0046f280 f   pjsip-core-i386-win32-vc8-debug-dynamic:sip_msg.obj
 0002:0001c2a0       _pjsip_get_status_text     0046f2a0 f   pjsip-core-i386-win32-vc8-debug-dynamic:sip_msg.obj
 0002:0001c310       _pjsip_hdr_clone           0046f310 f   pjsip-core-i386-win32-vc8-debug-dynamic:sip_msg.obj
 0002:0001c350       _pjsip_hdr_print_on        0046f350 f   pjsip-core-i386-win32-vc8-debug-dynamic:sip_msg.obj
 0002:0001c3e0       _pjsip_hdr_shallow_clone   0046f3e0 f   pjsip-core-i386-win32-vc8-debug-dynamic:sip_msg.obj
 0002:0001c420       _pjsip_max_fwd_hdr_create  0046f420 f   pjsip-core-i386-win32-vc8-debug-dynamic:sip_msg.obj
 0002:0001c470       _pjsip_max_fwd_hdr_init    0046f470 f   pjsip-core-i386-win32-vc8-debug-dynamic:sip_msg.obj
 0002:0001c4c0       _pjsip_media_type_cmp      0046f4c0 f   pjsip-core-i386-win32-vc8-debug-dynamic:sip_msg.obj
 0002:0001c5d0       _pjsip_media_type_cp       0046f5d0 f   pjsip-core-i386-win32-vc8-debug-dynamic:sip_msg.obj
 0002:0001c6a0       _pjsip_media_type_init     0046f6a0 f   pjsip-core-i386-win32-vc8-debug-dynamic:sip_msg.obj
 0002:0001c710       _pjsip_media_type_init2    0046f710 f   pjsip-core-i386-win32-vc8-debug-dynamic:sip_msg.obj
 0002:0001c7b0       _pjsip_media_type_print    0046f7b0 f   pjsip-core-i386-win32-vc8-debug-dynamic:sip_msg.obj
 0002:0001c7e0       _pjsip_method_cmp          0046f7e0 f   pjsip-core-i386-win32-vc8-debug-dynamic:sip_msg.obj
 0002:0001c860       _pjsip_method_copy         0046f860 f   pjsip-core-i386-win32-vc8-debug-dynamic:sip_msg.obj
 0002:0001c8d0       _pjsip_method_init         0046f8d0 f   pjsip-core-i386-win32-vc8-debug-dynamic:sip_msg.obj
 0002:0001c910       _pjsip_method_init_np      0046f910 f   pjsip-core-i386-win32-vc8-debug-dynamic:sip_msg.obj
 0002:0001c9e0       _pjsip_method_set          0046f9e0 f   pjsip-core-i386-win32-vc8-debug-dynamic:sip_msg.obj
 0002:0001ca50       _pjsip_min_expires_hdr_create 0046fa50 f   pjsip-core-i386-win32-vc8-debug-dynamic:sip_msg.obj
 0002:0001caa0       _pjsip_min_expires_hdr_init 0046faa0 f   pjsip-core-i386-win32-vc8-debug-dynamic:sip_msg.obj
 0002:0001cb20       _pjsip_msg_body_clone      0046fb20 f   pjsip-core-i386-win32-vc8-debug-dynamic:sip_msg.obj
 0002:0001cbc0       _pjsip_msg_body_copy       0046fbc0 f   pjsip-core-i386-win32-vc8-debug-dynamic:sip_msg.obj
 0002:0001cc90       _pjsip_msg_body_create     0046fc90 f   pjsip-core-i386-win32-vc8-debug-dynamic:sip_msg.obj
 0002:0001ce20       _pjsip_msg_clone           0046fe20 f   pjsip-core-i386-win32-vc8-debug-dynamic:sip_msg.obj
 0002:0001cf50       _pjsip_msg_create          0046ff50 f   pjsip-core-i386-win32-vc8-debug-dynamic:sip_msg.obj
 0002:0001cfb0       _pjsip_msg_find_hdr        0046ffb0 f   pjsip-core-i386-win32-vc8-debug-dynamic:sip_msg.obj
 0002:0001d020       _pjsip_msg_find_hdr_by_name 00470020 f   pjsip-core-i386-win32-vc8-debug-dynamic:sip_msg.obj
 0002:0001d0a0       _pjsip_msg_find_hdr_by_names 004700a0 f   pjsip-core-i386-win32-vc8-debug-dynamic:sip_msg.obj
 0002:0001d140       _pjsip_msg_find_remove_hdr 00470140 f   pjsip-core-i386-win32-vc8-debug-dynamic:sip_msg.obj
 0002:0001d190       _pjsip_msg_print           00470190 f   pjsip-core-i386-win32-vc8-debug-dynamic:sip_msg.obj
 0002:0001d7d0       _pjsip_print_text_body     004707d0 f   pjsip-core-i386-win32-vc8-debug-dynamic:sip_msg.obj
 0002:0001d820       _pjsip_require_hdr_create  00470820 f   pjsip-core-i386-win32-vc8-debug-dynamic:sip_msg.obj
 0002:0001d870       _pjsip_require_hdr_init    00470870 f   pjsip-core-i386-win32-vc8-debug-dynamic:sip_msg.obj
 0002:0001d8c0       _pjsip_retry_after_hdr_create 004708c0 f   pjsip-core-i386-win32-vc8-debug-dynamic:sip_msg.obj
 0002:0001d910       _pjsip_retry_after_hdr_init 00470910 f   pjsip-core-i386-win32-vc8-debug-dynamic:sip_msg.obj
 0002:0001d980       _pjsip_route_hdr_create    00470980 f   pjsip-core-i386-win32-vc8-debug-dynamic:sip_msg.obj
 0002:0001d9c0       _pjsip_route_hdr_init      004709c0 f   pjsip-core-i386-win32-vc8-debug-dynamic:sip_msg.obj
 0002:0001da20       _pjsip_routing_hdr_set_route 00470a20 f   pjsip-core-i386-win32-vc8-debug-dynamic:sip_msg.obj
 0002:0001da90       _pjsip_routing_hdr_set_rr  00470a90 f   pjsip-core-i386-win32-vc8-debug-dynamic:sip_msg.obj
 0002:0001db00       _pjsip_rr_hdr_create       00470b00 f   pjsip-core-i386-win32-vc8-debug-dynamic:sip_msg.obj
 0002:0001db40       _pjsip_rr_hdr_init         00470b40 f   pjsip-core-i386-win32-vc8-debug-dynamic:sip_msg.obj
 0002:0001dba0       _pjsip_supported_hdr_create 00470ba0 f   pjsip-core-i386-win32-vc8-debug-dynamic:sip_msg.obj
 0002:0001dbf0       _pjsip_supported_hdr_init  00470bf0 f   pjsip-core-i386-win32-vc8-debug-dynamic:sip_msg.obj
 0002:0001dc40       _pjsip_to_hdr_create       00470c40 f   pjsip-core-i386-win32-vc8-debug-dynamic:sip_msg.obj
 0002:0001dc80       _pjsip_to_hdr_init         00470c80 f   pjsip-core-i386-win32-vc8-debug-dynamic:sip_msg.obj
 0002:0001dce0       _pjsip_unsupported_hdr_create 00470ce0 f   pjsip-core-i386-win32-vc8-debug-dynamic:sip_msg.obj
 0002:0001dd30       _pjsip_unsupported_hdr_init 00470d30 f   pjsip-core-i386-win32-vc8-debug-dynamic:sip_msg.obj
 0002:0001de50       _pjsip_via_hdr_create      00470e50 f   pjsip-core-i386-win32-vc8-debug-dynamic:sip_msg.obj
 0002:0001de90       _pjsip_via_hdr_init        00470e90 f   pjsip-core-i386-win32-vc8-debug-dynamic:sip_msg.obj
 0002:0001df10       _pjsip_warning_hdr_create  00470f10 f   pjsip-core-i386-win32-vc8-debug-dynamic:sip_msg.obj
 0002:0001dfc0       _pjsip_warning_hdr_create_from_status 00470fc0 f   pjsip-core-i386-win32-vc8-debug-dynamic:sip_msg.obj
 0002:0001e970       _pjsip_rx_data_clone       00471970 f   pjsip-core-i386-win32-vc8-debug-dynamic:sip_transport.obj
 0002:0001ed90       _pjsip_rx_data_free_cloned 00471d90 f   pjsip-core-i386-win32-vc8-debug-dynamic:sip_transport.obj
 0002:0001ee10       _pjsip_rx_data_get_info    00471e10 f   pjsip-core-i386-win32-vc8-debug-dynamic:sip_transport.obj
 0002:0001ef20       _pjsip_tpmgr_acquire_transport 00471f20 f   pjsip-core-i386-win32-vc8-debug-dynamic:sip_transport.obj
 0002:0001ef60       _pjsip_tpmgr_acquire_transport2 00471f60 f   pjsip-core-i386-win32-vc8-debug-dynamic:sip_transport.obj
 0002:0001f480       _pjsip_tpmgr_create        00472480 f   pjsip-core-i386-win32-vc8-debug-dynamic:sip_transport.obj
 0002:0001f6a0       _pjsip_tpmgr_destroy       004726a0 f   pjsip-core-i386-win32-vc8-debug-dynamic:sip_transport.obj
 0002:0001f960       _pjsip_tpmgr_dump_transports 00472960 f   pjsip-core-i386-win32-vc8-debug-dynamic:sip_transport.obj
 0002:0001fb80       _pjsip_tpmgr_find_local_addr 00472b80 f   pjsip-core-i386-win32-vc8-debug-dynamic:sip_transport.obj
 0002:0001fc00       _pjsip_tpmgr_find_local_addr2 00472c00 f   pjsip-core-i386-win32-vc8-debug-dynamic:sip_transport.obj
 0002:000201a0       _pjsip_tpmgr_fla2_param_default 004731a0 f   pjsip-core-i386-win32-vc8-debug-dynamic:sip_transport.obj
 0002:000201d0       _pjsip_tpmgr_get_state_cb  004731d0 f   pjsip-core-i386-win32-vc8-debug-dynamic:sip_transport.obj
 0002:00020230       _pjsip_tpmgr_get_transport_count 00473230 f   pjsip-core-i386-win32-vc8-debug-dynamic:sip_transport.obj
 0002:00020350       _pjsip_tpmgr_receive_packet 00473350 f   pjsip-core-i386-win32-vc8-debug-dynamic:sip_transport.obj
 0002:00020ab0       _pjsip_tpmgr_register_tpfactory 00473ab0 f   pjsip-core-i386-win32-vc8-debug-dynamic:sip_transport.obj
 0002:00020b90       _pjsip_tpmgr_send_raw      00473b90 f   pjsip-core-i386-win32-vc8-debug-dynamic:sip_transport.obj
 0002:00020d90       _pjsip_tpmgr_set_drop_data_cb 00473d90 f   pjsip-core-i386-win32-vc8-debug-dynamic:sip_transport.obj
 0002:00020e00       _pjsip_tpmgr_set_state_cb  00473e00 f   pjsip-core-i386-win32-vc8-debug-dynamic:sip_transport.obj
 0002:00020e70       _pjsip_tpmgr_unregister_tpfactory 00473e70 f   pjsip-core-i386-win32-vc8-debug-dynamic:sip_transport.obj
 0002:00020f00       _pjsip_tpselector_add_ref  00473f00 f   pjsip-core-i386-win32-vc8-debug-dynamic:sip_transport.obj
 0002:00020f40       _pjsip_tpselector_dec_ref  00473f40 f   pjsip-core-i386-win32-vc8-debug-dynamic:sip_transport.obj
 0002:00020f80       _pjsip_transport_add_ref   00473f80 f   pjsip-core-i386-win32-vc8-debug-dynamic:sip_transport.obj
 0002:00021100       _pjsip_transport_add_state_listener 00474100 f   pjsip-core-i386-win32-vc8-debug-dynamic:sip_transport.obj
 0002:00021250       _pjsip_transport_dec_ref   00474250 f   pjsip-core-i386-win32-vc8-debug-dynamic:sip_transport.obj
 0002:000214a0       _pjsip_transport_destroy   004744a0 f   pjsip-core-i386-win32-vc8-debug-dynamic:sip_transport.obj
 0002:00021580       _pjsip_transport_get_default_port_for_type 00474580 f   pjsip-core-i386-win32-vc8-debug-dynamic:sip_transport.obj
 0002:000215b0       _pjsip_transport_get_flag_from_type 004745b0 f   pjsip-core-i386-win32-vc8-debug-dynamic:sip_transport.obj
 0002:000215e0       _pjsip_transport_get_type_desc 004745e0 f   pjsip-core-i386-win32-vc8-debug-dynamic:sip_transport.obj
 0002:00021610       _pjsip_transport_get_type_from_flag 00474610 f   pjsip-core-i386-win32-vc8-debug-dynamic:sip_transport.obj
 0002:000216a0       _pjsip_transport_get_type_from_name 004746a0 f   pjsip-core-i386-win32-vc8-debug-dynamic:sip_transport.obj
 0002:00021750       _pjsip_transport_get_type_name 00474750 f   pjsip-core-i386-win32-vc8-debug-dynamic:sip_transport.obj
 0002:00021780       _pjsip_transport_register  00474780 f   pjsip-core-i386-win32-vc8-debug-dynamic:sip_transport.obj
 0002:000218f0       _pjsip_transport_register_type 004748f0 f   pjsip-core-i386-win32-vc8-debug-dynamic:sip_transport.obj
 0002:00021b20       _pjsip_transport_remove_state_listener 00474b20 f   pjsip-core-i386-win32-vc8-debug-dynamic:sip_transport.obj
 0002:00021ca0       _pjsip_transport_send      00474ca0 f   pjsip-core-i386-win32-vc8-debug-dynamic:sip_transport.obj
 0002:00021f50       _pjsip_transport_shutdown  00474f50 f   pjsip-core-i386-win32-vc8-debug-dynamic:sip_transport.obj
 0002:00021f80       _pjsip_transport_shutdown2 00474f80 f   pjsip-core-i386-win32-vc8-debug-dynamic:sip_transport.obj
 0002:00022150       _pjsip_transport_type_get_af 00475150 f   pjsip-core-i386-win32-vc8-debug-dynamic:sip_transport.obj
 0002:00022190       _pjsip_tx_data_add_ref     00475190 f   pjsip-core-i386-win32-vc8-debug-dynamic:sip_transport.obj
 0002:000221c0       _pjsip_tx_data_clone       004751c0 f   pjsip-core-i386-win32-vc8-debug-dynamic:sip_transport.obj
 0002:00022380       _pjsip_tx_data_create      00475380 f   pjsip-core-i386-win32-vc8-debug-dynamic:sip_transport.obj
 0002:00022580       _pjsip_tx_data_dec_ref     00475580 f   pjsip-core-i386-win32-vc8-debug-dynamic:sip_transport.obj
 0002:00022660       _pjsip_tx_data_encode      00475660 f   pjsip-core-i386-win32-vc8-debug-dynamic:sip_transport.obj
 0002:00022820       _pjsip_tx_data_get_info    00475820 f   pjsip-core-i386-win32-vc8-debug-dynamic:sip_transport.obj
 0002:00022910       _pjsip_tx_data_invalidate_msg 00475910 f   pjsip-core-i386-win32-vc8-debug-dynamic:sip_transport.obj
 0002:00022950       _pjsip_tx_data_is_valid    00475950 f   pjsip-core-i386-win32-vc8-debug-dynamic:sip_transport.obj
 0002:000229a0       _pjsip_tx_data_set_transport 004759a0 f   pjsip-core-i386-win32-vc8-debug-dynamic:sip_transport.obj
 0002:00023350       _pjsip_endpt_acquire_transport 00476350 f   pjsip-core-i386-win32-vc8-debug-dynamic:sip_endpoint.obj
 0002:00023390       _pjsip_endpt_acquire_transport2 00476390 f   pjsip-core-i386-win32-vc8-debug-dynamic:sip_endpoint.obj
 0002:000233e0       _pjsip_endpt_add_capability 004763e0 f   pjsip-core-i386-win32-vc8-debug-dynamic:sip_endpoint.obj
 0002:00023620       _pjsip_endpt_atexit        00476620 f   pjsip-core-i386-win32-vc8-debug-dynamic:sip_endpoint.obj
 0002:000236f0       _pjsip_endpt_cancel_timer  004766f0 f   pjsip-core-i386-win32-vc8-debug-dynamic:sip_endpoint.obj
 0002:00023730       _pjsip_endpt_create        00476730 f   pjsip-core-i386-win32-vc8-debug-dynamic:sip_endpoint.obj
 0002:00023c20       _pjsip_endpt_create_pool   00476c20 f   pjsip-core-i386-win32-vc8-debug-dynamic:sip_endpoint.obj
 0002:00023ca0       _pjsip_endpt_create_resolver 00476ca0 f   pjsip-core-i386-win32-vc8-debug-dynamic:sip_endpoint.obj
 0002:00023d40       _pjsip_endpt_create_tdata  00476d40 f   pjsip-core-i386-win32-vc8-debug-dynamic:sip_endpoint.obj
 0002:00023d70       _pjsip_endpt_destroy       00476d70 f   pjsip-core-i386-win32-vc8-debug-dynamic:sip_endpoint.obj
 0002:00023f30       _pjsip_endpt_dump          00476f30 f   pjsip-core-i386-win32-vc8-debug-dynamic:sip_endpoint.obj
 0002:000240b0       _pjsip_endpt_get_capability 004770b0 f   pjsip-core-i386-win32-vc8-debug-dynamic:sip_endpoint.obj
 0002:000241a0       _pjsip_endpt_get_ioqueue   004771a0 f   pjsip-core-i386-win32-vc8-debug-dynamic:sip_endpoint.obj
 0002:000241c0       _pjsip_endpt_get_request_headers 004771c0 f   pjsip-core-i386-win32-vc8-debug-dynamic:sip_endpoint.obj
 0002:000241e0       _pjsip_endpt_get_resolver  004771e0 f   pjsip-core-i386-win32-vc8-debug-dynamic:sip_endpoint.obj
 0002:00024250       _pjsip_endpt_get_timer_heap 00477250 f   pjsip-core-i386-win32-vc8-debug-dynamic:sip_endpoint.obj
 0002:00024270       _pjsip_endpt_get_tpmgr     00477270 f   pjsip-core-i386-win32-vc8-debug-dynamic:sip_endpoint.obj
 0002:00024290       _pjsip_endpt_handle_events 00477290 f   pjsip-core-i386-win32-vc8-debug-dynamic:sip_endpoint.obj
 0002:000242c0       _pjsip_endpt_handle_events2 004772c0 f   pjsip-core-i386-win32-vc8-debug-dynamic:sip_endpoint.obj
 0002:000244b0       _pjsip_endpt_has_capability 004774b0 f   pjsip-core-i386-win32-vc8-debug-dynamic:sip_endpoint.obj
 0002:00024580       _pjsip_endpt_log_error     00477580 f   pjsip-core-i386-win32-vc8-debug-dynamic:sip_endpoint.obj
 0002:00024750       _pjsip_endpt_name          00477750 f   pjsip-core-i386-win32-vc8-debug-dynamic:sip_endpoint.obj
 0002:00024770       _pjsip_endpt_process_rx_data 00477770 f   pjsip-core-i386-win32-vc8-debug-dynamic:sip_endpoint.obj
 0002:00024a40       _pjsip_endpt_register_module 00477a40 f   pjsip-core-i386-win32-vc8-debug-dynamic:sip_endpoint.obj
 0002:00024d10       _pjsip_endpt_release_pool  00477d10 f   pjsip-core-i386-win32-vc8-debug-dynamic:sip_endpoint.obj
 0002:00024d40       _pjsip_endpt_resolve       00477d40 f   pjsip-core-i386-win32-vc8-debug-dynamic:sip_endpoint.obj
 0002:00024d80       _pjsip_endpt_schedule_timer 00477d80 f   pjsip-core-i386-win32-vc8-debug-dynamic:sip_endpoint.obj
 0002:00024dc0       _pjsip_endpt_set_ext_resolver 00477dc0 f   pjsip-core-i386-win32-vc8-debug-dynamic:sip_endpoint.obj
 0002:00024df0       _pjsip_endpt_set_resolver  00477df0 f   pjsip-core-i386-win32-vc8-debug-dynamic:sip_endpoint.obj
 0002:00024e20       _pjsip_endpt_unregister_module 00477e20 f   pjsip-core-i386-win32-vc8-debug-dynamic:sip_endpoint.obj
 0002:00025020       _pjsip_process_rdata_param_default 00478020 f   pjsip-core-i386-win32-vc8-debug-dynamic:sip_endpoint.obj
 0002:00025630       _pjsip_endpt_create_ack    00478630 f   pjsip-core-i386-win32-vc8-debug-dynamic:sip_util.obj
 0002:000259f0       _pjsip_endpt_create_cancel 004789f0 f   pjsip-core-i386-win32-vc8-debug-dynamic:sip_util.obj
 0002:00025e50       _pjsip_endpt_create_request 00478e50 f   pjsip-core-i386-win32-vc8-debug-dynamic:sip_util.obj
 0002:00026230       _pjsip_endpt_create_request_from_hdr 00479230 f   pjsip-core-i386-win32-vc8-debug-dynamic:sip_util.obj
 0002:00026560       _pjsip_endpt_create_response 00479560 f   pjsip-core-i386-win32-vc8-debug-dynamic:sip_util.obj
 0002:00026a10       _pjsip_endpt_respond_stateless 00479a10 f   pjsip-core-i386-win32-vc8-debug-dynamic:sip_util.obj
 0002:00026cb0       _pjsip_endpt_send_raw      00479cb0 f   pjsip-core-i386-win32-vc8-debug-dynamic:sip_util.obj
 0002:00026d10       _pjsip_endpt_send_raw_to_uri 00479d10 f   pjsip-core-i386-win32-vc8-debug-dynamic:sip_util.obj
 0002:00026f70       _pjsip_endpt_send_request_stateless 00479f70 f   pjsip-core-i386-win32-vc8-debug-dynamic:sip_util.obj
 0002:00027100       _pjsip_endpt_send_response 0047a100 f   pjsip-core-i386-win32-vc8-debug-dynamic:sip_util.obj
 0002:00027290       _pjsip_endpt_send_response2 0047a290 f   pjsip-core-i386-win32-vc8-debug-dynamic:sip_util.obj
 0002:00027330       _pjsip_event_str           0047a330 f   pjsip-core-i386-win32-vc8-debug-dynamic:sip_util.obj
 0002:00027350       _pjsip_get_dest_info       0047a350 f   pjsip-core-i386-win32-vc8-debug-dynamic:sip_util.obj
 0002:00027650       _pjsip_get_request_dest    0047a650 f   pjsip-core-i386-win32-vc8-debug-dynamic:sip_util.obj
 0002:00027770       _pjsip_get_response_addr   0047a770 f   pjsip-core-i386-win32-vc8-debug-dynamic:sip_util.obj
 0002:00027be0       _pjsip_process_route_set   0047abe0 f   pjsip-core-i386-win32-vc8-debug-dynamic:sip_util.obj
 0002:00027ff0       _pjsip_restore_strict_route_set 0047aff0 f   pjsip-core-i386-win32-vc8-debug-dynamic:sip_util.obj
 0002:00028140       _pjsip_target_assign_status 0047b140 f   pjsip-core-i386-win32-vc8-debug-dynamic:sip_util.obj
 0002:000281f0       _pjsip_target_set_add_from_msg 0047b1f0 f   pjsip-core-i386-win32-vc8-debug-dynamic:sip_util.obj
 0002:00028310       _pjsip_target_set_add_uri  0047b310 f   pjsip-core-i386-win32-vc8-debug-dynamic:sip_util.obj
 0002:000284a0       _pjsip_target_set_get_next 0047b4a0 f   pjsip-core-i386-win32-vc8-debug-dynamic:sip_util.obj
 0002:00028540       _pjsip_target_set_set_current 0047b540 f   pjsip-core-i386-win32-vc8-debug-dynamic:sip_util.obj
 0002:00029930       _pjsip_udp_transport_attach 0047c930 f   pjsip-core-i386-win32-vc8-debug-dynamic:sip_transport_udp.obj
 0002:00029970       _pjsip_udp_transport_attach2 0047c970 f   pjsip-core-i386-win32-vc8-debug-dynamic:sip_transport_udp.obj
 0002:000299b0       _pjsip_udp_transport_cfg_default 0047c9b0 f   pjsip-core-i386-win32-vc8-debug-dynamic:sip_transport_udp.obj
 0002:00029a10       _pjsip_udp_transport_get_socket 0047ca10 f   pjsip-core-i386-win32-vc8-debug-dynamic:sip_transport_udp.obj
 0002:00029a80       _pjsip_udp_transport_pause 0047ca80 f   pjsip-core-i386-win32-vc8-debug-dynamic:sip_transport_udp.obj
 0002:00029cb0       _pjsip_udp_transport_restart 0047ccb0 f   pjsip-core-i386-win32-vc8-debug-dynamic:sip_transport_udp.obj
 0002:00029cf0       _pjsip_udp_transport_restart2 0047ccf0 f   pjsip-core-i386-win32-vc8-debug-dynamic:sip_transport_udp.obj
 0002:0002a0e0       _pjsip_udp_transport_start 0047d0e0 f   pjsip-core-i386-win32-vc8-debug-dynamic:sip_transport_udp.obj
 0002:0002a190       _pjsip_udp_transport_start2 0047d190 f   pjsip-core-i386-win32-vc8-debug-dynamic:sip_transport_udp.obj
 0002:0002a3a0       _pjsip_udp_transport_start6 0047d3a0 f   pjsip-core-i386-win32-vc8-debug-dynamic:sip_transport_udp.obj
 0002:0002e170       _pjsip_rdata_get_tsx       00481170 f   pjsip-core-i386-win32-vc8-debug-dynamic:sip_transaction.obj
 0002:0002e1a0       _pjsip_role_name           004811a0 f   pjsip-core-i386-win32-vc8-debug-dynamic:sip_transaction.obj
 0002:0002e1c0       _pjsip_tsx_create_key      004811c0 f   pjsip-core-i386-win32-vc8-debug-dynamic:sip_transaction.obj
 0002:0002e260       _pjsip_tsx_create_uac      00481260 f   pjsip-core-i386-win32-vc8-debug-dynamic:sip_transaction.obj
 0002:0002e290       _pjsip_tsx_create_uac2     00481290 f   pjsip-core-i386-win32-vc8-debug-dynamic:sip_transaction.obj
 0002:0002e790       _pjsip_tsx_create_uas      00481790 f   pjsip-core-i386-win32-vc8-debug-dynamic:sip_transaction.obj
 0002:0002e7c0       _pjsip_tsx_create_uas2     004817c0 f   pjsip-core-i386-win32-vc8-debug-dynamic:sip_transaction.obj
 0002:0002eca0       _pjsip_tsx_layer_destroy   00481ca0 f   pjsip-core-i386-win32-vc8-debug-dynamic:sip_transaction.obj
 0002:0002ed20       _pjsip_tsx_layer_dump      00481d20 f   pjsip-core-i386-win32-vc8-debug-dynamic:sip_transaction.obj
 0002:0002eef0       _pjsip_tsx_layer_find_tsx  00481ef0 f   pjsip-core-i386-win32-vc8-debug-dynamic:sip_transaction.obj
 0002:0002ef20       _pjsip_tsx_layer_find_tsx2 00481f20 f   pjsip-core-i386-win32-vc8-debug-dynamic:sip_transaction.obj
 0002:0002ef50       _pjsip_tsx_layer_get_tsx_count 00481f50 f   pjsip-core-i386-win32-vc8-debug-dynamic:sip_transaction.obj
 0002:0002eff0       _pjsip_tsx_layer_init_module 00481ff0 f   pjsip-core-i386-win32-vc8-debug-dynamic:sip_transaction.obj
 0002:0002f2a0       _pjsip_tsx_layer_instance  004822a0 f   pjsip-core-i386-win32-vc8-debug-dynamic:sip_transaction.obj
 0002:0002f2c0       _pjsip_tsx_recv_msg        004822c0 f   pjsip-core-i386-win32-vc8-debug-dynamic:sip_transaction.obj
 0002:0002f3a0       _pjsip_tsx_retransmit_no_state 004823a0 f   pjsip-core-i386-win32-vc8-debug-dynamic:sip_transaction.obj
 0002:0002f440       _pjsip_tsx_send_msg        00482440 f   pjsip-core-i386-win32-vc8-debug-dynamic:sip_transaction.obj
 0002:0002f5a0       _pjsip_tsx_set_timeout     004825a0 f   pjsip-core-i386-win32-vc8-debug-dynamic:sip_transaction.obj
 0002:0002f710       _pjsip_tsx_set_transport   00482710 f   pjsip-core-i386-win32-vc8-debug-dynamic:sip_transaction.obj
 0002:0002f7f0       _pjsip_tsx_state_str       004827f0 f   pjsip-core-i386-win32-vc8-debug-dynamic:sip_transaction.obj
 0002:0002f810       _pjsip_tsx_stop_retransmit 00482810 f   pjsip-core-i386-win32-vc8-debug-dynamic:sip_transaction.obj
 0002:0002f940       _pjsip_tsx_terminate       00482940 f   pjsip-core-i386-win32-vc8-debug-dynamic:sip_transaction.obj
 0002:00032560       _pjsip_rdata_get_dlg       00485560 f   pjsip-core-i386-win32-vc8-debug-dynamic:sip_ua_layer.obj
 0002:00032590       _pjsip_tdata_get_dlg       00485590 f   pjsip-core-i386-win32-vc8-debug-dynamic:sip_ua_layer.obj
 0002:000325c0       _pjsip_tsx_get_dlg         004855c0 f   pjsip-core-i386-win32-vc8-debug-dynamic:sip_ua_layer.obj
 0002:000325f0       _pjsip_ua_destroy          004855f0 f   pjsip-core-i386-win32-vc8-debug-dynamic:sip_ua_layer.obj
 0002:00032670       _pjsip_ua_dump             00485670 f   pjsip-core-i386-win32-vc8-debug-dynamic:sip_ua_layer.obj
 0002:000328f0       _pjsip_ua_find_dialog      004858f0 f   pjsip-core-i386-win32-vc8-debug-dynamic:sip_ua_layer.obj
 0002:00032af0       _pjsip_ua_get_dlg_set_count 00485af0 f   pjsip-core-i386-win32-vc8-debug-dynamic:sip_ua_layer.obj
 0002:00032b90       _pjsip_ua_get_endpt        00485b90 f   pjsip-core-i386-win32-vc8-debug-dynamic:sip_ua_layer.obj
 0002:00032be0       _pjsip_ua_init_module      00485be0 f   pjsip-core-i386-win32-vc8-debug-dynamic:sip_ua_layer.obj
 0002:00032c80       _pjsip_ua_instance         00485c80 f   pjsip-core-i386-win32-vc8-debug-dynamic:sip_ua_layer.obj
 0002:00032ca0       _pjsip_ua_register_dlg     00485ca0 f   pjsip-core-i386-win32-vc8-debug-dynamic:sip_ua_layer.obj
 0002:00032fa0       _pjsip_ua_unregister_dlg   00485fa0 f   pjsip-core-i386-win32-vc8-debug-dynamic:sip_ua_layer.obj
 0002:00033500       _create_uas_dialog         00486500 f   pjsip-core-i386-win32-vc8-debug-dynamic:sip_dialog.obj
 0002:00034750       _pjsip_dlg_add_usage       00487750 f   pjsip-core-i386-win32-vc8-debug-dynamic:sip_dialog.obj
 0002:00034a10       _pjsip_dlg_create_request  00487a10 f   pjsip-core-i386-win32-vc8-debug-dynamic:sip_dialog.obj
 0002:00034ba0       _pjsip_dlg_create_response 00487ba0 f   pjsip-core-i386-win32-vc8-debug-dynamic:sip_dialog.obj
 0002:00034c50       _pjsip_dlg_create_uac      00487c50 f   pjsip-core-i386-win32-vc8-debug-dynamic:sip_dialog.obj
 0002:000353b0       _pjsip_dlg_create_uas_and_inc_lock 004883b0 f   pjsip-core-i386-win32-vc8-debug-dynamic:sip_dialog.obj
 0002:000353f0       _pjsip_dlg_dec_lock        004883f0 f   pjsip-core-i386-win32-vc8-debug-dynamic:sip_dialog.obj
 0002:00035510       _pjsip_dlg_dec_session     00488510 f   pjsip-core-i386-win32-vc8-debug-dynamic:sip_dialog.obj
 0002:00035600       _pjsip_dlg_fork            00488600 f   pjsip-core-i386-win32-vc8-debug-dynamic:sip_dialog.obj
 0002:00035be0       _pjsip_dlg_get_mod_data    00488be0 f   pjsip-core-i386-win32-vc8-debug-dynamic:sip_dialog.obj
 0002:00035c90       _pjsip_dlg_get_remote_cap_hdr 00488c90 f   pjsip-core-i386-win32-vc8-debug-dynamic:sip_dialog.obj
 0002:00035df0       _pjsip_dlg_has_usage       00488df0 f   pjsip-core-i386-win32-vc8-debug-dynamic:sip_dialog.obj
 0002:00035e80       _pjsip_dlg_inc_lock        00488e80 f   pjsip-core-i386-win32-vc8-debug-dynamic:sip_dialog.obj
 0002:00035ee0       _pjsip_dlg_inc_session     00488ee0 f   pjsip-core-i386-win32-vc8-debug-dynamic:sip_dialog.obj
 0002:00035fe0       _pjsip_dlg_modify_response 00488fe0 f   pjsip-core-i386-win32-vc8-debug-dynamic:sip_dialog.obj
 0002:00036240       _pjsip_dlg_on_rx_request   00489240 f   pjsip-core-i386-win32-vc8-debug-dynamic:sip_dialog.obj
 0002:00036730       _pjsip_dlg_on_rx_response  00489730 f   pjsip-core-i386-win32-vc8-debug-dynamic:sip_dialog.obj
 0002:00036d60       _pjsip_dlg_on_tsx_state    00489d60 f   pjsip-core-i386-win32-vc8-debug-dynamic:sip_dialog.obj
 0002:00036ef0       _pjsip_dlg_remote_has_cap  00489ef0 f   pjsip-core-i386-win32-vc8-debug-dynamic:sip_dialog.obj
 0002:00037010       _pjsip_dlg_remove_remote_cap_hdr 0048a010 f   pjsip-core-i386-win32-vc8-debug-dynamic:sip_dialog.obj
 0002:00037140       _pjsip_dlg_respond         0048a140 f   pjsip-core-i386-win32-vc8-debug-dynamic:sip_dialog.obj
 0002:000373c0       _pjsip_dlg_send_request    0048a3c0 f   pjsip-core-i386-win32-vc8-debug-dynamic:sip_dialog.obj
 0002:000377e0       _pjsip_dlg_send_response   0048a7e0 f   pjsip-core-i386-win32-vc8-debug-dynamic:sip_dialog.obj
 0002:00037b80       _pjsip_dlg_set_mod_data    0048ab80 f   pjsip-core-i386-win32-vc8-debug-dynamic:sip_dialog.obj
 0002:00037c40       _pjsip_dlg_set_remote_cap_hdr 0048ac40 f   pjsip-core-i386-win32-vc8-debug-dynamic:sip_dialog.obj
 0002:00037e10       _pjsip_dlg_set_route_set   0048ae10 f   pjsip-core-i386-win32-vc8-debug-dynamic:sip_dialog.obj
 0002:00037f20       _pjsip_dlg_set_transport   0048af20 f   pjsip-core-i386-win32-vc8-debug-dynamic:sip_dialog.obj
 0002:00037ff0       _pjsip_dlg_set_via_sent_by 0048aff0 f   pjsip-core-i386-win32-vc8-debug-dynamic:sip_dialog.obj
 0002:000380d0       _pjsip_dlg_terminate       0048b0d0 f   pjsip-core-i386-win32-vc8-debug-dynamic:sip_dialog.obj
 0002:000381a0       _pjsip_dlg_try_inc_lock    0048b1a0 f   pjsip-core-i386-win32-vc8-debug-dynamic:sip_dialog.obj
 0002:00038220       _pjsip_dlg_update_remote_cap 0048b220 f   pjsip-core-i386-win32-vc8-debug-dynamic:sip_dialog.obj
 0002:00038490       _pjsip_method_creates_dialog 0048b490 f   pjsip-core-i386-win32-vc8-debug-dynamic:sip_dialog.obj
 0002:00039030       _pjsip_auth_clt_clone      0048c030 f   pjsip-core-i386-win32-vc8-debug-dynamic:sip_auth_client.obj
 0002:00039240       _pjsip_auth_clt_deinit     0048c240 f   pjsip-core-i386-win32-vc8-debug-dynamic:sip_auth_client.obj
 0002:000392f0       _pjsip_auth_clt_get_prefs  0048c2f0 f   pjsip-core-i386-win32-vc8-debug-dynamic:sip_auth_client.obj
 0002:00039370       _pjsip_auth_clt_init       0048c370 f   pjsip-core-i386-win32-vc8-debug-dynamic:sip_auth_client.obj
 0002:00039440       _pjsip_auth_clt_init_req   0048c440 f   pjsip-core-i386-win32-vc8-debug-dynamic:sip_auth_client.obj
 0002:000397e0       _pjsip_auth_clt_pref_dup   0048c7e0 f   pjsip-core-i386-win32-vc8-debug-dynamic:sip_auth_client.obj
 0002:00039830       _pjsip_auth_clt_reinit_req 0048c830 f   pjsip-core-i386-win32-vc8-debug-dynamic:sip_auth_client.obj
 0002:00039d00       _pjsip_auth_clt_set_credentials 0048cd00 f   pjsip-core-i386-win32-vc8-debug-dynamic:sip_auth_client.obj
 0002:0003a190       _pjsip_auth_clt_set_prefs  0048d190 f   pjsip-core-i386-win32-vc8-debug-dynamic:sip_auth_client.obj
 0002:0003a240       _pjsip_auth_create_digest  0048d240 f   pjsip-core-i386-win32-vc8-debug-dynamic:sip_auth_client.obj
 0002:0003a680       _pjsip_cred_info_cmp       0048d680 f   pjsip-core-i386-win32-vc8-debug-dynamic:sip_auth_client.obj
 0002:0003a810       _pjsip_cred_info_dup       0048d810 f   pjsip-core-i386-win32-vc8-debug-dynamic:sip_auth_client.obj
 0002:0003b360       _deinit_sip_parser         0048e360 f   pjsip-core-i386-win32-vc8-debug-dynamic:sip_parser.obj
 0002:0003cac0       _init_sip_parser           0048fac0 f   pjsip-core-i386-win32-vc8-debug-dynamic:sip_parser.obj
 0002:000400b0       _pjsip_concat_param_imp    004930b0 f   pjsip-core-i386-win32-vc8-debug-dynamic:sip_parser.obj
 0002:000401f0       _pjsip_find_msg            004931f0 f   pjsip-core-i386-win32-vc8-debug-dynamic:sip_parser.obj
 0002:000405c0       _pjsip_parse_end_hdr_imp   004935c0 f   pjsip-core-i386-win32-vc8-debug-dynamic:sip_parser.obj
 0002:000405f0       _pjsip_parse_generic_array_hdr_imp 004935f0 f   pjsip-core-i386-win32-vc8-debug-dynamic:sip_parser.obj
 0002:00040620       _pjsip_parse_hdr           00493620 f   pjsip-core-i386-win32-vc8-debug-dynamic:sip_parser.obj
 0002:00040790       _pjsip_parse_headers       00493790 f   pjsip-core-i386-win32-vc8-debug-dynamic:sip_parser.obj
 0002:00040aa0       _pjsip_parse_msg           00493aa0 f   pjsip-core-i386-win32-vc8-debug-dynamic:sip_parser.obj
 0002:00040b20       _pjsip_parse_param_imp     00493b20 f   pjsip-core-i386-win32-vc8-debug-dynamic:sip_parser.obj
 0002:00040b70       _pjsip_parse_rdata         00493b70 f   pjsip-core-i386-win32-vc8-debug-dynamic:sip_parser.obj
 0002:00040c00       _pjsip_parse_status_line   00493c00 f   pjsip-core-i386-win32-vc8-debug-dynamic:sip_parser.obj
 0002:00040d00       _pjsip_parse_uri           00493d00 f   pjsip-core-i386-win32-vc8-debug-dynamic:sip_parser.obj
 0002:00040e20       _pjsip_parse_uri_param_imp 00493e20 f   pjsip-core-i386-win32-vc8-debug-dynamic:sip_parser.obj
 0002:00040e70       _pjsip_parser_const        00493e70 f   pjsip-core-i386-win32-vc8-debug-dynamic:sip_parser.obj
 0002:00040e90       _pjsip_register_hdr_parser 00493e90 f   pjsip-core-i386-win32-vc8-debug-dynamic:sip_parser.obj
 0002:00041010       _pjsip_register_uri_parser 00494010 f   pjsip-core-i386-win32-vc8-debug-dynamic:sip_parser.obj
 0002:00041dd0       _pjsip_multipart_add_part  00494dd0 f   pjsip-core-i386-win32-vc8-debug-dynamic:sip_multipart.obj
 0002:00041f20       _pjsip_multipart_clone_part 00494f20 f   pjsip-core-i386-win32-vc8-debug-dynamic:sip_multipart.obj
 0002:00041fc0       _pjsip_multipart_create    00494fc0 f   pjsip-core-i386-win32-vc8-debug-dynamic:sip_multipart.obj
 0002:000421b0       _pjsip_multipart_create_part 004951b0 f   pjsip-core-i386-win32-vc8-debug-dynamic:sip_multipart.obj
 0002:000421f0       _pjsip_multipart_find_part 004951f0 f   pjsip-core-i386-win32-vc8-debug-dynamic:sip_multipart.obj
 0002:00042310       _pjsip_multipart_get_first_part 00495310 f   pjsip-core-i386-win32-vc8-debug-dynamic:sip_multipart.obj
 0002:000423e0       _pjsip_multipart_get_next_part 004953e0 f   pjsip-core-i386-win32-vc8-debug-dynamic:sip_multipart.obj
 0002:00042520       _pjsip_multipart_get_raw   00495520 f   pjsip-core-i386-win32-vc8-debug-dynamic:sip_multipart.obj
 0002:00042610       _pjsip_multipart_parse     00495610 f   pjsip-core-i386-win32-vc8-debug-dynamic:sip_multipart.obj
 0002:000440a0       _pjsip_name_addr_assign    004970a0 f   pjsip-core-i386-win32-vc8-debug-dynamic:sip_uri.obj
 0002:00044100       _pjsip_name_addr_create    00497100 f   pjsip-core-i386-win32-vc8-debug-dynamic:sip_uri.obj
 0002:00044140       _pjsip_name_addr_init      00497140 f   pjsip-core-i386-win32-vc8-debug-dynamic:sip_uri.obj
 0002:00044190       _pjsip_other_uri_create    00497190 f   pjsip-core-i386-win32-vc8-debug-dynamic:sip_uri.obj
 0002:000441d0       _pjsip_param_clone         004971d0 f   pjsip-core-i386-win32-vc8-debug-dynamic:sip_uri.obj
 0002:00044290       _pjsip_param_cmp           00497290 f   pjsip-core-i386-win32-vc8-debug-dynamic:sip_uri.obj
 0002:00044370       _pjsip_param_find          00497370 f   pjsip-core-i386-win32-vc8-debug-dynamic:sip_uri.obj
 0002:000443d0       _pjsip_param_print_on      004973d0 f   pjsip-core-i386-win32-vc8-debug-dynamic:sip_uri.obj
 0002:000445d0       _pjsip_param_shallow_clone 004975d0 f   pjsip-core-i386-win32-vc8-debug-dynamic:sip_uri.obj
 0002:00044670       _pjsip_sip_uri_assign      00497670 f   pjsip-core-i386-win32-vc8-debug-dynamic:sip_uri.obj
 0002:000447e0       _pjsip_sip_uri_create      004977e0 f   pjsip-core-i386-win32-vc8-debug-dynamic:sip_uri.obj
 0002:00044830       _pjsip_sip_uri_init        00497830 f   pjsip-core-i386-win32-vc8-debug-dynamic:sip_uri.obj
 0002:000448a0       _pjsip_sip_uri_set_secure  004978a0 f   pjsip-core-i386-win32-vc8-debug-dynamic:sip_uri.obj
 0002:00045010       _pjsip_resolve             00498010 f   pjsip-core-i386-win32-vc8-debug-dynamic:sip_resolve.obj
 0002:00045e30       _pjsip_resolver_create     00498e30 f   pjsip-core-i386-win32-vc8-debug-dynamic:sip_resolve.obj
 0002:00045ec0       _pjsip_resolver_destroy    00498ec0 f   pjsip-core-i386-win32-vc8-debug-dynamic:sip_resolve.obj
 0002:00045f00       _pjsip_resolver_get_resolver 00498f00 f   pjsip-core-i386-win32-vc8-debug-dynamic:sip_resolve.obj
 0002:00045f20       _pjsip_resolver_set_ext_resolver 00498f20 f   pjsip-core-i386-win32-vc8-debug-dynamic:sip_resolve.obj
 0002:00045f90       _pjsip_resolver_set_resolver 00498f90 f   pjsip-core-i386-win32-vc8-debug-dynamic:sip_resolve.obj
 0002:00046320       _pjsip_strerror            00499320 f   pjsip-core-i386-win32-vc8-debug-dynamic:sip_errno.obj
 0002:00046d30       _pjsip_tel_nb_cmp          00499d30 f   pjsip-core-i386-win32-vc8-debug-dynamic:sip_tel_uri.obj
 0002:00046ef0       _pjsip_tel_uri_create      00499ef0 f   pjsip-core-i386-win32-vc8-debug-dynamic:sip_tel_uri.obj
 0002:00046f40       _pjsip_tel_uri_subsys_init 00499f40 f   pjsip-core-i386-win32-vc8-debug-dynamic:sip_tel_uri.obj
 0002:000477c0       _pjsip_endpt_respond       0049a7c0 f   pjsip-core-i386-win32-vc8-debug-dynamic:sip_util_statefull.obj
 0002:000479c0       _pjsip_endpt_send_request  0049a9c0 f   pjsip-core-i386-win32-vc8-debug-dynamic:sip_util_statefull.obj
 0002:00048640       _pjsip_authorization_hdr_create 0049b640 f   pjsip-core-i386-win32-vc8-debug-dynamic:sip_auth_msg.obj
 0002:000486a0       _pjsip_proxy_authenticate_hdr_create 0049b6a0 f   pjsip-core-i386-win32-vc8-debug-dynamic:sip_auth_msg.obj
 0002:00048700       _pjsip_proxy_authorization_hdr_create 0049b700 f   pjsip-core-i386-win32-vc8-debug-dynamic:sip_auth_msg.obj
 0002:00048760       _pjsip_www_authenticate_hdr_create 0049b760 f   pjsip-core-i386-win32-vc8-debug-dynamic:sip_auth_msg.obj
 0002:0004a290       _pjsip_auth_deinit_parser  0049d290 f   pjsip-core-i386-win32-vc8-debug-dynamic:sip_auth_parser.obj
 0002:0004a2b0       _pjsip_auth_init_parser    0049d2b0 f   pjsip-core-i386-win32-vc8-debug-dynamic:sip_auth_parser.obj
 0002:0004a440       _pjmedia_aud_register_factory 0049d440 f   pjmedia-audiodev-i386-win32-vc8-debug-dynamic:audiodev.obj
 0002:0004a4e0       _pjmedia_aud_subsys_get_pool_factory 0049d4e0 f   pjmedia-audiodev-i386-win32-vc8-debug-dynamic:audiodev.obj
 0002:0004a510       _pjmedia_aud_subsys_init   0049d510 f   pjmedia-audiodev-i386-win32-vc8-debug-dynamic:audiodev.obj
 0002:0004a670       _pjmedia_aud_subsys_shutdown 0049d670 f   pjmedia-audiodev-i386-win32-vc8-debug-dynamic:audiodev.obj
 0002:0004a700       _pjmedia_aud_unregister_factory 0049d700 f   pjmedia-audiodev-i386-win32-vc8-debug-dynamic:audiodev.obj
 0002:0004a7e0       _pjmedia_audiodev_strerror 0049d7e0 f   pjmedia-audiodev-i386-win32-vc8-debug-dynamic:errno.obj
 0002:0004cf50       _pjmedia_wmme_factory      0049ff50 f   pjmedia-audiodev-i386-win32-vc8-debug-dynamic:wmme_dev.obj
 0002:0004e670       _pjmedia_sdp_attr_add      004a1670 f   pjmedia-i386-win32-vc8-debug-dynamic:sdp.obj
 0002:0004e750       _pjmedia_sdp_attr_clone    004a1750 f   pjmedia-i386-win32-vc8-debug-dynamic:sdp.obj
 0002:0004e810       _pjmedia_sdp_attr_create   004a1810 f   pjmedia-i386-win32-vc8-debug-dynamic:sdp.obj
 0002:0004e8e0       _pjmedia_sdp_attr_create_rtcp 004a18e0 f   pjmedia-i386-win32-vc8-debug-dynamic:sdp.obj
 0002:0004ea60       _pjmedia_sdp_attr_create_ssrc 004a1a60 f   pjmedia-i386-win32-vc8-debug-dynamic:sdp.obj
 0002:0004eb20       _pjmedia_sdp_attr_find     004a1b20 f   pjmedia-i386-win32-vc8-debug-dynamic:sdp.obj
 0002:0004ec30       _pjmedia_sdp_attr_find2    004a1c30 f   pjmedia-i386-win32-vc8-debug-dynamic:sdp.obj
 0002:0004ec80       _pjmedia_sdp_attr_get_fmtp 004a1c80 f   pjmedia-i386-win32-vc8-debug-dynamic:sdp.obj
 0002:0004edd0       _pjmedia_sdp_attr_get_rtcp 004a1dd0 f   pjmedia-i386-win32-vc8-debug-dynamic:sdp.obj
 0002:0004f000       _pjmedia_sdp_attr_get_rtpmap 004a2000 f   pjmedia-i386-win32-vc8-debug-dynamic:sdp.obj
 0002:0004f330       _pjmedia_sdp_attr_get_ssrc 004a2330 f   pjmedia-i386-win32-vc8-debug-dynamic:sdp.obj
 0002:0004f560       _pjmedia_sdp_attr_remove   004a2560 f   pjmedia-i386-win32-vc8-debug-dynamic:sdp.obj
 0002:0004f6c0       _pjmedia_sdp_attr_remove_all 004a26c0 f   pjmedia-i386-win32-vc8-debug-dynamic:sdp.obj
 0002:0004f830       _pjmedia_sdp_attr_to_rtpmap 004a2830 f   pjmedia-i386-win32-vc8-debug-dynamic:sdp.obj
 0002:0004f920       _pjmedia_sdp_bandw_clone   004a2920 f   pjmedia-i386-win32-vc8-debug-dynamic:sdp.obj
 0002:0004f990       _pjmedia_sdp_conn_clone    004a2990 f   pjmedia-i386-win32-vc8-debug-dynamic:sdp.obj
 0002:0004fa50       _pjmedia_sdp_media_add_attr 004a2a50 f   pjmedia-i386-win32-vc8-debug-dynamic:sdp.obj
 0002:0004fa90       _pjmedia_sdp_media_clone   004a2a90 f   pjmedia-i386-win32-vc8-debug-dynamic:sdp.obj
 0002:0004fdf0       _pjmedia_sdp_media_clone_deactivate 004a2df0 f   pjmedia-i386-win32-vc8-debug-dynamic:sdp.obj
 0002:00050080       _pjmedia_sdp_media_deactivate 004a3080 f   pjmedia-i386-win32-vc8-debug-dynamic:sdp.obj
 0002:00050100       _pjmedia_sdp_media_find_attr 004a3100 f   pjmedia-i386-win32-vc8-debug-dynamic:sdp.obj
 0002:00050190       _pjmedia_sdp_media_find_attr2 004a3190 f   pjmedia-i386-win32-vc8-debug-dynamic:sdp.obj
 0002:00050220       _pjmedia_sdp_media_remove_all_attr 004a3220 f   pjmedia-i386-win32-vc8-debug-dynamic:sdp.obj
 0002:00050260       _pjmedia_sdp_media_remove_attr 004a3260 f   pjmedia-i386-win32-vc8-debug-dynamic:sdp.obj
 0002:000502a0       _pjmedia_sdp_parse         004a32a0 f   pjmedia-i386-win32-vc8-debug-dynamic:sdp.obj
 0002:000509e0       _pjmedia_sdp_print         004a39e0 f   pjmedia-i386-win32-vc8-debug-dynamic:sdp.obj
 0002:00050a10       _pjmedia_sdp_rtpmap_to_attr 004a3a10 f   pjmedia-i386-win32-vc8-debug-dynamic:sdp.obj
 0002:00050ca0       _pjmedia_sdp_session_add_attr 004a3ca0 f   pjmedia-i386-win32-vc8-debug-dynamic:sdp.obj
 0002:00050ce0       _pjmedia_sdp_session_clone 004a3ce0 f   pjmedia-i386-win32-vc8-debug-dynamic:sdp.obj
 0002:00051020       _pjmedia_sdp_transport_cmp 004a4020 f   pjmedia-i386-win32-vc8-debug-dynamic:sdp.obj
 0002:000510b0       _pjmedia_sdp_transport_get_proto 004a40b0 f   pjmedia-i386-win32-vc8-debug-dynamic:sdp.obj
 0002:000512a0       _pjmedia_sdp_validate      004a42a0 f   pjmedia-i386-win32-vc8-debug-dynamic:sdp.obj
 0002:000512d0       _pjmedia_sdp_validate2     004a42d0 f   pjmedia-i386-win32-vc8-debug-dynamic:sdp.obj
 0002:00052630       _pjmedia_endpt_atexit      004a5630 f   pjmedia-i386-win32-vc8-debug-dynamic:endpoint.obj
 0002:00052700       _pjmedia_endpt_create2     004a5700 f   pjmedia-i386-win32-vc8-debug-dynamic:endpoint.obj
 0002:00052a80       _pjmedia_endpt_create_audio_sdp 004a5a80 f   pjmedia-i386-win32-vc8-debug-dynamic:endpoint.obj
 0002:000532f0       _pjmedia_endpt_create_base_sdp 004a62f0 f   pjmedia-i386-win32-vc8-debug-dynamic:endpoint.obj
 0002:00053560       _pjmedia_endpt_create_pool 004a6560 f   pjmedia-i386-win32-vc8-debug-dynamic:endpoint.obj
 0002:000535d0       _pjmedia_endpt_create_sdp  004a65d0 f   pjmedia-i386-win32-vc8-debug-dynamic:endpoint.obj
 0002:00053760       _pjmedia_endpt_destroy2    004a6760 f   pjmedia-i386-win32-vc8-debug-dynamic:endpoint.obj
 0002:00053840       _pjmedia_endpt_dump        004a6840 f   pjmedia-i386-win32-vc8-debug-dynamic:endpoint.obj
 0002:00053bd0       _pjmedia_endpt_get_codec_mgr 004a6bd0 f   pjmedia-i386-win32-vc8-debug-dynamic:endpoint.obj
 0002:00053bf0       _pjmedia_endpt_get_flag    004a6bf0 f   pjmedia-i386-win32-vc8-debug-dynamic:endpoint.obj
 0002:00053c80       _pjmedia_endpt_get_ioqueue 004a6c80 f   pjmedia-i386-win32-vc8-debug-dynamic:endpoint.obj
 0002:00053ce0       _pjmedia_endpt_get_thread  004a6ce0 f   pjmedia-i386-win32-vc8-debug-dynamic:endpoint.obj
 0002:00053da0       _pjmedia_endpt_get_thread_count 004a6da0 f   pjmedia-i386-win32-vc8-debug-dynamic:endpoint.obj
 0002:00053e00       _pjmedia_endpt_set_flag    004a6e00 f   pjmedia-i386-win32-vc8-debug-dynamic:endpoint.obj
 0002:00053e90       _pjmedia_endpt_stop_threads 004a6e90 f   pjmedia-i386-win32-vc8-debug-dynamic:endpoint.obj
 0002:00053ff0       _pjmedia_codec_g711_deinit 004a6ff0 f   pjmedia-i386-win32-vc8-debug-dynamic:g711.obj
 0002:00054fa0       _pjmedia_codec_g711_init   004a7fa0 f   pjmedia-i386-win32-vc8-debug-dynamic:g711.obj
 0002:00055170       _pjmedia_rtp_decode_rtp    004a8170 f   pjmedia-i386-win32-vc8-debug-dynamic:rtp.obj
 0002:000551c0       _pjmedia_rtp_decode_rtp2   004a81c0 f   pjmedia-i386-win32-vc8-debug-dynamic:rtp.obj
 0002:00055350       _pjmedia_rtp_encode_rtp    004a8350 f   pjmedia-i386-win32-vc8-debug-dynamic:rtp.obj
 0002:00055460       _pjmedia_rtp_seq_init      004a8460 f   pjmedia-i386-win32-vc8-debug-dynamic:rtp.obj
 0002:00055500       _pjmedia_rtp_seq_update    004a8500 f   pjmedia-i386-win32-vc8-debug-dynamic:rtp.obj
 0002:00055730       _pjmedia_rtp_session_init  004a8730 f   pjmedia-i386-win32-vc8-debug-dynamic:rtp.obj
 0002:00055910       _pjmedia_rtp_session_init2 004a8910 f   pjmedia-i386-win32-vc8-debug-dynamic:rtp.obj
 0002:00055a10       _pjmedia_rtp_session_update 004a8a10 f   pjmedia-i386-win32-vc8-debug-dynamic:rtp.obj
 0002:00055a40       _pjmedia_rtp_session_update2 004a8a40 f   pjmedia-i386-win32-vc8-debug-dynamic:rtp.obj
 0002:00056700       _pjmedia_rtcp_build_rtcp   004a9700 f   pjmedia-i386-win32-vc8-debug-dynamic:rtcp.obj
 0002:00056c60       _pjmedia_rtcp_build_rtcp_bye 004a9c60 f   pjmedia-i386-win32-vc8-debug-dynamic:rtcp.obj
 0002:00056eb0       _pjmedia_rtcp_build_rtcp_sdes 004a9eb0 f   pjmedia-i386-win32-vc8-debug-dynamic:rtcp.obj
 0002:000574a0       _pjmedia_rtcp_enable_xr    004aa4a0 f   pjmedia-i386-win32-vc8-debug-dynamic:rtcp.obj
 0002:000574c0       _pjmedia_rtcp_fini         004aa4c0 f   pjmedia-i386-win32-vc8-debug-dynamic:rtcp.obj
 0002:000574e0       _pjmedia_rtcp_get_ntp_time 004aa4e0 f   pjmedia-i386-win32-vc8-debug-dynamic:rtcp.obj
 0002:000577d0       _pjmedia_rtcp_init         004aa7d0 f   pjmedia-i386-win32-vc8-debug-dynamic:rtcp.obj
 0002:00057830       _pjmedia_rtcp_init2        004aa830 f   pjmedia-i386-win32-vc8-debug-dynamic:rtcp.obj
 0002:00057a50       _pjmedia_rtcp_init_stat    004aaa50 f   pjmedia-i386-win32-vc8-debug-dynamic:rtcp.obj
 0002:00057b30       _pjmedia_rtcp_rx_rtcp      004aab30 f   pjmedia-i386-win32-vc8-debug-dynamic:rtcp.obj
 0002:00057c80       _pjmedia_rtcp_rx_rtp       004aac80 f   pjmedia-i386-win32-vc8-debug-dynamic:rtcp.obj
 0002:00057cc0       _pjmedia_rtcp_rx_rtp2      004aacc0 f   pjmedia-i386-win32-vc8-debug-dynamic:rtcp.obj
 0002:00058040       _pjmedia_rtcp_session_setting_default 004ab040 f   pjmedia-i386-win32-vc8-debug-dynamic:rtcp.obj
 0002:00058070       _pjmedia_rtcp_tx_rtp       004ab070 f   pjmedia-i386-win32-vc8-debug-dynamic:rtcp.obj
 0002:00059410       _pjmedia_sdp_neg_cancel_offer 004ac410 f   pjmedia-i386-win32-vc8-debug-dynamic:sdp_neg.obj
 0002:00059550       _pjmedia_sdp_neg_create_w_local_offer 004ac550 f   pjmedia-i386-win32-vc8-debug-dynamic:sdp_neg.obj
 0002:00059700       _pjmedia_sdp_neg_create_w_remote_offer 004ac700 f   pjmedia-i386-win32-vc8-debug-dynamic:sdp_neg.obj
 0002:00059910       _pjmedia_sdp_neg_fmt_match 004ac910 f   pjmedia-i386-win32-vc8-debug-dynamic:sdp_neg.obj
 0002:00059b40       _pjmedia_sdp_neg_get_active_local 004acb40 f   pjmedia-i386-win32-vc8-debug-dynamic:sdp_neg.obj
 0002:00059c00       _pjmedia_sdp_neg_get_active_remote 004acc00 f   pjmedia-i386-win32-vc8-debug-dynamic:sdp_neg.obj
 0002:00059cc0       _pjmedia_sdp_neg_get_neg_local 004accc0 f   pjmedia-i386-win32-vc8-debug-dynamic:sdp_neg.obj
 0002:00059d80       _pjmedia_sdp_neg_get_neg_remote 004acd80 f   pjmedia-i386-win32-vc8-debug-dynamic:sdp_neg.obj
 0002:00059e40       _pjmedia_sdp_neg_get_state 004ace40 f   pjmedia-i386-win32-vc8-debug-dynamic:sdp_neg.obj
 0002:00059ea0       _pjmedia_sdp_neg_has_local_answer 004acea0 f   pjmedia-i386-win32-vc8-debug-dynamic:sdp_neg.obj
 0002:00059f10       _pjmedia_sdp_neg_modify_local_offer 004acf10 f   pjmedia-i386-win32-vc8-debug-dynamic:sdp_neg.obj
 0002:00059f40       _pjmedia_sdp_neg_modify_local_offer2 004acf40 f   pjmedia-i386-win32-vc8-debug-dynamic:sdp_neg.obj
 0002:0005a390       _pjmedia_sdp_neg_negotiate 004ad390 f   pjmedia-i386-win32-vc8-debug-dynamic:sdp_neg.obj
 0002:0005a600       _pjmedia_sdp_neg_register_fmt_match_cb 004ad600 f   pjmedia-i386-win32-vc8-debug-dynamic:sdp_neg.obj
 0002:0005a790       _pjmedia_sdp_neg_send_local_offer 004ad790 f   pjmedia-i386-win32-vc8-debug-dynamic:sdp_neg.obj
 0002:0005a940       _pjmedia_sdp_neg_set_answer_multiple_codecs 004ad940 f   pjmedia-i386-win32-vc8-debug-dynamic:sdp_neg.obj
 0002:0005a9b0       _pjmedia_sdp_neg_set_local_answer 004ad9b0 f   pjmedia-i386-win32-vc8-debug-dynamic:sdp_neg.obj
 0002:0005abc0       _pjmedia_sdp_neg_set_prefer_remote_codec_order 004adbc0 f   pjmedia-i386-win32-vc8-debug-dynamic:sdp_neg.obj
 0002:0005ac30       _pjmedia_sdp_neg_set_remote_answer 004adc30 f   pjmedia-i386-win32-vc8-debug-dynamic:sdp_neg.obj
 0002:0005ad20       _pjmedia_sdp_neg_set_remote_offer 004add20 f   pjmedia-i386-win32-vc8-debug-dynamic:sdp_neg.obj
 0002:0005ae10       _pjmedia_sdp_neg_state_str 004ade10 f   pjmedia-i386-win32-vc8-debug-dynamic:sdp_neg.obj
 0002:0005ae50       _pjmedia_sdp_neg_was_answer_remote 004ade50 f   pjmedia-i386-win32-vc8-debug-dynamic:sdp_neg.obj
 0002:0005cab0       _pjmedia_stream_info_from_sdp 004afab0 f   pjmedia-i386-win32-vc8-debug-dynamic:stream_info.obj
 0002:0005e950       _pjmedia_transport_udp_attach 004b1950 f   pjmedia-i386-win32-vc8-debug-dynamic:transport_udp.obj
 0002:0005edd0       _pjmedia_transport_udp_create 004b1dd0 f   pjmedia-i386-win32-vc8-debug-dynamic:transport_udp.obj
 0002:0005ee10       _pjmedia_transport_udp_create2 004b1e10 f   pjmedia-i386-win32-vc8-debug-dynamic:transport_udp.obj
 0002:0005ee60       _pjmedia_transport_udp_create3 004b1e60 f   pjmedia-i386-win32-vc8-debug-dynamic:transport_udp.obj
 0002:0005f960       _pjmedia_aud_dev_cap_name  004b2960 f   pjmedia-i386-win32-vc8-debug-dynamic:audiodev.obj
 0002:0005fa00       _pjmedia_aud_dev_count     004b2a00 f   pjmedia-i386-win32-vc8-debug-dynamic:audiodev.obj
 0002:0005fa20       _pjmedia_aud_dev_default_param 004b2a20 f   pjmedia-i386-win32-vc8-debug-dynamic:audiodev.obj
 0002:0005fb70       _pjmedia_aud_dev_get_info  004b2b70 f   pjmedia-i386-win32-vc8-debug-dynamic:audiodev.obj
 0002:0005fc70       _pjmedia_aud_dev_lookup    004b2c70 f   pjmedia-i386-win32-vc8-debug-dynamic:audiodev.obj
 0002:0005fe90       _pjmedia_aud_dev_refresh   004b2e90 f   pjmedia-i386-win32-vc8-debug-dynamic:audiodev.obj
 0002:0005ff70       _pjmedia_aud_driver_deinit 004b2f70 f   pjmedia-i386-win32-vc8-debug-dynamic:audiodev.obj
 0002:00060000       _pjmedia_aud_driver_init   004b3000 f   pjmedia-i386-win32-vc8-debug-dynamic:audiodev.obj
 0002:00060370       _pjmedia_aud_param_get_cap 004b3370 f   pjmedia-i386-win32-vc8-debug-dynamic:audiodev.obj
 0002:00060400       _pjmedia_aud_param_set_cap 004b3400 f   pjmedia-i386-win32-vc8-debug-dynamic:audiodev.obj
 0002:00060480       _pjmedia_aud_stream_create 004b3480 f   pjmedia-i386-win32-vc8-debug-dynamic:audiodev.obj
 0002:000607d0       _pjmedia_aud_stream_destroy 004b37d0 f   pjmedia-i386-win32-vc8-debug-dynamic:audiodev.obj
 0002:00060800       _pjmedia_aud_stream_get_cap 004b3800 f   pjmedia-i386-win32-vc8-debug-dynamic:audiodev.obj
 0002:00060840       _pjmedia_aud_stream_get_param 004b3840 f   pjmedia-i386-win32-vc8-debug-dynamic:audiodev.obj
 0002:00060950       _pjmedia_aud_stream_set_cap 004b3950 f   pjmedia-i386-win32-vc8-debug-dynamic:audiodev.obj
 0002:00060990       _pjmedia_aud_stream_start  004b3990 f   pjmedia-i386-win32-vc8-debug-dynamic:audiodev.obj
 0002:000609c0       _pjmedia_aud_stream_stop   004b39c0 f   pjmedia-i386-win32-vc8-debug-dynamic:audiodev.obj
 0002:000609f0       _pjmedia_get_aud_subsys    004b39f0 f   pjmedia-i386-win32-vc8-debug-dynamic:audiodev.obj
 0002:00060b00       _pjmedia_codec_info_to_id  004b3b00 f   pjmedia-i386-win32-vc8-debug-dynamic:codec.obj
 0002:00060be0       _pjmedia_codec_mgr_alloc_codec 004b3be0 f   pjmedia-i386-win32-vc8-debug-dynamic:codec.obj
 0002:00060d20       _pjmedia_codec_mgr_dealloc_codec 004b3d20 f   pjmedia-i386-win32-vc8-debug-dynamic:codec.obj
 0002:00060db0       _pjmedia_codec_mgr_destroy 004b3db0 f   pjmedia-i386-win32-vc8-debug-dynamic:codec.obj
 0002:00060f30       _pjmedia_codec_mgr_enum_codecs 004b3f30 f   pjmedia-i386-win32-vc8-debug-dynamic:codec.obj
 0002:00061080       _pjmedia_codec_mgr_find_codecs_by_id 004b4080 f   pjmedia-i386-win32-vc8-debug-dynamic:codec.obj
 0002:00061220       _pjmedia_codec_mgr_get_codec_info 004b4220 f   pjmedia-i386-win32-vc8-debug-dynamic:codec.obj
 0002:00061340       _pjmedia_codec_mgr_get_default_param 004b4340 f   pjmedia-i386-win32-vc8-debug-dynamic:codec.obj
 0002:000615c0       _pjmedia_codec_mgr_init    004b45c0 f   pjmedia-i386-win32-vc8-debug-dynamic:codec.obj
 0002:000616d0       _pjmedia_codec_mgr_register_factory 004b46d0 f   pjmedia-i386-win32-vc8-debug-dynamic:codec.obj
 0002:00061990       _pjmedia_codec_mgr_set_codec_priority 004b4990 f   pjmedia-i386-win32-vc8-debug-dynamic:codec.obj
 0002:00061ae0       _pjmedia_codec_mgr_set_default_param 004b4ae0 f   pjmedia-i386-win32-vc8-debug-dynamic:codec.obj
 0002:00061d90       _pjmedia_codec_mgr_unregister_factory 004b4d90 f   pjmedia-i386-win32-vc8-debug-dynamic:codec.obj
 0002:00061f50       _pjmedia_codec_param_clone 004b4f50 f   pjmedia-i386-win32-vc8-debug-dynamic:codec.obj
 0002:000622d0       _pjmedia_strerror          004b52d0 f   pjmedia-i386-win32-vc8-debug-dynamic:errno.obj
 0002:00062620       _pjmedia_plc_create        004b5620 f   pjmedia-i386-win32-vc8-debug-dynamic:plc_common.obj
 0002:00062740       _pjmedia_plc_generate      004b5740 f   pjmedia-i386-win32-vc8-debug-dynamic:plc_common.obj
 0002:000627d0       _pjmedia_plc_save          004b57d0 f   pjmedia-i386-win32-vc8-debug-dynamic:plc_common.obj
 0002:00062890       _pjmedia_calc_avg_signal   004b5890 f   pjmedia-i386-win32-vc8-debug-dynamic:silencedet.obj
 0002:00062930       _pjmedia_silence_det_apply 004b5930 f   pjmedia-i386-win32-vc8-debug-dynamic:silencedet.obj
 0002:00062d00       _pjmedia_silence_det_create 004b5d00 f   pjmedia-i386-win32-vc8-debug-dynamic:silencedet.obj
 0002:00062e00       _pjmedia_silence_det_detect 004b5e00 f   pjmedia-i386-win32-vc8-debug-dynamic:silencedet.obj
 0002:00062e60       _pjmedia_silence_det_disable 004b5e60 f   pjmedia-i386-win32-vc8-debug-dynamic:silencedet.obj
 0002:00062ed0       _pjmedia_silence_det_set_adaptive 004b5ed0 f   pjmedia-i386-win32-vc8-debug-dynamic:silencedet.obj
 0002:00062f50       _pjmedia_silence_det_set_fixed 004b5f50 f   pjmedia-i386-win32-vc8-debug-dynamic:silencedet.obj
 0002:00062fd0       _pjmedia_silence_det_set_name 004b5fd0 f   pjmedia-i386-win32-vc8-debug-dynamic:silencedet.obj
 0002:00063070       _pjmedia_silence_det_set_params 004b6070 f   pjmedia-i386-win32-vc8-debug-dynamic:silencedet.obj
 0002:00063520       _pjmedia_event_init        004b6520 f   pjmedia-i386-win32-vc8-debug-dynamic:event.obj
 0002:00063590       _pjmedia_event_mgr_create  004b6590 f   pjmedia-i386-win32-vc8-debug-dynamic:event.obj
 0002:00063720       _pjmedia_event_mgr_destroy 004b6720 f   pjmedia-i386-win32-vc8-debug-dynamic:event.obj
 0002:00063850       _pjmedia_event_mgr_instance 004b6850 f   pjmedia-i386-win32-vc8-debug-dynamic:event.obj
 0002:00063870       _pjmedia_event_mgr_set_instance 004b6870 f   pjmedia-i386-win32-vc8-debug-dynamic:event.obj
 0002:00063890       _pjmedia_event_publish     004b6890 f   pjmedia-i386-win32-vc8-debug-dynamic:event.obj
 0002:00063ac0       _pjmedia_event_subscribe   004b6ac0 f   pjmedia-i386-win32-vc8-debug-dynamic:event.obj
 0002:00063ca0       _pjmedia_event_unsubscribe 004b6ca0 f   pjmedia-i386-win32-vc8-debug-dynamic:event.obj
 0002:00064450       _pjmedia_rtcp_fb_build_nack 004b7450 f   pjmedia-i386-win32-vc8-debug-dynamic:rtcp_fb.obj
 0002:00064650       _pjmedia_rtcp_fb_build_pli 004b7650 f   pjmedia-i386-win32-vc8-debug-dynamic:rtcp_fb.obj
 0002:00064790       _pjmedia_rtcp_fb_build_rpsi 004b7790 f   pjmedia-i386-win32-vc8-debug-dynamic:rtcp_fb.obj
 0002:000649f0       _pjmedia_rtcp_fb_build_sli 004b79f0 f   pjmedia-i386-win32-vc8-debug-dynamic:rtcp_fb.obj
 0002:00064d00       _pjmedia_rtcp_fb_decode_sdp 004b7d00 f   pjmedia-i386-win32-vc8-debug-dynamic:rtcp_fb.obj
 0002:00065250       _pjmedia_rtcp_fb_encode_sdp 004b8250 f   pjmedia-i386-win32-vc8-debug-dynamic:rtcp_fb.obj
 0002:000656a0       _pjmedia_rtcp_fb_info_dup  004b86a0 f   pjmedia-i386-win32-vc8-debug-dynamic:rtcp_fb.obj
 0002:00065760       _pjmedia_rtcp_fb_parse_nack 004b8760 f   pjmedia-i386-win32-vc8-debug-dynamic:rtcp_fb.obj
 0002:00065980       _pjmedia_rtcp_fb_parse_pli 004b8980 f   pjmedia-i386-win32-vc8-debug-dynamic:rtcp_fb.obj
 0002:00065a60       _pjmedia_rtcp_fb_parse_rpsi 004b8a60 f   pjmedia-i386-win32-vc8-debug-dynamic:rtcp_fb.obj
 0002:00065c10       _pjmedia_rtcp_fb_parse_sli 004b8c10 f   pjmedia-i386-win32-vc8-debug-dynamic:rtcp_fb.obj
 0002:00065e90       _pjmedia_rtcp_fb_setting_default 004b8e90 f   pjmedia-i386-win32-vc8-debug-dynamic:rtcp_fb.obj
 0002:00065ec0       _pjmedia_rtcp_fb_setting_dup 004b8ec0 f   pjmedia-i386-win32-vc8-debug-dynamic:rtcp_fb.obj
 0002:00065fe0       _pjmedia_stream_info_parse_fmtp 004b8fe0 f   pjmedia-i386-win32-vc8-debug-dynamic:stream_common.obj
 0002:00068df0       _get_libsrtp_errstr        004bbdf0 f   pjmedia-i386-win32-vc8-debug-dynamic:transport_srtp.obj
 0002:000693c0       _pjmedia_srtp_enum_crypto  004bc3c0 f   pjmedia-i386-win32-vc8-debug-dynamic:transport_srtp.obj
 0002:000694c0       _pjmedia_srtp_enum_keying  004bc4c0 f   pjmedia-i386-win32-vc8-debug-dynamic:transport_srtp.obj
 0002:00069570       _pjmedia_srtp_init_lib     004bc570 f   pjmedia-i386-win32-vc8-debug-dynamic:transport_srtp.obj
 0002:00069650       _pjmedia_srtp_setting_default 004bc650 f   pjmedia-i386-win32-vc8-debug-dynamic:transport_srtp.obj
 0002:000699e0       _pjmedia_transport_srtp_create 004bc9e0 f   pjmedia-i386-win32-vc8-debug-dynamic:transport_srtp.obj
 0002:00069ed0       _pjmedia_transport_srtp_decrypt_pkt 004bced0 f   pjmedia-i386-win32-vc8-debug-dynamic:transport_srtp.obj
 0002:0006a120       _pjmedia_transport_srtp_dtls_get_fingerprint 004bd120 f   pjmedia-i386-win32-vc8-debug-dynamic:transport_srtp.obj
 0002:0006a140       _pjmedia_transport_srtp_dtls_start_nego 004bd140 f   pjmedia-i386-win32-vc8-debug-dynamic:transport_srtp.obj
 0002:0006a160       _pjmedia_transport_srtp_get_member 004bd160 f   pjmedia-i386-win32-vc8-debug-dynamic:transport_srtp.obj
 0002:0006a1d0       _pjmedia_transport_srtp_start 004bd1d0 f   pjmedia-i386-win32-vc8-debug-dynamic:transport_srtp.obj
 0002:0006acb0       _pjmedia_transport_srtp_stop 004bdcb0 f   pjmedia-i386-win32-vc8-debug-dynamic:transport_srtp.obj
 0002:0006cb40       _pjmedia_wsola_create      004bfb40 f   pjmedia-i386-win32-vc8-debug-dynamic:wsola.obj
 0002:0006cf90       _pjmedia_wsola_destroy     004bff90 f   pjmedia-i386-win32-vc8-debug-dynamic:wsola.obj
 0002:0006cfb0       _pjmedia_wsola_discard     004bffb0 f   pjmedia-i386-win32-vc8-debug-dynamic:wsola.obj
 0002:0006d4e0       _pjmedia_wsola_generate    004c04e0 f   pjmedia-i386-win32-vc8-debug-dynamic:wsola.obj
 0002:0006d610       _pjmedia_wsola_reset       004c0610 f   pjmedia-i386-win32-vc8-debug-dynamic:wsola.obj
 0002:0006d6f0       _pjmedia_wsola_save        004c06f0 f   pjmedia-i386-win32-vc8-debug-dynamic:wsola.obj
 0002:0006dc50       _pjmedia_wsola_set_max_expand 004c0c50 f   pjmedia-i386-win32-vc8-debug-dynamic:wsola.obj
 0002:0006deb0       _pjlib_util_init           004c0eb0 f   pjlib-util-i386-win32-vc8-debug-dynamic:errno.obj
 0002:0006df20       _pjlib_util_strerror       004c0f20 f   pjlib-util-i386-win32-vc8-debug-dynamic:errno.obj
 0002:0006f0c0       _pj_getopt                 004c20c0 f   pjlib-util-i386-win32-vc8-debug-dynamic:getopt.obj
 0002:0006f100       _pj_getopt_long            004c2100 f   pjlib-util-i386-win32-vc8-debug-dynamic:getopt.obj
 0002:0006f170       _pj_cis_add_alpha          004c2170 f   pjlib-util-i386-win32-vc8-debug-dynamic:scanner.obj
 0002:0006f1b0       _pj_cis_add_cis            004c21b0 f   pjlib-util-i386-win32-vc8-debug-dynamic:scanner.obj
 0002:0006f240       _pj_cis_add_num            004c2240 f   pjlib-util-i386-win32-vc8-debug-dynamic:scanner.obj
 0002:0006f270       _pj_cis_add_range          004c2270 f   pjlib-util-i386-win32-vc8-debug-dynamic:scanner.obj
 0002:0006f300       _pj_cis_add_str            004c2300 f   pjlib-util-i386-win32-vc8-debug-dynamic:scanner.obj
 0002:0006f370       _pj_cis_buf_init           004c2370 f   pjlib-util-i386-win32-vc8-debug-dynamic:scanner.obj
 0002:0006f3b0       _pj_cis_del_range          004c23b0 f   pjlib-util-i386-win32-vc8-debug-dynamic:scanner.obj
 0002:0006f410       _pj_cis_del_str            004c2410 f   pjlib-util-i386-win32-vc8-debug-dynamic:scanner.obj
 0002:0006f480       _pj_cis_dup                004c2480 f   pjlib-util-i386-win32-vc8-debug-dynamic:scanner.obj
 0002:0006f570       _pj_cis_init               004c2570 f   pjlib-util-i386-win32-vc8-debug-dynamic:scanner.obj
 0002:0006f610       _pj_cis_invert             004c2610 f   pjlib-util-i386-win32-vc8-debug-dynamic:scanner.obj
 0002:0006f7d0       _pj_scan_advance_n         004c27d0 f   pjlib-util-i386-win32-vc8-debug-dynamic:scanner.obj
 0002:0006f850       _pj_scan_fini              004c2850 f   pjlib-util-i386-win32-vc8-debug-dynamic:scanner.obj
 0002:0006f880       _pj_scan_get               004c2880 f   pjlib-util-i386-win32-vc8-debug-dynamic:scanner.obj
 0002:0006f980       _pj_scan_get_char          004c2980 f   pjlib-util-i386-win32-vc8-debug-dynamic:scanner.obj
 0002:0006fa00       _pj_scan_get_n             004c2a00 f   pjlib-util-i386-win32-vc8-debug-dynamic:scanner.obj
 0002:0006faa0       _pj_scan_get_newline       004c2aa0 f   pjlib-util-i386-win32-vc8-debug-dynamic:scanner.obj
 0002:0006fb60       _pj_scan_get_quote         004c2b60 f   pjlib-util-i386-win32-vc8-debug-dynamic:scanner.obj
 0002:0006fbb0       _pj_scan_get_quotes        004c2bb0 f   pjlib-util-i386-win32-vc8-debug-dynamic:scanner.obj
 0002:0006fdd0       _pj_scan_get_unescape      004c2dd0 f   pjlib-util-i386-win32-vc8-debug-dynamic:scanner.obj
 0002:00070080       _pj_scan_get_until         004c3080 f   pjlib-util-i386-win32-vc8-debug-dynamic:scanner.obj
 0002:00070150       _pj_scan_get_until_ch      004c3150 f   pjlib-util-i386-win32-vc8-debug-dynamic:scanner.obj
 0002:00070210       _pj_scan_get_until_chr     004c3210 f   pjlib-util-i386-win32-vc8-debug-dynamic:scanner.obj
 0002:00070300       _pj_scan_init              004c3300 f   pjlib-util-i386-win32-vc8-debug-dynamic:scanner.obj
 0002:000703a0       _pj_scan_peek              004c33a0 f   pjlib-util-i386-win32-vc8-debug-dynamic:scanner.obj
 0002:00070440       _pj_scan_peek_n            004c3440 f   pjlib-util-i386-win32-vc8-debug-dynamic:scanner.obj
 0002:000704b0       _pj_scan_peek_until        004c34b0 f   pjlib-util-i386-win32-vc8-debug-dynamic:scanner.obj
 0002:00070550       _pj_scan_restore_state     004c3550 f   pjlib-util-i386-win32-vc8-debug-dynamic:scanner.obj
 0002:00070590       _pj_scan_save_state        004c3590 f   pjlib-util-i386-win32-vc8-debug-dynamic:scanner.obj
 0002:000705d0       _pj_scan_skip_line         004c35d0 f   pjlib-util-i386-win32-vc8-debug-dynamic:scanner.obj
 0002:00070650       _pj_scan_skip_whitespace   004c3650 f   pjlib-util-i386-win32-vc8-debug-dynamic:scanner.obj
 0002:000708b0       _pj_scan_strcmp            004c38b0 f   pjlib-util-i386-win32-vc8-debug-dynamic:scanner.obj
 0002:00070910       _pj_scan_stricmp           004c3910 f   pjlib-util-i386-win32-vc8-debug-dynamic:scanner.obj
 0002:00070970       _pj_scan_stricmp_alnum     004c3970 f   pjlib-util-i386-win32-vc8-debug-dynamic:scanner.obj
 0002:00070b30       _pj_str_unescape           004c3b30 f   pjlib-util-i386-win32-vc8-debug-dynamic:string.obj
 0002:00070ce0       _pj_strcpy_unescape        004c3ce0 f   pjlib-util-i386-win32-vc8-debug-dynamic:string.obj
 0002:00070dd0       _pj_strncpy2_escape        004c3dd0 f   pjlib-util-i386-win32-vc8-debug-dynamic:string.obj
 0002:00070f10       _pj_strncpy_escape         004c3f10 f   pjlib-util-i386-win32-vc8-debug-dynamic:string.obj
 0002:00071f20       _pj_dns_parse_a_response   004c4f20 f   pjlib-util-i386-win32-vc8-debug-dynamic:resolver.obj
 0002:000723a0       _pj_dns_parse_addr_response 004c53a0 f   pjlib-util-i386-win32-vc8-debug-dynamic:resolver.obj
 0002:00072900       _pj_dns_resolver_add_entry 004c5900 f   pjlib-util-i386-win32-vc8-debug-dynamic:resolver.obj
 0002:00072c70       _pj_dns_resolver_cancel_query 004c5c70 f   pjlib-util-i386-win32-vc8-debug-dynamic:resolver.obj
 0002:00072d70       _pj_dns_resolver_create    004c5d70 f   pjlib-util-i386-win32-vc8-debug-dynamic:resolver.obj
 0002:00073040       _pj_dns_resolver_destroy   004c6040 f   pjlib-util-i386-win32-vc8-debug-dynamic:resolver.obj
 0002:000732f0       _pj_dns_resolver_dump      004c62f0 f   pjlib-util-i386-win32-vc8-debug-dynamic:resolver.obj
 0002:00073760       _pj_dns_resolver_get_cached_count 004c6760 f   pjlib-util-i386-win32-vc8-debug-dynamic:resolver.obj
 0002:00073800       _pj_dns_resolver_get_settings 004c6800 f   pjlib-util-i386-win32-vc8-debug-dynamic:resolver.obj
 0002:000738b0       _pj_dns_resolver_handle_events 004c68b0 f   pjlib-util-i386-win32-vc8-debug-dynamic:resolver.obj
 0002:00073950       _pj_dns_resolver_set_ns    004c6950 f   pjlib-util-i386-win32-vc8-debug-dynamic:resolver.obj
 0002:00073bd0       _pj_dns_resolver_set_settings 004c6bd0 f   pjlib-util-i386-win32-vc8-debug-dynamic:resolver.obj
 0002:00073c80       _pj_dns_resolver_start_query 004c6c80 f   pjlib-util-i386-win32-vc8-debug-dynamic:resolver.obj
 0002:00074340       _pj_dns_settings_default   004c7340 f   pjlib-util-i386-win32-vc8-debug-dynamic:resolver.obj
 0002:00076910       _pj_md5_final              004c9910 f   pjlib-util-i386-win32-vc8-debug-dynamic:md5.obj
 0002:00076a80       _pj_md5_init               004c9a80 f   pjlib-util-i386-win32-vc8-debug-dynamic:md5.obj
 0002:00076b20       _pj_md5_update             004c9b20 f   pjlib-util-i386-win32-vc8-debug-dynamic:md5.obj
 0002:00077b50       _pj_dns_get_type_name      004cab50 f   pjlib-util-i386-win32-vc8-debug-dynamic:dns.obj
 0002:00077c50       _pj_dns_init_a_rr          004cac50 f   pjlib-util-i386-win32-vc8-debug-dynamic:dns.obj
 0002:00077cc0       _pj_dns_init_aaaa_rr       004cacc0 f   pjlib-util-i386-win32-vc8-debug-dynamic:dns.obj
 0002:00077d50       _pj_dns_init_cname_rr      004cad50 f   pjlib-util-i386-win32-vc8-debug-dynamic:dns.obj
 0002:00077dd0       _pj_dns_init_srv_rr        004cadd0 f   pjlib-util-i386-win32-vc8-debug-dynamic:dns.obj
 0002:00077e70       _pj_dns_make_query         004cae70 f   pjlib-util-i386-win32-vc8-debug-dynamic:dns.obj
 0002:000780f0       _pj_dns_packet_dup         004cb0f0 f   pjlib-util-i386-win32-vc8-debug-dynamic:dns.obj
 0002:00078540       _pj_dns_parse_packet       004cb540 f   pjlib-util-i386-win32-vc8-debug-dynamic:dns.obj
 0002:0007a760       _pj_dns_srv_cancel_query   004cd760 f   pjlib-util-i386-win32-vc8-debug-dynamic:srv_resolver.obj
 0002:0007a8d0       _pj_dns_srv_resolve        004cd8d0 f   pjlib-util-i386-win32-vc8-debug-dynamic:srv_resolver.obj
 0002:0007b020       _pj_base64_decode          004ce020 f   pjlib-util-i386-win32-vc8-debug-dynamic:base64.obj
 0002:0007b390       _pj_base64_encode          004ce390 f   pjlib-util-i386-win32-vc8-debug-dynamic:base64.obj
 0002:0007b720       _pj_atexit                 004ce720 f   pjlib-i386-win32-vc8-debug-dynamic:os_core_win32.obj
 0002:0007b770       _pj_atomic_add             004ce770 f   pjlib-i386-win32-vc8-debug-dynamic:os_core_win32.obj
 0002:0007b7d0       _pj_atomic_add_and_get     004ce7d0 f   pjlib-i386-win32-vc8-debug-dynamic:os_core_win32.obj
 0002:0007b800       _pj_atomic_create          004ce800 f   pjlib-i386-win32-vc8-debug-dynamic:os_core_win32.obj
 0002:0007b850       _pj_atomic_dec             004ce850 f   pjlib-i386-win32-vc8-debug-dynamic:os_core_win32.obj
 0002:0007b8b0       _pj_atomic_dec_and_get     004ce8b0 f   pjlib-i386-win32-vc8-debug-dynamic:os_core_win32.obj
 0002:0007b8f0       _pj_atomic_destroy         004ce8f0 f   pjlib-i386-win32-vc8-debug-dynamic:os_core_win32.obj
 0002:0007b950       _pj_atomic_get             004ce950 f   pjlib-i386-win32-vc8-debug-dynamic:os_core_win32.obj
 0002:0007b9d0       _pj_atomic_inc             004ce9d0 f   pjlib-i386-win32-vc8-debug-dynamic:os_core_win32.obj
 0002:0007ba30       _pj_atomic_inc_and_get     004cea30 f   pjlib-i386-win32-vc8-debug-dynamic:os_core_win32.obj
 0002:0007ba80       _pj_atomic_set             004cea80 f   pjlib-i386-win32-vc8-debug-dynamic:os_core_win32.obj
 0002:0007bbb0       _pj_enter_critical_section 004cebb0 f   pjlib-i386-win32-vc8-debug-dynamic:os_core_win32.obj
 0002:0007bbe0       _pj_event_create           004cebe0 f   pjlib-i386-win32-vc8-debug-dynamic:os_core_win32.obj
 0002:0007bdd0       _pj_event_destroy          004cedd0 f   pjlib-i386-win32-vc8-debug-dynamic:os_core_win32.obj
 0002:0007bec0       _pj_event_pulse            004ceec0 f   pjlib-i386-win32-vc8-debug-dynamic:os_core_win32.obj
 0002:0007bfb0       _pj_event_reset            004cefb0 f   pjlib-i386-win32-vc8-debug-dynamic:os_core_win32.obj
 0002:0007c0a0       _pj_event_set              004cf0a0 f   pjlib-i386-win32-vc8-debug-dynamic:os_core_win32.obj
 0002:0007c190       _pj_event_trywait          004cf190 f   pjlib-i386-win32-vc8-debug-dynamic:os_core_win32.obj
 0002:0007c200       _pj_event_wait             004cf200 f   pjlib-i386-win32-vc8-debug-dynamic:os_core_win32.obj
 0002:0007c3a0       _pj_getpid                 004cf3a0 f   pjlib-i386-win32-vc8-debug-dynamic:os_core_win32.obj
 0002:0007c3e0       _pj_init                   004cf3e0 f   pjlib-i386-win32-vc8-debug-dynamic:os_core_win32.obj
 0002:0007c650       _pj_leave_critical_section 004cf650 f   pjlib-i386-win32-vc8-debug-dynamic:os_core_win32.obj
 0002:0007c680       _pj_mutex_create           004cf680 f   pjlib-i386-win32-vc8-debug-dynamic:os_core_win32.obj
 0002:0007c740       _pj_mutex_create_recursive 004cf740 f   pjlib-i386-win32-vc8-debug-dynamic:os_core_win32.obj
 0002:0007c770       _pj_mutex_create_simple    004cf770 f   pjlib-i386-win32-vc8-debug-dynamic:os_core_win32.obj
 0002:0007c7a0       _pj_mutex_destroy          004cf7a0 f   pjlib-i386-win32-vc8-debug-dynamic:os_core_win32.obj
 0002:0007c830       _pj_mutex_is_locked        004cf830 f   pjlib-i386-win32-vc8-debug-dynamic:os_core_win32.obj
 0002:0007c870       _pj_mutex_lock             004cf870 f   pjlib-i386-win32-vc8-debug-dynamic:os_core_win32.obj
 0002:0007c940       _pj_mutex_trylock          004cf940 f   pjlib-i386-win32-vc8-debug-dynamic:os_core_win32.obj
 0002:0007ca30       _pj_mutex_unlock           004cfa30 f   pjlib-i386-win32-vc8-debug-dynamic:os_core_win32.obj
 0002:0007cb30       _pj_run_app                004cfb30 f   pjlib-i386-win32-vc8-debug-dynamic:os_core_win32.obj
 0002:0007cb60       _pj_rwmutex_create         004cfb60 f   pjlib-i386-win32-vc8-debug-dynamic:os_core_win32.obj
 0002:0007cc70       _pj_rwmutex_destroy        004cfc70 f   pjlib-i386-win32-vc8-debug-dynamic:os_core_win32.obj
 0002:0007ccf0       _pj_rwmutex_lock_read      004cfcf0 f   pjlib-i386-win32-vc8-debug-dynamic:os_core_win32.obj
 0002:0007ce20       _pj_rwmutex_lock_write     004cfe20 f   pjlib-i386-win32-vc8-debug-dynamic:os_core_win32.obj
 0002:0007ce90       _pj_rwmutex_unlock_read    004cfe90 f   pjlib-i386-win32-vc8-debug-dynamic:os_core_win32.obj
 0002:0007cfc0       _pj_rwmutex_unlock_write   004cffc0 f   pjlib-i386-win32-vc8-debug-dynamic:os_core_win32.obj
 0002:0007d060       _pj_sem_create             004d0060 f   pjlib-i386-win32-vc8-debug-dynamic:os_core_win32.obj
 0002:0007d200       _pj_sem_destroy            004d0200 f   pjlib-i386-win32-vc8-debug-dynamic:os_core_win32.obj
 0002:0007d2f0       _pj_sem_post               004d02f0 f   pjlib-i386-win32-vc8-debug-dynamic:os_core_win32.obj
 0002:0007d3e0       _pj_sem_trywait            004d03e0 f   pjlib-i386-win32-vc8-debug-dynamic:os_core_win32.obj
 0002:0007d460       _pj_sem_wait               004d0460 f   pjlib-i386-win32-vc8-debug-dynamic:os_core_win32.obj
 0002:0007d610       _pj_shutdown               004d0610 f   pjlib-i386-win32-vc8-debug-dynamic:os_core_win32.obj
 0002:0007d7a0       _pj_term_get_color         004d07a0 f   pjlib-i386-win32-vc8-debug-dynamic:os_core_win32.obj
 0002:0007d810       _pj_term_set_color         004d0810 f   pjlib-i386-win32-vc8-debug-dynamic:os_core_win32.obj
 0002:0007d8e0       _pj_thread_check_stack     004d08e0 f   pjlib-i386-win32-vc8-debug-dynamic:os_core_win32.obj
 0002:0007d9e0       _pj_thread_create          004d09e0 f   pjlib-i386-win32-vc8-debug-dynamic:os_core_win32.obj
 0002:0007dc20       _pj_thread_destroy         004d0c20 f   pjlib-i386-win32-vc8-debug-dynamic:os_core_win32.obj
 0002:0007dd10       _pj_thread_get_name        004d0d10 f   pjlib-i386-win32-vc8-debug-dynamic:os_core_win32.obj
 0002:0007dd90       _pj_thread_get_os_handle   004d0d90 f   pjlib-i386-win32-vc8-debug-dynamic:os_core_win32.obj
 0002:0007ddf0       _pj_thread_get_prio        004d0df0 f   pjlib-i386-win32-vc8-debug-dynamic:os_core_win32.obj
 0002:0007de20       _pj_thread_get_prio_max    004d0e20 f   pjlib-i386-win32-vc8-debug-dynamic:os_core_win32.obj
 0002:0007de40       _pj_thread_get_prio_min    004d0e40 f   pjlib-i386-win32-vc8-debug-dynamic:os_core_win32.obj
 0002:0007de60       _pj_thread_get_stack_info  004d0e60 f   pjlib-i386-win32-vc8-debug-dynamic:os_core_win32.obj
 0002:0007dec0       _pj_thread_get_stack_max_usage 004d0ec0 f   pjlib-i386-win32-vc8-debug-dynamic:os_core_win32.obj
 0002:0007dee0       _pj_thread_init            004d0ee0 f   pjlib-i386-win32-vc8-debug-dynamic:os_core_win32.obj
 0002:0007df40       _pj_thread_is_registered   004d0f40 f   pjlib-i386-win32-vc8-debug-dynamic:os_core_win32.obj
 0002:0007df90       _pj_thread_join            004d0f90 f   pjlib-i386-win32-vc8-debug-dynamic:os_core_win32.obj
 0002:0007e0c0       _pj_thread_local_alloc     004d10c0 f   pjlib-i386-win32-vc8-debug-dynamic:os_core_win32.obj
 0002:0007e180       _pj_thread_local_free      004d1180 f   pjlib-i386-win32-vc8-debug-dynamic:os_core_win32.obj
 0002:0007e1c0       _pj_thread_local_get       004d11c0 f   pjlib-i386-win32-vc8-debug-dynamic:os_core_win32.obj
 0002:0007e1e0       _pj_thread_local_set       004d11e0 f   pjlib-i386-win32-vc8-debug-dynamic:os_core_win32.obj
 0002:0007e270       _pj_thread_register        004d1270 f   pjlib-i386-win32-vc8-debug-dynamic:os_core_win32.obj
 0002:0007e3e0       _pj_thread_resume          004d13e0 f   pjlib-i386-win32-vc8-debug-dynamic:os_core_win32.obj
 0002:0007e4d0       _pj_thread_set_prio        004d14d0 f   pjlib-i386-win32-vc8-debug-dynamic:os_core_win32.obj
 0002:0007e5f0       _pj_thread_sleep           004d15f0 f   pjlib-i386-win32-vc8-debug-dynamic:os_core_win32.obj
 0002:0007e630       _pj_thread_this            004d1630 f   pjlib-i386-win32-vc8-debug-dynamic:os_core_win32.obj
 0002:0007e790       _pj_time_val_normalize     004d1790 f   pjlib-i386-win32-vc8-debug-dynamic:types.obj
 0002:0007e950       _pj_errno_clear_handlers   004d1950 f   pjlib-i386-win32-vc8-debug-dynamic:errno.obj
 0002:0007e9c0       _pj_perror                 004d19c0 f   pjlib-i386-win32-vc8-debug-dynamic:errno.obj
 0002:0007ea10       _pj_perror_1               004d1a10 f   pjlib-i386-win32-vc8-debug-dynamic:errno.obj
 0002:0007ea60       _pj_perror_2               004d1a60 f   pjlib-i386-win32-vc8-debug-dynamic:errno.obj
 0002:0007eab0       _pj_perror_3               004d1ab0 f   pjlib-i386-win32-vc8-debug-dynamic:errno.obj
 0002:0007eb00       _pj_perror_4               004d1b00 f   pjlib-i386-win32-vc8-debug-dynamic:errno.obj
 0002:0007eb50       _pj_perror_5               004d1b50 f   pjlib-i386-win32-vc8-debug-dynamic:errno.obj
 0002:0007ec70       _pj_register_strerror      004d1c70 f   pjlib-i386-win32-vc8-debug-dynamic:errno.obj
 0002:0007eeb0       _pj_strerror               004d1eb0 f   pjlib-i386-win32-vc8-debug-dynamic:errno.obj
 0002:0007f1d0       _pj_gethostname            004d21d0 f   pjlib-i386-win32-vc8-debug-dynamic:sock_bsd.obj
 0002:0007f280       _pj_htonl                  004d2280 f   pjlib-i386-win32-vc8-debug-dynamic:sock_bsd.obj
 0002:0007f2a0       _pj_htons                  004d22a0 f   pjlib-i386-win32-vc8-debug-dynamic:sock_bsd.obj
 0002:0007f2d0       _pj_inet_aton              004d22d0 f   pjlib-i386-win32-vc8-debug-dynamic:sock_bsd.obj
 0002:0007f400       _pj_inet_ntoa              004d2400 f   pjlib-i386-win32-vc8-debug-dynamic:sock_bsd.obj
 0002:0007f440       _pj_inet_ntop              004d2440 f   pjlib-i386-win32-vc8-debug-dynamic:sock_bsd.obj
 0002:0007f690       _pj_inet_pton              004d2690 f   pjlib-i386-win32-vc8-debug-dynamic:sock_bsd.obj
 0002:0007f950       _pj_ntohl                  004d2950 f   pjlib-i386-win32-vc8-debug-dynamic:sock_bsd.obj
 0002:0007f970       _pj_ntohs                  004d2970 f   pjlib-i386-win32-vc8-debug-dynamic:sock_bsd.obj
 0002:0007f9a0       _pj_sock_accept            004d29a0 f   pjlib-i386-win32-vc8-debug-dynamic:sock_bsd.obj
 0002:0007fa90       _pj_sock_bind              004d2a90 f   pjlib-i386-win32-vc8-debug-dynamic:sock_bsd.obj
 0002:0007fb80       _pj_sock_bind_in           004d2b80 f   pjlib-i386-win32-vc8-debug-dynamic:sock_bsd.obj
 0002:0007fc30       _pj_sock_close             004d2c30 f   pjlib-i386-win32-vc8-debug-dynamic:sock_bsd.obj
 0002:0007fcd0       _pj_sock_connect           004d2cd0 f   pjlib-i386-win32-vc8-debug-dynamic:sock_bsd.obj
 0002:0007fd70       _pj_sock_getpeername       004d2d70 f   pjlib-i386-win32-vc8-debug-dynamic:sock_bsd.obj
 0002:0007fe10       _pj_sock_getsockname       004d2e10 f   pjlib-i386-win32-vc8-debug-dynamic:sock_bsd.obj
 0002:0007feb0       _pj_sock_getsockopt        004d2eb0 f   pjlib-i386-win32-vc8-debug-dynamic:sock_bsd.obj
 0002:0007ffb0       _pj_sock_listen            004d2fb0 f   pjlib-i386-win32-vc8-debug-dynamic:sock_bsd.obj
 0002:00080050       _pj_sock_recv              004d3050 f   pjlib-i386-win32-vc8-debug-dynamic:sock_bsd.obj
 0002:00080150       _pj_sock_recvfrom          004d3150 f   pjlib-i386-win32-vc8-debug-dynamic:sock_bsd.obj
 0002:00080260       _pj_sock_send              004d3260 f   pjlib-i386-win32-vc8-debug-dynamic:sock_bsd.obj
 0002:00080360       _pj_sock_sendto            004d3360 f   pjlib-i386-win32-vc8-debug-dynamic:sock_bsd.obj
 0002:00080460       _pj_sock_setsockopt        004d3460 f   pjlib-i386-win32-vc8-debug-dynamic:sock_bsd.obj
 0002:00080540       _pj_sock_setsockopt_params 004d3540 f   pjlib-i386-win32-vc8-debug-dynamic:sock_bsd.obj
 0002:000806a0       _pj_sock_shutdown          004d36a0 f   pjlib-i386-win32-vc8-debug-dynamic:sock_bsd.obj
 0002:00080740       _pj_sock_socket            004d3740 f   pjlib-i386-win32-vc8-debug-dynamic:sock_bsd.obj
 0002:000808b0       _pj_addr_str_print         004d38b0 f   pjlib-i386-win32-vc8-debug-dynamic:sock_common.obj
 0002:00080a00       _pj_getdefaultipinterface  004d3a00 f   pjlib-i386-win32-vc8-debug-dynamic:sock_common.obj
 0002:00080a80       _pj_gethostaddr            004d3a80 f   pjlib-i386-win32-vc8-debug-dynamic:sock_common.obj
 0002:00080ad0       _pj_gethostip              004d3ad0 f   pjlib-i386-win32-vc8-debug-dynamic:sock_common.obj
 0002:000817c0       _pj_getipinterface         004d47c0 f   pjlib-i386-win32-vc8-debug-dynamic:sock_common.obj
 0002:00081a10       _pj_inet_addr              004d4a10 f   pjlib-i386-win32-vc8-debug-dynamic:sock_common.obj
 0002:00081a40       _pj_inet_addr2             004d4a40 f   pjlib-i386-win32-vc8-debug-dynamic:sock_common.obj
 0002:00081a80       _pj_inet_ntop2             004d4a80 f   pjlib-i386-win32-vc8-debug-dynamic:sock_common.obj
 0002:00081b70       _pj_sock_bind_random       004d4b70 f   pjlib-i386-win32-vc8-debug-dynamic:sock_common.obj
 0002:00081cf0       _pj_sock_setsockopt_sobuf  004d4cf0 f   pjlib-i386-win32-vc8-debug-dynamic:sock_common.obj
 0002:00081f20       _pj_sockaddr_cmp           004d4f20 f   pjlib-i386-win32-vc8-debug-dynamic:sock_common.obj
 0002:00082030       _pj_sockaddr_copy_addr     004d5030 f   pjlib-i386-win32-vc8-debug-dynamic:sock_common.obj
 0002:00082090       _pj_sockaddr_cp            004d5090 f   pjlib-i386-win32-vc8-debug-dynamic:sock_common.obj
 0002:000820d0       _pj_sockaddr_get_addr      004d50d0 f   pjlib-i386-win32-vc8-debug-dynamic:sock_common.obj
 0002:000821a0       _pj_sockaddr_get_addr_len  004d51a0 f   pjlib-i386-win32-vc8-debug-dynamic:sock_common.obj
 0002:00082270       _pj_sockaddr_get_len       004d5270 f   pjlib-i386-win32-vc8-debug-dynamic:sock_common.obj
 0002:00082340       _pj_sockaddr_get_port      004d5340 f   pjlib-i386-win32-vc8-debug-dynamic:sock_common.obj
 0002:00082430       _pj_sockaddr_has_addr      004d5430 f   pjlib-i386-win32-vc8-debug-dynamic:sock_common.obj
 0002:00082520       _pj_sockaddr_in_get_addr   004d5520 f   pjlib-i386-win32-vc8-debug-dynamic:sock_common.obj
 0002:00082550       _pj_sockaddr_in_get_port   004d5550 f   pjlib-i386-win32-vc8-debug-dynamic:sock_common.obj
 0002:00082580       _pj_sockaddr_in_init       004d5580 f   pjlib-i386-win32-vc8-debug-dynamic:sock_common.obj
 0002:00082630       _pj_sockaddr_in_set_addr   004d5630 f   pjlib-i386-win32-vc8-debug-dynamic:sock_common.obj
 0002:00082660       _pj_sockaddr_in_set_port   004d5660 f   pjlib-i386-win32-vc8-debug-dynamic:sock_common.obj
 0002:00082690       _pj_sockaddr_in_set_str_addr 004d5690 f   pjlib-i386-win32-vc8-debug-dynamic:sock_common.obj
 0002:00082830       _pj_sockaddr_init          004d5830 f   pjlib-i386-win32-vc8-debug-dynamic:sock_common.obj
 0002:00082930       _pj_sockaddr_parse         004d5930 f   pjlib-i386-win32-vc8-debug-dynamic:sock_common.obj
 0002:00082ad0       _pj_sockaddr_parse2        004d5ad0 f   pjlib-i386-win32-vc8-debug-dynamic:sock_common.obj
 0002:00082f70       _pj_sockaddr_print         004d5f70 f   pjlib-i386-win32-vc8-debug-dynamic:sock_common.obj
 0002:000830d0       _pj_sockaddr_set_port      004d60d0 f   pjlib-i386-win32-vc8-debug-dynamic:sock_common.obj
 0002:000831b0       _pj_sockaddr_set_str_addr  004d61b0 f   pjlib-i386-win32-vc8-debug-dynamic:sock_common.obj
 0002:00083330       _pj_sockaddr_synthesize    004d6330 f   pjlib-i386-win32-vc8-debug-dynamic:sock_common.obj
 0002:00083500       _pj_NO_MEMORY_EXCEPTION    004d6500 f   pjlib-i386-win32-vc8-debug-dynamic:pool.obj
 0002:00083580       _pj_pool_alloc             004d6580 f   pjlib-i386-win32-vc8-debug-dynamic:pool.obj
 0002:000835e0       _pj_pool_alloc_from_block  004d65e0 f   pjlib-i386-win32-vc8-debug-dynamic:pool.obj
 0002:00083650       _pj_pool_allocate_find     004d6650 f   pjlib-i386-win32-vc8-debug-dynamic:pool.obj
 0002:000837d0       _pj_pool_calloc            004d67d0 f   pjlib-i386-win32-vc8-debug-dynamic:pool.obj
 0002:00083830       _pj_pool_create            004d6830 f   pjlib-i386-win32-vc8-debug-dynamic:pool.obj
 0002:00083990       _pj_pool_create_int        004d6990 f   pjlib-i386-win32-vc8-debug-dynamic:pool.obj
 0002:00083b10       _pj_pool_destroy_int       004d6b10 f   pjlib-i386-win32-vc8-debug-dynamic:pool.obj
 0002:00083b90       _pj_pool_get_capacity      004d6b90 f   pjlib-i386-win32-vc8-debug-dynamic:pool.obj
 0002:00083bb0       _pj_pool_get_used_size     004d6bb0 f   pjlib-i386-win32-vc8-debug-dynamic:pool.obj
 0002:00083c20       _pj_pool_getobjname        004d6c20 f   pjlib-i386-win32-vc8-debug-dynamic:pool.obj
 0002:00083c40       _pj_pool_init_int          004d6c40 f   pjlib-i386-win32-vc8-debug-dynamic:pool.obj
 0002:00083d10       _pj_pool_release           004d6d10 f   pjlib-i386-win32-vc8-debug-dynamic:pool.obj
 0002:00083d60       _pj_pool_reset             004d6d60 f   pjlib-i386-win32-vc8-debug-dynamic:pool.obj
 0002:00083d90       _pj_pool_safe_release      004d6d90 f   pjlib-i386-win32-vc8-debug-dynamic:pool.obj
 0002:000845f0       _pj_caching_pool_destroy   004d75f0 f   pjlib-i386-win32-vc8-debug-dynamic:pool_caching.obj
 0002:00084760       _pj_caching_pool_init      004d7760 f   pjlib-i386-win32-vc8-debug-dynamic:pool_caching.obj
 0002:00084950       _pj_create_random_string   004d7950 f   pjlib-i386-win32-vc8-debug-dynamic:string.obj
 0002:00084c20       _pj_str                    004d7c20 f   pjlib-i386-win32-vc8-debug-dynamic:string.obj
 0002:00084c70       _pj_strassign              004d7c70 f   pjlib-i386-win32-vc8-debug-dynamic:string.obj
 0002:00084cb0       _pj_strcat                 004d7cb0 f   pjlib-i386-win32-vc8-debug-dynamic:string.obj
 0002:00084d10       _pj_strcat2                004d7d10 f   pjlib-i386-win32-vc8-debug-dynamic:string.obj
 0002:00084d90       _pj_strcmp                 004d7d90 f   pjlib-i386-win32-vc8-debug-dynamic:string.obj
 0002:00084eb0       _pj_strcmp2                004d7eb0 f   pjlib-i386-win32-vc8-debug-dynamic:string.obj
 0002:00084f10       _pj_strcpy                 004d7f10 f   pjlib-i386-win32-vc8-debug-dynamic:string.obj
 0002:00084f70       _pj_strcpy2                004d7f70 f   pjlib-i386-win32-vc8-debug-dynamic:string.obj
 0002:00084ff0       _pj_strcspn                004d7ff0 f   pjlib-i386-win32-vc8-debug-dynamic:string.obj
 0002:00085080       _pj_strcspn2               004d8080 f   pjlib-i386-win32-vc8-debug-dynamic:string.obj
 0002:00085110       _pj_strdup                 004d8110 f   pjlib-i386-win32-vc8-debug-dynamic:string.obj
 0002:000851a0       _pj_strdup2                004d81a0 f   pjlib-i386-win32-vc8-debug-dynamic:string.obj
 0002:00085240       _pj_strdup2_with_null      004d8240 f   pjlib-i386-win32-vc8-debug-dynamic:string.obj
 0002:000852f0       _pj_strdup3                004d82f0 f   pjlib-i386-win32-vc8-debug-dynamic:string.obj
 0002:00085330       _pj_strdup_with_null       004d8330 f   pjlib-i386-win32-vc8-debug-dynamic:string.obj
 0002:000853c0       _pj_stricmp                004d83c0 f   pjlib-i386-win32-vc8-debug-dynamic:string.obj
 0002:000854e0       _pj_stricmp2               004d84e0 f   pjlib-i386-win32-vc8-debug-dynamic:string.obj
 0002:00085540       _pj_stristr                004d8540 f   pjlib-i386-win32-vc8-debug-dynamic:string.obj
 0002:000855e0       _pj_strltrim               004d85e0 f   pjlib-i386-win32-vc8-debug-dynamic:string.obj
 0002:00085670       _pj_strncmp                004d8670 f   pjlib-i386-win32-vc8-debug-dynamic:string.obj
 0002:000856f0       _pj_strncmp2               004d86f0 f   pjlib-i386-win32-vc8-debug-dynamic:string.obj
 0002:00085750       _pj_strncpy                004d8750 f   pjlib-i386-win32-vc8-debug-dynamic:string.obj
 0002:000857e0       _pj_strncpy_with_null      004d87e0 f   pjlib-i386-win32-vc8-debug-dynamic:string.obj
 0002:00085890       _pj_strnicmp               004d8890 f   pjlib-i386-win32-vc8-debug-dynamic:string.obj
 0002:00085910       _pj_strnicmp2              004d8910 f   pjlib-i386-win32-vc8-debug-dynamic:string.obj
 0002:00085970       _pj_strrtrim               004d8970 f   pjlib-i386-win32-vc8-debug-dynamic:string.obj
 0002:00085a00       _pj_strspn                 004d8a00 f   pjlib-i386-win32-vc8-debug-dynamic:string.obj
 0002:00085ab0       _pj_strspn2                004d8ab0 f   pjlib-i386-win32-vc8-debug-dynamic:string.obj
 0002:00085b60       _pj_strstr                 004d8b60 f   pjlib-i386-win32-vc8-debug-dynamic:string.obj
 0002:00085c00       _pj_strtof                 004d8c00 f   pjlib-i386-win32-vc8-debug-dynamic:string.obj
 0002:00085dd0       _pj_strtok                 004d8dd0 f   pjlib-i386-win32-vc8-debug-dynamic:string.obj
 0002:00085eb0       _pj_strtok2                004d8eb0 f   pjlib-i386-win32-vc8-debug-dynamic:string.obj
 0002:00085f90       _pj_strtol                 004d8f90 f   pjlib-i386-win32-vc8-debug-dynamic:string.obj
 0002:00086090       _pj_strtol2                004d9090 f   pjlib-i386-win32-vc8-debug-dynamic:string.obj
 0002:000862a0       _pj_strtoul                004d92a0 f   pjlib-i386-win32-vc8-debug-dynamic:string.obj
 0002:00086350       _pj_strtoul2               004d9350 f   pjlib-i386-win32-vc8-debug-dynamic:string.obj
 0002:000864e0       _pj_strtoul3               004d94e0 f   pjlib-i386-win32-vc8-debug-dynamic:string.obj
 0002:000867e0       _pj_strtrim                004d97e0 f   pjlib-i386-win32-vc8-debug-dynamic:string.obj
 0002:00086820       _pj_utoa                   004d9820 f   pjlib-i386-win32-vc8-debug-dynamic:string.obj
 0002:00086850       _pj_utoa_pad               004d9850 f   pjlib-i386-win32-vc8-debug-dynamic:string.obj
 0002:00086ab0       _pj_gettimeofday           004d9ab0 f   pjlib-i386-win32-vc8-debug-dynamic:os_time_win32.obj
 0002:00086b90       _pj_time_decode            004d9b90 f   pjlib-i386-win32-vc8-debug-dynamic:os_time_win32.obj
 0002:00086ca0       _pj_time_encode            004d9ca0 f   pjlib-i386-win32-vc8-debug-dynamic:os_time_win32.obj
 0002:00086dc0       _pj_get_timestamp          004d9dc0 f   pjlib-i386-win32-vc8-debug-dynamic:os_timestamp_win32.obj
 0002:00086e50       _pj_get_timestamp_freq     004d9e50 f   pjlib-i386-win32-vc8-debug-dynamic:os_timestamp_win32.obj
 0002:00086ee0       _pj_log_write              004d9ee0 f   pjlib-i386-win32-vc8-debug-dynamic:log_writer_stdout.obj
 0002:00087160       _pj_log                    004da160 f   pjlib-i386-win32-vc8-debug-dynamic:log.obj
 0002:00087a10       _pj_log_1                  004daa10 f   pjlib-i386-win32-vc8-debug-dynamic:log.obj
 0002:00087a50       _pj_log_2                  004daa50 f   pjlib-i386-win32-vc8-debug-dynamic:log.obj
 0002:00087a90       _pj_log_3                  004daa90 f   pjlib-i386-win32-vc8-debug-dynamic:log.obj
 0002:00087ad0       _pj_log_4                  004daad0 f   pjlib-i386-win32-vc8-debug-dynamic:log.obj
 0002:00087b10       _pj_log_5                  004dab10 f   pjlib-i386-win32-vc8-debug-dynamic:log.obj
 0002:00087b50       _pj_log_add_indent         004dab50 f   pjlib-i386-win32-vc8-debug-dynamic:log.obj
 0002:00087b80       _pj_log_get_color          004dab80 f   pjlib-i386-win32-vc8-debug-dynamic:log.obj
 0002:00087c20       _pj_log_get_decor          004dac20 f   pjlib-i386-win32-vc8-debug-dynamic:log.obj
 0002:00087c40       _pj_log_get_level          004dac40 f   pjlib-i386-win32-vc8-debug-dynamic:log.obj
 0002:00087c60       _pj_log_get_log_func       004dac60 f   pjlib-i386-win32-vc8-debug-dynamic:log.obj
 0002:00087c80       _pj_log_init               004dac80 f   pjlib-i386-win32-vc8-debug-dynamic:log.obj
 0002:00087d20       _pj_log_pop_indent         004dad20 f   pjlib-i386-win32-vc8-debug-dynamic:log.obj
 0002:00087d40       _pj_log_push_indent        004dad40 f   pjlib-i386-win32-vc8-debug-dynamic:log.obj
 0002:00087d60       _pj_log_set_color          004dad60 f   pjlib-i386-win32-vc8-debug-dynamic:log.obj
 0002:00087e90       _pj_log_set_decor          004dae90 f   pjlib-i386-win32-vc8-debug-dynamic:log.obj
 0002:00087eb0       _pj_log_set_level          004daeb0 f   pjlib-i386-win32-vc8-debug-dynamic:log.obj
 0002:00087ed0       _pj_log_set_log_func       004daed0 f   pjlib-i386-win32-vc8-debug-dynamic:log.obj
 0002:00087fd0       _pj_rand                   004dafd0 f   pjlib-i386-win32-vc8-debug-dynamic:rand.obj
 0002:00088010       _pj_srand                  004db010 f   pjlib-i386-win32-vc8-debug-dynamic:rand.obj
 0002:000881f0       _pj_pool_factory_get_default_policy 004db1f0 f   pjlib-i386-win32-vc8-debug-dynamic:pool_policy_malloc.obj
 0002:00088280       _pj_list_erase             004db280 f   pjlib-i386-win32-vc8-debug-dynamic:list.obj
 0002:000882c0       _pj_list_find_node         004db2c0 f   pjlib-i386-win32-vc8-debug-dynamic:list.obj
 0002:00088360       _pj_list_insert_after      004db360 f   pjlib-i386-win32-vc8-debug-dynamic:list.obj
 0002:000883b0       _pj_list_insert_before     004db3b0 f   pjlib-i386-win32-vc8-debug-dynamic:list.obj
 0002:000883e0       _pj_list_insert_nodes_after 004db3e0 f   pjlib-i386-win32-vc8-debug-dynamic:list.obj
 0002:00088440       _pj_list_insert_nodes_before 004db440 f   pjlib-i386-win32-vc8-debug-dynamic:list.obj
 0002:00088470       _pj_list_merge_first       004db470 f   pjlib-i386-win32-vc8-debug-dynamic:list.obj
 0002:000884e0       _pj_list_merge_last        004db4e0 f   pjlib-i386-win32-vc8-debug-dynamic:list.obj
 0002:00088550       _pj_list_search            004db550 f   pjlib-i386-win32-vc8-debug-dynamic:list.obj
 0002:000885c0       _pj_list_size              004db5c0 f   pjlib-i386-win32-vc8-debug-dynamic:list.obj
 0002:00088d70       _pj_grp_lock_acquire       004dbd70 f   pjlib-i386-win32-vc8-debug-dynamic:lock.obj
 0002:00088da0       _pj_grp_lock_add_handler   004dbda0 f   pjlib-i386-win32-vc8-debug-dynamic:lock.obj
 0002:00088de0       _pj_grp_lock_add_ref       004dbde0 f   pjlib-i386-win32-vc8-debug-dynamic:lock.obj
 0002:00088e10       _pj_grp_lock_chain_lock    004dbe10 f   pjlib-i386-win32-vc8-debug-dynamic:lock.obj
 0002:00088f00       _pj_grp_lock_config_default 004dbf00 f   pjlib-i386-win32-vc8-debug-dynamic:lock.obj
 0002:00088f30       _pj_grp_lock_create        004dbf30 f   pjlib-i386-win32-vc8-debug-dynamic:lock.obj
 0002:00089110       _pj_grp_lock_create_w_handler 004dc110 f   pjlib-i386-win32-vc8-debug-dynamic:lock.obj
 0002:00089170       _pj_grp_lock_dec_ref       004dc170 f   pjlib-i386-win32-vc8-debug-dynamic:lock.obj
 0002:000891a0       _pj_grp_lock_del_handler   004dc1a0 f   pjlib-i386-win32-vc8-debug-dynamic:lock.obj
 0002:00089240       _pj_grp_lock_destroy       004dc240 f   pjlib-i386-win32-vc8-debug-dynamic:lock.obj
 0002:00089270       _pj_grp_lock_dump          004dc270 f   pjlib-i386-win32-vc8-debug-dynamic:lock.obj
 0002:000892d0       _pj_grp_lock_get_ref       004dc2d0 f   pjlib-i386-win32-vc8-debug-dynamic:lock.obj
 0002:00089300       _pj_grp_lock_release       004dc300 f   pjlib-i386-win32-vc8-debug-dynamic:lock.obj
 0002:00089330       _pj_grp_lock_replace       004dc330 f   pjlib-i386-win32-vc8-debug-dynamic:lock.obj
 0002:000893e0       _pj_grp_lock_tryacquire    004dc3e0 f   pjlib-i386-win32-vc8-debug-dynamic:lock.obj
 0002:00089410       _pj_grp_lock_unchain_lock  004dc410 f   pjlib-i386-win32-vc8-debug-dynamic:lock.obj
 0002:00089540       _pj_lock_acquire           004dc540 f   pjlib-i386-win32-vc8-debug-dynamic:lock.obj
 0002:000895b0       _pj_lock_create_null_mutex 004dc5b0 f   pjlib-i386-win32-vc8-debug-dynamic:lock.obj
 0002:00089620       _pj_lock_create_recursive_mutex 004dc620 f   pjlib-i386-win32-vc8-debug-dynamic:lock.obj
 0002:00089650       _pj_lock_create_semaphore  004dc650 f   pjlib-i386-win32-vc8-debug-dynamic:lock.obj
 0002:00089740       _pj_lock_create_simple_mutex 004dc740 f   pjlib-i386-win32-vc8-debug-dynamic:lock.obj
 0002:00089770       _pj_lock_destroy           004dc770 f   pjlib-i386-win32-vc8-debug-dynamic:lock.obj
 0002:000897e0       _pj_lock_release           004dc7e0 f   pjlib-i386-win32-vc8-debug-dynamic:lock.obj
 0002:00089850       _pj_lock_tryacquire        004dc850 f   pjlib-i386-win32-vc8-debug-dynamic:lock.obj
 0002:00089920       _pj_array_erase            004dc920 f   pjlib-i386-win32-vc8-debug-dynamic:array.obj
 0002:000899b0       _pj_array_find             004dc9b0 f   pjlib-i386-win32-vc8-debug-dynamic:array.obj
 0002:00089a30       _pj_array_insert           004dca30 f   pjlib-i386-win32-vc8-debug-dynamic:array.obj
 0002:00089f70       _pj_timer_entry_init       004dcf70 f   pjlib-i386-win32-vc8-debug-dynamic:timer.obj
 0002:0008a000       _pj_timer_entry_running    004dd000 f   pjlib-i386-win32-vc8-debug-dynamic:timer.obj
 0002:0008a040       _pj_timer_heap_cancel      004dd040 f   pjlib-i386-win32-vc8-debug-dynamic:timer.obj
 0002:0008a070       _pj_timer_heap_cancel_if_active 004dd070 f   pjlib-i386-win32-vc8-debug-dynamic:timer.obj
 0002:0008a0a0       _pj_timer_heap_count       004dd0a0 f   pjlib-i386-win32-vc8-debug-dynamic:timer.obj
 0002:0008a100       _pj_timer_heap_create      004dd100 f   pjlib-i386-win32-vc8-debug-dynamic:timer.obj
 0002:0008a2b0       _pj_timer_heap_destroy     004dd2b0 f   pjlib-i386-win32-vc8-debug-dynamic:timer.obj
 0002:0008a300       _pj_timer_heap_earliest_time 004dd300 f   pjlib-i386-win32-vc8-debug-dynamic:timer.obj
 0002:0008a3a0       _pj_timer_heap_mem_size    004dd3a0 f   pjlib-i386-win32-vc8-debug-dynamic:timer.obj
 0002:0008a3c0       _pj_timer_heap_poll        004dd3c0 f   pjlib-i386-win32-vc8-debug-dynamic:timer.obj
 0002:0008a6a0       _pj_timer_heap_schedule    004dd6a0 f   pjlib-i386-win32-vc8-debug-dynamic:timer.obj
 0002:0008a6e0       _pj_timer_heap_schedule_w_grp_lock 004dd6e0 f   pjlib-i386-win32-vc8-debug-dynamic:timer.obj
 0002:0008a720       _pj_timer_heap_set_lock    004dd720 f   pjlib-i386-win32-vc8-debug-dynamic:timer.obj
 0002:0008a780       _pj_timer_heap_set_max_timed_out_per_poll 004dd780 f   pjlib-i386-win32-vc8-debug-dynamic:timer.obj
 0002:0008b310       _ioqueue_dispatch_exception_event 004de310 f   pjlib-i386-win32-vc8-debug-dynamic:ioqueue_select.obj
 0002:0008b4f0       _ioqueue_dispatch_read_event 004de4f0 f   pjlib-i386-win32-vc8-debug-dynamic:ioqueue_select.obj
 0002:0008b8f0       _ioqueue_dispatch_write_event 004de8f0 f   pjlib-i386-win32-vc8-debug-dynamic:ioqueue_select.obj
 0002:0008c1b0       _pj_ioqueue_accept         004df1b0 f   pjlib-i386-win32-vc8-debug-dynamic:ioqueue_select.obj
 0002:0008c3e0       _pj_ioqueue_connect        004df3e0 f   pjlib-i386-win32-vc8-debug-dynamic:ioqueue_select.obj
 0002:0008c560       _pj_ioqueue_create         004df560 f   pjlib-i386-win32-vc8-debug-dynamic:ioqueue_select.obj
 0002:0008c880       _pj_ioqueue_destroy        004df880 f   pjlib-i386-win32-vc8-debug-dynamic:ioqueue_select.obj
 0002:0008c9d0       _pj_ioqueue_get_user_data  004df9d0 f   pjlib-i386-win32-vc8-debug-dynamic:ioqueue_select.obj
 0002:0008ca30       _pj_ioqueue_is_pending     004dfa30 f   pjlib-i386-win32-vc8-debug-dynamic:ioqueue_select.obj
 0002:0008ca70       _pj_ioqueue_lock_key       004dfa70 f   pjlib-i386-win32-vc8-debug-dynamic:ioqueue_select.obj
 0002:0008cac0       _pj_ioqueue_name           004dfac0 f   pjlib-i386-win32-vc8-debug-dynamic:ioqueue_select.obj
 0002:0008cae0       _pj_ioqueue_op_key_init    004dfae0 f   pjlib-i386-win32-vc8-debug-dynamic:ioqueue_select.obj
 0002:0008cb10       _pj_ioqueue_poll           004dfb10 f   pjlib-i386-win32-vc8-debug-dynamic:ioqueue_select.obj
 0002:0008d240       _pj_ioqueue_post_completion 004e0240 f   pjlib-i386-win32-vc8-debug-dynamic:ioqueue_select.obj
 0002:0008d400       _pj_ioqueue_recv           004e0400 f   pjlib-i386-win32-vc8-debug-dynamic:ioqueue_select.obj
 0002:0008d600       _pj_ioqueue_recvfrom       004e0600 f   pjlib-i386-win32-vc8-debug-dynamic:ioqueue_select.obj
 0002:0008d820       _pj_ioqueue_register_sock  004e0820 f   pjlib-i386-win32-vc8-debug-dynamic:ioqueue_select.obj
 0002:0008d860       _pj_ioqueue_register_sock2 004e0860 f   pjlib-i386-win32-vc8-debug-dynamic:ioqueue_select.obj
 0002:0008db10       _pj_ioqueue_send           004e0b10 f   pjlib-i386-win32-vc8-debug-dynamic:ioqueue_select.obj
 0002:0008dd70       _pj_ioqueue_sendto         004e0d70 f   pjlib-i386-win32-vc8-debug-dynamic:ioqueue_select.obj
 0002:0008e050       _pj_ioqueue_set_concurrency 004e1050 f   pjlib-i386-win32-vc8-debug-dynamic:ioqueue_select.obj
 0002:0008e110       _pj_ioqueue_set_default_concurrency 004e1110 f   pjlib-i386-win32-vc8-debug-dynamic:ioqueue_select.obj
 0002:0008e180       _pj_ioqueue_set_lock       004e1180 f   pjlib-i386-win32-vc8-debug-dynamic:ioqueue_select.obj
 0002:0008e230       _pj_ioqueue_set_user_data  004e1230 f   pjlib-i386-win32-vc8-debug-dynamic:ioqueue_select.obj
 0002:0008e2b0       _pj_ioqueue_trylock_key    004e12b0 f   pjlib-i386-win32-vc8-debug-dynamic:ioqueue_select.obj
 0002:0008e300       _pj_ioqueue_unlock_key     004e1300 f   pjlib-i386-win32-vc8-debug-dynamic:ioqueue_select.obj
 0002:0008e350       _pj_ioqueue_unregister     004e1350 f   pjlib-i386-win32-vc8-debug-dynamic:ioqueue_select.obj
 0002:0008e830       _pj_exception_id_alloc     004e1830 f   pjlib-i386-win32-vc8-debug-dynamic:except.obj
 0002:0008e8b0       _pj_exception_id_free      004e18b0 f   pjlib-i386-win32-vc8-debug-dynamic:except.obj
 0002:0008e940       _pj_exception_id_name      004e1940 f   pjlib-i386-win32-vc8-debug-dynamic:except.obj
 0002:0008e9f0       _pj_pop_exception_handler_ 004e19f0 f   pjlib-i386-win32-vc8-debug-dynamic:except.obj
 0002:0008ea50       _pj_push_exception_handler_ 004e1a50 f   pjlib-i386-win32-vc8-debug-dynamic:except.obj
 0002:0008eb00       _pj_throw_exception_       004e1b00 f   pjlib-i386-win32-vc8-debug-dynamic:except.obj
 0002:0008ef90       _pj_hash_calc              004e1f90 f   pjlib-i386-win32-vc8-debug-dynamic:hash.obj
 0002:0008f050       _pj_hash_calc_tolower      004e2050 f   pjlib-i386-win32-vc8-debug-dynamic:hash.obj
 0002:0008f0d0       _pj_hash_count             004e20d0 f   pjlib-i386-win32-vc8-debug-dynamic:hash.obj
 0002:0008f0f0       _pj_hash_create            004e20f0 f   pjlib-i386-win32-vc8-debug-dynamic:hash.obj
 0002:0008f1a0       _pj_hash_first             004e21a0 f   pjlib-i386-win32-vc8-debug-dynamic:hash.obj
 0002:0008f240       _pj_hash_get               004e2240 f   pjlib-i386-win32-vc8-debug-dynamic:hash.obj
 0002:0008f2b0       _pj_hash_get_lower         004e22b0 f   pjlib-i386-win32-vc8-debug-dynamic:hash.obj
 0002:0008f320       _pj_hash_next              004e2320 f   pjlib-i386-win32-vc8-debug-dynamic:hash.obj
 0002:0008f3e0       _pj_hash_set               004e23e0 f   pjlib-i386-win32-vc8-debug-dynamic:hash.obj
 0002:0008f430       _pj_hash_set_lower         004e2430 f   pjlib-i386-win32-vc8-debug-dynamic:hash.obj
 0002:0008f480       _pj_hash_set_np            004e2480 f   pjlib-i386-win32-vc8-debug-dynamic:hash.obj
 0002:0008f4d0       _pj_hash_set_np_lower      004e24d0 f   pjlib-i386-win32-vc8-debug-dynamic:hash.obj
 0002:0008f520       _pj_hash_this              004e2520 f   pjlib-i386-win32-vc8-debug-dynamic:hash.obj
 0002:0008f5f0       _pj_get_netos_error        004e25f0 f   pjlib-i386-win32-vc8-debug-dynamic:os_error_win32.obj
 0002:0008f640       _pj_get_os_error           004e2640 f   pjlib-i386-win32-vc8-debug-dynamic:os_error_win32.obj
 0002:0008f6c0       _pj_set_netos_error        004e26c0 f   pjlib-i386-win32-vc8-debug-dynamic:os_error_win32.obj
 0002:0008f710       _pj_set_os_error           004e2710 f   pjlib-i386-win32-vc8-debug-dynamic:os_error_win32.obj
 0002:0008f760       _platform_strerror         004e2760 f   pjlib-i386-win32-vc8-debug-dynamic:os_error_win32.obj
 0002:0008faa0       _pj_GUID_STRING_LENGTH     004e2aa0 f   pjlib-i386-win32-vc8-debug-dynamic:guid_win32.obj
 0002:0008fac0       _pj_generate_unique_string 004e2ac0 f   pjlib-i386-win32-vc8-debug-dynamic:guid_win32.obj
 0002:0008fb30       _pj_create_unique_string   004e2b30 f   pjlib-i386-win32-vc8-debug-dynamic:guid.obj
 0002:0008fb70       _pj_create_unique_string_lower 004e2b70 f   pjlib-i386-win32-vc8-debug-dynamic:guid.obj
 0002:0008fbf0       _pj_generate_unique_string_lower 004e2bf0 f   pjlib-i386-win32-vc8-debug-dynamic:guid.obj
 0002:0008fcd0       _pj_qos_get_params         004e2cd0 f   pjlib-i386-win32-vc8-debug-dynamic:sock_qos_common.obj
 0002:0008fd60       _pj_qos_get_type           004e2d60 f   pjlib-i386-win32-vc8-debug-dynamic:sock_qos_common.obj
 0002:0008ff30       _pj_sock_apply_qos         004e2f30 f   pjlib-i386-win32-vc8-debug-dynamic:sock_qos_common.obj
 0002:00090050       _pj_sock_apply_qos2        004e3050 f   pjlib-i386-win32-vc8-debug-dynamic:sock_qos_common.obj
 0002:000900f0       _pj_getaddrinfo            004e30f0 f   pjlib-i386-win32-vc8-debug-dynamic:addr_resolv_sock.obj
 0002:00090320       _pj_gethostbyname          004e3320 f   pjlib-i386-win32-vc8-debug-dynamic:addr_resolv_sock.obj
 0002:000904b0       _pj_pool_create_on_buf     004e34b0 f   pjlib-i386-win32-vc8-debug-dynamic:pool_buf.obj
 0002:00090720       _pj_dump_config            004e3720 f   pjlib-i386-win32-vc8-debug-dynamic:config.obj
 0002:00090d30       _pj_get_version            004e3d30 f   pjlib-i386-win32-vc8-debug-dynamic:config.obj
 0002:00091730       _pj_enum_ip_interface      004e4730 f   pjlib-i386-win32-vc8-debug-dynamic:ip_helper_win32.obj
 0002:00091890       _pj_enum_ip_route          004e4890 f   pjlib-i386-win32-vc8-debug-dynamic:ip_helper_win32.obj
 0002:00091e70       _pj_elapsed_cycle          004e4e70 f   pjlib-i386-win32-vc8-debug-dynamic:os_timestamp_common.obj
 0002:00091e90       _pj_elapsed_msec           004e4e90 f   pjlib-i386-win32-vc8-debug-dynamic:os_timestamp_common.obj
 0002:00091ed0       _pj_elapsed_msec64         004e4ed0 f   pjlib-i386-win32-vc8-debug-dynamic:os_timestamp_common.obj
 0002:00091f10       _pj_elapsed_nanosec        004e4f10 f   pjlib-i386-win32-vc8-debug-dynamic:os_timestamp_common.obj
 0002:00091fd0       _pj_elapsed_time           004e4fd0 f   pjlib-i386-win32-vc8-debug-dynamic:os_timestamp_common.obj
 0002:000920b0       _pj_elapsed_usec           004e50b0 f   pjlib-i386-win32-vc8-debug-dynamic:os_timestamp_common.obj
 0002:000920f0       _pj_gettickcount           004e50f0 f   pjlib-i386-win32-vc8-debug-dynamic:os_timestamp_common.obj
 0002:00092190       _PJ_FD_CLR                 004e5190 f   pjlib-i386-win32-vc8-debug-dynamic:sock_select.obj
 0002:000922e0       _PJ_FD_COUNT               004e52e0 f   pjlib-i386-win32-vc8-debug-dynamic:sock_select.obj
 0002:00092310       _PJ_FD_ISSET               004e5310 f   pjlib-i386-win32-vc8-debug-dynamic:sock_select.obj
 0002:00092370       _PJ_FD_SET                 004e5370 f   pjlib-i386-win32-vc8-debug-dynamic:sock_select.obj
 0002:000924b0       _PJ_FD_ZERO                004e54b0 f   pjlib-i386-win32-vc8-debug-dynamic:sock_select.obj
 0002:00092510       _pj_sock_select            004e5510 f   pjlib-i386-win32-vc8-debug-dynamic:sock_select.obj
 0002:00092650       _pj_sock_get_qos_params    004e5650 f   pjlib-i386-win32-vc8-debug-dynamic:sock_qos_bsd.obj
 0002:00092840       _pj_sock_get_qos_type      004e5840 f   pjlib-i386-win32-vc8-debug-dynamic:sock_qos_bsd.obj
 0002:00092890       _pj_sock_set_qos_params    004e5890 f   pjlib-i386-win32-vc8-debug-dynamic:sock_qos_bsd.obj
 0002:00092a90       _pj_sock_set_qos_type      004e5a90 f   pjlib-i386-win32-vc8-debug-dynamic:sock_qos_bsd.obj
 0002:00092ae0       _srtp_event_reporter       004e5ae0 f   libsrtp-i386-win32-vc8-debug-dynamic:srtp.obj
 0002:00092bb0       ___local_stdio_scanf_options 004e5bb0 f i libsrtp-i386-win32-vc8-debug-dynamic:srtp.obj
 0002:00092bd0       __vsscanf_l                004e5bd0 f i libsrtp-i386-win32-vc8-debug-dynamic:srtp.obj
 0002:00092d10       _srtp_add_stream           004e5d10 f   libsrtp-i386-win32-vc8-debug-dynamic:srtp.obj
 0002:00092e70       _srtp_append_salt_to_key   004e5e70 f   libsrtp-i386-win32-vc8-debug-dynamic:srtp.obj
 0002:000932f0       _srtp_create               004e62f0 f   libsrtp-i386-win32-vc8-debug-dynamic:srtp.obj
 0002:000933c0       _srtp_crypto_policy_set_aes_cm_128_hmac_sha1_32 004e63c0 f   libsrtp-i386-win32-vc8-debug-dynamic:srtp.obj
 0002:00093420       _srtp_crypto_policy_set_aes_cm_128_null_auth 004e6420 f   libsrtp-i386-win32-vc8-debug-dynamic:srtp.obj
 0002:00093480       _srtp_crypto_policy_set_aes_cm_256_hmac_sha1_32 004e6480 f   libsrtp-i386-win32-vc8-debug-dynamic:srtp.obj
 0002:000934e0       _srtp_crypto_policy_set_aes_cm_256_hmac_sha1_80 004e64e0 f   libsrtp-i386-win32-vc8-debug-dynamic:srtp.obj
 0002:00093540       _srtp_crypto_policy_set_aes_cm_256_null_auth 004e6540 f   libsrtp-i386-win32-vc8-debug-dynamic:srtp.obj
 0002:000935a0       _srtp_crypto_policy_set_from_profile_for_rtcp 004e65a0 f   libsrtp-i386-win32-vc8-debug-dynamic:srtp.obj
 0002:00093620       _srtp_crypto_policy_set_from_profile_for_rtp 004e6620 f   libsrtp-i386-win32-vc8-debug-dynamic:srtp.obj
 0002:000936a0       _srtp_crypto_policy_set_null_cipher_hmac_null 004e66a0 f   libsrtp-i386-win32-vc8-debug-dynamic:srtp.obj
 0002:00093700       _srtp_crypto_policy_set_null_cipher_hmac_sha1_80 004e6700 f   libsrtp-i386-win32-vc8-debug-dynamic:srtp.obj
 0002:00093760       _srtp_crypto_policy_set_rtcp_default 004e6760 f   libsrtp-i386-win32-vc8-debug-dynamic:srtp.obj
 0002:000937c0       _srtp_crypto_policy_set_rtp_default 004e67c0 f   libsrtp-i386-win32-vc8-debug-dynamic:srtp.obj
 0002:00093820       _srtp_dealloc              004e6820 f   libsrtp-i386-win32-vc8-debug-dynamic:srtp.obj
 0002:000938d0       _srtp_err_handler          004e68d0 f   libsrtp-i386-win32-vc8-debug-dynamic:srtp.obj
 0002:00093b90       _srtp_get_protect_rtcp_trailer_length 004e6b90 f   libsrtp-i386-win32-vc8-debug-dynamic:srtp.obj
 0002:00093ca0       _srtp_get_protect_trailer_length 004e6ca0 f   libsrtp-i386-win32-vc8-debug-dynamic:srtp.obj
 0002:00093da0       _srtp_get_session_keys     004e6da0 f   libsrtp-i386-win32-vc8-debug-dynamic:srtp.obj
 0002:00093f30       _srtp_get_session_keys_with_mki_index 004e6f30 f   libsrtp-i386-win32-vc8-debug-dynamic:srtp.obj
 0002:00093f80       _srtp_get_stream           004e6f80 f   libsrtp-i386-win32-vc8-debug-dynamic:srtp.obj
 0002:00093fd0       _srtp_get_stream_roc       004e6fd0 f   libsrtp-i386-win32-vc8-debug-dynamic:srtp.obj
 0002:00094030       _srtp_get_user_data        004e7030 f   libsrtp-i386-win32-vc8-debug-dynamic:srtp.obj
 0002:00094050       _srtp_get_version          004e7050 f   libsrtp-i386-win32-vc8-debug-dynamic:srtp.obj
 0002:00094100       _srtp_get_version_string   004e7100 f   libsrtp-i386-win32-vc8-debug-dynamic:srtp.obj
 0002:00094120       _srtp_init                 004e7120 f   libsrtp-i386-win32-vc8-debug-dynamic:srtp.obj
 0002:00094170       _srtp_inject_mki           004e7170 f   libsrtp-i386-win32-vc8-debug-dynamic:srtp.obj
 0002:000941d0       _srtp_install_event_handler 004e71d0 f   libsrtp-i386-win32-vc8-debug-dynamic:srtp.obj
 0002:000941f0       _srtp_install_log_handler  004e71f0 f   libsrtp-i386-win32-vc8-debug-dynamic:srtp.obj
 0002:00094470       _srtp_list_debug_modules   004e7470 f   libsrtp-i386-win32-vc8-debug-dynamic:srtp.obj
 0002:00094900       _srtp_profile_get_master_key_length 004e7900 f   libsrtp-i386-win32-vc8-debug-dynamic:srtp.obj
 0002:000949a0       _srtp_profile_get_master_salt_length 004e79a0 f   libsrtp-i386-win32-vc8-debug-dynamic:srtp.obj
 0002:00094a40       _srtp_protect              004e7a40 f   libsrtp-i386-win32-vc8-debug-dynamic:srtp.obj
 0002:00094fd0       _srtp_protect_mki          004e7fd0 f   libsrtp-i386-win32-vc8-debug-dynamic:srtp.obj
 0002:00095990       _srtp_protect_rtcp         004e8990 f   libsrtp-i386-win32-vc8-debug-dynamic:srtp.obj
 0002:00095d90       _srtp_protect_rtcp_mki     004e8d90 f   libsrtp-i386-win32-vc8-debug-dynamic:srtp.obj
 0002:000963d0       _srtp_remove_stream        004e93d0 f   libsrtp-i386-win32-vc8-debug-dynamic:srtp.obj
 0002:000964a0       _srtp_set_debug_module     004e94a0 f   libsrtp-i386-win32-vc8-debug-dynamic:srtp.obj
 0002:000964d0       _srtp_set_stream_roc       004e94d0 f   libsrtp-i386-win32-vc8-debug-dynamic:srtp.obj
 0002:00096530       _srtp_set_user_data        004e9530 f   libsrtp-i386-win32-vc8-debug-dynamic:srtp.obj
 0002:00096550       _srtp_shutdown             004e9550 f   libsrtp-i386-win32-vc8-debug-dynamic:srtp.obj
 0002:00096580       _srtp_stream_alloc         004e9580 f   libsrtp-i386-win32-vc8-debug-dynamic:srtp.obj
 0002:00096a50       _srtp_stream_clone         004e9a50 f   libsrtp-i386-win32-vc8-debug-dynamic:srtp.obj
 0002:00096e00       _srtp_stream_dealloc       004e9e00 f   libsrtp-i386-win32-vc8-debug-dynamic:srtp.obj
 0002:000972d0       _srtp_stream_init          004ea2d0 f   libsrtp-i386-win32-vc8-debug-dynamic:srtp.obj
 0002:000974e0       _srtp_stream_init_all_master_keys 004ea4e0 f   libsrtp-i386-win32-vc8-debug-dynamic:srtp.obj
 0002:000975c0       _srtp_stream_init_keys     004ea5c0 f   libsrtp-i386-win32-vc8-debug-dynamic:srtp.obj
 0002:00098460       _srtp_unprotect            004eb460 f   libsrtp-i386-win32-vc8-debug-dynamic:srtp.obj
 0002:00098950       _srtp_unprotect_mki        004eb950 f   libsrtp-i386-win32-vc8-debug-dynamic:srtp.obj
 0002:000993d0       _srtp_unprotect_rtcp       004ec3d0 f   libsrtp-i386-win32-vc8-debug-dynamic:srtp.obj
 0002:00099800       _srtp_unprotect_rtcp_mki   004ec800 f   libsrtp-i386-win32-vc8-debug-dynamic:srtp.obj
 0002:0009a070       _srtp_update               004ed070 f   libsrtp-i386-win32-vc8-debug-dynamic:srtp.obj
 0002:0009a0f0       _srtp_update_stream        004ed0f0 f   libsrtp-i386-win32-vc8-debug-dynamic:srtp.obj
 0002:0009a1a0       _srtp_validate_policy_master_keys 004ed1a0 f   libsrtp-i386-win32-vc8-debug-dynamic:srtp.obj
 0002:0009a350       _sscanf                    004ed350 f i libsrtp-i386-win32-vc8-debug-dynamic:srtp.obj
 0002:0009a840       _srtp_crypto_alloc         004ed840 f   libsrtp-i386-win32-vc8-debug-dynamic:alloc.obj
 0002:0009a8d0       _srtp_crypto_free          004ed8d0 f   libsrtp-i386-win32-vc8-debug-dynamic:alloc.obj
 0002:0009a920       _bitvector_alloc           004ed920 f   libsrtp-i386-win32-vc8-debug-dynamic:datatypes.obj
 0002:0009a9d0       _bitvector_bit_string      004ed9d0 f   libsrtp-i386-win32-vc8-debug-dynamic:datatypes.obj
 0002:0009aaa0       _bitvector_dealloc         004edaa0 f   libsrtp-i386-win32-vc8-debug-dynamic:datatypes.obj
 0002:0009aaf0       _bitvector_left_shift      004edaf0 f   libsrtp-i386-win32-vc8-debug-dynamic:datatypes.obj
 0002:0009ac80       _bitvector_set_to_zero     004edc80 f   libsrtp-i386-win32-vc8-debug-dynamic:datatypes.obj
 0002:0009acc0       _octet_get_weight          004edcc0 f   libsrtp-i386-win32-vc8-debug-dynamic:datatypes.obj
 0002:0009acf0       _octet_string_is_eq        004edcf0 f   libsrtp-i386-win32-vc8-debug-dynamic:datatypes.obj
 0002:0009ad80       _octet_string_set_to_zero  004edd80 f   libsrtp-i386-win32-vc8-debug-dynamic:datatypes.obj
 0002:0009adb0       _srtp_cleanse              004eddb0 f   libsrtp-i386-win32-vc8-debug-dynamic:datatypes.obj
 0002:0009ae00       _srtp_nibble_to_hex_char   004ede00 f   libsrtp-i386-win32-vc8-debug-dynamic:datatypes.obj
 0002:0009ae90       _srtp_octet_string_hex_string 004ede90 f   libsrtp-i386-win32-vc8-debug-dynamic:datatypes.obj
 0002:0009af80       _v128_bit_string           004edf80 f   libsrtp-i386-win32-vc8-debug-dynamic:datatypes.obj
 0002:0009b050       _v128_copy_octet_string    004ee050 f   libsrtp-i386-win32-vc8-debug-dynamic:datatypes.obj
 0002:0009b2a0       _v128_hex_string           004ee2a0 f   libsrtp-i386-win32-vc8-debug-dynamic:datatypes.obj
 0002:0009b370       _v128_left_shift           004ee370 f   libsrtp-i386-win32-vc8-debug-dynamic:datatypes.obj
 0002:0009b520       _v128_right_shift          004ee520 f   libsrtp-i386-win32-vc8-debug-dynamic:datatypes.obj
 0002:0009b6e0       _srtp_err_report           004ee6e0 f   libsrtp-i386-win32-vc8-debug-dynamic:srtp_err.obj
 0002:0009b740       _srtp_err_reporting_init   004ee740 f   libsrtp-i386-win32-vc8-debug-dynamic:srtp_err.obj
 0002:0009b760       _srtp_err_reporting_set_level 004ee760 f   libsrtp-i386-win32-vc8-debug-dynamic:srtp_err.obj
 0002:0009b780       _srtp_install_err_report_handler 004ee780 f   libsrtp-i386-win32-vc8-debug-dynamic:srtp_err.obj
 0002:0009b7a0       _srtp_index_advance        004ee7a0 f   libsrtp-i386-win32-vc8-debug-dynamic:rdbx.obj
 0002:0009b7d0       _srtp_index_guess          004ee7d0 f   libsrtp-i386-win32-vc8-debug-dynamic:rdbx.obj
 0002:0009b920       _srtp_index_init           004ee920 f   libsrtp-i386-win32-vc8-debug-dynamic:rdbx.obj
 0002:0009b950       _srtp_rdbx_add_index       004ee950 f   libsrtp-i386-win32-vc8-debug-dynamic:rdbx.obj
 0002:0009ba50       _srtp_rdbx_check           004eea50 f   libsrtp-i386-win32-vc8-debug-dynamic:rdbx.obj
 0002:0009bae0       _srtp_rdbx_dealloc         004eeae0 f   libsrtp-i386-win32-vc8-debug-dynamic:rdbx.obj
 0002:0009bb10       _srtp_rdbx_estimate_index  004eeb10 f   libsrtp-i386-win32-vc8-debug-dynamic:rdbx.obj
 0002:0009bb80       _srtp_rdbx_get_packet_index 004eeb80 f   libsrtp-i386-win32-vc8-debug-dynamic:rdbx.obj
 0002:0009bba0       _srtp_rdbx_get_roc         004eeba0 f   libsrtp-i386-win32-vc8-debug-dynamic:rdbx.obj
 0002:0009bbd0       _srtp_rdbx_get_window_size 004eebd0 f   libsrtp-i386-win32-vc8-debug-dynamic:rdbx.obj
 0002:0009bbf0       _srtp_rdbx_init            004eebf0 f   libsrtp-i386-win32-vc8-debug-dynamic:rdbx.obj
 0002:0009bc50       _srtp_rdbx_set_roc         004eec50 f   libsrtp-i386-win32-vc8-debug-dynamic:rdbx.obj
 0002:0009bd10       _srtp_rdbx_set_roc_seq     004eed10 f   libsrtp-i386-win32-vc8-debug-dynamic:rdbx.obj
 0002:0009bdc0       _srtp_rdb_add_index        004eedc0 f   libsrtp-i386-win32-vc8-debug-dynamic:rdb.obj
 0002:0009be90       _srtp_rdb_check            004eee90 f   libsrtp-i386-win32-vc8-debug-dynamic:rdb.obj
 0002:0009bf10       _srtp_rdb_get_value        004eef10 f   libsrtp-i386-win32-vc8-debug-dynamic:rdb.obj
 0002:0009bf30       _srtp_rdb_increment        004eef30 f   libsrtp-i386-win32-vc8-debug-dynamic:rdb.obj
 0002:0009bf70       _srtp_rdb_init             004eef70 f   libsrtp-i386-win32-vc8-debug-dynamic:rdb.obj
 0002:0009bff0       _srtp_cipher_bits_per_second 004eeff0 f   libsrtp-i386-win32-vc8-debug-dynamic:cipher.obj
 0002:0009c1c0       _srtp_cipher_dealloc       004ef1c0 f   libsrtp-i386-win32-vc8-debug-dynamic:cipher.obj
 0002:0009c210       _srtp_cipher_decrypt       004ef210 f   libsrtp-i386-win32-vc8-debug-dynamic:cipher.obj
 0002:0009c270       _srtp_cipher_encrypt       004ef270 f   libsrtp-i386-win32-vc8-debug-dynamic:cipher.obj
 0002:0009c2d0       _srtp_cipher_get_key_length 004ef2d0 f   libsrtp-i386-win32-vc8-debug-dynamic:cipher.obj
 0002:0009c2f0       _srtp_cipher_get_tag       004ef2f0 f   libsrtp-i386-win32-vc8-debug-dynamic:cipher.obj
 0002:0009c370       _srtp_cipher_init          004ef370 f   libsrtp-i386-win32-vc8-debug-dynamic:cipher.obj
 0002:0009c3d0       _srtp_cipher_output        004ef3d0 f   libsrtp-i386-win32-vc8-debug-dynamic:cipher.obj
 0002:0009c480       _srtp_cipher_set_aad       004ef480 f   libsrtp-i386-win32-vc8-debug-dynamic:cipher.obj
 0002:0009c500       _srtp_cipher_set_iv        004ef500 f   libsrtp-i386-win32-vc8-debug-dynamic:cipher.obj
 0002:0009c560       _srtp_cipher_type_alloc    004ef560 f   libsrtp-i386-win32-vc8-debug-dynamic:cipher.obj
 0002:0009c5b0       _srtp_cipher_type_self_test 004ef5b0 f   libsrtp-i386-win32-vc8-debug-dynamic:cipher.obj
 0002:0009c5e0       _srtp_cipher_type_test     004ef5e0 f   libsrtp-i386-win32-vc8-debug-dynamic:cipher.obj
 0002:0009d7b0       _srtp_auth_get_key_length  004f07b0 f   libsrtp-i386-win32-vc8-debug-dynamic:auth.obj
 0002:0009d7d0       _srtp_auth_get_prefix_length 004f07d0 f   libsrtp-i386-win32-vc8-debug-dynamic:auth.obj
 0002:0009d7f0       _srtp_auth_get_tag_length  004f07f0 f   libsrtp-i386-win32-vc8-debug-dynamic:auth.obj
 0002:0009d810       _srtp_auth_type_self_test  004f0810 f   libsrtp-i386-win32-vc8-debug-dynamic:auth.obj
 0002:0009d840       _srtp_auth_type_test       004f0840 f   libsrtp-i386-win32-vc8-debug-dynamic:auth.obj
 0002:0009dc10       _srtp_key_limit_check      004f0c10 f   libsrtp-i386-win32-vc8-debug-dynamic:key.obj
 0002:0009dc40       _srtp_key_limit_clone      004f0c40 f   libsrtp-i386-win32-vc8-debug-dynamic:key.obj
 0002:0009dc70       _srtp_key_limit_set        004f0c70 f   libsrtp-i386-win32-vc8-debug-dynamic:key.obj
 0002:0009dcd0       _srtp_key_limit_update     004f0cd0 f   libsrtp-i386-win32-vc8-debug-dynamic:key.obj
 0002:0009dd80       _srtp_crypto_kernel_alloc_auth 004f0d80 f   libsrtp-i386-win32-vc8-debug-dynamic:crypto_kernel.obj
 0002:0009ddf0       _srtp_crypto_kernel_alloc_cipher 004f0df0 f   libsrtp-i386-win32-vc8-debug-dynamic:crypto_kernel.obj
 0002:0009de60       _srtp_crypto_kernel_do_load_auth_type 004f0e60 f   libsrtp-i386-win32-vc8-debug-dynamic:crypto_kernel.obj
 0002:0009e100       _srtp_crypto_kernel_get_auth_type 004f1100 f   libsrtp-i386-win32-vc8-debug-dynamic:crypto_kernel.obj
 0002:0009e150       _srtp_crypto_kernel_get_cipher_type 004f1150 f   libsrtp-i386-win32-vc8-debug-dynamic:crypto_kernel.obj
 0002:0009e1a0       _srtp_crypto_kernel_init   004f11a0 f   libsrtp-i386-win32-vc8-debug-dynamic:crypto_kernel.obj
 0002:0009e3c0       _srtp_crypto_kernel_list_debug_modules 004f13c0 f   libsrtp-i386-win32-vc8-debug-dynamic:crypto_kernel.obj
 0002:0009e460       _srtp_crypto_kernel_load_auth_type 004f1460 f   libsrtp-i386-win32-vc8-debug-dynamic:crypto_kernel.obj
 0002:0009e490       _srtp_crypto_kernel_load_cipher_type 004f1490 f   libsrtp-i386-win32-vc8-debug-dynamic:crypto_kernel.obj
 0002:0009e4c0       _srtp_crypto_kernel_load_debug_module 004f14c0 f   libsrtp-i386-win32-vc8-debug-dynamic:crypto_kernel.obj
 0002:0009e580       _srtp_crypto_kernel_set_debug_module 004f1580 f   libsrtp-i386-win32-vc8-debug-dynamic:crypto_kernel.obj
 0002:0009e5f0       _srtp_crypto_kernel_shutdown 004f15f0 f   libsrtp-i386-win32-vc8-debug-dynamic:crypto_kernel.obj
 0002:0009e750       _srtp_crypto_kernel_status 004f1750 f   libsrtp-i386-win32-vc8-debug-dynamic:crypto_kernel.obj
 0002:0009e8c0       _srtp_replace_auth_type    004f18c0 f   libsrtp-i386-win32-vc8-debug-dynamic:crypto_kernel.obj
 0002:0009e8f0       _srtp_replace_cipher_type  004f18f0 f   libsrtp-i386-win32-vc8-debug-dynamic:crypto_kernel.obj
 0002:0009e920       _aes_decrypt_with_raw_key  004f1920 f   libsrtp-i386-win32-vc8-debug-dynamic:ekt.obj
 0002:0009e990       _srtcp_ekt_trailer         004f1990 f   libsrtp-i386-win32-vc8-debug-dynamic:ekt.obj
 0002:0009ea40       _srtp_ekt_alloc            004f1a40 f   libsrtp-i386-win32-vc8-debug-dynamic:ekt.obj
 0002:0009ea80       _srtp_ekt_octets_after_base_tag 004f1a80 f   libsrtp-i386-win32-vc8-debug-dynamic:ekt.obj
 0002:0009ead0       _srtp_ekt_stream_init_from_policy 004f1ad0 f   libsrtp-i386-win32-vc8-debug-dynamic:ekt.obj
 0002:0009eb00       _srtp_ekt_write_data       004f1b00 f   libsrtp-i386-win32-vc8-debug-dynamic:ekt.obj
 0002:0009ed20       _srtp_stream_init_from_ekt 004f1d20 f   libsrtp-i386-win32-vc8-debug-dynamic:ekt.obj
 0002:0009ee50       _stat_test_monobit         004f1e50 f   libsrtp-i386-win32-vc8-debug-dynamic:stat.obj
 0002:0009ef10       _stat_test_poker           004f1f10 f   libsrtp-i386-win32-vc8-debug-dynamic:stat.obj
 0002:0009f120       _stat_test_runs            004f2120 f   libsrtp-i386-win32-vc8-debug-dynamic:stat.obj
 0002:000a1f80       _srtp_aes_decrypt          004f4f80 f   libsrtp-i386-win32-vc8-debug-dynamic:aes.obj
 0002:000a2290       _srtp_aes_encrypt          004f5290 f   libsrtp-i386-win32-vc8-debug-dynamic:aes.obj
 0002:000a25a0       _srtp_aes_expand_decryption_key 004f55a0 f   libsrtp-i386-win32-vc8-debug-dynamic:aes.obj
 0002:000a2bd0       _srtp_aes_expand_encryption_key 004f5bd0 f   libsrtp-i386-win32-vc8-debug-dynamic:aes.obj
 0002:000a2c50       _srtp_sha1                 004f5c50 f   libsrtp-i386-win32-vc8-debug-dynamic:sha1.obj
 0002:000a2cc0       _srtp_sha1_core            004f5cc0 f   libsrtp-i386-win32-vc8-debug-dynamic:sha1.obj
 0002:000a3d20       _srtp_sha1_final           004f6d20 f   libsrtp-i386-win32-vc8-debug-dynamic:sha1.obj
 0002:000a49e0       _srtp_sha1_init            004f79e0 f   libsrtp-i386-win32-vc8-debug-dynamic:sha1.obj
 0002:000a4a80       _srtp_sha1_update          004f7a80 f   libsrtp-i386-win32-vc8-debug-dynamic:sha1.obj
 0002:000a4c10       _CoCreateGuid@4            004f7c10 f   ole32:ole32.dll
 0002:000a4c16       _WSAStartup@8              004f7c16 f   ws2_32:WS2_32.dll
 0002:000a4c1c       _WSACleanup@0              004f7c1c f   ws2_32:WS2_32.dll
 0002:000a4c22       _WSAGetLastError@0         004f7c22 f   ws2_32:WS2_32.dll
 0002:000a4c28       _accept@12                 004f7c28 f   ws2_32:WS2_32.dll
 0002:000a4c2e       _bind@12                   004f7c2e f   ws2_32:WS2_32.dll
 0002:000a4c34       _closesocket@4             004f7c34 f   ws2_32:WS2_32.dll
 0002:000a4c3a       _connect@12                004f7c3a f   ws2_32:WS2_32.dll
 0002:000a4c40       _getpeername@12            004f7c40 f   ws2_32:WS2_32.dll
 0002:000a4c46       _getsockname@12            004f7c46 f   ws2_32:WS2_32.dll
 0002:000a4c4c       _getsockopt@20             004f7c4c f   ws2_32:WS2_32.dll
 0002:000a4c52       _htonl@4                   004f7c52 f   ws2_32:WS2_32.dll
 0002:000a4c58       _htons@4                   004f7c58 f   ws2_32:WS2_32.dll
 0002:000a4c5e       _inet_addr@4               004f7c5e f   ws2_32:WS2_32.dll
 0002:000a4c64       _inet_ntoa@4               004f7c64 f   ws2_32:WS2_32.dll
 0002:000a4c6a       _listen@8                  004f7c6a f   ws2_32:WS2_32.dll
 0002:000a4c70       _ntohl@4                   004f7c70 f   ws2_32:WS2_32.dll
 0002:000a4c76       _ntohs@4                   004f7c76 f   ws2_32:WS2_32.dll
 0002:000a4c7c       _recv@16                   004f7c7c f   ws2_32:WS2_32.dll
 0002:000a4c82       _recvfrom@24               004f7c82 f   ws2_32:WS2_32.dll
 0002:000a4c88       _send@16                   004f7c88 f   ws2_32:WS2_32.dll
 0002:000a4c8e       _sendto@24                 004f7c8e f   ws2_32:WS2_32.dll
 0002:000a4c94       _setsockopt@20             004f7c94 f   ws2_32:WS2_32.dll
 0002:000a4c9a       _shutdown@8                004f7c9a f   ws2_32:WS2_32.dll
 0002:000a4ca0       _gethostname@8             004f7ca0 f   ws2_32:WS2_32.dll
 0002:000a4ca6       _WSAIoctl@36               004f7ca6 f   ws2_32:WS2_32.dll
 0002:000a4cac       _WSASocketA@24             004f7cac f   ws2_32:WS2_32.dll
 0002:000a4cb2       _WSAAddressToStringA@20    004f7cb2 f   ws2_32:WS2_32.dll
 0002:000a4cb8       _WSAStringToAddressA@20    004f7cb8 f   ws2_32:WS2_32.dll
 0002:000a4cbe       _ioctlsocket@12            004f7cbe f   ws2_32:WS2_32.dll
 0002:000a4cc4       _WSASetLastError@4         004f7cc4 f   ws2_32:WS2_32.dll
 0002:000a4cca       _gethostbyname@4           004f7cca f   ws2_32:WS2_32.dll
 0002:000a4cd0       ___WSAFDIsSet@8            004f7cd0 f   ws2_32:WS2_32.dll
 0002:000a4cd6       _select@20                 004f7cd6 f   ws2_32:WS2_32.dll
 0002:000a4ce0       ___raise_securityfailure   004f7ce0 f   MSVCRTD:gs_report.obj
 0002:000a4d20       ___report_gsfailure        004f7d20 f   MSVCRTD:gs_report.obj
 0002:000a4e70       ___report_rangecheckfailure 004f7e70 f   MSVCRTD:gs_report.obj
 0002:000a4e80       ___report_securityfailure  004f7e80 f   MSVCRTD:gs_report.obj
 0002:000a4f90       ___report_securityfailureEx 004f7f90 f   MSVCRTD:gs_report.obj
 0002:000a5100       @__security_check_cookie@4 004f8100 f   MSVCRTD:secchk.obj
 0002:000a5120       __allmul                   004f8120 f   MSVCRTD:llmul.obj
 0002:000a5170       __aulldiv                  004f8170 f   MSVCRTD:ulldiv.obj
 0002:000a55d0       ?configure_argv@__scrt_narrow_argv_policy@@SAHXZ 004f85d0 f i MSVCRTD:exe_main.obj
 0002:000a55f0       ?initialize_environment@__scrt_narrow_environment_policy@@SAHXZ 004f85f0 f i MSVCRTD:exe_main.obj
 0002:000a5630       ?set_app_type@__scrt_main_policy@@SAXXZ 004f8630 f i MSVCRTD:exe_main.obj
 0002:000a5650       ?set_commode@__scrt_file_policy@@SAXXZ 004f8650 f i MSVCRTD:exe_main.obj
 0002:000a5670       ?set_fmode@__scrt_file_policy@@SAXXZ 004f8670 f i MSVCRTD:exe_main.obj
 0002:000a5690       _mainCRTStartup            004f8690 f   MSVCRTD:exe_main.obj
 0002:000a56a0       __allshl                   004f86a0 f   MSVCRTD:llshl.obj
 0002:000a56d0       __aullrem                  004f86d0 f   MSVCRTD:ullrem.obj
 0002:000a5770       __aullshr                  004f8770 f   MSVCRTD:ullshr.obj
 0002:000a57a0       __alldiv                   004f87a0 f   MSVCRTD:lldiv.obj
 0002:000a5880       __chkstk                   004f8880 f   MSVCRTD:chkstk.obj
 0002:000a5880       __alloca_probe             004f8880 f   MSVCRTD:chkstk.obj
 0002:000a58c0       __ftoui3                   004f88c0 f   MSVCRTD:ftol3.obj
 0002:000a58cf       __ftoul3                   004f88cf f   MSVCRTD:ftol3.obj
 0002:000a58de       __ftol3                    004f88de f   MSVCRTD:ftol3.obj
 0002:000a58eb       __ftol3_NaN                004f88eb f   MSVCRTD:ftol3.obj
 0002:000a5903       __ftol3_work               004f8903 f   MSVCRTD:ftol3.obj
 0002:000a5989       __ftol3_common             004f8989 f   MSVCRTD:ftol3.obj
 0002:000a5a4b       __ftol3_arg_error          004f8a4b f   MSVCRTD:ftol3.obj
 0002:000a5a5d       __ftol3_except             004f8a5d f   MSVCRTD:ftol3.obj
 0002:000a5aa1       __dtoui3                   004f8aa1 f   MSVCRTD:ftol3.obj
 0002:000a5ab0       __dtoul3                   004f8ab0 f   MSVCRTD:ftol3.obj
 0002:000a5abf       __dtol3                    004f8abf f   MSVCRTD:ftol3.obj
 0002:000a5acc       __dtol3_NaN                004f8acc f   MSVCRTD:ftol3.obj
 0002:000a5ae9       __dtol3_work               004f8ae9 f   MSVCRTD:ftol3.obj
 0002:000a5bd0       __ultod3                   004f8bd0 f   MSVCRTD:ftol3.obj
 0002:000a5c10       __ltod3                    004f8c10 f   MSVCRTD:ftol3.obj
 0002:000a5d20       ??$__crt_fast_decode_pointer@PAP6AXXZ@@YAPAP6AXXZQAP6AXXZ@Z 004f8d20 f i MSVCRTD:utility.obj
 0002:000a5d50       ??$__crt_fast_encode_pointer@PAP6AXXZ@@YAPAP6AXXZQAP6AXXZ@Z 004f8d50 f i MSVCRTD:utility.obj
 0002:000a5d90       ?__crt_rotate_pointer_value@@YAIIH@Z 004f8d90 f i MSVCRTD:utility.obj
 0002:000a5ee0       _NtCurrentTeb              004f8ee0 f i MSVCRTD:utility.obj
 0002:000a5ef0       ___scrt_acquire_startup_lock 004f8ef0 f   MSVCRTD:utility.obj
 0002:000a5f50       ___scrt_dllmain_after_initialize_c 004f8f50 f   MSVCRTD:utility.obj
 0002:000a5f90       ___scrt_dllmain_before_initialize_c 004f8f90 f   MSVCRTD:utility.obj
 0002:000a5fc0       ___scrt_dllmain_crt_thread_attach 004f8fc0 f   MSVCRTD:utility.obj
 0002:000a6000       ___scrt_dllmain_crt_thread_detach 004f9000 f   MSVCRTD:utility.obj
 0002:000a6020       ___scrt_dllmain_exception_filter 004f9020 f   MSVCRTD:utility.obj
 0002:000a6080       ___scrt_dllmain_uninitialize_c 004f9080 f   MSVCRTD:utility.obj
 0002:000a60c0       ___scrt_dllmain_uninitialize_critical 004f90c0 f   MSVCRTD:utility.obj
 0002:000a60e0       ___scrt_initialize_crt     004f90e0 f   MSVCRTD:utility.obj
 0002:000a6140       ___scrt_initialize_onexit_tables 004f9140 f   MSVCRTD:utility.obj
 0002:000a6260       ___scrt_is_nonwritable_in_current_image 004f9260 f   MSVCRTD:utility.obj
 0002:000a63e0       ___scrt_release_startup_lock 004f93e0 f   MSVCRTD:utility.obj
 0002:000a6410       ___scrt_uninitialize_crt   004f9410 f   MSVCRTD:utility.obj
 0002:000a6460       __onexit                   004f9460 f   MSVCRTD:utility.obj
 0002:000a64f0       _at_quick_exit             004f94f0 f   MSVCRTD:utility.obj
 0002:000a6550       _atexit                    004f9550 f   MSVCRTD:utility.obj
 0002:000a6620       ___security_init_cookie    004f9620 f   MSVCRTD:gs_support.obj
 0002:000a66c0       __matherr                  004f96c0 f   MSVCRTD:matherr.obj
 0002:000a66d0       __get_startup_argv_mode    004f96d0 f   MSVCRTD:argv_mode.obj
 0002:000a66e0       __get_startup_commit_mode  004f96e0 f   MSVCRTD:commit_mode.obj
 0002:000a66f0       __get_startup_file_mode    004f96f0 f   MSVCRTD:file_mode.obj
 0002:000a6700       __get_startup_new_mode     004f9700 f   MSVCRTD:new_mode.obj
 0002:000a6710       __get_startup_thread_locale_mode 004f9710 f   MSVCRTD:thread_locale.obj
 0002:000a6720       ?__scrt_initialize_type_info@@YAXXZ 004f9720 f   MSVCRTD:tncleanup.obj
 0002:000a6740       ?__scrt_uninitialize_type_info@@YAXXZ 004f9740 f   MSVCRTD:tncleanup.obj
 0002:000a6760       __should_initialize_environment 004f9760 f   MSVCRTD:env_mode.obj
 0002:000a6770       __initialize_default_precision 004f9770 f   MSVCRTD:default_precision.obj
 0002:000a67a0       __initialize_invalid_parameter_handler 004f97a0 f   MSVCRTD:invalid_parameter_handler.obj
 0002:000a67b0       __initialize_denormal_control 004f97b0 f   MSVCRTD:denormal_control.obj
 0002:000a67c0       ___scrt_initialize_default_local_stdio_options 004f97c0 f   MSVCRTD:default_local_stdio_options.obj
 0002:000a6810       ___scrt_is_user_matherr_present 004f9810 f   MSVCRTD:matherr_detection.obj
 0002:000a6840       ___scrt_get_dyn_tls_init_callback 004f9840 f   MSVCRTD:dyn_tls_init.obj
 0002:000a6850       ___scrt_get_dyn_tls_dtor_callback 004f9850 f   MSVCRTD:dyn_tls_dtor.obj
 0002:000a6860       ___scrt_fastfail           004f9860 f   MSVCRTD:utility_desktop.obj
 0002:000a69f0       ___scrt_get_show_window_mode 004f99f0 f   MSVCRTD:utility_desktop.obj
 0002:000a6a40       ___scrt_initialize_mta     004f9a40 f   MSVCRTD:utility_desktop.obj
 0002:000a6a50       ___scrt_initialize_winrt   004f9a50 f   MSVCRTD:utility_desktop.obj
 0002:000a6a60       ___scrt_is_managed_app     004f9a60 f   MSVCRTD:utility_desktop.obj
 0002:000a6b10       ___scrt_set_unhandled_exception_filter 004f9b10 f   MSVCRTD:utility_desktop.obj
 0002:000a6b30       ___scrt_exe_initialize_mta 004f9b30 f   MSVCRTD:utility_desktop.obj
 0002:000a6b30       ___scrt_stub_for_initialize_mta 004f9b30 f   MSVCRTD:utility_desktop.obj
 0002:000a6b40       ___scrt_unhandled_exception_filter@4 004f9b40 f   MSVCRTD:utility_desktop.obj
 0002:000a6bc0       __crt_debugger_hook        004f9bc0 f   MSVCRTD:utility_desktop.obj
 0002:000a6be0       __RTC_Initialize           004f9be0 f   MSVCRTD:initsect.obj
 0002:000a6c20       __RTC_Terminate            004f9c20 f   MSVCRTD:initsect.obj
 0002:000a6c60       __except_handler4          004f9c60 f   MSVCRTD:chandler4gs.obj
 0002:000a6c90       @_guard_check_icall_nop@4  004f9c90 f i MSVCRTD:guard_support.obj
 0002:000a6ca0       _ReadNoFence               004f9ca0 f i MSVCRTD:guard_support.obj
 0002:000a6cc0       _ReadPointerNoFence        004f9cc0 f i MSVCRTD:guard_support.obj
 0002:000a6ce0       __guard_icall_checks_enforced 004f9ce0 f i MSVCRTD:guard_support.obj
 0002:000a6d20       ___isa_available_init      004f9d20 f   MSVCRTD:cpu_disp.obj
 0002:000a70b0       ___scrt_is_ucrt_dll_in_use 004fa0b0 f   MSVCRTD:ucrt_detection.obj
 0002:000a70dd       _waveOutGetErrorTextA@12   004fa0dd f   winmm:WINMM.dll
 0002:000a70e3       _waveInGetErrorTextA@12    004fa0e3 f   winmm:WINMM.dll
 0002:000a70e9       _waveOutGetNumDevs@0       004fa0e9 f   winmm:WINMM.dll
 0002:000a70ef       _waveOutGetDevCapsA@12     004fa0ef f   winmm:WINMM.dll
 0002:000a70f5       _waveOutGetVolume@8        004fa0f5 f   winmm:WINMM.dll
 0002:000a70fb       _waveOutSetVolume@8        004fa0fb f   winmm:WINMM.dll
 0002:000a7101       _waveOutOpen@24            004fa101 f   winmm:WINMM.dll
 0002:000a7107       _waveOutClose@4            004fa107 f   winmm:WINMM.dll
 0002:000a710d       _waveOutPrepareHeader@12   004fa10d f   winmm:WINMM.dll
 0002:000a7113       _waveOutUnprepareHeader@12 004fa113 f   winmm:WINMM.dll
 0002:000a7119       _waveOutWrite@12           004fa119 f   winmm:WINMM.dll
 0002:000a711f       _waveOutPause@4            004fa11f f   winmm:WINMM.dll
 0002:000a7125       _waveOutRestart@4          004fa125 f   winmm:WINMM.dll
 0002:000a712b       _waveOutReset@4            004fa12b f   winmm:WINMM.dll
 0002:000a7131       _waveInGetNumDevs@0        004fa131 f   winmm:WINMM.dll
 0002:000a7137       _waveInGetDevCapsA@12      004fa137 f   winmm:WINMM.dll
 0002:000a713d       _waveInOpen@24             004fa13d f   winmm:WINMM.dll
 0002:000a7143       _waveInClose@4             004fa143 f   winmm:WINMM.dll
 0002:000a7149       _waveInPrepareHeader@12    004fa149 f   winmm:WINMM.dll
 0002:000a714f       _waveInUnprepareHeader@12  004fa14f f   winmm:WINMM.dll
 0002:000a7155       _waveInAddBuffer@12        004fa155 f   winmm:WINMM.dll
 0002:000a715b       _waveInStart@4             004fa15b f   winmm:WINMM.dll
 0002:000a7161       _waveInStop@4              004fa161 f   winmm:WINMM.dll
 0002:000a7167       _waveInReset@4             004fa167 f   winmm:WINMM.dll
 0002:000a716d       _GetCurrentProcess@0       004fa16d f   kernel32:KERNEL32.dll
 0002:000a7173       _GetCurrentThread@0        004fa173 f   kernel32:KERNEL32.dll
 0002:000a7179       _SetThreadPriority@8       004fa179 f   kernel32:KERNEL32.dll
 0002:000a717f       _SetPriorityClass@8        004fa17f f   kernel32:KERNEL32.dll
 0002:000a7185       _CloseHandle@4             004fa185 f   kernel32:KERNEL32.dll
 0002:000a718b       _SetEvent@4                004fa18b f   kernel32:KERNEL32.dll
 0002:000a7191       _CreateEventA@16           004fa191 f   kernel32:KERNEL32.dll
 0002:000a7197       _WaitForMultipleObjects@16 004fa197 f   kernel32:KERNEL32.dll
 0002:000a719d       _GetStdHandle@4            004fa19d f   kernel32:KERNEL32.dll
 0002:000a71a3       _GetLastError@0            004fa1a3 f   kernel32:KERNEL32.dll
 0002:000a71a9       _InitializeCriticalSection@4 004fa1a9 f   kernel32:KERNEL32.dll
 0002:000a71af       _EnterCriticalSection@4    004fa1af f   kernel32:KERNEL32.dll
 0002:000a71b5       _LeaveCriticalSection@4    004fa1b5 f   kernel32:KERNEL32.dll
 0002:000a71bb       _TryEnterCriticalSection@4 004fa1bb f   kernel32:KERNEL32.dll
 0002:000a71c1       _DeleteCriticalSection@4   004fa1c1 f   kernel32:KERNEL32.dll
 0002:000a71c7       _ResetEvent@4              004fa1c7 f   kernel32:KERNEL32.dll
 0002:000a71cd       _ReleaseSemaphore@12       004fa1cd f   kernel32:KERNEL32.dll
 0002:000a71d3       _WaitForSingleObject@8     004fa1d3 f   kernel32:KERNEL32.dll
 0002:000a71d9       _Sleep@4                   004fa1d9 f   kernel32:KERNEL32.dll
 0002:000a71df       _GetCurrentProcessId@0     004fa1df f   kernel32:KERNEL32.dll
 0002:000a71e5       _CreateThread@24           004fa1e5 f   kernel32:KERNEL32.dll
 0002:000a71eb       _GetCurrentThreadId@0      004fa1eb f   kernel32:KERNEL32.dll
 0002:000a71f1       _GetThreadPriority@4       004fa1f1 f   kernel32:KERNEL32.dll
 0002:000a71f7       _ResumeThread@4            004fa1f7 f   kernel32:KERNEL32.dll
 0002:000a71fd       _TlsAlloc@0                004fa1fd f   kernel32:KERNEL32.dll
 0002:000a7203       _TlsGetValue@4             004fa203 f   kernel32:KERNEL32.dll
 0002:000a7209       _TlsSetValue@8             004fa209 f   kernel32:KERNEL32.dll
 0002:000a720f       _TlsFree@4                 004fa20f f   kernel32:KERNEL32.dll
 0002:000a7215       _PulseEvent@4              004fa215 f   kernel32:KERNEL32.dll
 0002:000a721b       _CreateSemaphoreA@16       004fa21b f   kernel32:KERNEL32.dll
 0002:000a7221       _GetConsoleScreenBufferInfo@8 004fa221 f   kernel32:KERNEL32.dll
 0002:000a7227       _SetConsoleTextAttribute@8 004fa227 f   kernel32:KERNEL32.dll
 0002:000a722d       _GetLocalTime@4            004fa22d f   kernel32:KERNEL32.dll
 0002:000a7233       _FileTimeToSystemTime@8    004fa233 f   kernel32:KERNEL32.dll
 0002:000a7239       _SystemTimeToFileTime@8    004fa239 f   kernel32:KERNEL32.dll
 0002:000a723f       _QueryPerformanceCounter@4 004fa23f f   kernel32:KERNEL32.dll
 0002:000a7245       _QueryPerformanceFrequency@4 004fa245 f   kernel32:KERNEL32.dll
 0002:000a724b       _SetLastError@4            004fa24b f   kernel32:KERNEL32.dll
 0002:000a7251       _FormatMessageA@28         004fa251 f   kernel32:KERNEL32.dll
 0002:000a7257       _FreeLibrary@4             004fa257 f   kernel32:KERNEL32.dll
 0002:000a725d       _GetProcAddress@8          004fa25d f   kernel32:KERNEL32.dll
 0002:000a7263       _LoadLibraryA@4            004fa263 f   kernel32:KERNEL32.dll
 0002:000a7269       _UnhandledExceptionFilter@4 004fa269 f   kernel32:KERNEL32.dll
 0002:000a726f       _SetUnhandledExceptionFilter@4 004fa26f f   kernel32:KERNEL32.dll
 0002:000a7275       _TerminateProcess@8        004fa275 f   kernel32:KERNEL32.dll
 0002:000a727b       _IsProcessorFeaturePresent@4 004fa27b f   kernel32:KERNEL32.dll
 0002:000a7281       _GetSystemTimeAsFileTime@4 004fa281 f   kernel32:KERNEL32.dll
 0002:000a7287       _InitializeSListHead@4     004fa287 f   kernel32:KERNEL32.dll
 0002:000a728d       _IsDebuggerPresent@0       004fa28d f   kernel32:KERNEL32.dll
 0002:000a7293       _GetStartupInfoW@4         004fa293 f   kernel32:KERNEL32.dll
 0002:000a7299       _GetModuleHandleW@4        004fa299 f   kernel32:KERNEL32.dll
 0002:000a729f       _memcpy                    004fa29f f   vcruntimed:VCRUNTIME140D.dll
 0002:000a72a5       _memset                    004fa2a5 f   vcruntimed:VCRUNTIME140D.dll
 0002:000a72ab       _memchr                    004fa2ab f   vcruntimed:VCRUNTIME140D.dll
 0002:000a72b1       _memcmp                    004fa2b1 f   vcruntimed:VCRUNTIME140D.dll
 0002:000a72b7       __setjmp3                  004fa2b7 f   vcruntimed:VCRUNTIME140D.dll
 0002:000a72bd       _memmove                   004fa2bd f   vcruntimed:VCRUNTIME140D.dll
 0002:000a72c3       _strchr                    004fa2c3 f   vcruntimed:VCRUNTIME140D.dll
 0002:000a72c9       _longjmp                   004fa2c9 f   vcruntimed:VCRUNTIME140D.dll
 0002:000a72cf       ___std_type_info_destroy_list 004fa2cf f   vcruntimed:VCRUNTIME140D.dll
 0002:000a72d5       __except_handler4_common   004fa2d5 f   vcruntimed:VCRUNTIME140D.dll
 0002:000a72db       _strcpy                    004fa2db f   ucrtd:ucrtbased.dll
 0002:000a72e1       ___acrt_iob_func           004fa2e1 f   ucrtd:ucrtbased.dll
 0002:000a72e7       _fclose                    004fa2e7 f   ucrtd:ucrtbased.dll
 0002:000a72ed       _fflush                    004fa2ed f   ucrtd:ucrtbased.dll
 0002:000a72f3       _fgets                     004fa2f3 f   ucrtd:ucrtbased.dll
 0002:000a72f9       _fopen                     004fa2f9 f   ucrtd:ucrtbased.dll
 0002:000a72ff       _fwrite                    004fa2ff f   ucrtd:ucrtbased.dll
 0002:000a7305       _puts                      004fa305 f   ucrtd:ucrtbased.dll
 0002:000a730b       ___stdio_common_vfprintf   004fa30b f   ucrtd:ucrtbased.dll
 0002:000a7311       ___stdio_common_vsprintf   004fa311 f   ucrtd:ucrtbased.dll
 0002:000a7317       _atoi                      004fa317 f   ucrtd:ucrtbased.dll
 0002:000a731d       __wassert                  004fa31d f   ucrtd:ucrtbased.dll
 0002:000a7323       _strlen                    004fa323 f   ucrtd:ucrtbased.dll
 0002:000a7329       _isdigit                   004fa329 f   ucrtd:ucrtbased.dll
 0002:000a732f       _strncpy                   004fa32f f   ucrtd:ucrtbased.dll
 0002:000a7335       _toupper                   004fa335 f   ucrtd:ucrtbased.dll
 0002:000a733b       _tolower                   004fa33b f   ucrtd:ucrtbased.dll
 0002:000a7341       __strnicmp                 004fa341 f   ucrtd:ucrtbased.dll
 0002:000a7347       _isspace                   004fa347 f   ucrtd:ucrtbased.dll
 0002:000a734d       __stricmp                  004fa34d f   ucrtd:ucrtbased.dll
 0002:000a7353       _strcat                    004fa353 f   ucrtd:ucrtbased.dll
 0002:000a7359       _cos                       004fa359 f   ucrtd:ucrtbased.dll
 0002:000a735f       _strcmp                    004fa35f f   ucrtd:ucrtbased.dll
 0002:000a7365       _strncmp                   004fa365 f   ucrtd:ucrtbased.dll
 0002:000a736b       _isxdigit                  004fa36b f   ucrtd:ucrtbased.dll
 0002:000a7371       _srand                     004fa371 f   ucrtd:ucrtbased.dll
 0002:000a7377       _rand                      004fa377 f   ucrtd:ucrtbased.dll
 0002:000a737d       _free                      004fa37d f   ucrtd:ucrtbased.dll
 0002:000a7383       _malloc                    004fa383 f   ucrtd:ucrtbased.dll
 0002:000a7389       _fmod                      004fa389 f   ucrtd:ucrtbased.dll
 0002:000a738f       ___stdio_common_vsscanf    004fa38f f   ucrtd:ucrtbased.dll
 0002:000a7395       _clock                     004fa395 f   ucrtd:ucrtbased.dll
 0002:000a739b       _exit                      004fa39b f   ucrtd:ucrtbased.dll
 0002:000a73a1       __seh_filter_exe           004fa3a1 f   ucrtd:ucrtbased.dll
 0002:000a73a7       __set_app_type             004fa3a7 f   ucrtd:ucrtbased.dll
 0002:000a73ad       ___setusermatherr          004fa3ad f   ucrtd:ucrtbased.dll
 0002:000a73b3       __configure_narrow_argv    004fa3b3 f   ucrtd:ucrtbased.dll
 0002:000a73b9       __initialize_narrow_environment 004fa3b9 f   ucrtd:ucrtbased.dll
 0002:000a73bf       __get_initial_narrow_environment 004fa3bf f   ucrtd:ucrtbased.dll
 0002:000a73c5       __initterm                 004fa3c5 f   ucrtd:ucrtbased.dll
 0002:000a73cb       __initterm_e               004fa3cb f   ucrtd:ucrtbased.dll
 0002:000a73d1       __exit                     004fa3d1 f   ucrtd:ucrtbased.dll
 0002:000a73d7       __set_fmode                004fa3d7 f   ucrtd:ucrtbased.dll
 0002:000a73dd       ___p___argc                004fa3dd f   ucrtd:ucrtbased.dll
 0002:000a73e3       ___p___argv                004fa3e3 f   ucrtd:ucrtbased.dll
 0002:000a73e9       __cexit                    004fa3e9 f   ucrtd:ucrtbased.dll
 0002:000a73ef       __c_exit                   004fa3ef f   ucrtd:ucrtbased.dll
 0002:000a73f5       __register_thread_local_exe_atexit_callback 004fa3f5 f   ucrtd:ucrtbased.dll
 0002:000a73fb       __configthreadlocale       004fa3fb f   ucrtd:ucrtbased.dll
 0002:000a7401       __set_new_mode             004fa401 f   ucrtd:ucrtbased.dll
 0002:000a7407       ___p__commode              004fa407 f   ucrtd:ucrtbased.dll
 0002:000a740d       __except1                  004fa40d f   ucrtd:ucrtbased.dll
 0002:000a7413       __seh_filter_dll           004fa413 f   ucrtd:ucrtbased.dll
 0002:000a7419       __initialize_onexit_table  004fa419 f   ucrtd:ucrtbased.dll
 0002:000a741f       __register_onexit_function 004fa41f f   ucrtd:ucrtbased.dll
 0002:000a7425       __execute_onexit_table     004fa425 f   ucrtd:ucrtbased.dll
 0002:000a742b       __crt_atexit               004fa42b f   ucrtd:ucrtbased.dll
 0002:000a7431       __crt_at_quick_exit        004fa431 f   ucrtd:ucrtbased.dll
 0002:000a7437       __controlfp_s              004fa437 f   ucrtd:ucrtbased.dll
 0002:000a743d       _terminate                 004fa43d f   ucrtd:ucrtbased.dll
 0002:000a7450       ___scrt_stub_for_acrt_initialize 004fa450 f   MSVCRTD:ucrt_stubs.obj
 0002:000a7450       ___vcrt_initialize         004fa450 f   MSVCRTD:ucrt_stubs.obj
 0002:000a7450       ___acrt_initialize         004fa450 f   MSVCRTD:ucrt_stubs.obj
 0002:000a7460       ___vcrt_thread_attach      004fa460 f   MSVCRTD:ucrt_stubs.obj
 0002:000a7460       ___acrt_thread_attach      004fa460 f   MSVCRTD:ucrt_stubs.obj
 0002:000a7460       ___scrt_stub_for_acrt_thread_attach 004fa460 f   MSVCRTD:ucrt_stubs.obj
 0002:000a7470       ___acrt_thread_detach      004fa470 f   MSVCRTD:ucrt_stubs.obj
 0002:000a7470       ___scrt_stub_for_acrt_thread_detach 004fa470 f   MSVCRTD:ucrt_stubs.obj
 0002:000a7470       ___vcrt_thread_detach      004fa470 f   MSVCRTD:ucrt_stubs.obj
 0002:000a7480       ___vcrt_uninitialize       004fa480 f   MSVCRTD:ucrt_stubs.obj
 0002:000a7480       ___acrt_uninitialize       004fa480 f   MSVCRTD:ucrt_stubs.obj
 0002:000a7480       ___scrt_stub_for_acrt_uninitialize 004fa480 f   MSVCRTD:ucrt_stubs.obj
 0002:000a7490       ___scrt_stub_for_acrt_uninitialize_critical 004fa490 f   MSVCRTD:ucrt_stubs.obj
 0002:000a7490       ___vcrt_uninitialize_critical 004fa490 f   MSVCRTD:ucrt_stubs.obj
 0002:000a7490       ___acrt_uninitialize_critical 004fa490 f   MSVCRTD:ucrt_stubs.obj
 0002:000a74a0       ___scrt_stub_for_is_c_termination_complete 004fa4a0 f   MSVCRTD:ucrt_stubs.obj
 0002:000a74a0       __is_c_termination_complete 004fa4a0 f   MSVCRTD:ucrt_stubs.obj
 0003:00000000       ___xc_a                    004fe000     MSVCRTD:initializers.obj
 0003:00000208       ___xc_z                    004fe208     MSVCRTD:initializers.obj
 0003:0000030c       ___xi_a                    004fe30c     MSVCRTD:initializers.obj
 0003:00000618       ___xi_z                    004fe618     MSVCRTD:initializers.obj
 0003:0000071c       ___xp_a                    004fe71c     MSVCRTD:initializers.obj
 0003:00000820       ___xp_z                    004fe820     MSVCRTD:initializers.obj
 0003:00000924       ___xt_a                    004fe924     MSVCRTD:initializers.obj
 0003:00000a28       ___xt_z                    004fea28     MSVCRTD:initializers.obj
 0003:00000b30       __real@4059000000000000    004feb30     siprtp.obj
 0003:00000b40       __real@408f400000000000    004feb40     siprtp.obj
 0003:00000b50       __xmm@41f00000000000000000000000000000 004feb50     siprtp.obj
 0003:00000b64       ??_C@_04HIBGFPH@NULL@      004feb64     pjsip-ua-i386-win32-vc8-debug-dynamic:sip_inv.obj
 0003:00000b6c       ??_C@_07BJAKIKLF@CALLING@  004feb6c     pjsip-ua-i386-win32-vc8-debug-dynamic:sip_inv.obj
 0003:00000b78       ??_C@_08FPHOKLMI@INCOMING@ 004feb78     pjsip-ua-i386-win32-vc8-debug-dynamic:sip_inv.obj
 0003:00000b84       ??_C@_05HMGOBOK@EARLY@     004feb84     pjsip-ua-i386-win32-vc8-debug-dynamic:sip_inv.obj
 0003:00000b8c       ??_C@_0L@OPGIEADC@CONNECTING@ 004feb8c     pjsip-ua-i386-win32-vc8-debug-dynamic:sip_inv.obj
 0003:00000b9c       ??_C@_09JCKBPFKF@CONFIRMED@ 004feb9c     pjsip-ua-i386-win32-vc8-debug-dynamic:sip_inv.obj
 0003:00000ba8       ??_C@_0L@GKFIMDLD@DISCONNCTD@ 004feba8     pjsip-ua-i386-win32-vc8-debug-dynamic:sip_inv.obj
 0003:00000bb8       ??_C@_0L@ONMJOFAN@TERMINATED@ 004febb8     pjsip-ua-i386-win32-vc8-debug-dynamic:sip_inv.obj
 0003:00000bd8       ??_C@_06HHJABCJL@UPDATE@   004febd8     pjsip-ua-i386-win32-vc8-debug-dynamic:sip_inv.obj
 0003:00000be0       ??_C@_0L@BLDGPIGK@mod?9invite@ 004febe0     pjsip-ua-i386-win32-vc8-debug-dynamic:sip_inv.obj
 0003:00000bf0       ??_C@_06DBKGGLMH@INVITE@   004febf0     pjsip-ua-i386-win32-vc8-debug-dynamic:sip_inv.obj
 0003:00000bf8       ??_C@_03JMECLKOM@ACK@      004febf8     pjsip-ua-i386-win32-vc8-debug-dynamic:sip_inv.obj
 0003:00000bfc       ??_C@_03BMFBOCK@BYE@       004febfc     pjsip-ua-i386-win32-vc8-debug-dynamic:sip_inv.obj
 0003:00000c00       ??_C@_06JHILMIHF@CANCEL@   004fec00     pjsip-ua-i386-win32-vc8-debug-dynamic:sip_inv.obj
 0003:00000c08       ??_C@_0BA@MJOOLNNM@application?1sdp@ 004fec08     pjsip-ua-i386-win32-vc8-debug-dynamic:sip_inv.obj
 0003:00000c20       ??_C@_1GI@KGIMEKNL@?$AAd?$AA?3?$AA?2?$AAp?$AAj?$AAs?$AAi?$AAp?$AA?2?$AAp?$AAj?$AAp?$AAr?$AAo?$AAj@ 004fec20     pjsip-ua-i386-win32-vc8-debug-dynamic:sip_inv.obj
 0003:00000c9c       ??_C@_1CI@JMIFBOOB@?$AAi?$AAn?$AAv?$AA?5?$AA?$CG?$AA?$CG?$AA?5?$AAi?$AAn?$AAv?$AA?9?$AA?$DO?$AAr?$AAe?$AAf@ 004fec9c     pjsip-ua-i386-win32-vc8-debug-dynamic:sip_inv.obj
 0003:00000ccc       ??_C@_1BK@GNKFGJGB@?$AAr?$AAe?$AAf?$AA_?$AAc?$AAn?$AAt?$AA?5?$AA?$DO?$AA?$DN?$AA?5?$AA0@ 004feccc     pjsip-ua-i386-win32-vc8-debug-dynamic:sip_inv.obj
 0003:00000cec       ??_C@_0DA@CNKPLCJK@SDP?5offer?1answer?5incomplete?0?5en@ 004fecec     pjsip-ua-i386-win32-vc8-debug-dynamic:sip_inv.obj
 0003:00000d28       ??_C@_1HM@LDBPAIJA@?$AAi?$AAn?$AAv?$AA?9?$AA?$DO?$AAs?$AAt?$AAa?$AAt?$AAe?$AA?5?$AA?$CB?$AA?$DN?$AA?5?$AAP@ 004fed28     pjsip-ua-i386-win32-vc8-debug-dynamic:sip_inv.obj
 0003:00000dbc       ??_C@_0BF@HOOGIPCC@Normal?5call?5clearing@ 004fedbc     pjsip-ua-i386-win32-vc8-debug-dynamic:sip_inv.obj
 0003:00000dd8       ??_C@_0BE@OEKCNCCE@Sending?5pending?5BYE@ 004fedd8     pjsip-ua-i386-win32-vc8-debug-dynamic:sip_inv.obj
 0003:00000df0       ??_C@_0BL@KNCDOFEH@Failed?5sending?5pending?5BYE@ 004fedf0     pjsip-ua-i386-win32-vc8-debug-dynamic:sip_inv.obj
 0003:00000e10       ??_C@_0BH@GCMGFFAD@Unsupported?5event?5type@ 004fee10     pjsip-ua-i386-win32-vc8-debug-dynamic:sip_inv.obj
 0003:00000e2c       ??_C@_1DE@GPLMLJHA@?$AA?$CB?$AA?$CC?$AAU?$AAn?$AAs?$AAu?$AAp?$AAp?$AAo?$AAr?$AAt?$AAe?$AAd?$AA?5?$AAe@ 004fee2c     pjsip-ua-i386-win32-vc8-debug-dynamic:sip_inv.obj
 0003:00000e6c       ??_C@_0BJ@DIELNPDA@Received?5?$CFs?0?5sending?5ACK@ 004fee6c     pjsip-ua-i386-win32-vc8-debug-dynamic:sip_inv.obj
 0003:00000e8c       ??_C@_0CM@GCDEGPO@Received?5?$CFs?0?5notifying?5applicat@ 004fee8c     pjsip-ua-i386-win32-vc8-debug-dynamic:sip_inv.obj
 0003:00000ec0       ??_C@_0BE@HAFKOJBO@Unable?5to?5send?5ACK?$CB@ 004feec0     pjsip-ua-i386-win32-vc8-debug-dynamic:sip_inv.obj
 0003:00000ed8       ??_C@_1CO@NNAENIGI@?$AA?$CB?$AA?$CC?$AAU?$AAn?$AAa?$AAb?$AAl?$AAe?$AA?5?$AAt?$AAo?$AA?5?$AAs?$AAe?$AAn@ 004feed8     pjsip-ua-i386-win32-vc8-debug-dynamic:sip_inv.obj
 0003:00000f10       ??_C@_1EI@OMLIMKLN@?$AAi?$AAn?$AAv?$AA?9?$AA?$DO?$AAi?$AAn?$AAv?$AAi?$AAt?$AAe?$AA_?$AAt?$AAs?$AAx@ 004fef10     pjsip-ua-i386-win32-vc8-debug-dynamic:sip_inv.obj
 0003:00000f68       ??_C@_1M@HEACFIIF@?$AAt?$AAd?$AAa?$AAt?$AAa@ 004fef68     pjsip-ua-i386-win32-vc8-debug-dynamic:sip_inv.obj
 0003:00000f78       ??_C@_03MHNADFJL@sdp@      004fef78     pjsip-ua-i386-win32-vc8-debug-dynamic:sip_inv.obj
 0003:00000f7c       ??_C@_0M@MBDKLJIJ@application@ 004fef7c     pjsip-ua-i386-win32-vc8-debug-dynamic:sip_inv.obj
 0003:00000f8c       ??_C@_09FEKOPBOI@multipart@ 004fef8c     pjsip-ua-i386-win32-vc8-debug-dynamic:sip_inv.obj
 0003:00000f98       ??_C@_05IPHDHIPP@mixed@    004fef98     pjsip-ua-i386-win32-vc8-debug-dynamic:sip_inv.obj
 0003:00000fa0       ??_C@_0M@HAJLPECN@alternative@ 004fefa0     pjsip-ua-i386-win32-vc8-debug-dynamic:sip_inv.obj
 0003:00000fb0       ??_C@_1BI@NILACCAD@?$AAe?$AAn?$AAd?$AAp?$AAt?$AA?5?$AA?$CG?$AA?$CG?$AA?5?$AAc?$AAb@ 004fefb0     pjsip-ua-i386-win32-vc8-debug-dynamic:sip_inv.obj
 0003:00000fd0       ??_C@_1FG@DBJLJEHP@?$AAc?$AAb?$AA?9?$AA?$DO?$AAo?$AAn?$AA_?$AAs?$AAt?$AAa?$AAt?$AAe?$AA_?$AAc?$AAh@ 004fefd0     pjsip-ua-i386-win32-vc8-debug-dynamic:sip_inv.obj
 0003:00001038       ??_C@_1CK@EDLFOFHO@?$AAm?$AAo?$AAd?$AA_?$AAi?$AAn?$AAv?$AA?4?$AAm?$AAo?$AAd?$AA?4?$AAi?$AAd?$AA?5@ 004ff038     pjsip-ua-i386-win32-vc8-debug-dynamic:sip_inv.obj
 0003:00001070       ??_C@_1IO@NDKAAJLK@?$AAs?$AAt?$AAa?$AAt?$AAe?$AA?5?$AA?$DO?$AA?$DN?$AA?5?$AAP?$AAJ?$AAS?$AAI?$AAP?$AA_@ 004ff070     pjsip-ua-i386-win32-vc8-debug-dynamic:sip_inv.obj
 0003:0000111c       ??_C@_02HHFHKOHM@?$DP?$DP@ 004ff11c     pjsip-ua-i386-win32-vc8-debug-dynamic:sip_inv.obj
 0003:00001120       ??_C@_1BK@GKNGGBNP@?$AAd?$AAl?$AAg?$AA?5?$AA?$CG?$AA?$CG?$AA?5?$AAp?$AA_?$AAi?$AAn?$AAv@ 004ff120     pjsip-ua-i386-win32-vc8-debug-dynamic:sip_inv.obj
 0003:00001140       ??_C@_1CG@OAAEADHC@?$AAi?$AAn?$AAv?$AA?5?$AA?$CB?$AA?$DN?$AA?5?$AA?$CI?$AA?$CI?$AAv?$AAo?$AAi?$AAd?$AA?5?$AA?$CK@ 004ff140     pjsip-ua-i386-win32-vc8-debug-dynamic:sip_inv.obj
 0003:00001170       ??_C@_05BICJMLFP@inv?$CFp@ 004ff170     pjsip-ua-i386-win32-vc8-debug-dynamic:sip_inv.obj
 0003:00001178       ??_C@_0CJ@HLKGBANI@UAC?5invite?5session?5created?5for?5@ 004ff178     pjsip-ua-i386-win32-vc8-debug-dynamic:sip_inv.obj
 0003:000011ac       ??_C@_1CI@FFAAJENN@?$AAm?$AAo?$AAd?$AA_?$AAi?$AAn?$AAv?$AA?4?$AAm?$AAo?$AAd?$AA?4?$AAi?$AAd?$AA?5@ 004ff1ac     pjsip-ua-i386-win32-vc8-debug-dynamic:sip_inv.obj
 0003:000011dc       ??_C@_0CC@MAIPFFMN@Error?5parsing?1validating?5SDP?5bo@ 004ff1dc     pjsip-ua-i386-win32-vc8-debug-dynamic:sip_inv.obj
 0003:00001204       ??_C@_09LDKIKNFD@sip_inv?4c@ 004ff204     pjsip-ua-i386-win32-vc8-debug-dynamic:sip_inv.obj
 0003:00001210       ??_C@_1GE@NPDGFGEC@?$AAt?$AAm?$AAp?$AA_?$AAp?$AAo?$AAo?$AAl?$AA?5?$AA?$CB?$AA?$DN?$AA?5?$AA?$CI?$AA?$CI?$AAv@ 004ff210     pjsip-ua-i386-win32-vc8-debug-dynamic:sip_inv.obj
 0003:00001288       ??_C@_1LA@DDGKMCEJ@?$AAm?$AAs?$AAg?$AA?5?$AA?$CG?$AA?$CG?$AA?5?$AAm?$AAs?$AAg?$AA?9?$AA?$DO?$AAt?$AAy?$AAp@ 004ff288     pjsip-ua-i386-win32-vc8-debug-dynamic:sip_inv.obj
 0003:0000135c       ??_C@_1DK@FKEKHHHM@?$AA?$CI?$AA?$CB?$AAp?$AA_?$AAt?$AAd?$AAa?$AAt?$AAa?$AA?$CJ?$AA?5?$AA?$HM?$AA?$HM?$AA?5?$AA?$CI@ 004ff35c     pjsip-ua-i386-win32-vc8-debug-dynamic:sip_inv.obj
 0003:000013a4       ??_C@_0BL@BJMNFGKN@Bad?1missing?5Contact?5header@ 004ff3a4     pjsip-ua-i386-win32-vc8-debug-dynamic:sip_inv.obj
 0003:000013c4       ??_C@_04JBGCGIBB@sips@     004ff3c4     pjsip-ua-i386-win32-vc8-debug-dynamic:sip_inv.obj
 0003:000013cc       ??_C@_03MPAIKGMI@sip@      004ff3cc     pjsip-ua-i386-win32-vc8-debug-dynamic:sip_inv.obj
 0003:000013d0       ??_C@_03HPDJAPFJ@tls@      004ff3d0     pjsip-ua-i386-win32-vc8-debug-dynamic:sip_inv.obj
 0003:000013d4       ??_C@_0O@BCIKELEF@SIPS?5Required@ 004ff3d4     pjsip-ua-i386-win32-vc8-debug-dynamic:sip_inv.obj
 0003:000013e4       ??_C@_17CBGPKFKK@?$AAa?$AAc?$AAc@ 004ff3e4     pjsip-ua-i386-win32-vc8-debug-dynamic:sip_inv.obj
 0003:000013f0       ??_C@_13CIFDLIMG@?$AAw@    004ff3f0     pjsip-ua-i386-win32-vc8-debug-dynamic:sip_inv.obj
 0003:000013f8       ??_C@_1GC@KLNFPDJG@?$AA?$CI?$AAs?$AAt?$AAa?$AAt?$AAu?$AAs?$AA?$DN?$AAp?$AAj?$AAm?$AAe?$AAd?$AAi?$AAa@ 004ff3f8     pjsip-ua-i386-win32-vc8-debug-dynamic:sip_inv.obj
 0003:00001470       ??_C@_1CK@CNMBOKKG@?$AAs?$AAt?$AAa?$AAt?$AAu?$AAs?$AA?5?$AA?$DN?$AA?$DN?$AA?5?$AAP?$AAJ?$AA_?$AAS?$AAU@ 004ff470     pjsip-ua-i386-win32-vc8-debug-dynamic:sip_inv.obj
 0003:000014a4       ??_C@_06IPLOHEDL@100rel@   004ff4a4     pjsip-ua-i386-win32-vc8-debug-dynamic:sip_inv.obj
 0003:000014ac       ??_C@_05NAPFDJNG@timer@    004ff4ac     pjsip-ua-i386-win32-vc8-debug-dynamic:sip_inv.obj
 0003:000014b4       ??_C@_03MKIOHCPB@ice@      004ff4b4     pjsip-ua-i386-win32-vc8-debug-dynamic:sip_inv.obj
 0003:000014b8       ??_C@_08LDJJEDJ@replaces@  004ff4b8     pjsip-ua-i386-win32-vc8-debug-dynamic:sip_inv.obj
 0003:000014c4       ??_C@_1DE@LHIBCBMO@?$AAu?$AAn?$AAs?$AAu?$AAp?$AAp?$AA_?$AAh?$AAd?$AAr?$AA?5?$AA?$CB?$AA?$DN?$AA?5?$AA?$CI@ 004ff4c4     pjsip-ua-i386-win32-vc8-debug-dynamic:sip_inv.obj
 0003:00001504       ??_C@_13CACJPPAP@?$AAh@    004ff504     pjsip-ua-i386-win32-vc8-debug-dynamic:sip_inv.obj
 0003:00001508       ??_C@_1CO@NOMHHNNG@?$AAr?$AAe?$AAq?$AA_?$AAh?$AAd?$AAr?$AA?5?$AA?$CB?$AA?$DN?$AA?5?$AA?$CI?$AA?$CI?$AAv?$AAo@ 004ff508     pjsip-ua-i386-win32-vc8-debug-dynamic:sip_inv.obj
 0003:00001540       ??_C@_1EI@GPHLFPOL@?$AA?$CK?$AAo?$AAp?$AAt?$AAi?$AAo?$AAn?$AAs?$AA?5?$AA?$CG?$AA?5?$AAP?$AAJ?$AAS?$AAI@ 004ff540     pjsip-ua-i386-win32-vc8-debug-dynamic:sip_inv.obj
 0003:00001598       ??_C@_1EG@ELJADGLH@?$AA?$CK?$AAo?$AAp?$AAt?$AAi?$AAo?$AAn?$AAs?$AA?5?$AA?$CG?$AA?5?$AAP?$AAJ?$AAS?$AAI@ 004ff598     pjsip-ua-i386-win32-vc8-debug-dynamic:sip_inv.obj
 0003:000015ec       ??_C@_1O@PKFABOIK@?$AAc?$AAl?$AAo?$AAn?$AAe?$AAd@ 004ff5ec     pjsip-ua-i386-win32-vc8-debug-dynamic:sip_inv.obj
 0003:000015fc       ??_C@_1CM@HCCAEDPH@?$AAd?$AAl?$AAg?$AA?5?$AA?$CG?$AA?$CG?$AA?5?$AAr?$AAd?$AAa?$AAt?$AAa?$AA?5?$AA?$CG?$AA?$CG@ 004ff5fc     pjsip-ua-i386-win32-vc8-debug-dynamic:sip_inv.obj
 0003:00001630       ??_C@_1FE@DGMFBOIA@?$AAp?$AAj?$AAs?$AAi?$AAp?$AA_?$AAr?$AAd?$AAa?$AAt?$AAa?$AA_?$AAg?$AAe?$AAt@ 004ff630     pjsip-ua-i386-win32-vc8-debug-dynamic:sip_inv.obj
 0003:00001698       ??_C@_1KC@EDFPKMMF@?$AAm?$AAs?$AAg?$AA?9?$AA?$DO?$AAt?$AAy?$AAp?$AAe?$AA?5?$AA?$DN?$AA?$DN?$AA?5?$AAP?$AAJ@ 004ff698     pjsip-ua-i386-win32-vc8-debug-dynamic:sip_inv.obj
 0003:0000175c       ??_C@_0CJ@EIBALPMO@UAS?5invite?5session?5created?5for?5@ 004ff75c     pjsip-ua-i386-win32-vc8-debug-dynamic:sip_inv.obj
 0003:00001790       ??_C@_17CJNDAKGM@?$AAi?$AAn?$AAv@ 004ff790     pjsip-ua-i386-win32-vc8-debug-dynamic:sip_inv.obj
 0003:0000179c       ??_C@_1CI@FJCEKDIA@?$AAb?$AAo?$AAd?$AAy?$AA?5?$AA?$CB?$AA?$DN?$AA?5?$AA?$CI?$AA?$CI?$AAv?$AAo?$AAi?$AAd?$AA?5@ 004ff79c     pjsip-ua-i386-win32-vc8-debug-dynamic:sip_inv.obj
 0003:000017cc       ??_C@_05ECJJFAAP@PRACK@    004ff7cc     pjsip-ua-i386-win32-vc8-debug-dynamic:sip_inv.obj
 0003:000017d4       ??_C@_1BO@BGFEAPKD@?$AAi?$AAn?$AAv?$AA?5?$AA?$CG?$AA?$CG?$AA?5?$AAp?$AA_?$AAt?$AAd?$AAa?$AAt?$AAa@ 004ff7d4     pjsip-ua-i386-win32-vc8-debug-dynamic:sip_inv.obj
 0003:000017f8       ??_C@_1JM@PMKFIICP@?$AAi?$AAn?$AAv?$AA?9?$AA?$DO?$AAs?$AAt?$AAa?$AAt?$AAe?$AA?5?$AA?$DN?$AA?$DN?$AA?5?$AAP@ 004ff7f8     pjsip-ua-i386-win32-vc8-debug-dynamic:sip_inv.obj
 0003:000018b8       ??_C@_1IO@HNLDFJEH@?$AAp?$AAj?$AAm?$AAe?$AAd?$AAi?$AAa?$AA_?$AAs?$AAd?$AAp?$AA_?$AAn?$AAe?$AAg@ 004ff8b8     pjsip-ua-i386-win32-vc8-debug-dynamic:sip_inv.obj
 0003:00001964       ??_C@_0CA@LPJKLBPC@SDP?5negotiation?5done?0?5status?$DN?$CFd@ 004ff964     pjsip-ua-i386-win32-vc8-debug-dynamic:sip_inv.obj
 0003:0000198c       ??_C@_05MMFAAGKE@early@    004ff98c     pjsip-ua-i386-win32-vc8-debug-dynamic:sip_inv.obj
 0003:00001994       ??_C@_05FPBGKCKL@final@    004ff994     pjsip-ua-i386-win32-vc8-debug-dynamic:sip_inv.obj
 0003:000019a0       ??_C@_0FN@JNKNAMO@Received?5?$CFs?5response?5after?5SDP?5@ 004ff9a0     pjsip-ua-i386-win32-vc8-debug-dynamic:sip_inv.obj
 0003:00001a10       ??_C@_0EA@DMMNFDGN@Error?5updating?5local?5offer?5for?5@ 004ffa10     pjsip-ua-i386-win32-vc8-debug-dynamic:sip_inv.obj
 0003:00001a5c       ??_C@_0CO@JFCENHLK@SDP?5negotiation?5done?0?5message?5b@ 004ffa5c     pjsip-ua-i386-win32-vc8-debug-dynamic:sip_inv.obj
 0003:00001a94       ??_C@_0BI@BGFFELKE@Error?5parsing?5SDP?5in?5?$CFs@ 004ffa94     pjsip-ua-i386-win32-vc8-debug-dynamic:sip_inv.obj
 0003:00001ab0       ??_C@_1DK@GHGIGOBH@?$AAs?$AAd?$AAp?$AA_?$AAi?$AAn?$AAf?$AAo?$AA?9?$AA?$DO?$AAs?$AAd?$AAp?$AA?5?$AA?$CB@ 004ffab0     pjsip-ua-i386-win32-vc8-debug-dynamic:sip_inv.obj
 0003:00001af8       ??_C@_0BE@EPLINLEA@Got?5SDP?5offer?5in?5?$CFs@ 004ffaf8     pjsip-ua-i386-win32-vc8-debug-dynamic:sip_inv.obj
 0003:00001b10       ??_C@_0CA@NKIPLGEL@Error?5processing?5SDP?5offer?5in?5?$CF@ 004ffb10     pjsip-ua-i386-win32-vc8-debug-dynamic:sip_inv.obj
 0003:00001b38       ??_C@_0EG@MIAPKNNJ@Ignoring?5on_rx_offer?$CI?$CJ?5status?5b@ 004ffb38     pjsip-ua-i386-win32-vc8-debug-dynamic:sip_inv.obj
 0003:00001b8c       ??_C@_0BF@NJIJAPGF@Got?5SDP?5answer?5in?5?$CFs@ 004ffb8c     pjsip-ua-i386-win32-vc8-debug-dynamic:sip_inv.obj
 0003:00001ba8       ??_C@_0CC@MICCHKNP@Error?5processing?5SDP?5answer?5in?5@ 004ffba8     pjsip-ua-i386-win32-vc8-debug-dynamic:sip_inv.obj
 0003:00001bd0       ??_C@_0CK@CNMHAOHC@Ignored?5SDP?5in?5?$CFs?3?5negotiator?5s@ 004ffbd0     pjsip-ua-i386-win32-vc8-debug-dynamic:sip_inv.obj
 0003:00001c04       ??_C@_13COJANIEC@?$AA0@    004ffc04     pjsip-ua-i386-win32-vc8-debug-dynamic:sip_inv.obj
 0003:00001c08       ??_C@_1CA@LLHICPOK@?$AAi?$AAn?$AAv?$AA?9?$AA?$DO?$AAi?$AAn?$AAv?$AAi?$AAt?$AAe?$AA_?$AAt?$AAs?$AAx@ 004ffc08     pjsip-ua-i386-win32-vc8-debug-dynamic:sip_inv.obj
 0003:00001c30       ??_C@_0BC@DKICHHDF@Initial?5answer?5?$CFs@ 004ffc30     pjsip-ua-i386-win32-vc8-debug-dynamic:sip_inv.obj
 0003:00001c48       ??_C@_1CC@OFHPEPC@?$AAi?$AAn?$AAv?$AA?9?$AA?$DO?$AAl?$AAa?$AAs?$AAt?$AA_?$AAa?$AAn?$AAs?$AAw?$AAe@ 004ffc48     pjsip-ua-i386-win32-vc8-debug-dynamic:sip_inv.obj
 0003:00001c70       ??_C@_1BG@KMJGABE@?$AAi?$AAn?$AAv?$AA?5?$AA?$CG?$AA?$CG?$AA?5?$AAs?$AAd?$AAp@ 004ffc70     pjsip-ua-i386-win32-vc8-debug-dynamic:sip_inv.obj
 0003:00001c8c       ??_C@_1DO@EECGANDN@?$AAi?$AAn?$AAv?$AA?9?$AA?$DO?$AAi?$AAn?$AAv?$AAi?$AAt?$AAe?$AA_?$AAt?$AAs?$AAx@ 004ffc8c     pjsip-ua-i386-win32-vc8-debug-dynamic:sip_inv.obj
 0003:00001cd8       ??_C@_0DO@HEALFLEC@Delaying?5CANCEL?5since?5no?5provis@ 004ffcd8     pjsip-ua-i386-win32-vc8-debug-dynamic:sip_inv.obj
 0003:00001d24       ??_C@_1CK@IGANNOPN@?$AAt?$AAd?$AAa?$AAt?$AAa?$AA?5?$AA?$CB?$AA?$DN?$AA?5?$AA?$CI?$AA?$CI?$AAv?$AAo?$AAi?$AAd@ 004ffd24     pjsip-ua-i386-win32-vc8-debug-dynamic:sip_inv.obj
 0003:00001d58       ??_C@_0BD@KGOPLDMJ@Invalid?5operation?$CB@ 004ffd58     pjsip-ua-i386-win32-vc8-debug-dynamic:sip_inv.obj
 0003:00001d70       ??_C@_1CM@NIACOCAG@?$AA?$CB?$AA?$CC?$AAI?$AAn?$AAv?$AAa?$AAl?$AAi?$AAd?$AA?5?$AAo?$AAp?$AAe?$AAr?$AAa@ 004ffd70     pjsip-ua-i386-win32-vc8-debug-dynamic:sip_inv.obj
 0003:00001da4       ??_C@_0BG@HEMHFPBP@Should?5not?5reach?5here@ 004ffda4     pjsip-ua-i386-win32-vc8-debug-dynamic:sip_inv.obj
 0003:00001dc0       ??_C@_1DC@HODPDJOC@?$AA?$CB?$AA?$CC?$AAS?$AAh?$AAo?$AAu?$AAl?$AAd?$AA?5?$AAn?$AAo?$AAt?$AA?5?$AAr?$AAe@ 004ffdc0     pjsip-ua-i386-win32-vc8-debug-dynamic:sip_inv.obj
 0003:00001e00       ??_C@_1EI@LPOKHMME@?$AAi?$AAn?$AAv?$AA?5?$AA?$CG?$AA?$CG?$AA?5?$AAo?$AAp?$AA?5?$AA?$CB?$AA?$DN?$AA?5?$AAP?$AAJ@ 004ffe00     pjsip-ua-i386-win32-vc8-debug-dynamic:sip_inv.obj
 0003:00001e58       ??_C@_0BI@DIMJOHLK@?$DM?9error?3?5uri?5too?5long?9?$DO@ 004ffe58     pjsip-ua-i386-win32-vc8-debug-dynamic:sip_inv.obj
 0003:00001e74       ??_C@_0BC@KLJDOBBG@Should?5not?5happen@ 004ffe74     pjsip-ua-i386-win32-vc8-debug-dynamic:sip_inv.obj
 0003:00001e8c       ??_C@_1CK@OMJLCHM@?$AA?$CB?$AA?$CC?$AAS?$AAh?$AAo?$AAu?$AAl?$AAd?$AA?5?$AAn?$AAo?$AAt?$AA?5?$AAh?$AAa@ 004ffe8c     pjsip-ua-i386-win32-vc8-debug-dynamic:sip_inv.obj
 0003:00001ec0       ??_C@_07PMMFKIFM@Contact@  004ffec0     pjsip-ua-i386-win32-vc8-debug-dynamic:sip_inv.obj
 0003:00001ecc       ??_C@_0BO@INEDICFJ@Unexpected?5SDP?5neg?5state?5NULL@ 004ffecc     pjsip-ua-i386-win32-vc8-debug-dynamic:sip_inv.obj
 0003:00001ef0       ??_C@_1EC@BLGMPBAH@?$AA?$CB?$AA?$CC?$AAU?$AAn?$AAe?$AAx?$AAp?$AAe?$AAc?$AAt?$AAe?$AAd?$AA?5?$AAS?$AAD@ 004ffef0     pjsip-ua-i386-win32-vc8-debug-dynamic:sip_inv.obj
 0003:00001f40       ??_C@_0EA@JEELPGOL@pjsip_inv_reinvite?3?5already?5hav@ 004fff40     pjsip-ua-i386-win32-vc8-debug-dynamic:sip_inv.obj
 0003:00001f90       ??_C@_0EB@ECNPIPJI@pjsip_inv_reinvite?3?5SDP?5in?5WAIT@ 004fff90     pjsip-ua-i386-win32-vc8-debug-dynamic:sip_inv.obj
 0003:00001fe0       ??_C@_1GE@CJEEMPEH@?$AAi?$AAn?$AAv?$AA?9?$AA?$DO?$AAd?$AAl?$AAg?$AA?9?$AA?$DO?$AAs?$AAt?$AAa?$AAt?$AAe@ 004fffe0     pjsip-ua-i386-win32-vc8-debug-dynamic:sip_inv.obj
 0003:00002058       ??_C@_1FE@KEFJDLFA@?$AAi?$AAn?$AAv?$AA?9?$AA?$DO?$AAs?$AAt?$AAa?$AAt?$AAe?$AA?5?$AA?$DM?$AA?5?$AAP?$AAJ@ 00500058     pjsip-ua-i386-win32-vc8-debug-dynamic:sip_inv.obj
 0003:000020bc       ??_C@_0CK@INPGLEAA@Invalid?5SDP?5offer?1answer?5state?5@ 005000bc     pjsip-ua-i386-win32-vc8-debug-dynamic:sip_inv.obj
 0003:000020f0       ??_C@_1BK@LKOBIJHK@?$AAi?$AAn?$AAv?$AA?5?$AA?$CG?$AA?$CG?$AA?5?$AAt?$AAd?$AAa?$AAt?$AAa@ 005000f0     pjsip-ua-i386-win32-vc8-debug-dynamic:sip_inv.obj
 0003:00002110       ??_C@_0L@BPIOADDE@Sending?5?$CFs@ 00500110     pjsip-ua-i386-win32-vc8-debug-dynamic:sip_inv.obj
 0003:00002120       ??_C@_0CL@IIMHLPDD@Delaying?5BYE?5request?5until?5ACK?5@ 00500120     pjsip-ua-i386-win32-vc8-debug-dynamic:sip_inv.obj
 0003:00002158       ??_C@_1BBA@FBGJFHAJ@?$AA?$CI?$AAc?$AAs?$AAe?$AAq?$AA?$DN?$AA?$CI?$AAp?$AAj?$AAs?$AAi?$AAp?$AA_?$AAc?$AAs@ 00500158     pjsip-ua-i386-win32-vc8-debug-dynamic:sip_inv.obj
 0003:000022a0       ??_C@_1FK@OLGMKDFB@?$AAe?$AA?9?$AA?$DO?$AAb?$AAo?$AAd?$AAy?$AA?4?$AAt?$AAs?$AAx?$AA_?$AAs?$AAt?$AAa@ 005002a0     pjsip-ua-i386-win32-vc8-debug-dynamic:sip_inv.obj
 0003:00002310       ??_C@_1EG@JDJOKKMM@?$AAi?$AAn?$AAv?$AAi?$AAt?$AAe?$AA_?$AAt?$AAs?$AAx?$AA?9?$AA?$DO?$AAl?$AAa?$AAs@ 00500310     pjsip-ua-i386-win32-vc8-debug-dynamic:sip_inv.obj
 0003:00002368       ??_C@_1KC@GIOMKGCP@?$AAe?$AA?9?$AA?$DO?$AAt?$AAy?$AAp?$AAe?$AA?5?$AA?$DN?$AA?$DN?$AA?5?$AAP?$AAJ?$AAS?$AAI@ 00500368     pjsip-ua-i386-win32-vc8-debug-dynamic:sip_inv.obj
 0003:0000242c       ??_C@_1BK@BCEMGCPF@?$AAt?$AAs?$AAx?$AA_?$AAi?$AAn?$AAv?$AA_?$AAd?$AAa?$AAt?$AAa@ 0050042c     pjsip-ua-i386-win32-vc8-debug-dynamic:sip_inv.obj
 0003:0000244c       ??_C@_0DG@BKONCIHK@Ignored?5message?5body?5in?5?$CFs?5as?5n@ 0050044c     pjsip-ua-i386-win32-vc8-debug-dynamic:sip_inv.obj
 0003:00002490       ??_C@_0FL@EKGBDOF@Secure?5dialog?5requires?5SIPS?5sch@ 00500490     pjsip-ua-i386-win32-vc8-debug-dynamic:sip_inv.obj
 0003:00002500       ??_C@_0FH@KHNGIOMA@Secure?5dialog?5requires?5SIPS?5sch@ 00500500     pjsip-ua-i386-win32-vc8-debug-dynamic:sip_inv.obj
 0003:00002568       ??_C@_1BG@EJKNJBON@?$AAt?$AAs?$AAx?$AA?5?$AA?$CG?$AA?$CG?$AA?5?$AAd?$AAl?$AAg@ 00500568     pjsip-ua-i386-win32-vc8-debug-dynamic:sip_inv.obj
 0003:00002584       ??_C@_0BM@DEIBJIKO@Unexpected?5transaction?5type@ 00500584     pjsip-ua-i386-win32-vc8-debug-dynamic:sip_inv.obj
 0003:000025a8       ??_C@_1DO@GGDHOIGC@?$AA?$CB?$AA?$CC?$AAU?$AAn?$AAe?$AAx?$AAp?$AAe?$AAc?$AAt?$AAe?$AAd?$AA?5?$AAt?$AAr@ 005005a8     pjsip-ua-i386-win32-vc8-debug-dynamic:sip_inv.obj
 0003:000025f4       ??_C@_1DI@FIJLFHDF@?$AAt?$AAs?$AAx?$AA?9?$AA?$DO?$AAr?$AAo?$AAl?$AAe?$AA?5?$AA?$DN?$AA?$DN?$AA?5?$AAP?$AAJ@ 005005f4     pjsip-ua-i386-win32-vc8-debug-dynamic:sip_inv.obj
 0003:00002638       ??_C@_0BI@BMAGDFPC@Unexpected?5INVITE?5state@ 00500638     pjsip-ua-i386-win32-vc8-debug-dynamic:sip_inv.obj
 0003:00002654       ??_C@_1DG@COAHJHHL@?$AA?$CB?$AA?$CC?$AAU?$AAn?$AAe?$AAx?$AAp?$AAe?$AAc?$AAt?$AAe?$AAd?$AA?5?$AAI?$AAN@ 00500654     pjsip-ua-i386-win32-vc8-debug-dynamic:sip_inv.obj
 0003:00002694       ??_C@_0BM@GPHCPLAL@Unexpected?5INVITE?5tsx?5state@ 00500694     pjsip-ua-i386-win32-vc8-debug-dynamic:sip_inv.obj
 0003:000026b8       ??_C@_1DO@PPPPLNCC@?$AA?$CB?$AA?$CC?$AAU?$AAn?$AAe?$AAx?$AAp?$AAe?$AAc?$AAt?$AAe?$AAd?$AA?5?$AAI?$AAN@ 005006b8     pjsip-ua-i386-win32-vc8-debug-dynamic:sip_inv.obj
 0003:00002704       ??_C@_0BB@MBJACEGJ@Unexpected?5state@ 00500704     pjsip-ua-i386-win32-vc8-debug-dynamic:sip_inv.obj
 0003:00002718       ??_C@_1CI@PIODLIDM@?$AA?$CB?$AA?$CC?$AAU?$AAn?$AAe?$AAx?$AAp?$AAe?$AAc?$AAt?$AAe?$AAd?$AA?5?$AAs?$AAt@ 00500718     pjsip-ua-i386-win32-vc8-debug-dynamic:sip_inv.obj
 0003:00002748       ??_C@_0CH@BBKLGGDE@Another?5INVITE?5transaction?5in?5p@ 00500748     pjsip-ua-i386-win32-vc8-debug-dynamic:sip_inv.obj
 0003:00002778       ??_C@_0BM@KEOGGKDD@on_rx_reinvite?$CI?$CJ?5returns?5?$CFd@ 00500778     pjsip-ua-i386-win32-vc8-debug-dynamic:sip_inv.obj
 0003:0000279c       ??_C@_0BH@GJLJMANH@SDP?5negotiation?5failed@ 0050079c     pjsip-ua-i386-win32-vc8-debug-dynamic:sip_inv.obj
 0003:000027b8       ??_C@_1GK@CLEDBDLA@?$AAi?$AAn?$AAv?$AA?9?$AA?$DO?$AAi?$AAn?$AAv?$AAi?$AAt?$AAe?$AA_?$AAt?$AAs?$AAx@ 005007b8     pjsip-ua-i386-win32-vc8-debug-dynamic:sip_inv.obj
 0003:00002838       _pjsip_prack_method        00500838     pjsip-ua-i386-win32-vc8-debug-dynamic:sip_100rel.obj
 0003:00002864       ??_C@_04NKIOHFHJ@RSeq@     00500864     pjsip-ua-i386-win32-vc8-debug-dynamic:sip_100rel.obj
 0003:0000286c       ??_C@_04JEDOGMAE@RAck@     0050086c     pjsip-ua-i386-win32-vc8-debug-dynamic:sip_100rel.obj
 0003:00002874       ??_C@_0L@KBAFDJEE@mod?9100rel@ 00500874     pjsip-ua-i386-win32-vc8-debug-dynamic:sip_100rel.obj
 0003:00002888       ??_C@_1GO@GFABGKDM@?$AAd?$AA?3?$AA?2?$AAp?$AAj?$AAs?$AAi?$AAp?$AA?2?$AAp?$AAj?$AAp?$AAr?$AAo?$AAj@ 00500888     pjsip-ua-i386-win32-vc8-debug-dynamic:sip_100rel.obj
 0003:0000290c       ??_C@_1CO@GFBPPKIH@?$AAm?$AAo?$AAd?$AA_?$AA1?$AA0?$AA0?$AAr?$AAe?$AAl?$AA?4?$AAm?$AAo?$AAd?$AA?4@ 0050090c     pjsip-ua-i386-win32-vc8-debug-dynamic:sip_100rel.obj
 0003:00002944       ??_C@_0BH@ONPFCEOK@100rel?5module?5attached@ 00500944     pjsip-ua-i386-win32-vc8-debug-dynamic:sip_100rel.obj
 0003:00002960       ??_C@_1EA@HNPHDELL@?$AAm?$AAs?$AAg?$AA?9?$AA?$DO?$AAt?$AAy?$AAp?$AAe?$AA?5?$AA?$DN?$AA?$DN?$AA?5?$AAP?$AAJ@ 00500960     pjsip-ua-i386-win32-vc8-debug-dynamic:sip_100rel.obj
 0003:000029ac       ??_C@_1CE@MOGMKPAG@?$AAd?$AAd?$AA?5?$AA?$CB?$AA?$DN?$AA?5?$AA?$CI?$AA?$CI?$AAv?$AAo?$AAi?$AAd?$AA?5?$AA?$CK?$AA?$CJ@ 005009ac     pjsip-ua-i386-win32-vc8-debug-dynamic:sip_100rel.obj
 0003:000029d8       ??_C@_1BAG@DPLLFNLE@?$AAt?$AAs?$AAx?$AA?9?$AA?$DO?$AAr?$AAo?$AAl?$AAe?$AA?5?$AA?$DN?$AA?$DN?$AA?5?$AAP?$AAJ@ 005009d8     pjsip-ua-i386-win32-vc8-debug-dynamic:sip_100rel.obj
 0003:00002b14       ??_C@_0CN@FOEJAHIE@Ignoring?5100rel?5response?5with?5n@ 00500b14     pjsip-ua-i386-win32-vc8-debug-dynamic:sip_100rel.obj
 0003:00002b50       ??_C@_0EC@BLMHGGJH@Ignoring?5100rel?5response?5becaus@ 00500b50     pjsip-ua-i386-win32-vc8-debug-dynamic:sip_100rel.obj
 0003:00002ba0       ??_C@_0DL@FCLLNCLO@Ignoring?5100rel?5response?5with?5n@ 00500ba0     pjsip-ua-i386-win32-vc8-debug-dynamic:sip_100rel.obj
 0003:00002be8       ??_C@_0L@IBEMKGAL@?$CFu?5?$CFu?5?$CF?4?$CKs@ 00500be8     pjsip-ua-i386-win32-vc8-debug-dynamic:sip_100rel.obj
 0003:00002bf8       ??_C@_1CG@CMEADMBF@?$AAt?$AAs?$AAx?$AA?5?$AA?$CB?$AA?$DN?$AA?5?$AA?$CI?$AA?$CI?$AAv?$AAo?$AAi?$AAd?$AA?5?$AA?$CK@ 00500bf8     pjsip-ua-i386-win32-vc8-debug-dynamic:sip_100rel.obj
 0003:00002c28       ??_C@_0BB@IEDINMFC@Unexpected?5PRACK@ 00500c28     pjsip-ua-i386-win32-vc8-debug-dynamic:sip_100rel.obj
 0003:00002c3c       ??_C@_0CE@PLNFEICH@PRACK?5ignored?5?9?5no?5pending?5resp@ 00500c3c     pjsip-ua-i386-win32-vc8-debug-dynamic:sip_100rel.obj
 0003:00002c68       ??_C@_0P@BPOGJPKH@No?5RAck?5header@ 00500c68     pjsip-ua-i386-win32-vc8-debug-dynamic:sip_100rel.obj
 0003:00002c7c       ??_C@_0CM@DOMMHELC@Rx?5PRACK?5with?5no?5matching?5relia@ 00500c7c     pjsip-ua-i386-win32-vc8-debug-dynamic:sip_100rel.obj
 0003:00002cb0       ??_C@_0BM@HPALGIGM@Reliable?5response?5timed?5out@ 00500cb0     pjsip-ua-i386-win32-vc8-debug-dynamic:sip_100rel.obj
 0003:00002cd8       ??_C@_1FK@JBJPEPJI@?$AA?$CB?$AAp?$AAj?$AA_?$AAl?$AAi?$AAs?$AAt?$AA_?$AAe?$AAm?$AAp?$AAt?$AAy?$AA?$CI@ 00500cd8     pjsip-ua-i386-win32-vc8-debug-dynamic:sip_100rel.obj
 0003:00002d48       ??_C@_1EO@KDLDBGFC@?$AAt?$AAd?$AAa?$AAt?$AAa?$AA?9?$AA?$DO?$AAm?$AAs?$AAg?$AA?9?$AA?$DO?$AAt?$AAy?$AAp@ 00500d48     pjsip-ua-i386-win32-vc8-debug-dynamic:sip_100rel.obj
 0003:00002da8       ??_C@_1DA@KBFAOJJC@?$AAc?$AAs?$AAe?$AAq?$AA_?$AAh?$AAd?$AAr?$AA?5?$AA?$CB?$AA?$DN?$AA?5?$AA?$CI?$AA?$CI?$AAv@ 00500da8     pjsip-ua-i386-win32-vc8-debug-dynamic:sip_100rel.obj
 0003:00002de8       ??_C@_1FG@CPHIALLB@?$AAc?$AAs?$AAe?$AAq?$AA_?$AAh?$AAd?$AAr?$AA?9?$AA?$DO?$AAm?$AAe?$AAt?$AAh?$AAo@ 00500de8     pjsip-ua-i386-win32-vc8-debug-dynamic:sip_100rel.obj
 0003:00002e50       ??_C@_0CG@JIMKEDOL@2xx?5response?5will?5be?5sent?5after@ 00500e50     pjsip-ua-i386-win32-vc8-debug-dynamic:sip_100rel.obj
 0003:00002e80       ??_C@_0CE@BEBCMEH@No?5SDP?5sent?5so?5far?0?5sending?52xx@ 00500e80     pjsip-ua-i386-win32-vc8-debug-dynamic:sip_100rel.obj
 0003:00002eb0       ??_C@_1EM@CPJEFMIN@?$AAc?$AAs?$AAe?$AAq?$AA_?$AAh?$AAd?$AAr?$AA?9?$AA?$DO?$AAc?$AAs?$AAe?$AAq?$AA?5@ 00500eb0     pjsip-ua-i386-win32-vc8-debug-dynamic:sip_100rel.obj
 0003:00002f0c       ??_C@_02GMHACPFF@?$CFu@    00500f0c     pjsip-ua-i386-win32-vc8-debug-dynamic:sip_100rel.obj
 0003:00002f10       ??_C@_0CL@JLPOAJFO@Reliable?5?$CFd?5response?5enqueued?5?$CI@ 00500f10     pjsip-ua-i386-win32-vc8-debug-dynamic:sip_100rel.obj
 0003:00002f7c       _pjsip_update_method       00500f7c     pjsip-ua-i386-win32-vc8-debug-dynamic:sip_timer.obj
 0003:00002f98       ??_C@_0BA@HCNJNBAB@Session?9Expires@ 00500f98     pjsip-ua-i386-win32-vc8-debug-dynamic:sip_timer.obj
 0003:00002fac       ??_C@_01FJMABOPO@x@        00500fac     pjsip-ua-i386-win32-vc8-debug-dynamic:sip_timer.obj
 0003:00002fb0       ??_C@_06PPBKPPMM@Min?9SE@  00500fb0     pjsip-ua-i386-win32-vc8-debug-dynamic:sip_timer.obj
 0003:00002fb8       ??_C@_09NOICKHFM@refresher@ 00500fb8     pjsip-ua-i386-win32-vc8-debug-dynamic:sip_timer.obj
 0003:00002fc4       ??_C@_03IFJPOJDO@uac@      00500fc4     pjsip-ua-i386-win32-vc8-debug-dynamic:sip_timer.obj
 0003:00002fc8       ??_C@_03MPFNPLGP@uas@      00500fc8     pjsip-ua-i386-win32-vc8-debug-dynamic:sip_timer.obj
 0003:00002fd0       ??_C@_1GM@BBIPIJKI@?$AAd?$AA?3?$AA?2?$AAp?$AAj?$AAs?$AAi?$AAp?$AA?2?$AAp?$AAj?$AAp?$AAr?$AAo?$AAj@ 00500fd0     pjsip-ua-i386-win32-vc8-debug-dynamic:sip_timer.obj
 0003:00003058       ??_C@_1IE@OMKPDGNF@?$AAp?$AAj?$AAm?$AAe?$AAd?$AAi?$AAa?$AA_?$AAs?$AAd?$AAp?$AA_?$AAn?$AAe?$AAg@ 00501058     pjsip-ua-i386-win32-vc8-debug-dynamic:sip_timer.obj
 0003:000030f8       ??_C@_0DF@MFNPLMLE@Refreshing?5session?5after?5?$CFds?5?$CIe@ 005010f8     pjsip-ua-i386-win32-vc8-debug-dynamic:sip_timer.obj
 0003:00003138       ??_C@_0BB@FFFNADMG@refresh?5response@ 00501138     pjsip-ua-i386-win32-vc8-debug-dynamic:sip_timer.obj
 0003:0000314c       ??_C@_07HPCLKEG@refresh@   0050114c     pjsip-ua-i386-win32-vc8-debug-dynamic:sip_timer.obj
 0003:00003158       ??_C@_0FA@NNHOKPAC@No?5session?5?$CFs?5received?5after?5?$CFd@ 00501158     pjsip-ua-i386-win32-vc8-debug-dynamic:sip_timer.obj
 0003:000031b8       ??_C@_0L@BHFFIHLE@refreshing@ 005011b8     pjsip-ua-i386-win32-vc8-debug-dynamic:sip_timer.obj
 0003:000031c8       ??_C@_0M@CIHJDPCM@terminating@ 005011c8     pjsip-ua-i386-win32-vc8-debug-dynamic:sip_timer.obj
 0003:000031d8       ??_C@_0BK@JNGKHHHE@Error?5in?5?$CFs?5session?5timer@ 005011d8     pjsip-ua-i386-win32-vc8-debug-dynamic:sip_timer.obj
 0003:000031f8       ??_C@_1DM@HPEEEJGB@?$AAi?$AAn?$AAv?$AA?9?$AA?$DO?$AAt?$AAi?$AAm?$AAe?$AAr?$AA?9?$AA?$DO?$AAa?$AAc?$AAt@ 005011f8     pjsip-ua-i386-win32-vc8-debug-dynamic:sip_timer.obj
 0003:00003240       ??_C@_1M@EACLICAA@?$AAe?$AAn?$AAd?$AAp?$AAt@ 00501240     pjsip-ua-i386-win32-vc8-debug-dynamic:sip_timer.obj
 0003:00003250       ??_C@_0CJ@JCEACFK@Failed?5to?5register?5Session?5Time@ 00501250     pjsip-ua-i386-win32-vc8-debug-dynamic:sip_timer.obj
 0003:00003288       ??_C@_1FI@ILAKGBLO@?$AA?$CB?$AA?$CC?$AAF?$AAa?$AAi?$AAl?$AAe?$AAd?$AA?5?$AAt?$AAo?$AA?5?$AAr?$AAe?$AAg@ 00501288     pjsip-ua-i386-win32-vc8-debug-dynamic:sip_timer.obj
 0003:000032f4       ??_C@_0M@MJHMIAGK@sip_timer?4c@ 005012f4     pjsip-ua-i386-win32-vc8-debug-dynamic:sip_timer.obj
 0003:00003304       ??_C@_1BO@JAEBLEHN@?$AAi?$AAs?$AA_?$AAi?$AAn?$AAi?$AAt?$AAi?$AAa?$AAl?$AAi?$AAz?$AAe?$AAd@ 00501304     pjsip-ua-i386-win32-vc8-debug-dynamic:sip_timer.obj
 0003:00003328       ??_C@_1CM@NJFBGLBB@?$AAs?$AAe?$AAt?$AAt?$AAi?$AAn?$AAg?$AA?9?$AA?$DO?$AAm?$AAi?$AAn?$AA_?$AAs?$AAe@ 00501328     pjsip-ua-i386-win32-vc8-debug-dynamic:sip_timer.obj
 0003:00003360       ??_C@_1FC@PFINMCFP@?$AAs?$AAe?$AAt?$AAt?$AAi?$AAn?$AAg?$AA?9?$AA?$DO?$AAs?$AAe?$AAs?$AAs?$AA_?$AAe@ 00501360     pjsip-ua-i386-win32-vc8-debug-dynamic:sip_timer.obj
 0003:000033c4       ??_C@_1BK@FFNMCMJK@?$AAi?$AAn?$AAv?$AA?5?$AA?$CG?$AA?$CG?$AA?5?$AAr?$AAd?$AAa?$AAt?$AAa@ 005013c4     pjsip-ua-i386-win32-vc8-debug-dynamic:sip_timer.obj
 0003:000033e8       ??_C@_0EK@JCMLCMLM@Received?5422?5?$CISession?5Interval?5@ 005013e8     pjsip-ua-i386-win32-vc8-debug-dynamic:sip_timer.obj
 0003:00003440       ??_C@_1BG@OMODNANJ@?$AAi?$AAn?$AAv?$AA?9?$AA?$DO?$AAt?$AAi?$AAm?$AAe?$AAr@ 00501440     pjsip-ua-i386-win32-vc8-debug-dynamic:sip_timer.obj
 0003:0000345c       ??_C@_17FMIDHGHF@?$AAv?$AAi?$AAa@ 0050145c     pjsip-ua-i386-win32-vc8-debug-dynamic:sip_timer.obj
 0003:00003468       ??_C@_0IG@FLJLCDDH@Peer?5responds?5with?5bad?5Session?9@ 00501468     pjsip-ua-i386-win32-vc8-debug-dynamic:sip_timer.obj
 0003:00003508       ??_C@_1BK@EPMHPBJG@?$AAi?$AAn?$AAv?$AA?5?$AA?$CG?$AA?$CG?$AA?5?$AAe?$AAv?$AAe?$AAn?$AAt@ 00501508     pjsip-ua-i386-win32-vc8-debug-dynamic:sip_timer.obj
 0003:00003528       ??_C@_0DC@MANPDFEB@Receive?5error?5?$CFd?5for?5refresh?5re@ 00501528     pjsip-ua-i386-win32-vc8-debug-dynamic:sip_timer.obj
 0003:00003564       ??_C@_0DH@MMOHCGLD@Scheduling?5to?5retry?5refresh?5req@ 00501564     pjsip-ua-i386-win32-vc8-debug-dynamic:sip_timer.obj
 0003:000035a8       ??_C@_0BD@KGAJMAJC@Ending?5session?5now@ 005015a8     pjsip-ua-i386-win32-vc8-debug-dynamic:sip_timer.obj
 0003:000035c0       ??_C@_1DO@INEDJOPJ@?$AAm?$AAs?$AAg?$AA?9?$AA?$DO?$AAt?$AAy?$AAp?$AAe?$AA?5?$AA?$DN?$AA?$DN?$AA?5?$AAP?$AAJ@ 005015c0     pjsip-ua-i386-win32-vc8-debug-dynamic:sip_timer.obj
 0003:0000360c       ??_C@_1BA@OFFBENJP@?$AAr?$AAe?$AAq?$AA_?$AAh?$AAd?$AAr@ 0050160c     pjsip-ua-i386-win32-vc8-debug-dynamic:sip_timer.obj
 0003:00003620       _pjsip_invite_method       00501620     pjsip-core-i386-win32-vc8-debug-dynamic:sip_msg.obj
 0003:0000362c       _pjsip_cancel_method       0050162c     pjsip-core-i386-win32-vc8-debug-dynamic:sip_msg.obj
 0003:00003638       _pjsip_ack_method          00501638     pjsip-core-i386-win32-vc8-debug-dynamic:sip_msg.obj
 0003:00003644       _pjsip_bye_method          00501644     pjsip-core-i386-win32-vc8-debug-dynamic:sip_msg.obj
 0003:00003650       _pjsip_register_method     00501650     pjsip-core-i386-win32-vc8-debug-dynamic:sip_msg.obj
 0003:0000365c       _pjsip_options_method      0050165c     pjsip-core-i386-win32-vc8-debug-dynamic:sip_msg.obj
 0003:00003668       _pjsip_hdr_names           00501668     pjsip-core-i386-win32-vc8-debug-dynamic:sip_msg.obj
 0003:00003900       ??_C@_08EINEADGI@REGISTER@ 00501900     pjsip-core-i386-win32-vc8-debug-dynamic:sip_msg.obj
 0003:0000390c       ??_C@_07KDKMIPIP@OPTIONS@  0050190c     pjsip-core-i386-win32-vc8-debug-dynamic:sip_msg.obj
 0003:00003918       ??_C@_06MDEHPNLG@Accept@   00501918     pjsip-core-i386-win32-vc8-debug-dynamic:sip_msg.obj
 0003:00003920       ??_C@_0BA@KDJCHKHJ@Accept?9Encoding@ 00501920     pjsip-core-i386-win32-vc8-debug-dynamic:sip_msg.obj
 0003:00003934       ??_C@_0BA@POEGPCPD@Accept?9Language@ 00501934     pjsip-core-i386-win32-vc8-debug-dynamic:sip_msg.obj
 0003:00003948       ??_C@_0L@DDNEKGOG@Alert?9Info@ 00501948     pjsip-core-i386-win32-vc8-debug-dynamic:sip_msg.obj
 0003:00003958       ??_C@_05IEPODGEO@Allow@    00501958     pjsip-core-i386-win32-vc8-debug-dynamic:sip_msg.obj
 0003:00003960       ??_C@_0BE@KPJFGFDH@Authentication?9Info@ 00501960     pjsip-core-i386-win32-vc8-debug-dynamic:sip_msg.obj
 0003:00003978       ??_C@_0O@NAFGPKMI@Authorization@ 00501978     pjsip-core-i386-win32-vc8-debug-dynamic:sip_msg.obj
 0003:00003988       ??_C@_07IKPMLMAJ@Call?9ID@ 00501988     pjsip-core-i386-win32-vc8-debug-dynamic:sip_msg.obj
 0003:00003994       ??_C@_01KBJDNOO@i@         00501994     pjsip-core-i386-win32-vc8-debug-dynamic:sip_msg.obj
 0003:00003998       ??_C@_09HCKFEBLC@Call?9Info@ 00501998     pjsip-core-i386-win32-vc8-debug-dynamic:sip_msg.obj
 0003:000039a4       ??_C@_01GOHFPIOK@m@        005019a4     pjsip-core-i386-win32-vc8-debug-dynamic:sip_msg.obj
 0003:000039a8       ??_C@_0BE@LMOOGHBG@Content?9Disposition@ 005019a8     pjsip-core-i386-win32-vc8-debug-dynamic:sip_msg.obj
 0003:000039c0       ??_C@_0BB@KFPPKJHF@Content?9Encoding@ 005019c0     pjsip-core-i386-win32-vc8-debug-dynamic:sip_msg.obj
 0003:000039d4       ??_C@_01KGKMHCOC@e@        005019d4     pjsip-core-i386-win32-vc8-debug-dynamic:sip_msg.obj
 0003:000039d8       ??_C@_0BB@PICLCBPP@Content?9Language@ 005019d8     pjsip-core-i386-win32-vc8-debug-dynamic:sip_msg.obj
 0003:000039ec       ??_C@_0P@HOJGPHBA@Content?9Length@ 005019ec     pjsip-core-i386-win32-vc8-debug-dynamic:sip_msg.obj
 0003:00003a00       ??_C@_01HHGOMJKL@l@        00501a00     pjsip-core-i386-win32-vc8-debug-dynamic:sip_msg.obj
 0003:00003a04       ??_C@_0N@LAFFMKKA@Content?9Type@ 00501a04     pjsip-core-i386-win32-vc8-debug-dynamic:sip_msg.obj
 0003:00003a14       ??_C@_01PAPGNFGE@c@        00501a14     pjsip-core-i386-win32-vc8-debug-dynamic:sip_msg.obj
 0003:00003a18       ??_C@_04IHAOMLEL@CSeq@     00501a18     pjsip-core-i386-win32-vc8-debug-dynamic:sip_msg.obj
 0003:00003a20       ??_C@_04FMEGDJGD@Date@     00501a20     pjsip-core-i386-win32-vc8-debug-dynamic:sip_msg.obj
 0003:00003a28       ??_C@_0L@PGKFFKEH@Error?9Info@ 00501a28     pjsip-core-i386-win32-vc8-debug-dynamic:sip_msg.obj
 0003:00003a38       ??_C@_07DABPCBEH@Expires@  00501a38     pjsip-core-i386-win32-vc8-debug-dynamic:sip_msg.obj
 0003:00003a44       ??_C@_04LMIAFEOL@From@     00501a44     pjsip-core-i386-win32-vc8-debug-dynamic:sip_msg.obj
 0003:00003a4c       ??_C@_01INIBCBCB@f@        00501a4c     pjsip-core-i386-win32-vc8-debug-dynamic:sip_msg.obj
 0003:00003a50       ??_C@_0M@OJFKFNND@In?9Reply?9To@ 00501a50     pjsip-core-i386-win32-vc8-debug-dynamic:sip_msg.obj
 0003:00003a60       ??_C@_0N@KAKEBINL@Max?9Forwards@ 00501a60     pjsip-core-i386-win32-vc8-debug-dynamic:sip_msg.obj
 0003:00003a70       ??_C@_0N@PNJFOFFK@MIME?9Version@ 00501a70     pjsip-core-i386-win32-vc8-debug-dynamic:sip_msg.obj
 0003:00003a80       ??_C@_0M@BHCNHHNF@Min?9Expires@ 00501a80     pjsip-core-i386-win32-vc8-debug-dynamic:sip_msg.obj
 0003:00003a90       ??_C@_0N@MHPBIIPD@Organization@ 00501a90     pjsip-core-i386-win32-vc8-debug-dynamic:sip_msg.obj
 0003:00003aa0       ??_C@_08KGEIBGG@Priority@  00501aa0     pjsip-core-i386-win32-vc8-debug-dynamic:sip_msg.obj
 0003:00003aac       ??_C@_0BD@GKJFGNG@Proxy?9Authenticate@ 00501aac     pjsip-core-i386-win32-vc8-debug-dynamic:sip_msg.obj
 0003:00003ac4       ??_C@_0BE@DCLKKIPG@Proxy?9Authorization@ 00501ac4     pjsip-core-i386-win32-vc8-debug-dynamic:sip_msg.obj
 0003:00003adc       ??_C@_0O@ICDCLCHE@Proxy?9Require@ 00501adc     pjsip-core-i386-win32-vc8-debug-dynamic:sip_msg.obj
 0003:00003aec       ??_C@_0N@KJFPNEHF@Record?9Route@ 00501aec     pjsip-core-i386-win32-vc8-debug-dynamic:sip_msg.obj
 0003:00003afc       ??_C@_08GBENDHCN@Reply?9To@ 00501afc     pjsip-core-i386-win32-vc8-debug-dynamic:sip_msg.obj
 0003:00003b08       ??_C@_07KMMNJNOB@Require@  00501b08     pjsip-core-i386-win32-vc8-debug-dynamic:sip_msg.obj
 0003:00003b14       ??_C@_0M@CMFFKFHP@Retry?9After@ 00501b14     pjsip-core-i386-win32-vc8-debug-dynamic:sip_msg.obj
 0003:00003b24       ??_C@_05DIKBIPM@Route@     00501b24     pjsip-core-i386-win32-vc8-debug-dynamic:sip_msg.obj
 0003:00003b2c       ??_C@_06LGMEBDBC@Server@   00501b2c     pjsip-core-i386-win32-vc8-debug-dynamic:sip_msg.obj
 0003:00003b34       ??_C@_07GEKACEDI@Subject@  00501b34     pjsip-core-i386-win32-vc8-debug-dynamic:sip_msg.obj
 0003:00003b40       ??_C@_01LKDEMHDF@s@        00501b40     pjsip-core-i386-win32-vc8-debug-dynamic:sip_msg.obj
 0003:00003b44       ??_C@_09GFDKPDGA@Supported@ 00501b44     pjsip-core-i386-win32-vc8-debug-dynamic:sip_msg.obj
 0003:00003b50       ??_C@_01DICPFPGM@k@        00501b50     pjsip-core-i386-win32-vc8-debug-dynamic:sip_msg.obj
 0003:00003b54       ??_C@_09KDGENIOP@Timestamp@ 00501b54     pjsip-core-i386-win32-vc8-debug-dynamic:sip_msg.obj
 0003:00003b60       ??_C@_02IJGONHOJ@To@       00501b60     pjsip-core-i386-win32-vc8-debug-dynamic:sip_msg.obj
 0003:00003b64       ??_C@_01PFHFFBPC@t@        00501b64     pjsip-core-i386-win32-vc8-debug-dynamic:sip_msg.obj
 0003:00003b68       ??_C@_0M@BEECMOIL@Unsupported@ 00501b68     pjsip-core-i386-win32-vc8-debug-dynamic:sip_msg.obj
 0003:00003b78       ??_C@_0L@DMPACEMJ@User?9Agent@ 00501b78     pjsip-core-i386-win32-vc8-debug-dynamic:sip_msg.obj
 0003:00003b88       ??_C@_03LDNNKNE@Via@       00501b88     pjsip-core-i386-win32-vc8-debug-dynamic:sip_msg.obj
 0003:00003b8c       ??_C@_01MHEDDDHA@v@        00501b8c     pjsip-core-i386-win32-vc8-debug-dynamic:sip_msg.obj
 0003:00003b90       ??_C@_07KGMMFLDN@Warning@  00501b90     pjsip-core-i386-win32-vc8-debug-dynamic:sip_msg.obj
 0003:00003b9c       ??_C@_0BB@KEDJJIFI@WWW?9Authenticate@ 00501b9c     pjsip-core-i386-win32-vc8-debug-dynamic:sip_msg.obj
 0003:00003bb0       ??_C@_0BA@MKEDBJEA@_Unknown?9Header@ 00501bb0     pjsip-core-i386-win32-vc8-debug-dynamic:sip_msg.obj
 0003:00003bc4       ??_C@_0BH@JEAOBKFE@Default?5status?5message@ 00501bc4     pjsip-core-i386-win32-vc8-debug-dynamic:sip_msg.obj
 0003:00003be0       ??_C@_06CJPKGAJC@Trying@   00501be0     pjsip-core-i386-win32-vc8-debug-dynamic:sip_msg.obj
 0003:00003be8       ??_C@_07KEMHLLKP@Ringing@  00501be8     pjsip-core-i386-win32-vc8-debug-dynamic:sip_msg.obj
 0003:00003bf4       ??_C@_0BI@HBFDMPGA@Call?5Is?5Being?5Forwarded@ 00501bf4     pjsip-core-i386-win32-vc8-debug-dynamic:sip_msg.obj
 0003:00003c10       ??_C@_06POGAFBAL@Queued@   00501c10     pjsip-core-i386-win32-vc8-debug-dynamic:sip_msg.obj
 0003:00003c18       ??_C@_0BB@FKJCNOGD@Session?5Progress@ 00501c18     pjsip-core-i386-win32-vc8-debug-dynamic:sip_msg.obj
 0003:00003c2c       ??_C@_02GIPFHKNO@OK@       00501c2c     pjsip-core-i386-win32-vc8-debug-dynamic:sip_msg.obj
 0003:00003c30       ??_C@_08DOBOODLA@Accepted@ 00501c30     pjsip-core-i386-win32-vc8-debug-dynamic:sip_msg.obj
 0003:00003c3c       ??_C@_0BB@HLFEHKPE@Multiple?5Choices@ 00501c3c     pjsip-core-i386-win32-vc8-debug-dynamic:sip_msg.obj
 0003:00003c50       ??_C@_0BC@BPBCNFPI@Moved?5Permanently@ 00501c50     pjsip-core-i386-win32-vc8-debug-dynamic:sip_msg.obj
 0003:00003c68       ??_C@_0BC@LODIMCJL@Moved?5Temporarily@ 00501c68     pjsip-core-i386-win32-vc8-debug-dynamic:sip_msg.obj
 0003:00003c80       ??_C@_09JFBGBFIM@Use?5Proxy@ 00501c80     pjsip-core-i386-win32-vc8-debug-dynamic:sip_msg.obj
 0003:00003c8c       ??_C@_0BE@MCFGMBHK@Alternative?5Service@ 00501c8c     pjsip-core-i386-win32-vc8-debug-dynamic:sip_msg.obj
 0003:00003ca4       ??_C@_0M@LNAIDEEG@Bad?5Request@ 00501ca4     pjsip-core-i386-win32-vc8-debug-dynamic:sip_msg.obj
 0003:00003cb4       ??_C@_0N@OOAPMOJA@Unauthorized@ 00501cb4     pjsip-core-i386-win32-vc8-debug-dynamic:sip_msg.obj
 0003:00003cc4       ??_C@_0BB@LMPIHCBH@Payment?5Required@ 00501cc4     pjsip-core-i386-win32-vc8-debug-dynamic:sip_msg.obj
 0003:00003cd8       ??_C@_09LMDIMFJD@Forbidden@ 00501cd8     pjsip-core-i386-win32-vc8-debug-dynamic:sip_msg.obj
 0003:00003ce4       ??_C@_09CFCBFJND@Not?5Found@ 00501ce4     pjsip-core-i386-win32-vc8-debug-dynamic:sip_msg.obj
 0003:00003cf0       ??_C@_0BD@CCIPIALO@Method?5Not?5Allowed@ 00501cf0     pjsip-core-i386-win32-vc8-debug-dynamic:sip_msg.obj
 0003:00003d08       ??_C@_0P@HHIDFAOI@Not?5Acceptable@ 00501d08     pjsip-core-i386-win32-vc8-debug-dynamic:sip_msg.obj
 0003:00003d1c       ??_C@_0BO@ONPAAOGI@Proxy?5Authentication?5Required@ 00501d1c     pjsip-core-i386-win32-vc8-debug-dynamic:sip_msg.obj
 0003:00003d40       ??_C@_0BA@HALFGGF@Request?5Timeout@ 00501d40     pjsip-core-i386-win32-vc8-debug-dynamic:sip_msg.obj
 0003:00003d54       ??_C@_04OKIIBCCG@Gone@     00501d54     pjsip-core-i386-win32-vc8-debug-dynamic:sip_msg.obj
 0003:00003d5c       ??_C@_0BJ@MMEIEOIG@Request?5Entity?5Too?5Large@ 00501d5c     pjsip-core-i386-win32-vc8-debug-dynamic:sip_msg.obj
 0003:00003d7c       ??_C@_0BF@LPICFNOC@Request?5URI?5Too?5Long@ 00501d7c     pjsip-core-i386-win32-vc8-debug-dynamic:sip_msg.obj
 0003:00003d98       ??_C@_0BH@HLJJIAEN@Unsupported?5Media?5Type@ 00501d98     pjsip-core-i386-win32-vc8-debug-dynamic:sip_msg.obj
 0003:00003db4       ??_C@_0BH@HMDPMBIK@Unsupported?5URI?5Scheme@ 00501db4     pjsip-core-i386-win32-vc8-debug-dynamic:sip_msg.obj
 0003:00003dd0       ??_C@_0O@EABFLJJG@Bad?5Extension@ 00501dd0     pjsip-core-i386-win32-vc8-debug-dynamic:sip_msg.obj
 0003:00003de0       ??_C@_0BD@LEDCNIMD@Extension?5Required@ 00501de0     pjsip-core-i386-win32-vc8-debug-dynamic:sip_msg.obj
 0003:00003df8       ??_C@_0BI@DEDCGMIH@Session?5Timer?5Too?5Small@ 00501df8     pjsip-core-i386-win32-vc8-debug-dynamic:sip_msg.obj
 0003:00003e14       ??_C@_0BD@NHGMJMLN@Interval?5Too?5Brief@ 00501e14     pjsip-core-i386-win32-vc8-debug-dynamic:sip_msg.obj
 0003:00003e2c       ??_C@_0BI@JBJKOKGE@Temporarily?5Unavailable@ 00501e2c     pjsip-core-i386-win32-vc8-debug-dynamic:sip_msg.obj
 0003:00003e48       ??_C@_0CA@DPKMEAMP@Call?1Transaction?5Does?5Not?5Exist@ 00501e48     pjsip-core-i386-win32-vc8-debug-dynamic:sip_msg.obj
 0003:00003e70       ??_C@_0O@KJBLEGOO@Loop?5Detected@ 00501e70     pjsip-core-i386-win32-vc8-debug-dynamic:sip_msg.obj
 0003:00003e80       ??_C@_0O@CFHODMHD@Too?5Many?5Hops@ 00501e80     pjsip-core-i386-win32-vc8-debug-dynamic:sip_msg.obj
 0003:00003e90       ??_C@_0BD@HOIPLGB@Address?5Incomplete@ 00501e90     pjsip-core-i386-win32-vc8-debug-dynamic:sip_msg.obj
 0003:00003ea8       ??_C@_09FNGPAEJC@Ambiguous@ 00501ea8     pjsip-core-i386-win32-vc8-debug-dynamic:sip_msg.obj
 0003:00003eb4       ??_C@_09ELAJPHFG@Busy?5Here@ 00501eb4     pjsip-core-i386-win32-vc8-debug-dynamic:sip_msg.obj
 0003:00003ec0       ??_C@_0BD@IGJOBDDO@Request?5Terminated@ 00501ec0     pjsip-core-i386-win32-vc8-debug-dynamic:sip_msg.obj
 0003:00003ed8       ??_C@_0BE@HMIMPLAH@Not?5Acceptable?5Here@ 00501ed8     pjsip-core-i386-win32-vc8-debug-dynamic:sip_msg.obj
 0003:00003ef0       ??_C@_09HKNLJBHH@Bad?5Event@ 00501ef0     pjsip-core-i386-win32-vc8-debug-dynamic:sip_msg.obj
 0003:00003efc       ??_C@_0BA@DKJEBJFB@Request?5Updated@ 00501efc     pjsip-core-i386-win32-vc8-debug-dynamic:sip_msg.obj
 0003:00003f10       ??_C@_0BA@KLOCDLCK@Request?5Pending@ 00501f10     pjsip-core-i386-win32-vc8-debug-dynamic:sip_msg.obj
 0003:00003f24       ??_C@_0P@EIPIHDNL@Undecipherable@ 00501f24     pjsip-core-i386-win32-vc8-debug-dynamic:sip_msg.obj
 0003:00003f38       ??_C@_0BG@NJGANGCC@Internal?5Server?5Error@ 00501f38     pjsip-core-i386-win32-vc8-debug-dynamic:sip_msg.obj
 0003:00003f54       ??_C@_0BA@JGKGKAME@Not?5Implemented@ 00501f54     pjsip-core-i386-win32-vc8-debug-dynamic:sip_msg.obj
 0003:00003f68       ??_C@_0M@BNCNLPGM@Bad?5Gateway@ 00501f68     pjsip-core-i386-win32-vc8-debug-dynamic:sip_msg.obj
 0003:00003f78       ??_C@_0BE@NGHLFKBN@Service?5Unavailable@ 00501f78     pjsip-core-i386-win32-vc8-debug-dynamic:sip_msg.obj
 0003:00003f90       ??_C@_0P@KPHBHCBP@Server?5Timeout@ 00501f90     pjsip-core-i386-win32-vc8-debug-dynamic:sip_msg.obj
 0003:00003fa4       ??_C@_0BG@DGJHJFEF@Version?5Not?5Supported@ 00501fa4     pjsip-core-i386-win32-vc8-debug-dynamic:sip_msg.obj
 0003:00003fc0       ??_C@_0BC@FOIGPIGF@Message?5Too?5Large@ 00501fc0     pjsip-core-i386-win32-vc8-debug-dynamic:sip_msg.obj
 0003:00003fd8       ??_C@_0BF@PJIFKKPF@Precondition?5Failure@ 00501fd8     pjsip-core-i386-win32-vc8-debug-dynamic:sip_msg.obj
 0003:00003ff4       ??_C@_0BA@BNEEJKIK@Busy?5Everywhere@ 00501ff4     pjsip-core-i386-win32-vc8-debug-dynamic:sip_msg.obj
 0003:00004008       ??_C@_07CAMLKJDK@Decline@  00502008     pjsip-core-i386-win32-vc8-debug-dynamic:sip_msg.obj
 0003:00004014       ??_C@_0BI@JILKKJAA@Does?5Not?5Exist?5Anywhere@ 00502014     pjsip-core-i386-win32-vc8-debug-dynamic:sip_msg.obj
 0003:00004030       ??_C@_0CE@LJDLADFN@No?5response?5from?5destination?5se@ 00502030     pjsip-core-i386-win32-vc8-debug-dynamic:sip_msg.obj
 0003:0000405c       ??_C@_0CF@KIECMFPG@Unable?5to?5resolve?5destination?5s@ 0050205c     pjsip-core-i386-win32-vc8-debug-dynamic:sip_msg.obj
 0003:00004088       ??_C@_0CM@KOHFAKJI@Error?5sending?5message?5to?5destin@ 00502088     pjsip-core-i386-win32-vc8-debug-dynamic:sip_msg.obj
 0003:000040c0       ??_C@_1GC@FECEBDKK@?$AAd?$AA?3?$AA?2?$AAp?$AAj?$AAs?$AAi?$AAp?$AA?2?$AAp?$AAj?$AAp?$AAr?$AAo?$AAj@ 005020c0     pjsip-core-i386-win32-vc8-debug-dynamic:sip_msg.obj
 0003:00004138       ??_C@_1DA@EAHANDFO@?$AAm?$AAe?$AA?5?$AA?$DM?$AA?5?$AAP?$AAJ?$AAS?$AAI?$AAP?$AA_?$AAO?$AAT?$AAH?$AAE@ 00502138     pjsip-core-i386-win32-vc8-debug-dynamic:sip_msg.obj
 0003:00004174       ??_C@_0BB@NFGDEPJM@Content?9Length?3?5@ 00502174     pjsip-core-i386-win32-vc8-debug-dynamic:sip_msg.obj
 0003:00004188       ??_C@_03BDDDCMLM@l?3?5@    00502188     pjsip-core-i386-win32-vc8-debug-dynamic:sip_msg.obj
 0003:0000418c       ??_C@_0L@GLHKEHNL@?5SIP?12?40?$AN?6@ 0050218c     pjsip-core-i386-win32-vc8-debug-dynamic:sip_msg.obj
 0003:0000419c       ??_C@_08JLDHODKJ@SIP?12?40?5@ 0050219c     pjsip-core-i386-win32-vc8-debug-dynamic:sip_msg.obj
 0003:000041a8       ??_C@_0DH@DHKJLILJ@Header?5with?5no?5vptr?5encountered@ 005021a8     pjsip-core-i386-win32-vc8-debug-dynamic:sip_msg.obj
 0003:000041ec       ??_C@_07KCAKOOLP@sip_msg@  005021ec     pjsip-core-i386-win32-vc8-debug-dynamic:sip_msg.obj
 0003:000041f8       ??_C@_0P@GJMOGDPG@Content?9Type?3?5@ 005021f8     pjsip-core-i386-win32-vc8-debug-dynamic:sip_msg.obj
 0003:0000420c       ??_C@_03ELFADMOK@c?3?5@    0050220c     pjsip-core-i386-win32-vc8-debug-dynamic:sip_msg.obj
 0003:00004210       ??_C@_1BE@HHFEGFOH@?$AAh?$AAd?$AAr?$AA?9?$AA?$DO?$AAv?$AAp?$AAt?$AAr@ 00502210     pjsip-core-i386-win32-vc8-debug-dynamic:sip_msg.obj
 0003:00004228       ??_C@_1BG@OBOCDDDP@?$AAm?$AAt?$AA1?$AA?5?$AA?$CG?$AA?$CG?$AA?5?$AAm?$AAt?$AA2@ 00502228     pjsip-core-i386-win32-vc8-debug-dynamic:sip_msg.obj
 0003:00004244       ??_C@_1CG@CIFOCGJH@?$AAp?$AAo?$AAo?$AAl?$AA?5?$AA?$CG?$AA?$CG?$AA?5?$AAd?$AAs?$AAt?$AA?5?$AA?$CG?$AA?$CG?$AA?5@ 00502244     pjsip-core-i386-win32-vc8-debug-dynamic:sip_msg.obj
 0003:00004274       ??_C@_02KEGNLNML@?0?5@     00502274     pjsip-core-i386-win32-vc8-debug-dynamic:sip_msg.obj
 0003:00004278       ??_C@_03MGEKBFJK@?$DLq?$DN@ 00502278     pjsip-core-i386-win32-vc8-debug-dynamic:sip_msg.obj
 0003:0000427c       ??_C@_09JFABAEBI@?$DLexpires?$DN@ 0050227c     pjsip-core-i386-win32-vc8-debug-dynamic:sip_msg.obj
 0003:00004288       ??_C@_05IIDIOKEA@?$DLtag?$DN@ 00502288     pjsip-core-i386-win32-vc8-debug-dynamic:sip_msg.obj
 0003:00004290       ??_C@_04IBOFHAPJ@hide@     00502290     pjsip-core-i386-win32-vc8-debug-dynamic:sip_msg.obj
 0003:00004298       ??_C@_1CO@JIKPCADP@?$AAs?$AAi?$AAp?$AA_?$AAu?$AAr?$AAi?$AA?9?$AA?$DO?$AAl?$AAr?$AA_?$AAp?$AAa?$AAr@ 00502298     pjsip-core-i386-win32-vc8-debug-dynamic:sip_msg.obj
 0003:000042d0       ??_C@_08BMKPPPGG@SIP?12?40?1@ 005022d0     pjsip-core-i386-win32-vc8-debug-dynamic:sip_msg.obj
 0003:000042da       ??_C@_00CNPNBAHC@@         005022da     pjsip-core-i386-win32-vc8-debug-dynamic:sip_msg.obj
 0003:000042dc       ??_C@_05ODKKKCAM@?$DLttl?$DN@ 005022dc     pjsip-core-i386-win32-vc8-debug-dynamic:sip_msg.obj
 0003:000042e4       ??_C@_06IKMHKLF@?$DLrport@ 005022e4     pjsip-core-i386-win32-vc8-debug-dynamic:sip_msg.obj
 0003:000042ec       ??_C@_07IONINLDO@?$DLmaddr?$DN@ 005022ec     pjsip-core-i386-win32-vc8-debug-dynamic:sip_msg.obj
 0003:000042f8       ??_C@_0L@IMDGLAJB@?$DLreceived?$DN@ 005022f8     pjsip-core-i386-win32-vc8-debug-dynamic:sip_msg.obj
 0003:00004308       ??_C@_08LMLOEMIC@?$DLbranch?$DN@ 00502308     pjsip-core-i386-win32-vc8-debug-dynamic:sip_msg.obj
 0003:00004314       ??_C@_0P@DNLLBOJA@?$CFu?5?$CF?4?$CKs?5?$CC?$CF?4?$CKs?$CC@ 00502314     pjsip-core-i386-win32-vc8-debug-dynamic:sip_msg.obj
 0003:00004328       ??_C@_1EE@EHJGOGAJ@?$AAs?$AAr?$AAc?$AA_?$AAb?$AAo?$AAd?$AAy?$AA?9?$AA?$DO?$AAc?$AAl?$AAo?$AAn?$AAe@ 00502328     pjsip-core-i386-win32-vc8-debug-dynamic:sip_msg.obj
 0003:0000437c       ??_C@_1BC@LNNMKCAC@?$AAn?$AAe?$AAw?$AA_?$AAb?$AAo?$AAd?$AAy@ 0050237c     pjsip-core-i386-win32-vc8-debug-dynamic:sip_msg.obj
 0003:00004398       ??_C@_1EA@CGNCHEIG@?$AAp?$AAo?$AAo?$AAl?$AA?5?$AA?$CG?$AA?$CG?$AA?5?$AAt?$AAy?$AAp?$AAe?$AA?5?$AA?$CG?$AA?$CG@ 00502398     pjsip-core-i386-win32-vc8-debug-dynamic:sip_msg.obj
 0003:000043e4       ??_C@_0O@EMLDOJH@mod?9msg?9print@ 005023e4     pjsip-core-i386-win32-vc8-debug-dynamic:sip_transport.obj
 0003:000043f4       ??_C@_0M@NNPCGPMF@Unspecified@ 005023f4     pjsip-core-i386-win32-vc8-debug-dynamic:sip_transport.obj
 0003:00004404       ??_C@_03OPEAKHDL@UDP@      00502404     pjsip-core-i386-win32-vc8-debug-dynamic:sip_transport.obj
 0003:00004408       ??_C@_0O@KHAHCMDL@UDP?5transport@ 00502408     pjsip-core-i386-win32-vc8-debug-dynamic:sip_transport.obj
 0003:00004418       ??_C@_03FCLDNGNL@TCP@      00502418     pjsip-core-i386-win32-vc8-debug-dynamic:sip_transport.obj
 0003:0000441c       ??_C@_0O@EHHLMLBF@TCP?5transport@ 0050241c     pjsip-core-i386-win32-vc8-debug-dynamic:sip_transport.obj
 0003:0000442c       ??_C@_03HCMCMCCF@TLS@      0050242c     pjsip-core-i386-win32-vc8-debug-dynamic:sip_transport.obj
 0003:00004430       ??_C@_0O@BHJFMMNA@TLS?5transport@ 00502430     pjsip-core-i386-win32-vc8-debug-dynamic:sip_transport.obj
 0003:00004440       ??_C@_04BOMBJBBC@SCTP@     00502440     pjsip-core-i386-win32-vc8-debug-dynamic:sip_transport.obj
 0003:00004448       ??_C@_0P@BEPMAJFA@SCTP?5transport@ 00502448     pjsip-core-i386-win32-vc8-debug-dynamic:sip_transport.obj
 0003:0000445c       ??_C@_04KGNEGCGI@LOOP@     0050245c     pjsip-core-i386-win32-vc8-debug-dynamic:sip_transport.obj
 0003:00004464       ??_C@_0BD@IJLEDLFM@Loopback?5transport@ 00502464     pjsip-core-i386-win32-vc8-debug-dynamic:sip_transport.obj
 0003:0000447c       ??_C@_0L@PGGNCDOP@LOOP?9DGRAM@ 0050247c     pjsip-core-i386-win32-vc8-debug-dynamic:sip_transport.obj
 0003:0000448c       ??_C@_0BM@JFHDLEFO@Loopback?5datagram?5transport@ 0050248c     pjsip-core-i386-win32-vc8-debug-dynamic:sip_transport.obj
 0003:000044b0       ??_C@_0BD@LIBJHFGK@UDP?5IPv6?5transport@ 005024b0     pjsip-core-i386-win32-vc8-debug-dynamic:sip_transport.obj
 0003:000044c8       ??_C@_0BD@IONFPPFG@TCP?5IPv6?5transport@ 005024c8     pjsip-core-i386-win32-vc8-debug-dynamic:sip_transport.obj
 0003:000044e0       ??_C@_0BD@CLDAAALK@TLS?5IPv6?5transport@ 005024e0     pjsip-core-i386-win32-vc8-debug-dynamic:sip_transport.obj
 0003:000044f8       ??_C@_0BI@BEOAFBKO@Invalid?5transport?5type?$CB@ 005024f8     pjsip-core-i386-win32-vc8-debug-dynamic:sip_transport.obj
 0003:00004518       ??_C@_1GO@FBAFGKHE@?$AAd?$AA?3?$AA?2?$AAp?$AAj?$AAs?$AAi?$AAp?$AA?2?$AAp?$AAj?$AAp?$AAr?$AAo?$AAj@ 00502518     pjsip-core-i386-win32-vc8-debug-dynamic:sip_transport.obj
 0003:0000459c       ??_C@_1DG@DHAGKGN@?$AA?$CB?$AA?$CC?$AAI?$AAn?$AAv?$AAa?$AAl?$AAi?$AAd?$AA?5?$AAt?$AAr?$AAa?$AAn?$AAs@ 0050259c     pjsip-core-i386-win32-vc8-debug-dynamic:sip_transport.obj
 0003:000045dc       ??_C@_1DO@EBDIFFC@?$AAt?$AAp?$AA_?$AAf?$AAl?$AAa?$AAg?$AA?5?$AA?$CG?$AA?$CG?$AA?5?$AAt?$AAp?$AA_?$AAn@ 005025dc     pjsip-core-i386-win32-vc8-debug-dynamic:sip_transport.obj
 0003:00004628       ??_C@_1LO@NBPJFAFK@?$AAs?$AAt?$AAr?$AAl?$AAe?$AAn?$AA?$CI?$AAt?$AAp?$AA_?$AAn?$AAa?$AAm?$AAe?$AA?$CJ@ 00502628     pjsip-core-i386-win32-vc8-debug-dynamic:sip_transport.obj
 0003:0000470c       ??_C@_0BH@GGHDBDC@Invalid?5transport?5name@ 0050270c     pjsip-core-i386-win32-vc8-debug-dynamic:sip_transport.obj
 0003:00004728       ??_C@_1DE@EFHDJIP@?$AA?$CB?$AA?$CC?$AAI?$AAn?$AAv?$AAa?$AAl?$AAi?$AAd?$AA?5?$AAt?$AAr?$AAa?$AAn?$AAs@ 00502728     pjsip-core-i386-win32-vc8-debug-dynamic:sip_transport.obj
 0003:00004768       ??_C@_0BH@KNGEPBEC@Invalid?5transport?5type@ 00502768     pjsip-core-i386-win32-vc8-debug-dynamic:sip_transport.obj
 0003:00004784       ??_C@_1DE@DBLPNJPE@?$AA?$CB?$AA?$CC?$AAI?$AAn?$AAv?$AAa?$AAl?$AAi?$AAd?$AA?5?$AAt?$AAr?$AAa?$AAn?$AAs@ 00502784     pjsip-core-i386-win32-vc8-debug-dynamic:sip_transport.obj
 0003:000047c4       ??_C@_1BO@MBFJAAKI@?$AAm?$AAg?$AAr?$AA?5?$AA?$CG?$AA?$CG?$AA?5?$AAp?$AA_?$AAt?$AAd?$AAa?$AAt?$AAa@ 005027c4     pjsip-core-i386-win32-vc8-debug-dynamic:sip_transport.obj
 0003:000047e8       ??_C@_06HHKALCGB@tdta?$CFp@ 005027e8     pjsip-core-i386-win32-vc8-debug-dynamic:sip_transport.obj
 0003:000047f0       ??_C@_0BF@FNAOFPOF@Destroying?5txdata?5?$CFs@ 005027f0     pjsip-core-i386-win32-vc8-debug-dynamic:sip_transport.obj
 0003:0000480c       ??_C@_1DA@BAJHBLDM@?$AAt?$AAd?$AAa?$AAt?$AAa?$AA?5?$AA?$CG?$AA?$CG?$AA?5?$AAt?$AAd?$AAa?$AAt?$AAa?$AA?9@ 0050280c     pjsip-core-i386-win32-vc8-debug-dynamic:sip_transport.obj
 0003:00004848       ??_C@_1BE@PNMDECGB@?$AAs?$AAi?$AAz?$AAe?$AA?5?$AA?$CB?$AA?$DN?$AA?5?$AA0@ 00502848     pjsip-core-i386-win32-vc8-debug-dynamic:sip_transport.obj
 0003:00004860       ??_C@_1CI@MFBAJOBD@?$AAc?$AAs?$AAe?$AAq?$AA?5?$AA?$CB?$AA?$DN?$AA?5?$AA?$CI?$AA?$CI?$AAv?$AAo?$AAi?$AAd?$AA?5@ 00502860     pjsip-core-i386-win32-vc8-debug-dynamic:sip_transport.obj
 0003:00004890       ??_C@_0M@JCCICOOO@INVALID?5MSG@ 00502890     pjsip-core-i386-win32-vc8-debug-dynamic:sip_transport.obj
 0003:000048a0       ??_C@_0BO@FBJFIDDA@Request?5msg?5?$CF?4?$CKs?1cseq?$DN?$CFd?5?$CI?$CFs?$CJ@ 005028a0     pjsip-core-i386-win32-vc8-debug-dynamic:sip_transport.obj
 0003:000048c4       ??_C@_0CC@DIPPPFIF@Response?5msg?5?$CFd?1?$CF?4?$CKs?1cseq?$DN?$CFd?5?$CI?$CF@ 005028c4     pjsip-core-i386-win32-vc8-debug-dynamic:sip_transport.obj
 0003:000048ec       ??_C@_1BK@GHEHKPIH@?$AAt?$AAd?$AAa?$AAt?$AAa?$AA?5?$AA?$CG?$AA?$CG?$AA?5?$AAs?$AAe?$AAl@ 005028ec     pjsip-core-i386-win32-vc8-debug-dynamic:sip_transport.obj
 0003:0000490c       ??_C@_0BC@NHBNMNGO@Tx?5data?5?$CFs?5cloned@ 0050290c     pjsip-core-i386-win32-vc8-debug-dynamic:sip_transport.obj
 0003:00004924       ??_C@_0BA@BCOMPIDA@sip_transport?4c@ 00502924     pjsip-core-i386-win32-vc8-debug-dynamic:sip_transport.obj
 0003:00004938       ??_C@_1CI@IBHLBIFH@?$AAr?$AAd?$AAa?$AAt?$AAa?$AA?9?$AA?$DO?$AAm?$AAs?$AAg?$AA_?$AAi?$AAn?$AAf?$AAo@ 00502938     pjsip-core-i386-win32-vc8-debug-dynamic:sip_transport.obj
 0003:00004968       ??_C@_05MIOBCJBH@rdata@    00502968     pjsip-core-i386-win32-vc8-debug-dynamic:sip_transport.obj
 0003:00004970       ??_C@_02BBAHNLBA@?$CFp@    00502970     pjsip-core-i386-win32-vc8-debug-dynamic:sip_transport.obj
 0003:00004974       ??_C@_1DG@KNBFDMFD@?$AAs?$AAr?$AAc?$AA?5?$AA?$CG?$AA?$CG?$AA?5?$AAf?$AAl?$AAa?$AAg?$AAs?$AA?$DN?$AA?$DN?$AA0@ 00502974     pjsip-core-i386-win32-vc8-debug-dynamic:sip_transport.obj
 0003:000049b4       ??_C@_05KBHICJDA@rtd?$CFp@ 005029b4     pjsip-core-i386-win32-vc8-debug-dynamic:sip_transport.obj
 0003:000049bc       ??_C@_1M@JLDPPNGF@?$AAr?$AAd?$AAa?$AAt?$AAa@ 005029bc     pjsip-core-i386-win32-vc8-debug-dynamic:sip_transport.obj
 0003:000049cc       ??_C@_1CI@IPCNOINL@?$AAt?$AAr?$AA?5?$AA?$CG?$AA?$CG?$AA?5?$AAt?$AAd?$AAa?$AAt?$AAa?$AA?5?$AA?$CG?$AA?$CG?$AA?5@ 005029cc     pjsip-core-i386-win32-vc8-debug-dynamic:sip_transport.obj
 0003:000049fc       ??_C@_0BI@ECCEKPHK@Invalid?5operation?5step?$CB@ 005029fc     pjsip-core-i386-win32-vc8-debug-dynamic:sip_transport.obj
 0003:00004a18       ??_C@_1DG@KNKCHNAG@?$AA?$CB?$AA?$CC?$AAI?$AAn?$AAv?$AAa?$AAl?$AAi?$AAd?$AA?5?$AAo?$AAp?$AAe?$AAr?$AAa@ 00502a18     pjsip-core-i386-win32-vc8-debug-dynamic:sip_transport.obj
 0003:00004a58       ??_C@_0CG@GHPNJCCG@Unable?5to?5send?5?$CFs?3?5message?5is?5p@ 00502a58     pjsip-core-i386-win32-vc8-debug-dynamic:sip_transport.obj
 0003:00004a88       ??_C@_03DGOGAGNC@raw@      00502a88     pjsip-core-i386-win32-vc8-debug-dynamic:sip_transport.obj
 0003:00004a8c       ??_C@_1CE@JIJCJACB@?$AAt?$AAp?$AA?5?$AA?$CB?$AA?$DN?$AA?5?$AA?$CI?$AA?$CI?$AAv?$AAo?$AAi?$AAd?$AA?5?$AA?$CK?$AA?$CJ@ 00502a8c     pjsip-core-i386-win32-vc8-debug-dynamic:sip_transport.obj
 0003:00004ab8       ??_C@_1DO@GDEEOGNP@?$AAp?$AAj?$AA_?$AAa?$AAt?$AAo?$AAm?$AAi?$AAc?$AA_?$AAg?$AAe?$AAt?$AA?$CI?$AAt@ 00502ab8     pjsip-core-i386-win32-vc8-debug-dynamic:sip_transport.obj
 0003:00004b04       ??_C@_1CO@KHDNBGFB@?$AAt?$AAp?$AA?9?$AA?$DO?$AAi?$AAd?$AAl?$AAe?$AA_?$AAt?$AAi?$AAm?$AAe?$AAr?$AA?4@ 00502b04     pjsip-core-i386-win32-vc8-debug-dynamic:sip_transport.obj
 0003:00004b3c       ??_C@_0CF@OPJOJNIN@Transport?5?$CFs?5shutting?5down?0?5for@ 00502b3c     pjsip-core-i386-win32-vc8-debug-dynamic:sip_transport.obj
 0003:00004b68       ??_C@_1EA@LALNJIBK@?$AAp?$AAj?$AA_?$AAa?$AAt?$AAo?$AAm?$AAi?$AAc?$AA_?$AAg?$AAe?$AAt?$AA?$CI?$AAt@ 00502b68     pjsip-core-i386-win32-vc8-debug-dynamic:sip_transport.obj
 0003:00004bb8       ??_C@_1GE@ODJKLGAI@?$AAp?$AAj?$AA_?$AAl?$AAi?$AAs?$AAt?$AA_?$AAf?$AAi?$AAn?$AAd?$AA_?$AAn?$AAo@ 00502bb8     pjsip-core-i386-win32-vc8-debug-dynamic:sip_transport.obj
 0003:00004c30       ??_C@_1EA@MDAPBLGD@?$AAp?$AAo?$AAo?$AAl?$AA?5?$AA?$CG?$AA?$CG?$AA?5?$AAe?$AAn?$AAd?$AAp?$AAt?$AA?5?$AA?$CG@ 00502c30     pjsip-core-i386-win32-vc8-debug-dynamic:sip_transport.obj
 0003:00004c7c       ??_C@_06DFEDPGIK@tmgr?$CFp@ 00502c7c     pjsip-core-i386-win32-vc8-debug-dynamic:sip_transport.obj
 0003:00004c84       ??_C@_0BL@FCLJOKON@Transport?5manager?5created?4@ 00502c84     pjsip-core-i386-win32-vc8-debug-dynamic:sip_transport.obj
 0003:00004ca8       ??_C@_0EN@CAHOMDCB@Warning?3?5unable?5to?5determine?5lo@ 00502ca8     pjsip-core-i386-win32-vc8-debug-dynamic:sip_transport.obj
 0003:00004d04       ??_C@_1CK@EDLELAMO@?$AAt?$AAp?$AAm?$AAg?$AAr?$AA?5?$AA?$CG?$AA?$CG?$AA?5?$AAp?$AAo?$AAo?$AAl?$AA?5?$AA?$CG@ 00502d04     pjsip-core-i386-win32-vc8-debug-dynamic:sip_transport.obj
 0003:00004d38       ??_C@_0CN@DKCAIDHL@Warning?3?5unable?5to?5determine?5lo@ 00502d38     pjsip-core-i386-win32-vc8-debug-dynamic:sip_transport.obj
 0003:00004d70       ??_C@_0BN@ICLNKKAJ@Destroying?5transport?5manager@ 00502d70     pjsip-core-i386-win32-vc8-debug-dynamic:sip_transport.obj
 0003:00004d94       ??_C@_0CK@FGDGGPEI@Warning?3?5?$CFd?5transmit?5buffer?$CIs?$CJ?5@ 00502d94     pjsip-core-i386-win32-vc8-debug-dynamic:sip_transport.obj
 0003:00004dc8       ??_C@_0CI@HJKHOKAG@Cleaned?5up?5dangling?5transmit?5bu@ 00502dc8     pjsip-core-i386-win32-vc8-debug-dynamic:sip_transport.obj
 0003:00004df8       ??_C@_1DA@MFMDOPJP@?$AAr?$AAd?$AAa?$AAt?$AAa?$AA?9?$AA?$DO?$AAp?$AAk?$AAt?$AA_?$AAi?$AAn?$AAf?$AAo@ 00502df8     pjsip-core-i386-win32-vc8-debug-dynamic:sip_transport.obj
 0003:00004e34       ??_C@_0DM@LJBJFPEI@?3?5?$CFs?5exception?5when?5parsing?5?8?$CF?4@ 00502e34     pjsip-core-i386-win32-vc8-debug-dynamic:sip_transport.obj
 0003:00004e80       ??_C@_0EM@JMILNFHN@Error?5processing?5?$CFd?5bytes?5packe@ 00502e80     pjsip-core-i386-win32-vc8-debug-dynamic:sip_transport.obj
 0003:00004edc       ??_C@_0DG@FPJFHIHG@Specified?5factory?5for?5creating?5@ 00502edc     pjsip-core-i386-win32-vc8-debug-dynamic:sip_transport.obj
 0003:00004f1c       ??_C@_1CA@IPAHCLBF@?$AAt?$AAp?$AA?$CB?$AA?$DN?$AA?$CI?$AA?$CI?$AAv?$AAo?$AAi?$AAd?$AA?5?$AA?$CK?$AA?$CJ?$AA0?$AA?$CJ@ 00502f1c     pjsip-core-i386-win32-vc8-debug-dynamic:sip_transport.obj
 0003:00004f44       ??_C@_0CC@ENNFECFA@?5Outstanding?5transmit?5buffers?3?5@ 00502f44     pjsip-core-i386-win32-vc8-debug-dynamic:sip_transport.obj
 0003:00004f6c       ??_C@_0BE@FLCADGMP@?5Dumping?5listeners?3@ 00502f6c     pjsip-core-i386-win32-vc8-debug-dynamic:sip_transport.obj
 0003:00004f84       ??_C@_0BA@BNAMNLNN@?5?5?$CFs?5?$CFs?3?$CF?4?$CKs?3?$CFd@ 00502f84     pjsip-core-i386-win32-vc8-debug-dynamic:sip_transport.obj
 0003:00004f98       ??_C@_0BF@HNGNBCHG@?5Dumping?5transports?3@ 00502f98     pjsip-core-i386-win32-vc8-debug-dynamic:sip_transport.obj
 0003:00004fb4       ??_C@_07DBMJBCPL@?5?$FLidle?$FN@ 00502fb4     pjsip-core-i386-win32-vc8-debug-dynamic:sip_transport.obj
 0003:00004fc0       ??_C@_0BG@IGFLAEKF@?5?5?$CFs?5?$CFs?5?$CIrefcnt?$DN?$CFd?$CFs?$CJ@ 00502fc0     pjsip-core-i386-win32-vc8-debug-dynamic:sip_transport.obj
 0003:00004fdc       ??_C@_17FPEMCAJ@?$AAm?$AAg?$AAr@ 00502fdc     pjsip-core-i386-win32-vc8-debug-dynamic:sip_transport.obj
 0003:00004fe8       ??_C@_1CA@DOBLFHPM@?$AAt?$AAp?$AA?5?$AA?$CG?$AA?$CG?$AA?5?$AA?$CB?$AAt?$AAp?$AA?9?$AA?$DO?$AAd?$AAa?$AAt?$AAa@ 00502fe8     pjsip-core-i386-win32-vc8-debug-dynamic:sip_transport.obj
 0003:00005010       ??_C@_1CA@DHDBBMCM@?$AAt?$AAp?$AA?5?$AA?$CG?$AA?$CG?$AA?5?$AAc?$AAb?$AA?5?$AA?$CG?$AA?$CG?$AA?5?$AAk?$AAe?$AAy@ 00503010     pjsip-core-i386-win32-vc8-debug-dynamic:sip_transport.obj
 0003:00005038       ??_C@_1BE@OBCKLIJC@?$AAt?$AAp?$AA?5?$AA?$CG?$AA?$CG?$AA?5?$AAk?$AAe?$AAy@ 00503038     pjsip-core-i386-win32-vc8-debug-dynamic:sip_transport.obj
 0003:00005050       ??_C@_0CF@MDLECAOH@Invalid?5transport?5state?5listene@ 00503050     pjsip-core-i386-win32-vc8-debug-dynamic:sip_transport.obj
 0003:00005080       ??_C@_1FA@PLCLAKCJ@?$AA?$CB?$AA?$CC?$AAI?$AAn?$AAv?$AAa?$AAl?$AAi?$AAd?$AA?5?$AAt?$AAr?$AAa?$AAn?$AAs@ 00503080     pjsip-core-i386-win32-vc8-debug-dynamic:sip_transport.obj
 0003:000050e0       ??_C@_1GM@BHHNDH@?$AAd?$AA?3?$AA?2?$AAp?$AAj?$AAs?$AAi?$AAp?$AA?2?$AAp?$AAj?$AAp?$AAr?$AAo?$AAj@ 005030e0     pjsip-core-i386-win32-vc8-debug-dynamic:sip_endpoint.obj
 0003:00005168       ??_C@_1HG@GNGHDJKP@?$AAp?$AAj?$AA_?$AAl?$AAi?$AAs?$AAt?$AA_?$AAf?$AAi?$AAn?$AAd?$AA_?$AAn?$AAo@ 00503168     pjsip-core-i386-win32-vc8-debug-dynamic:sip_endpoint.obj
 0003:000051f8       ??_C@_1JI@DOGDNJFM@?$AAp?$AAj?$AA_?$AAl?$AAi?$AAs?$AAt?$AA_?$AAs?$AAe?$AAa?$AAr?$AAc?$AAh?$AA?$CI@ 005031f8     pjsip-core-i386-win32-vc8-debug-dynamic:sip_endpoint.obj
 0003:000052b0       ??_C@_0BN@JLCMAAMG@Too?5many?5modules?5registered?$CB@ 005032b0     pjsip-core-i386-win32-vc8-debug-dynamic:sip_endpoint.obj
 0003:000052d8       ??_C@_1EA@BBMDBCME@?$AA?$CB?$AA?$CC?$AAT?$AAo?$AAo?$AA?5?$AAm?$AAa?$AAn?$AAy?$AA?5?$AAm?$AAo?$AAd?$AAu@ 005032d8     pjsip-core-i386-win32-vc8-debug-dynamic:sip_endpoint.obj
 0003:00005324       ??_C@_0BJ@MGECBGBK@Module?5?$CC?$CF?4?$CKs?$CC?5registered@ 00503324     pjsip-core-i386-win32-vc8-debug-dynamic:sip_endpoint.obj
 0003:00005344       ??_C@_0P@EGLGAFCL@sip_endpoint?4c@ 00503344     pjsip-core-i386-win32-vc8-debug-dynamic:sip_endpoint.obj
 0003:00005358       ??_C@_1GG@LPLFIINA@?$AAp?$AAj?$AA_?$AAl?$AAi?$AAs?$AAt?$AA_?$AAf?$AAi?$AAn?$AAd?$AA_?$AAn?$AAo@ 00503358     pjsip-core-i386-win32-vc8-debug-dynamic:sip_endpoint.obj
 0003:000053d8       ??_C@_1OA@ELJJGPEE@?$AAm?$AAo?$AAd?$AA?9?$AA?$DO?$AAi?$AAd?$AA?$DO?$AA?$DN?$AA0?$AA?5?$AA?$CG?$AA?$CG?$AA?5?$AAm@ 005033d8     pjsip-core-i386-win32-vc8-debug-dynamic:sip_endpoint.obj
 0003:000054e4       ??_C@_0CK@DNCAODEI@Module?5?$CC?$CF?4?$CKs?$CC?5can?5not?5be?5unregi@ 005034e4     pjsip-core-i386-win32-vc8-debug-dynamic:sip_endpoint.obj
 0003:00005518       ??_C@_1BK@JGLJFHIM@?$AAm?$AAo?$AAd?$AA?9?$AA?$DO?$AAi?$AAd?$AA?5?$AA?$DO?$AA?$DN?$AA?5?$AA0@ 00503518     pjsip-core-i386-win32-vc8-debug-dynamic:sip_endpoint.obj
 0003:00005538       ??_C@_0BL@HDLPHBNM@Module?5?$CC?$CF?4?$CKs?$CC?5unregistered@ 00503538     pjsip-core-i386-win32-vc8-debug-dynamic:sip_endpoint.obj
 0003:00005558       ??_C@_1CK@LGNMMEDO@?$AAe?$AAn?$AAd?$AAp?$AAt?$AA?5?$AA?$CB?$AA?$DN?$AA?5?$AA?$CI?$AA?$CI?$AAv?$AAo?$AAi?$AAd@ 00503558     pjsip-core-i386-win32-vc8-debug-dynamic:sip_endpoint.obj
 0003:00005590       ??_C@_1EA@JHJJOPDK@?$AAh?$AAt?$AAy?$AAp?$AAe?$AA?5?$AA?$CB?$AA?$DN?$AA?5?$AAP?$AAJ?$AAS?$AAI?$AAP?$AA_@ 00503590     pjsip-core-i386-win32-vc8-debug-dynamic:sip_endpoint.obj
 0003:000055dc       ??_C@_1CK@NFBOGGCD@?$AAt?$AAo?$AAk?$AAe?$AAn?$AA?5?$AA?$CB?$AA?$DN?$AA?5?$AA?$CI?$AA?$CI?$AAv?$AAo?$AAi?$AAd@ 005035dc     pjsip-core-i386-win32-vc8-debug-dynamic:sip_endpoint.obj
 0003:00005610       ??_C@_1EM@KKEECKPB@?$AAe?$AAn?$AAd?$AAp?$AAt?$AA?$CB?$AA?$DN?$AA?$CI?$AA?$CI?$AAv?$AAo?$AAi?$AAd?$AA?5?$AA?$CK@ 00503610     pjsip-core-i386-win32-vc8-debug-dynamic:sip_endpoint.obj
 0003:0000566c       ??_C@_1BI@DDGILCLG@?$AAc?$AAo?$AAu?$AAn?$AAt?$AA?5?$AA?$DM?$AA?$DN?$AA?5?$AA3?$AA2@ 0050366c     pjsip-core-i386-win32-vc8-debug-dynamic:sip_endpoint.obj
 0003:00005688       ??_C@_1JE@INLJHCK@?$AAh?$AAt?$AAy?$AAp?$AAe?$AA?$DN?$AA?$DN?$AAP?$AAJ?$AAS?$AAI?$AAP?$AA_?$AAH?$AA_@ 00503688     pjsip-core-i386-win32-vc8-debug-dynamic:sip_endpoint.obj
 0003:0000573c       ??_C@_0BO@COOMMINE@Creating?5endpoint?5instance?4?4?4@ 0050373c     pjsip-core-i386-win32-vc8-debug-dynamic:sip_endpoint.obj
 0003:00005760       ??_C@_06NKPEEELK@pept?$CFp@ 00503760     pjsip-core-i386-win32-vc8-debug-dynamic:sip_endpoint.obj
 0003:00005768       ??_C@_05BKDCOKEM@ept?$CFp@ 00503768     pjsip-core-i386-win32-vc8-debug-dynamic:sip_endpoint.obj
 0003:00005770       ??_C@_06CEEOCEHG@edpt?$CFp@ 00503770     pjsip-core-i386-win32-vc8-debug-dynamic:sip_endpoint.obj
 0003:00005778       ??_C@_0CB@HGCDKNNC@Error?5creating?5resolver?5instanc@ 00503778     pjsip-core-i386-win32-vc8-debug-dynamic:sip_endpoint.obj
 0003:000057a0       ??_C@_0BI@MLLMLNGM@Error?5creating?5endpoint@ 005037a0     pjsip-core-i386-win32-vc8-debug-dynamic:sip_endpoint.obj
 0003:000057bc       ??_C@_0BP@COABEKEP@Destroying?5endpoing?5instance?4?4@ 005037bc     pjsip-core-i386-win32-vc8-debug-dynamic:sip_endpoint.obj
 0003:000057e4       ??_C@_0BG@NIAFLHGE@Endpoint?5?$CFp?5destroyed@ 005037e4     pjsip-core-i386-win32-vc8-debug-dynamic:sip_endpoint.obj
 0003:00005800       ??_C@_0BK@KKFMILKM@Unable?5to?5create?5pool?5?$CFs?$CB@ 00503800     pjsip-core-i386-win32-vc8-debug-dynamic:sip_endpoint.obj
 0003:00005820       ??_C@_1EM@EIDGDNFK@?$AAt?$AAi?$AAm?$AAe?$AAo?$AAu?$AAt?$AA?4?$AAs?$AAe?$AAc?$AA?5?$AA?$DO?$AA?$DN?$AA?5@ 00503820     pjsip-core-i386-win32-vc8-debug-dynamic:sip_endpoint.obj
 0003:0000587c       ??_C@_1BO@DGLGIKJI@?$AAe?$AAn?$AAd?$AAp?$AAt?$AA?5?$AA?$CG?$AA?$CG?$AA?5?$AAr?$AAd?$AAa?$AAt?$AAa@ 0050387c     pjsip-core-i386-win32-vc8-debug-dynamic:sip_endpoint.obj
 0003:000058a0       ??_C@_0CC@POJNFGFL@Distributing?5rdata?5to?5modules?3?5@ 005038a0     pjsip-core-i386-win32-vc8-debug-dynamic:sip_endpoint.obj
 0003:000058c8       ??_C@_05MMMMAHGD@?5From@   005038c8     pjsip-core-i386-win32-vc8-debug-dynamic:sip_endpoint.obj
 0003:000058d0       ??_C@_03PHFJHONJ@?5To@     005038d0     pjsip-core-i386-win32-vc8-debug-dynamic:sip_endpoint.obj
 0003:000058d4       ??_C@_04CNJKNNNB@?5Via@    005038d4     pjsip-core-i386-win32-vc8-debug-dynamic:sip_endpoint.obj
 0003:000058dc       ??_C@_05PHECJIMD@?5CSeq@   005038dc     pjsip-core-i386-win32-vc8-debug-dynamic:sip_endpoint.obj
 0003:000058e8       ??_C@_0EM@MDGMOKGH@Error?5processing?5packet?5from?5?$CFs@ 005038e8     pjsip-core-i386-win32-vc8-debug-dynamic:sip_endpoint.obj
 0003:00005944       ??_C@_0CA@HOLDFAO@Processing?5incoming?5message?3?5?$CFs@ 00503944     pjsip-core-i386-win32-vc8-debug-dynamic:sip_endpoint.obj
 0003:0000596c       ??_C@_0DD@CJCKLIHE@?$CFs?5from?5?$CFs?3?$CFd?5was?5dropped?1unhan@ 0050396c     pjsip-core-i386-win32-vc8-debug-dynamic:sip_endpoint.obj
 0003:000059ac       ??_C@_1CA@EMOCFNLD@?$AAe?$AAn?$AAd?$AAp?$AAt?$AA?5?$AA?$CG?$AA?$CG?$AA?5?$AAp?$AA_?$AAr?$AAe?$AAs?$AAv@ 005039ac     pjsip-core-i386-win32-vc8-debug-dynamic:sip_endpoint.obj
 0003:000059d4       ??_C@_0M@HFADNKMO@?3?5?$FLerr?5?$CFd?$FN?5@ 005039d4     pjsip-core-i386-win32-vc8-debug-dynamic:sip_endpoint.obj
 0003:000059e4       ??_C@_0BD@LFIBIDIN@pjsip_endpt_dump?$CI?$CJ@ 005039e4     pjsip-core-i386-win32-vc8-debug-dynamic:sip_endpoint.obj
 0003:000059fc       ??_C@_0BF@NCGFABFO@Dumping?5endpoint?5?$CFp?3@ 005039fc     pjsip-core-i386-win32-vc8-debug-dynamic:sip_endpoint.obj
 0003:00005a18       ??_C@_0CJ@IKGHIDDJ@?5Endpoint?5pool?5capacity?$DN?$CFu?0?5use@ 00503a18     pjsip-core-i386-win32-vc8-debug-dynamic:sip_endpoint.obj
 0003:00005a4c       ??_C@_0BL@JFJBMKJJ@?5Timer?5heap?5has?5?$CFu?5entries@ 00503a4c     pjsip-core-i386-win32-vc8-debug-dynamic:sip_endpoint.obj
 0003:00005a6c       ??_C@_1BM@MOILAMIP@?$AAe?$AAn?$AAd?$AAp?$AAt?$AA?5?$AA?$CG?$AA?$CG?$AA?5?$AAf?$AAu?$AAn?$AAc@ 00503a6c     pjsip-core-i386-win32-vc8-debug-dynamic:sip_endpoint.obj
 0003:00005a90       ??_C@_0N@IDBMKGKC@UNIDENTIFIED@ 00503a90     pjsip-core-i386-win32-vc8-debug-dynamic:sip_util.obj
 0003:00005aa0       ??_C@_05BLGDNOJI@TIMER@    00503aa0     pjsip-core-i386-win32-vc8-debug-dynamic:sip_util.obj
 0003:00005aa8       ??_C@_06FHCLPGGO@TX_MSG@   00503aa8     pjsip-core-i386-win32-vc8-debug-dynamic:sip_util.obj
 0003:00005ab0       ??_C@_06DEPLMDFE@RX_MSG@   00503ab0     pjsip-core-i386-win32-vc8-debug-dynamic:sip_util.obj
 0003:00005ab8       ??_C@_0BA@DJFINPGH@TRANSPORT_ERROR@ 00503ab8     pjsip-core-i386-win32-vc8-debug-dynamic:sip_util.obj
 0003:00005acc       ??_C@_09DGJBKMAD@TSX_STATE@ 00503acc     pjsip-core-i386-win32-vc8-debug-dynamic:sip_util.obj
 0003:00005ad8       ??_C@_04OOEKJIOI@USER@     00503ad8     pjsip-core-i386-win32-vc8-debug-dynamic:sip_util.obj
 0003:00005ae0       ??_C@_04CIMGMMMG@text@     00503ae0     pjsip-core-i386-win32-vc8-debug-dynamic:sip_util.obj
 0003:00005ae8       ??_C@_05CGDPOPDB@plain@    00503ae8     pjsip-core-i386-win32-vc8-debug-dynamic:sip_util.obj
 0003:00005af0       ??_C@_1GE@BOABDODA@?$AAd?$AA?3?$AA?2?$AAp?$AAj?$AAs?$AAi?$AAp?$AA?2?$AAp?$AAj?$AAp?$AAr?$AAo?$AAj@ 00503af0     pjsip-core-i386-win32-vc8-debug-dynamic:sip_util.obj
 0003:00005b68       ??_C@_1CI@HKFMDIPD@?$AAt?$AAs?$AAe?$AAt?$AA?5?$AA?$CG?$AA?$CG?$AA?5?$AAp?$AAo?$AAo?$AAl?$AA?5?$AA?$CG?$AA?$CG@ 00503b68     pjsip-core-i386-win32-vc8-debug-dynamic:sip_util.obj
 0003:00005b98       ??_C@_1CI@POIBLGPL@?$AAt?$AAs?$AAe?$AAt?$AA?5?$AA?$CG?$AA?$CG?$AA?5?$AAp?$AAo?$AAo?$AAl?$AA?5?$AA?$CG?$AA?$CG@ 00503b98     pjsip-core-i386-win32-vc8-debug-dynamic:sip_util.obj
 0003:00005bc8       ??_C@_1BO@LKKKGIN@?$AAt?$AAs?$AAe?$AAt?$AA?5?$AA?$CG?$AA?$CG?$AA?5?$AAt?$AAa?$AAr?$AAg?$AAe?$AAt@ 00503bc8     pjsip-core-i386-win32-vc8-debug-dynamic:sip_util.obj
 0003:00005bf0       ??_C@_1FO@EDPIABID@?$AAp?$AAj?$AA_?$AAl?$AAi?$AAs?$AAt?$AA_?$AAf?$AAi?$AAn?$AAd?$AA_?$AAn?$AAo@ 00503bf0     pjsip-core-i386-win32-vc8-debug-dynamic:sip_util.obj
 0003:00005c60       ??_C@_1FA@NPKACEOK@?$AAt?$AAa?$AAr?$AAg?$AAe?$AAt?$AA?5?$AA?$CG?$AA?$CG?$AA?5?$AAp?$AAo?$AAo?$AAl?$AA?5@ 00503c60     pjsip-core-i386-win32-vc8-debug-dynamic:sip_util.obj
 0003:00005cc0       ??_C@_0M@PJOLBNIF@?$CFs?5created?4@ 00503cc0     pjsip-core-i386-win32-vc8-debug-dynamic:sip_util.obj
 0003:00005cd0       ??_C@_08OKOOPKMJ@endpoint@ 00503cd0     pjsip-core-i386-win32-vc8-debug-dynamic:sip_util.obj
 0003:00005ce0       ??_C@_1IK@ICLIJJGE@?$AAe?$AAn?$AAd?$AAp?$AAt?$AA?5?$AA?$CG?$AA?$CG?$AA?5?$AAm?$AAe?$AAt?$AAh?$AAo?$AAd@ 00503ce0     pjsip-core-i386-win32-vc8-debug-dynamic:sip_util.obj
 0003:00005d88       ??_C@_1DE@IINODGEM@?$AAe?$AAn?$AAd?$AAp?$AAt?$AA?5?$AA?$CG?$AA?$CG?$AA?5?$AAr?$AAd?$AAa?$AAt?$AAa?$AA?5@ 00503d88     pjsip-core-i386-win32-vc8-debug-dynamic:sip_util.obj
 0003:00005dc8       ??_C@_1EC@MNMNJBHH@?$AAs?$AAt?$AA_?$AAc?$AAo?$AAd?$AAe?$AA?5?$AA?$DO?$AA?$DN?$AA?5?$AA1?$AA0?$AA0?$AA?5@ 00503dc8     pjsip-core-i386-win32-vc8-debug-dynamic:sip_util.obj
 0003:00005e18       ??_C@_1EG@OHLFPFNN@?$AAr?$AAe?$AAq?$AA_?$AAm?$AAs?$AAg?$AA?9?$AA?$DO?$AAt?$AAy?$AAp?$AAe?$AA?5?$AA?$DN@ 00503e18     pjsip-core-i386-win32-vc8-debug-dynamic:sip_util.obj
 0003:00005e70       ??_C@_1GA@JMEMIMKF@?$AAr?$AAe?$AAq?$AA_?$AAm?$AAs?$AAg?$AA?9?$AA?$DO?$AAl?$AAi?$AAn?$AAe?$AA?4?$AAr@ 00503e70     pjsip-core-i386-win32-vc8-debug-dynamic:sip_util.obj
 0003:00005ee4       ??_C@_0L@IOBEOHFD@?$CFs?5created@ 00503ee4     pjsip-core-i386-win32-vc8-debug-dynamic:sip_util.obj
 0003:00005ef8       ??_C@_1LM@BLCEOEIP@?$AAr?$AAd?$AAa?$AAt?$AAa?$AA?9?$AA?$DO?$AAm?$AAs?$AAg?$AA_?$AAi?$AAn?$AAf?$AAo@ 00503ef8     pjsip-core-i386-win32-vc8-debug-dynamic:sip_util.obj
 0003:00005fdc       ??_C@_1DA@DIFHNMJK@?$AAf?$AAr?$AAo?$AAm?$AA_?$AAh?$AAd?$AAr?$AA?5?$AA?$CB?$AA?$DN?$AA?5?$AA?$CI?$AA?$CI?$AAv@ 00503fdc     pjsip-core-i386-win32-vc8-debug-dynamic:sip_util.obj
 0003:00006018       ??_C@_1CM@GOJPLHLH@?$AAt?$AAo?$AA_?$AAh?$AAd?$AAr?$AA?5?$AA?$CB?$AA?$DN?$AA?5?$AA?$CI?$AA?$CI?$AAv?$AAo?$AAi@ 00504018     pjsip-core-i386-win32-vc8-debug-dynamic:sip_util.obj
 0003:00006050       ??_C@_1MO@LJCCFAB@?$AAr?$AAe?$AAq?$AA_?$AAt?$AAd?$AAa?$AAt?$AAa?$AA?9?$AA?$DO?$AAm?$AAs?$AAg?$AA?9@ 00504050     pjsip-core-i386-win32-vc8-debug-dynamic:sip_util.obj
 0003:00006148       ??_C@_0ED@BNKEGDBC@Automatic?5switch?5to?5TLS?5transpo@ 00504148     pjsip-core-i386-win32-vc8-debug-dynamic:sip_util.obj
 0003:00006198       ??_C@_1EM@DOAFADCA@?$AAt?$AAd?$AAa?$AAt?$AAa?$AA?9?$AA?$DO?$AAm?$AAs?$AAg?$AA?9?$AA?$DO?$AAt?$AAy?$AAp@ 00504198     pjsip-core-i386-win32-vc8-debug-dynamic:sip_util.obj
 0003:000061f4       ??_C@_1DC@HHMAIHFO@?$AAd?$AAe?$AAs?$AAt?$AA_?$AAi?$AAn?$AAf?$AAo?$AA?5?$AA?$CB?$AA?$DN?$AA?5?$AA?$CI?$AA?$CI@ 005041f4     pjsip-core-i386-win32-vc8-debug-dynamic:sip_util.obj
 0003:00006230       ??_C@_1EO@HBGKJAKM@?$AAt?$AAd?$AAa?$AAt?$AAa?$AA?9?$AA?$DO?$AAs?$AAa?$AAv?$AAe?$AAd?$AA_?$AAs?$AAt@ 00504230     pjsip-core-i386-win32-vc8-debug-dynamic:sip_util.obj
 0003:00006290       ??_C@_0BM@CDDIENAL@Message?5route?5was?5modified?$DP@ 00504290     pjsip-core-i386-win32-vc8-debug-dynamic:sip_util.obj
 0003:000062b4       ??_C@_1DO@CDPMFNOH@?$AA?$CB?$AA?$CC?$AAM?$AAe?$AAs?$AAs?$AAa?$AAg?$AAe?$AA?5?$AAr?$AAo?$AAu?$AAt?$AAe@ 005042b4     pjsip-core-i386-win32-vc8-debug-dynamic:sip_util.obj
 0003:00006300       ??_C@_1DO@JEKLALDB@?$AAt?$AAd?$AAa?$AAt?$AAa?$AA?5?$AA?$DN?$AA?$DN?$AA?5?$AAs?$AAt?$AAa?$AAt?$AAe?$AAl@ 00504300     pjsip-core-i386-win32-vc8-debug-dynamic:sip_util.obj
 0003:0000634c       ??_C@_0BG@FPBMHPCA@Via?5header?5not?5found?$CB@ 0050434c     pjsip-core-i386-win32-vc8-debug-dynamic:sip_util.obj
 0003:00006368       ??_C@_1DC@MBKIMGNC@?$AA?$CB?$AA?$CC?$AAV?$AAi?$AAa?$AA?5?$AAh?$AAe?$AAa?$AAd?$AAe?$AAr?$AA?5?$AAn?$AAo@ 00504368     pjsip-core-i386-win32-vc8-debug-dynamic:sip_util.obj
 0003:000063a4       ??_C@_07LDFFKCFH@z9hG4bK@  005043a4     pjsip-core-i386-win32-vc8-debug-dynamic:sip_util.obj
 0003:000063b0       ??_C@_05NKHOCLEE@alias@    005043b0     pjsip-core-i386-win32-vc8-debug-dynamic:sip_util.obj
 0003:000063b8       ??_C@_1EC@PLNFGKCO@?$AAt?$AAd?$AAa?$AAt?$AAa?$AA?9?$AA?$DO?$AAd?$AAe?$AAs?$AAt?$AA_?$AAi?$AAn?$AAf@ 005043b8     pjsip-core-i386-win32-vc8-debug-dynamic:sip_util.obj
 0003:00006408       ??_C@_0DF@HEHPNNHP@?$CFs?5exceeds?5UDP?5size?5threshold?5?$CI@ 00504408     pjsip-core-i386-win32-vc8-debug-dynamic:sip_util.obj
 0003:00006448       ??_C@_1BO@NJILCPHI@?$AAe?$AAn?$AAd?$AAp?$AAt?$AA?5?$AA?$CG?$AA?$CG?$AA?5?$AAt?$AAd?$AAa?$AAt?$AAa@ 00504448     pjsip-core-i386-win32-vc8-debug-dynamic:sip_util.obj
 0003:0000646c       ??_C@_0DO@JCGKHENM@?$CFs?3?5skipping?5target?5resolution?5@ 0050446c     pjsip-core-i386-win32-vc8-debug-dynamic:sip_util.obj
 0003:000064b8       ??_C@_1CC@HIDCECHH@?$AAa?$AAd?$AAd?$AAr?$AA?9?$AA?$DO?$AAc?$AAo?$AAu?$AAn?$AAt?$AA?5?$AA?$CB?$AA?$DN?$AA?5@ 005044b8     pjsip-core-i386-win32-vc8-debug-dynamic:sip_util.obj
 0003:000064e0       ??_C@_1DE@DPBHNDLB@?$AAp?$AAo?$AAo?$AAl?$AA?5?$AA?$CG?$AA?$CG?$AA?5?$AAr?$AAd?$AAa?$AAt?$AAa?$AA?5?$AA?$CG@ 005044e0     pjsip-core-i386-win32-vc8-debug-dynamic:sip_util.obj
 0003:00006520       ??_C@_1FO@LCFELEGO@?$AAr?$AAd?$AAa?$AAt?$AAa?$AA?9?$AA?$DO?$AAm?$AAs?$AAg?$AA_?$AAi?$AAn?$AAf?$AAo@ 00504520     pjsip-core-i386-win32-vc8-debug-dynamic:sip_util.obj
 0003:00006590       ??_C@_1FG@CEKNLJLE@?$AAr?$AAd?$AAa?$AAt?$AAa?$AA?9?$AA?$DO?$AAm?$AAs?$AAg?$AA_?$AAi?$AAn?$AAf?$AAo@ 00504590     pjsip-core-i386-win32-vc8-debug-dynamic:sip_util.obj
 0003:000065f8       ??_C@_1FA@JGJIBFBC@?$AAp?$AAj?$AAs?$AAi?$AAp?$AA_?$AAr?$AAd?$AAa?$AAt?$AAa?$AA_?$AAg?$AAe?$AAt@ 005045f8     pjsip-core-i386-win32-vc8-debug-dynamic:sip_util.obj
 0003:00006658       ??_C@_0BF@GBGCNFO@It?5shouldn?8t?5happen?$CB@ 00504658     pjsip-core-i386-win32-vc8-debug-dynamic:sip_transport_udp.obj
 0003:00006678       ??_C@_1HG@KGEOOIBH@?$AAd?$AA?3?$AA?2?$AAp?$AAj?$AAs?$AAi?$AAp?$AA?2?$AAp?$AAj?$AAp?$AAr?$AAo?$AAj@ 00504678     pjsip-core-i386-win32-vc8-debug-dynamic:sip_transport_udp.obj
 0003:00006708       ??_C@_1DA@HAPHJBON@?$AA?$CB?$AA?$CC?$AAI?$AAt?$AA?5?$AAs?$AAh?$AAo?$AAu?$AAl?$AAd?$AAn?$AA?8?$AAt?$AA?5@ 00504708     pjsip-core-i386-win32-vc8-debug-dynamic:sip_transport_udp.obj
 0003:00006744       ??_C@_0CO@OCMFJIFA@Warning?3?5pj_ioqueue_recvfrom?$CI?$CJ?5@ 00504744     pjsip-core-i386-win32-vc8-debug-dynamic:sip_transport_udp.obj
 0003:0000677c       ??_C@_1DC@OPBFPDDM@?$AAi?$AA?5?$AA?$DM?$AA?5?$AAM?$AAA?$AAX?$AA_?$AAI?$AAM?$AAM?$AAE?$AAD?$AAI?$AAA@ 0050477c     pjsip-core-i386-win32-vc8-debug-dynamic:sip_transport_udp.obj
 0003:000067b8       ??_C@_0BN@BEFELMIM@Warning?3?5pj_ioqueue_recvfrom@ 005047b8     pjsip-core-i386-win32-vc8-debug-dynamic:sip_transport_udp.obj
 0003:000067e0       ??_C@_0EC@ICGMJAB@FATAL?3?5pj_ioqueue_recvfrom?$CI?$CJ?5er@ 005047e0     pjsip-core-i386-win32-vc8-debug-dynamic:sip_transport_udp.obj
 0003:00006830       ??_C@_1CG@BGOACFGG@?$AAt?$AAr?$AAa?$AAn?$AAs?$AAp?$AAo?$AAr?$AAt?$AA?5?$AA?$CG?$AA?$CG?$AA?5?$AAt?$AAd@ 00504830     pjsip-core-i386-win32-vc8-debug-dynamic:sip_transport_udp.obj
 0003:00006860       ??_C@_1EG@GPLFHMJI@?$AAt?$AAd?$AAa?$AAt?$AAa?$AA?9?$AA?$DO?$AAo?$AAp?$AA_?$AAk?$AAe?$AAy?$AA?4?$AAt@ 00504860     pjsip-core-i386-win32-vc8-debug-dynamic:sip_transport_udp.obj
 0003:000068b4       ??_C@_0BM@INPFFNPD@SIP?5UDP?5transport?5destroyed@ 005048b4     pjsip-core-i386-win32-vc8-debug-dynamic:sip_transport_udp.obj
 0003:000068d8       ??_C@_1CO@BFILFBP@?$AAa?$AA_?$AAn?$AAa?$AAm?$AAe?$AA?9?$AA?$DO?$AAh?$AAo?$AAs?$AAt?$AA?4?$AAs?$AAl@ 005048d8     pjsip-core-i386-win32-vc8-debug-dynamic:sip_transport_udp.obj
 0003:00006910       ??_C@_0BJ@MMFAKBFN@udp?5?$CFs?5?$FLpublished?5as?5?$CFs?$FN@ 00504910     pjsip-core-i386-win32-vc8-debug-dynamic:sip_transport_udp.obj
 0003:00006930       ??_C@_0DC@GICKAICP@Shouldn?8t?5happen?5because?5PJ_IOQ@ 00504930     pjsip-core-i386-win32-vc8-debug-dynamic:sip_transport_udp.obj
 0003:00006970       ??_C@_1GK@HIOEKOAM@?$AA?$CB?$AA?$CC?$AAS?$AAh?$AAo?$AAu?$AAl?$AAd?$AAn?$AA?8?$AAt?$AA?5?$AAh?$AAa?$AAp@ 00504970     pjsip-core-i386-win32-vc8-debug-dynamic:sip_transport_udp.obj
 0003:000069f0       ??_C@_1FK@GHPFMLFH@?$AAe?$AAn?$AAd?$AAp?$AAt?$AA?5?$AA?$CG?$AA?$CG?$AA?5?$AAs?$AAo?$AAc?$AAk?$AA?$CB?$AA?$DN@ 005049f0     pjsip-core-i386-win32-vc8-debug-dynamic:sip_transport_udp.obj
 0003:00006a5c       ??_C@_07LINNJFLK@udpv6?$CFp@ 00504a5c     pjsip-core-i386-win32-vc8-debug-dynamic:sip_transport_udp.obj
 0003:00006a68       ??_C@_01OHGJGJJP@?$FL@     00504a68     pjsip-core-i386-win32-vc8-debug-dynamic:sip_transport_udp.obj
 0003:00006a6c       ??_C@_01LBDDMOBJ@?$FN@     00504a6c     pjsip-core-i386-win32-vc8-debug-dynamic:sip_transport_udp.obj
 0003:00006a70       ??_C@_05DOGEOMC@udp?$CFp@  00504a70     pjsip-core-i386-win32-vc8-debug-dynamic:sip_transport_udp.obj
 0003:00006a78       ??_C@_07OHKHACFK@0?40?40?40@ 00504a78     pjsip-core-i386-win32-vc8-debug-dynamic:sip_transport_udp.obj
 0003:00006a84       ??_C@_03LHJHGOJD@?3?30@    00504a84     pjsip-core-i386-win32-vc8-debug-dynamic:sip_transport_udp.obj
 0003:00006a88       ??_C@_0DB@MDELAJDF@SIP?5?$CFs?5started?0?5published?5addre@ 00504a88     pjsip-core-i386-win32-vc8-debug-dynamic:sip_transport_udp.obj
 0003:00006ac4       ??_C@_1DO@NMIPNNKE@?$AAe?$AAn?$AAd?$AAp?$AAt?$AA?5?$AA?$CG?$AA?$CG?$AA?5?$AAc?$AAf?$AAg?$AA?5?$AA?$CG?$AA?$CG@ 00504ac4     pjsip-core-i386-win32-vc8-debug-dynamic:sip_transport_udp.obj
 0003:00006b10       ??_C@_0BC@BDGDHMHI@SIP?5UDP?5transport@ 00504b10     pjsip-core-i386-win32-vc8-debug-dynamic:sip_transport_udp.obj
 0003:00006b28       ??_C@_0BE@KOJAAPOH@sip_transport_udp?4c@ 00504b28     pjsip-core-i386-win32-vc8-debug-dynamic:sip_transport_udp.obj
 0003:00006b40       ??_C@_1DC@PPCDJBEG@?$AAt?$AAr?$AAa?$AAn?$AAs?$AAp?$AAo?$AAr?$AAt?$AA?5?$AA?$CB?$AA?$DN?$AA?5?$AA?$CI?$AA?$CI@ 00504b40     pjsip-core-i386-win32-vc8-debug-dynamic:sip_transport_udp.obj
 0003:00006b7c       ??_C@_1CK@GGMIAGNJ@?$AA?$CI?$AAo?$AAp?$AAt?$AAi?$AAo?$AAn?$AA?5?$AA?$CG?$AA?5?$AA0?$AAx?$AA0?$AA3?$AA?$CJ@ 00504b7c     pjsip-core-i386-win32-vc8-debug-dynamic:sip_transport_udp.obj
 0003:00006bb0       ??_C@_1CC@MEECDJNB@?$AAt?$AAp?$AA?9?$AA?$DO?$AAi?$AAs?$AA_?$AAp?$AAa?$AAu?$AAs?$AAe?$AAd?$AA?$DN?$AA?$DN@ 00504bb0     pjsip-core-i386-win32-vc8-debug-dynamic:sip_transport_udp.obj
 0003:00006bd8       ??_C@_0BJ@OONKAPDN@SIP?5UDP?5transport?5paused@ 00504bd8     pjsip-core-i386-win32-vc8-debug-dynamic:sip_transport_udp.obj
 0003:00006bf8       ??_C@_1BM@MDAHBGKL@?$AAt?$AAp?$AA?9?$AA?$DO?$AAi?$AAs?$AA_?$AAp?$AAa?$AAu?$AAs?$AAe?$AAd@ 00504bf8     pjsip-core-i386-win32-vc8-debug-dynamic:sip_transport_udp.obj
 0003:00006c1c       ??_C@_0DF@PEKBCPJC@SIP?5UDP?5transport?5restarted?0?5pu@ 00504c1c     pjsip-core-i386-win32-vc8-debug-dynamic:sip_transport_udp.obj
 0003:00006c5c       ??_C@_0O@CDKJIHHI@mod?9tsx?9layer@ 00504c5c     pjsip-core-i386-win32-vc8-debug-dynamic:sip_transaction.obj
 0003:00006c6c       ??_C@_04KHKKIIL@Null@      00504c6c     pjsip-core-i386-win32-vc8-debug-dynamic:sip_transaction.obj
 0003:00006c74       ??_C@_07BNCBFEGH@Calling@  00504c74     pjsip-core-i386-win32-vc8-debug-dynamic:sip_transaction.obj
 0003:00006c80       ??_C@_0L@BKKAFK@Proceeding@ 00504c80     pjsip-core-i386-win32-vc8-debug-dynamic:sip_transaction.obj
 0003:00006c90       ??_C@_09MIJAKHKB@Completed@ 00504c90     pjsip-core-i386-win32-vc8-debug-dynamic:sip_transaction.obj
 0003:00006c9c       ??_C@_09ONANMLIC@Confirmed@ 00504c9c     pjsip-core-i386-win32-vc8-debug-dynamic:sip_transaction.obj
 0003:00006ca8       ??_C@_0L@NNDINIPK@Terminated@ 00504ca8     pjsip-core-i386-win32-vc8-debug-dynamic:sip_transaction.obj
 0003:00006cb8       ??_C@_09KDBKJCNL@Destroyed@ 00504cb8     pjsip-core-i386-win32-vc8-debug-dynamic:sip_transaction.obj
 0003:00006cc4       ??_C@_03IIGECEEC@UAC@      00504cc4     pjsip-core-i386-win32-vc8-debug-dynamic:sip_transaction.obj
 0003:00006cc8       ??_C@_03MCKGDGBD@UAS@      00504cc8     pjsip-core-i386-win32-vc8-debug-dynamic:sip_transaction.obj
 0003:00006cd0       ??_C@_1HC@DCOIDHGL@?$AAd?$AA?3?$AA?2?$AAp?$AAj?$AAs?$AAi?$AAp?$AA?2?$AAp?$AAj?$AAp?$AAr?$AAo?$AAj@ 00504cd0     pjsip-core-i386-win32-vc8-debug-dynamic:sip_transaction.obj
 0003:00006d58       ??_C@_1DO@OMOBPGDD@?$AAp?$AAo?$AAo?$AAl?$AA?5?$AA?$CG?$AA?$CG?$AA?5?$AAs?$AAt?$AAr?$AA?5?$AA?$CG?$AA?$CG?$AA?5@ 00504d58     pjsip-core-i386-win32-vc8-debug-dynamic:sip_transaction.obj
 0003:00006da4       ??_C@_1CI@CHIMELAL@?$AAr?$AAd?$AAa?$AAt?$AAa?$AA?9?$AA?$DO?$AAm?$AAs?$AAg?$AA_?$AAi?$AAn?$AAf?$AAo@ 00504da4     pjsip-core-i386-win32-vc8-debug-dynamic:sip_transaction.obj
 0003:00006dd4       ??_C@_1CK@GGBEIEPP@?$AAr?$AAd?$AAa?$AAt?$AAa?$AA?9?$AA?$DO?$AAm?$AAs?$AAg?$AA_?$AAi?$AAn?$AAf?$AAo@ 00504dd4     pjsip-core-i386-win32-vc8-debug-dynamic:sip_transaction.obj
 0003:00006e08       ??_C@_1CK@PHMDIEGE@?$AAr?$AAd?$AAa?$AAt?$AAa?$AA?9?$AA?$DO?$AAm?$AAs?$AAg?$AA_?$AAi?$AAn?$AAf?$AAo@ 00504e08     pjsip-core-i386-win32-vc8-debug-dynamic:sip_transaction.obj
 0003:00006e40       ??_C@_1EA@DKNNOODP@?$AAp?$AAo?$AAo?$AAl?$AA?5?$AA?$CG?$AA?$CG?$AA?5?$AAk?$AAe?$AAy?$AA?5?$AA?$CG?$AA?$CG?$AA?5@ 00504e40     pjsip-core-i386-win32-vc8-debug-dynamic:sip_transaction.obj
 0003:00006e90       ??_C@_1EC@OCCPJFL@?$AAm?$AAo?$AAd?$AA_?$AAt?$AAs?$AAx?$AA_?$AAl?$AAa?$AAy?$AAe?$AAr?$AA?4?$AAe@ 00504e90     pjsip-core-i386-win32-vc8-debug-dynamic:sip_transaction.obj
 0003:00006ee0       ??_C@_08NHKHBNMC@tsxlayer@ 00504ee0     pjsip-core-i386-win32-vc8-debug-dynamic:sip_transaction.obj
 0003:00006ef0       ??_C@_1EC@BOAFDEBH@?$AAm?$AAo?$AAd?$AA_?$AAt?$AAs?$AAx?$AA_?$AAl?$AAa?$AAy?$AAe?$AAr?$AA?4?$AAe@ 00504ef0     pjsip-core-i386-win32-vc8-debug-dynamic:sip_transaction.obj
 0003:00006f40       ??_C@_1DO@OMIGMOJO@?$AAt?$AAs?$AAx?$AA?9?$AA?$DO?$AAt?$AAr?$AAa?$AAn?$AAs?$AAa?$AAc?$AAt?$AAi?$AAo@ 00504f40     pjsip-core-i386-win32-vc8-debug-dynamic:sip_transaction.obj
 0003:00006f8c       ??_C@_0DB@ELBLLJGF@Unable?5to?5register?5?$CF?4?$CKs?5transac@ 00504f8c     pjsip-core-i386-win32-vc8-debug-dynamic:sip_transaction.obj
 0003:00006fc8       ??_C@_0BC@LHFGMDJJ@sip_transaction?4c@ 00504fc8     pjsip-core-i386-win32-vc8-debug-dynamic:sip_transaction.obj
 0003:00006fe0       ??_C@_0CC@CEIKILH@Stopping?5transaction?5layer?5modu@ 00504fe0     pjsip-core-i386-win32-vc8-debug-dynamic:sip_transaction.obj
 0003:00007008       ??_C@_0CB@HOMFNBLL@Stopped?5transaction?5layer?5modul@ 00505008     pjsip-core-i386-win32-vc8-debug-dynamic:sip_transaction.obj
 0003:00007030       ??_C@_0CD@MKMHPCL@Transaction?5layer?5module?5destro@ 00505030     pjsip-core-i386-win32-vc8-debug-dynamic:sip_transaction.obj
 0003:0000705c       ??_C@_0DF@EFJDAPKP@Failed?5to?5register?5transaction?5@ 0050505c     pjsip-core-i386-win32-vc8-debug-dynamic:sip_transaction.obj
 0003:0000709c       ??_C@_0BL@LHNOMDKC@Dumping?5transaction?5table?3@ 0050509c     pjsip-core-i386-win32-vc8-debug-dynamic:sip_transaction.obj
 0003:000070bc       ??_C@_0BH@LNPIBBJK@?5Total?5?$CFd?5transactions@ 005050bc     pjsip-core-i386-win32-vc8-debug-dynamic:sip_transaction.obj
 0003:000070d8       ??_C@_0L@PECGINLK@?5?9?5none?5?9?5@ 005050d8     pjsip-core-i386-win32-vc8-debug-dynamic:sip_transaction.obj
 0003:000070e8       ??_C@_04CGFJFPFD@none@     005050e8     pjsip-core-i386-win32-vc8-debug-dynamic:sip_transaction.obj
 0003:000070f0       ??_C@_0N@KCFHGJA@?5?$CFs?5?$CFs?$HM?$CFd?$HM?$CFs@ 005050f0     pjsip-core-i386-win32-vc8-debug-dynamic:sip_transaction.obj
 0003:00007100       ??_C@_1BO@PMNFIKDL@?$AAa?$AAc?$AAt?$AAi?$AAv?$AAe?$AA_?$AAi?$AAd?$AA?5?$AA?$CB?$AA?$DN?$AA?5?$AA0@ 00505100     pjsip-core-i386-win32-vc8-debug-dynamic:sip_transaction.obj
 0003:00007124       ??_C@_03ILLHDCNP@tsx@      00505124     pjsip-core-i386-win32-vc8-debug-dynamic:sip_transaction.obj
 0003:00007128       ??_C@_05NPMOPOBK@tsx?$CFp@ 00505128     pjsip-core-i386-win32-vc8-debug-dynamic:sip_transaction.obj
 0003:00007130       ??_C@_0BH@PDBDIMMK@Transaction?5destroyed?$CB@ 00505130     pjsip-core-i386-win32-vc8-debug-dynamic:sip_transaction.obj
 0003:0000714c       ??_C@_0DE@PFNICBJL@Will?5destroy?5later?5because?5tran@ 0050514c     pjsip-core-i386-win32-vc8-debug-dynamic:sip_transaction.obj
 0003:0000718c       ??_C@_0L@KEAKDBBB@Retransmit@ 0050518c     pjsip-core-i386-win32-vc8-debug-dynamic:sip_transaction.obj
 0003:0000719c       ??_C@_07MKALMBDJ@Timeout@  0050519c     pjsip-core-i386-win32-vc8-debug-dynamic:sip_transaction.obj
 0003:000071a8       ??_C@_0P@ICKHIBGF@?$CFs?5timer?5event@ 005051a8     pjsip-core-i386-win32-vc8-debug-dynamic:sip_transaction.obj
 0003:000071bc       ??_C@_1CI@LMGEKOLO@?$AAs?$AAt?$AAa?$AAt?$AAe?$AA?5?$AA?$DO?$AA?$DN?$AA?5?$AAt?$AAs?$AAx?$AA?9?$AA?$DO?$AAs@ 005051bc     pjsip-core-i386-win32-vc8-debug-dynamic:sip_transaction.obj
 0003:000071ec       ??_C@_0CG@BHDJKKPD@State?5changed?5from?5?$CFs?5to?5?$CFs?0?5ev@ 005051ec     pjsip-core-i386-win32-vc8-debug-dynamic:sip_transaction.obj
 0003:0000721c       ??_C@_1CK@PGHKMIBL@?$AAr?$AAd?$AAa?$AAt?$AAa?$AA?5?$AA?$CB?$AA?$DN?$AA?5?$AA?$CI?$AA?$CI?$AAv?$AAo?$AAi?$AAd@ 0050521c     pjsip-core-i386-win32-vc8-debug-dynamic:sip_transaction.obj
 0003:00007250       ??_C@_1DK@IJFPIJJ@?$AAt?$AAd?$AAa?$AAt?$AAa?$AA?5?$AA?$CG?$AA?$CG?$AA?5?$AAt?$AAd?$AAa?$AAt?$AAa?$AA?9@ 00505250     pjsip-core-i386-win32-vc8-debug-dynamic:sip_transaction.obj
 0003:00007298       ??_C@_1GG@HKHDAKCA@?$AAt?$AAd?$AAa?$AAt?$AAa?$AA?9?$AA?$DO?$AAm?$AAs?$AAg?$AA?9?$AA?$DO?$AAl?$AAi?$AAn@ 00505298     pjsip-core-i386-win32-vc8-debug-dynamic:sip_transaction.obj
 0003:00007314       ??_C@_0CN@EDKCNDHP@CSeq?5header?5not?5present?5in?5outg@ 00505314     pjsip-core-i386-win32-vc8-debug-dynamic:sip_transaction.obj
 0003:00007350       ??_C@_1GA@MNIHDFCK@?$AA?$CB?$AA?$CC?$AAC?$AAS?$AAe?$AAq?$AA?5?$AAh?$AAe?$AAa?$AAd?$AAe?$AAr?$AA?5?$AAn@ 00505350     pjsip-core-i386-win32-vc8-debug-dynamic:sip_transaction.obj
 0003:000073c4       ??_C@_0BL@NELPIPFA@Transaction?5created?5for?5?$CFs@ 005053c4     pjsip-core-i386-win32-vc8-debug-dynamic:sip_transaction.obj
 0003:000073e8       ??_C@_1EM@JKCBONDD@?$AAr?$AAd?$AAa?$AAt?$AAa?$AA?5?$AA?$CG?$AA?$CG?$AA?5?$AAr?$AAd?$AAa?$AAt?$AAa?$AA?9@ 005053e8     pjsip-core-i386-win32-vc8-debug-dynamic:sip_transaction.obj
 0003:00007448       ??_C@_1FI@JLANADKE@?$AAm?$AAs?$AAg?$AA?9?$AA?$DO?$AAl?$AAi?$AAn?$AAe?$AA?4?$AAr?$AAe?$AAq?$AA?4?$AAm@ 00505448     pjsip-core-i386-win32-vc8-debug-dynamic:sip_transaction.obj
 0003:000074b8       ??_C@_0ED@IJNOFMME@Error?3?5CSeq?5header?5contains?5dif@ 005054b8     pjsip-core-i386-win32-vc8-debug-dynamic:sip_transaction.obj
 0003:00007508       ??_C@_1BG@MPNNHPBG@?$AAt?$AAs?$AAx?$AA?5?$AA?$CG?$AA?$CG?$AA?5?$AAs?$AAe?$AAl@ 00505508     pjsip-core-i386-win32-vc8-debug-dynamic:sip_transaction.obj
 0003:00007524       ??_C@_0CB@LPCILHMH@Request?5to?5terminate?5transactio@ 00505524     pjsip-core-i386-win32-vc8-debug-dynamic:sip_transaction.obj
 0003:0000754c       ??_C@_1BI@KBKJHGPA@?$AAc?$AAo?$AAd?$AAe?$AA?5?$AA?$DO?$AA?$DN?$AA?5?$AA2?$AA0?$AA0@ 0050554c     pjsip-core-i386-win32-vc8-debug-dynamic:sip_transaction.obj
 0003:00007568       ??_C@_1IK@JAGJODNG@?$AAt?$AAs?$AAx?$AA?9?$AA?$DO?$AAr?$AAo?$AAl?$AAe?$AA?5?$AA?$DN?$AA?$DN?$AA?5?$AAP?$AAJ@ 00505568     pjsip-core-i386-win32-vc8-debug-dynamic:sip_transaction.obj
 0003:00007610       ??_C@_0BP@IPFJMBJM@Request?5to?5stop?5retransmission@ 00505610     pjsip-core-i386-win32-vc8-debug-dynamic:sip_transaction.obj
 0003:00007638       ??_C@_0BH@NJDAONCL@Sending?5?$CFs?5in?5state?5?$CFs@ 00505638     pjsip-core-i386-win32-vc8-debug-dynamic:sip_transaction.obj
 0003:00007654       ??_C@_0BI@PADDBGDM@Incoming?5?$CFs?5in?5state?5?$CFs@ 00505654     pjsip-core-i386-win32-vc8-debug-dynamic:sip_transaction.obj
 0003:00007670       ??_C@_1FC@LEHDEODE@?$AAs?$AAe?$AAn?$AAd?$AA_?$AAs?$AAt?$AAa?$AAt?$AAe?$AA?9?$AA?$DO?$AAc?$AAu?$AAr@ 00505670     pjsip-core-i386-win32-vc8-debug-dynamic:sip_transaction.obj
 0003:000076d4       ??_C@_1BE@CIJBJEGI@?$AAs?$AAe?$AAn?$AAt?$AA?5?$AA?$CB?$AA?$DN?$AA?5?$AA0@ 005056d4     pjsip-core-i386-win32-vc8-debug-dynamic:sip_transaction.obj
 0003:000076ec       ??_C@_0BP@MFDMMFDJ@Failed?5to?5send?5?$CFs?$CB?5err?$DN?$CFd?5?$CI?$CFs?$CJ@ 005056ec     pjsip-core-i386-win32-vc8-debug-dynamic:sip_transaction.obj
 0003:00007714       ??_C@_0DG@HCJJGEJB@Temporary?5failure?5in?5sending?5?$CFs@ 00505714     pjsip-core-i386-win32-vc8-debug-dynamic:sip_transaction.obj
 0003:00007754       ??_C@_0CJ@CBOMABNM@Transport?5failed?5to?5send?5?$CFs?$CB?5Er@ 00505754     pjsip-core-i386-win32-vc8-debug-dynamic:sip_transaction.obj
 0003:00007788       ??_C@_1DM@GCKKNIDH@?$AAt?$AAp?$AA?5?$AA?$CG?$AA?$CG?$AA?5?$AAi?$AAn?$AAf?$AAo?$AA?5?$AA?$CG?$AA?$CG?$AA?5?$AAi@ 00505788     pjsip-core-i386-win32-vc8-debug-dynamic:sip_transaction.obj
 0003:000077d0       ??_C@_1BK@GOEALIM@?$AAt?$AAs?$AAx?$AA?5?$AA?$CG?$AA?$CG?$AA?5?$AAt?$AAd?$AAa?$AAt?$AAa@ 005057d0     pjsip-core-i386-win32-vc8-debug-dynamic:sip_transaction.obj
 0003:000077f0       ??_C@_0BB@HMFOJBGF@Error?5sending?5?$CFs@ 005057f0     pjsip-core-i386-win32-vc8-debug-dynamic:sip_transaction.obj
 0003:00007808       ??_C@_1GM@FDLBKKP@?$AAs?$AAt?$AAa?$AAt?$AAu?$AAs?$AA?5?$AA?$CB?$AA?$DN?$AA?5?$AAP?$AAJ?$AA_?$AAS?$AAU@ 00505808     pjsip-core-i386-win32-vc8-debug-dynamic:sip_transaction.obj
 0003:0000788c       ??_C@_0BD@CANGBNK@Unexpected?5status?$CB@ 0050588c     pjsip-core-i386-win32-vc8-debug-dynamic:sip_transaction.obj
 0003:000078a4       ??_C@_1CM@MPGMPBCG@?$AA?$CB?$AA?$CC?$AAU?$AAn?$AAe?$AAx?$AAp?$AAe?$AAc?$AAt?$AAe?$AAd?$AA?5?$AAs?$AAt@ 005058a4     pjsip-core-i386-win32-vc8-debug-dynamic:sip_transaction.obj
 0003:000078d8       ??_C@_0DG@EDJHIGCF@Transport?5error?0?5terminating?5tr@ 005058d8     pjsip-core-i386-win32-vc8-debug-dynamic:sip_transaction.obj
 0003:00007918       ??_C@_1GO@EFGEOEAI@?$AA?$CI?$AAt?$AAs?$AAx?$AA?9?$AA?$DO?$AAt?$AAr?$AAa?$AAn?$AAs?$AAp?$AAo?$AAr?$AAt@ 00505918     pjsip-core-i386-win32-vc8-debug-dynamic:sip_transaction.obj
 0003:0000799c       ??_C@_1CO@ECEBCFIN@?$AAt?$AAs?$AAx?$AA?9?$AA?$DO?$AAs?$AAt?$AAa?$AAt?$AAu?$AAs?$AA_?$AAc?$AAo?$AAd@ 0050599c     pjsip-core-i386-win32-vc8-debug-dynamic:sip_transaction.obj
 0003:000079d4       ??_C@_1DA@CHKFPGLG@?$AAt?$AAs?$AAx?$AA?9?$AA?$DO?$AAs?$AAt?$AAa?$AAt?$AAu?$AAs?$AA_?$AAc?$AAo?$AAd@ 005059d4     pjsip-core-i386-win32-vc8-debug-dynamic:sip_transaction.obj
 0003:00007a10       ??_C@_1DE@GPNPBCPO@?$AAt?$AAs?$AAx?$AA?9?$AA?$DO?$AAl?$AAa?$AAs?$AAt?$AA_?$AAt?$AAx?$AA?$CB?$AA?$DN?$AA?$CI@ 00505a10     pjsip-core-i386-win32-vc8-debug-dynamic:sip_transaction.obj
 0003:00007a50       ??_C@_0CI@CEFAFFOL@Retransmiting?5?$CFs?0?5count?$DN?$CFd?0?5res@ 00505a50     pjsip-core-i386-win32-vc8-debug-dynamic:sip_transaction.obj
 0003:00007a80       ??_C@_1FA@PEGBNKGC@?$AAt?$AAs?$AAx?$AA?9?$AA?$DO?$AAs?$AAt?$AAa?$AAt?$AAe?$AA?5?$AA?$CB?$AA?$DN?$AA?5?$AAP@ 00505a80     pjsip-core-i386-win32-vc8-debug-dynamic:sip_transaction.obj
 0003:00007ae0       ??_C@_17JBPKEIOA@?$AAt?$AAs?$AAx@ 00505ae0     pjsip-core-i386-win32-vc8-debug-dynamic:sip_transaction.obj
 0003:00007af0       ??_C@_1EG@DAEMFGKA@?$AAt?$AAs?$AAx?$AA?9?$AA?$DO?$AAs?$AAt?$AAa?$AAt?$AAe?$AA?5?$AA?$DN?$AA?$DN?$AA?5?$AAP@ 00505af0     pjsip-core-i386-win32-vc8-debug-dynamic:sip_transaction.obj
 0003:00007b48       ??_C@_1MO@LFBGMEHK@?$AAe?$AAv?$AAe?$AAn?$AAt?$AA?9?$AA?$DO?$AAt?$AAy?$AAp?$AAe?$AA?5?$AA?$DN?$AA?$DN?$AA?5@ 00505b48     pjsip-core-i386-win32-vc8-debug-dynamic:sip_transaction.obj
 0003:00007c40       ??_C@_1EE@EDJGJAAL@?$AAe?$AAv?$AAe?$AAn?$AAt?$AA?9?$AA?$DO?$AAt?$AAy?$AAp?$AAe?$AA?5?$AA?$DN?$AA?$DN?$AA?5@ 00505c40     pjsip-core-i386-win32-vc8-debug-dynamic:sip_transaction.obj
 0003:00007c98       ??_C@_1EM@CIPBAKOA@?$AAt?$AAs?$AAx?$AA?9?$AA?$DO?$AAs?$AAt?$AAa?$AAt?$AAe?$AA?5?$AA?$DN?$AA?$DN?$AA?5?$AAP@ 00505c98     pjsip-core-i386-win32-vc8-debug-dynamic:sip_transaction.obj
 0003:00007cf4       ??_C@_1DI@KIPMPAMA@?$AAt?$AAs?$AAx?$AA?9?$AA?$DO?$AAr?$AAo?$AAl?$AAe?$AA?5?$AA?$DN?$AA?$DN?$AA?5?$AAP?$AAJ@ 00505cf4     pjsip-core-i386-win32-vc8-debug-dynamic:sip_transaction.obj
 0003:00007d38       ??_C@_0BB@KDNFAEGO@Unexpected?5event@ 00505d38     pjsip-core-i386-win32-vc8-debug-dynamic:sip_transaction.obj
 0003:00007d4c       ??_C@_1CI@KGLCANNO@?$AA?$CB?$AA?$CC?$AAU?$AAn?$AAe?$AAx?$AAp?$AAe?$AAc?$AAt?$AAe?$AAd?$AA?5?$AAe?$AAv@ 00505d4c     pjsip-core-i386-win32-vc8-debug-dynamic:sip_transaction.obj
 0003:00007d80       ??_C@_1EK@CFKEDLIK@?$AAt?$AAs?$AAx?$AA?9?$AA?$DO?$AAs?$AAt?$AAa?$AAt?$AAe?$AA?5?$AA?$DN?$AA?$DN?$AA?5?$AAP@ 00505d80     pjsip-core-i386-win32-vc8-debug-dynamic:sip_transaction.obj
 0003:00007dd8       ??_C@_1DI@PIOFKHFP@?$AAt?$AAs?$AAx?$AA?9?$AA?$DO?$AAr?$AAo?$AAl?$AAe?$AA?5?$AA?$DN?$AA?$DN?$AA?5?$AAP?$AAJ@ 00505dd8     pjsip-core-i386-win32-vc8-debug-dynamic:sip_transaction.obj
 0003:00007e20       ??_C@_1KC@KPPIAMJA@?$AAt?$AAs?$AAx?$AA?9?$AA?$DO?$AAs?$AAt?$AAa?$AAt?$AAe?$AA?5?$AA?$DN?$AA?$DN?$AA?5?$AAP@ 00505e20     pjsip-core-i386-win32-vc8-debug-dynamic:sip_transaction.obj
 0003:00007ee4       ??_C@_1DI@FLLNCFGI@?$AAt?$AAs?$AAx?$AA?9?$AA?$DO?$AAl?$AAa?$AAs?$AAt?$AA_?$AAt?$AAx?$AA?5?$AA?$CB?$AA?$DN@ 00505ee4     pjsip-core-i386-win32-vc8-debug-dynamic:sip_transaction.obj
 0003:00007f28       ??_C@_1DM@COGGBFLK@?$AAm?$AAs?$AAg?$AA?9?$AA?$DO?$AAt?$AAy?$AAp?$AAe?$AA?$DN?$AA?$DN?$AAP?$AAJ?$AAS?$AAI@ 00505f28     pjsip-core-i386-win32-vc8-debug-dynamic:sip_transaction.obj
 0003:00007f70       ??_C@_0BF@DIDPGFKN@Should?5not?5happen?$CI?$DP?$CJ@ 00505f70     pjsip-core-i386-win32-vc8-debug-dynamic:sip_transaction.obj
 0003:00007f8c       ??_C@_1DA@HGGLPIBL@?$AA?$CB?$AA?$CC?$AAS?$AAh?$AAo?$AAu?$AAl?$AAd?$AA?5?$AAn?$AAo?$AAt?$AA?5?$AAh?$AAa@ 00505f8c     pjsip-core-i386-win32-vc8-debug-dynamic:sip_transaction.obj
 0003:00007fc8       ??_C@_1KE@CAGBNPGI@?$AAt?$AAs?$AAx?$AA?9?$AA?$DO?$AAs?$AAt?$AAa?$AAt?$AAe?$AA?5?$AA?$DN?$AA?$DN?$AA?5?$AAP@ 00505fc8     pjsip-core-i386-win32-vc8-debug-dynamic:sip_transaction.obj
 0003:00008090       ??_C@_1EE@LLFENLLN@?$AAe?$AAv?$AAe?$AAn?$AAt?$AA?9?$AA?$DO?$AAt?$AAy?$AAp?$AAe?$AA?5?$AA?$DN?$AA?$DN?$AA?5@ 00506090     pjsip-core-i386-win32-vc8-debug-dynamic:sip_transaction.obj
 0003:000080e4       ??_C@_0BM@BMKJADDJ@Expecting?5response?5message?$CB@ 005060e4     pjsip-core-i386-win32-vc8-debug-dynamic:sip_transaction.obj
 0003:00008108       ??_C@_1DO@KNIABGJD@?$AA?$CB?$AA?$CC?$AAE?$AAx?$AAp?$AAe?$AAc?$AAt?$AAi?$AAn?$AAg?$AA?5?$AAr?$AAe?$AAs@ 00506108     pjsip-core-i386-win32-vc8-debug-dynamic:sip_transaction.obj
 0003:00008158       ??_C@_1FA@MBGMHMCL@?$AAt?$AAs?$AAx?$AA?9?$AA?$DO?$AAs?$AAt?$AAa?$AAt?$AAe?$AA?5?$AA?$DN?$AA?$DN?$AA?5?$AAP@ 00506158     pjsip-core-i386-win32-vc8-debug-dynamic:sip_transaction.obj
 0003:000081b8       ??_C@_0CK@BFJIAGKI@Received?5illegal?5ACK?5for?5?$CF?4?$CKs?5t@ 005061b8     pjsip-core-i386-win32-vc8-debug-dynamic:sip_transaction.obj
 0003:000081f0       ??_C@_1JM@PIDLPNDF@?$AAe?$AAv?$AAe?$AAn?$AAt?$AA?9?$AA?$DO?$AAt?$AAy?$AAp?$AAe?$AA?5?$AA?$DN?$AA?$DN?$AA?5@ 005061f0     pjsip-core-i386-win32-vc8-debug-dynamic:sip_transaction.obj
 0003:000082b0       ??_C@_1FA@EIPBHIIC@?$AAt?$AAs?$AAx?$AA?9?$AA?$DO?$AAs?$AAt?$AAa?$AAt?$AAe?$AA?5?$AA?$DN?$AA?$DN?$AA?5?$AAP@ 005062b0     pjsip-core-i386-win32-vc8-debug-dynamic:sip_transaction.obj
 0003:00008310       ??_C@_1EM@JCLOFBFI@?$AAt?$AAs?$AAx?$AA?9?$AA?$DO?$AAm?$AAe?$AAt?$AAh?$AAo?$AAd?$AA?4?$AAi?$AAd?$AA?5@ 00506310     pjsip-core-i386-win32-vc8-debug-dynamic:sip_transaction.obj
 0003:00008370       ??_C@_1LM@GLKCGDEI@?$AAm?$AAs?$AAg?$AA?9?$AA?$DO?$AAl?$AAi?$AAn?$AAe?$AA?4?$AAr?$AAe?$AAq?$AA?4?$AAm@ 00506370     pjsip-core-i386-win32-vc8-debug-dynamic:sip_transaction.obj
 0003:00008458       ??_C@_1FO@HIEMJBOI@?$AAe?$AAv?$AAe?$AAn?$AAt?$AA?9?$AA?$DO?$AAb?$AAo?$AAd?$AAy?$AA?4?$AAt?$AAi?$AAm@ 00506458     pjsip-core-i386-win32-vc8-debug-dynamic:sip_transaction.obj
 0003:000084c8       ??_C@_1FC@NIMEPMCP@?$AAt?$AAs?$AAx?$AA?9?$AA?$DO?$AAs?$AAt?$AAa?$AAt?$AAe?$AA?5?$AA?$DN?$AA?$DN?$AA?5?$AAP@ 005064c8     pjsip-core-i386-win32-vc8-debug-dynamic:sip_transaction.obj
 0003:0000852c       ??_C@_06GBGGOGBI@mod?9ua@  0050652c     pjsip-core-i386-win32-vc8-debug-dynamic:sip_ua_layer.obj
 0003:00008534       ??_C@_04JKMMAKMG@ua?$CFp@  00506534     pjsip-core-i386-win32-vc8-debug-dynamic:sip_ua_layer.obj
 0003:0000853c       ??_C@_05OKIAFJEO@?5ua?$CFp@ 0050653c     pjsip-core-i386-win32-vc8-debug-dynamic:sip_ua_layer.obj
 0003:00008548       ??_C@_1GM@ODEEHHEL@?$AAd?$AA?3?$AA?2?$AAp?$AAj?$AAs?$AAi?$AAp?$AA?2?$AAp?$AAj?$AAp?$AAr?$AAo?$AAj@ 00506548     pjsip-core-i386-win32-vc8-debug-dynamic:sip_ua_layer.obj
 0003:000085cc       ??_C@_1CI@LBJMJHFA@?$AAm?$AAo?$AAd?$AA_?$AAu?$AAa?$AA?4?$AAm?$AAo?$AAd?$AA?4?$AAi?$AAd?$AA?5?$AA?$DN@ 005065cc     pjsip-core-i386-win32-vc8-debug-dynamic:sip_ua_layer.obj
 0003:000085fc       ??_C@_1CE@HBPNHBHJ@?$AAu?$AAa?$AA?5?$AA?$DN?$AA?$DN?$AA?5?$AA?$CG?$AAm?$AAo?$AAd?$AA_?$AAu?$AAa?$AA?4?$AAm@ 005065fc     pjsip-core-i386-win32-vc8-debug-dynamic:sip_ua_layer.obj
 0003:00008628       ??_C@_1CI@LIIODHCN@?$AAm?$AAo?$AAd?$AA_?$AAu?$AAa?$AA?4?$AAm?$AAo?$AAd?$AA?4?$AAi?$AAd?$AA?5?$AA?$CB@ 00506628     pjsip-core-i386-win32-vc8-debug-dynamic:sip_ua_layer.obj
 0003:00008658       ??_C@_1BE@LFFAKOF@?$AAu?$AAa?$AA?5?$AA?$CG?$AA?$CG?$AA?5?$AAd?$AAl?$AAg@ 00506658     pjsip-core-i386-win32-vc8-debug-dynamic:sip_ua_layer.obj
 0003:00008670       ??_C@_1JC@GJMIEGFD@?$AAd?$AAl?$AAg?$AA?9?$AA?$DO?$AAl?$AAo?$AAc?$AAa?$AAl?$AA?4?$AAi?$AAn?$AAf?$AAo@ 00506670     pjsip-core-i386-win32-vc8-debug-dynamic:sip_ua_layer.obj
 0003:00008720       ??_C@_1GI@NIHHKAMB@?$AAd?$AAl?$AAg?$AA_?$AAs?$AAe?$AAt?$AA?9?$AA?$DO?$AAd?$AAl?$AAg?$AA_?$AAl?$AAi@ 00506720     pjsip-core-i386-win32-vc8-debug-dynamic:sip_ua_layer.obj
 0003:0000879c       ??_C@_1BK@HCNCDBPL@?$AAd?$AAl?$AAg?$AA?9?$AA?$DO?$AAd?$AAl?$AAg?$AA_?$AAs?$AAe?$AAt@ 0050679c     pjsip-core-i386-win32-vc8-debug-dynamic:sip_ua_layer.obj
 0003:000087bc       ??_C@_0BK@BPGLCCGL@Dialog?5is?5not?5registered?$CB@ 005067bc     pjsip-core-i386-win32-vc8-debug-dynamic:sip_ua_layer.obj
 0003:000087dc       ??_C@_1DK@GBALBBB@?$AA?$CB?$AA?$CC?$AAD?$AAi?$AAa?$AAl?$AAo?$AAg?$AA?5?$AAi?$AAs?$AA?5?$AAn?$AAo?$AAt@ 005067dc     pjsip-core-i386-win32-vc8-debug-dynamic:sip_ua_layer.obj
 0003:00008824       ??_C@_1BK@HHDHKCML@?$AAm?$AAo?$AAd?$AA_?$AAu?$AAa?$AA?4?$AAe?$AAn?$AAd?$AAp?$AAt@ 00506824     pjsip-core-i386-win32-vc8-debug-dynamic:sip_ua_layer.obj
 0003:00008848       ??_C@_1EG@ONDDBEA@?$AAc?$AAa?$AAl?$AAl?$AA_?$AAi?$AAd?$AA?5?$AA?$CG?$AA?$CG?$AA?5?$AAl?$AAo?$AAc?$AAa@ 00506848     pjsip-core-i386-win32-vc8-debug-dynamic:sip_ua_layer.obj
 0003:0000889c       ??_C@_0DE@OALAGOOG@Unable?5to?5find?5dialogset?5for?5?$CFs@ 0050689c     pjsip-core-i386-win32-vc8-debug-dynamic:sip_ua_layer.obj
 0003:000088dc       ??_C@_0P@JPGJPHAN@sip_ua_layer?4c@ 005068dc     pjsip-core-i386-win32-vc8-debug-dynamic:sip_ua_layer.obj
 0003:000088f0       ??_C@_0DB@GAIHGHNL@Unable?5to?5find?5dialog?5for?5?$CFs?0?5a@ 005068f0     pjsip-core-i386-win32-vc8-debug-dynamic:sip_ua_layer.obj
 0003:0000892c       ??_C@_0BN@IDPPCIAF@Unable?5to?5find?5dialog?5for?5?$CFs@ 0050692c     pjsip-core-i386-win32-vc8-debug-dynamic:sip_ua_layer.obj
 0003:00008950       ??_C@_0EC@DDCMMPIA@Received?5strayed?52xx?5response?5?$CI@ 00506950     pjsip-core-i386-win32-vc8-debug-dynamic:sip_ua_layer.obj
 0003:000089a0       ??_C@_1FM@MIPCEEKM@?$AAd?$AAl?$AAg?$AA_?$AAs?$AAe?$AAt?$AA?5?$AA?$CG?$AA?$CG?$AA?5?$AA?$CB?$AAp?$AAj?$AA_@ 005069a0     pjsip-core-i386-win32-vc8-debug-dynamic:sip_ua_layer.obj
 0003:00008a10       ??_C@_0CK@KFGINAJM@Received?5forked?5?$CFs?5for?5existing@ 00506a10     pjsip-core-i386-win32-vc8-debug-dynamic:sip_ua_layer.obj
 0003:00008a48       ??_C@_0FB@ELNGKJEC@Unhandled?5forked?5?$CFs?5from?5?$CFs?3?$CFd?0@ 00506a48     pjsip-core-i386-win32-vc8-debug-dynamic:sip_ua_layer.obj
 0003:00008aac       ??_C@_1CG@HBPJBOLD@?$AAd?$AAl?$AAg?$AA?5?$AA?$CB?$AA?$DN?$AA?5?$AA?$CI?$AA?$CI?$AAv?$AAo?$AAi?$AAd?$AA?5?$AA?$CK@ 00506aac     pjsip-core-i386-win32-vc8-debug-dynamic:sip_ua_layer.obj
 0003:00008adc       ??_C@_0BD@HODLEDPN@?$DM?9?9uri?5too?5long?9?9?$DO@ 00506adc     pjsip-core-i386-win32-vc8-debug-dynamic:sip_ua_layer.obj
 0003:00008af4       ??_C@_03NLJIHOMM@?5?9?5@   00506af4     pjsip-core-i386-win32-vc8-debug-dynamic:sip_ua_layer.obj
 0003:00008af8       ??_C@_03MPKHENCJ@est@      00506af8     pjsip-core-i386-win32-vc8-debug-dynamic:sip_ua_layer.obj
 0003:00008afc       ??_C@_0L@JKLBPBP@?$CFs?$FL?$CFs?$FN?5?5?$CFs@ 00506afc     pjsip-core-i386-win32-vc8-debug-dynamic:sip_ua_layer.obj
 0003:00008b0c       ??_C@_0BK@BICBONOC@Number?5of?5dialog?5sets?3?5?$CFu@ 00506b0c     pjsip-core-i386-win32-vc8-debug-dynamic:sip_ua_layer.obj
 0003:00008b2c       ??_C@_0BF@MKPBNBHJ@Dumping?5dialog?5sets?3@ 00506b2c     pjsip-core-i386-win32-vc8-debug-dynamic:sip_ua_layer.obj
 0003:00008b48       ??_C@_08JOIOMKFD@?5?5?$FLout?$FN?5@ 00506b48     pjsip-core-i386-win32-vc8-debug-dynamic:sip_ua_layer.obj
 0003:00008b54       ??_C@_08NOPEJEGK@?5?5?$FLin?$FN?5?5@ 00506b54     pjsip-core-i386-win32-vc8-debug-dynamic:sip_ua_layer.obj
 0003:00008b60       ??_C@_02DKCKIIND@?$CFs@    00506b60     pjsip-core-i386-win32-vc8-debug-dynamic:sip_ua_layer.obj
 0003:00008b64       ??_C@_0O@KEAHOJAP@?5?5?5?5?$FLforked?$FN?5@ 00506b64     pjsip-core-i386-win32-vc8-debug-dynamic:sip_ua_layer.obj
 0003:00008b80       ??_C@_09NMAFIJHB@SUBSCRIBE@ 00506b80     pjsip-core-i386-win32-vc8-debug-dynamic:sip_dialog.obj
 0003:00008b8c       ??_C@_05NPMLFHIF@REFER@    00506b8c     pjsip-core-i386-win32-vc8-debug-dynamic:sip_dialog.obj
 0003:00008b94       ??_C@_06LMEIPPMP@NOTIFY@   00506b94     pjsip-core-i386-win32-vc8-debug-dynamic:sip_dialog.obj
 0003:00008b9c       ??_C@_05DGNCLLBL@dlg?$CFp@ 00506b9c     pjsip-core-i386-win32-vc8-debug-dynamic:sip_dialog.obj
 0003:00008ba8       ??_C@_1GI@MBAIOKNO@?$AAd?$AA?3?$AA?2?$AAp?$AAj?$AAs?$AAi?$AAp?$AA?2?$AAp?$AAj?$AAp?$AAr?$AAo?$AAj@ 00506ba8     pjsip-core-i386-win32-vc8-debug-dynamic:sip_dialog.obj
 0003:00008c28       ??_C@_1EO@CANGPLGB@?$AAu?$AAa?$AA?5?$AA?$CG?$AA?$CG?$AA?5?$AAl?$AAo?$AAc?$AAa?$AAl?$AA_?$AAu?$AAr?$AAi@ 00506c28     pjsip-core-i386-win32-vc8-debug-dynamic:sip_dialog.obj
 0003:00008c88       ??_C@_0BD@BNDBFEIG@UAC?5dialog?5created@ 00506c88     pjsip-core-i386-win32-vc8-debug-dynamic:sip_dialog.obj
 0003:00008ca0       ??_C@_1CK@KCLOPABG@?$AAu?$AAa?$AA?5?$AA?$CG?$AA?$CG?$AA?5?$AAr?$AAd?$AAa?$AAt?$AAa?$AA?5?$AA?$CG?$AA?$CG?$AA?5@ 00506ca0     pjsip-core-i386-win32-vc8-debug-dynamic:sip_dialog.obj
 0003:00008cd8       ??_C@_1EE@NBLFJLNB@?$AAr?$AAd?$AAa?$AAt?$AAa?$AA?9?$AA?$DO?$AAm?$AAs?$AAg?$AA_?$AAi?$AAn?$AAf?$AAo@ 00506cd8     pjsip-core-i386-win32-vc8-debug-dynamic:sip_dialog.obj
 0003:00008d30       ??_C@_1IG@PGEMGEIC@?$AAp?$AAj?$AAs?$AAi?$AAp?$AA_?$AAm?$AAe?$AAt?$AAh?$AAo?$AAd?$AA_?$AAc?$AAr@ 00506d30     pjsip-core-i386-win32-vc8-debug-dynamic:sip_dialog.obj
 0003:00008dd0       ??_C@_0BD@KGAMNPL@UAS?5dialog?5created@ 00506dd0     pjsip-core-i386-win32-vc8-debug-dynamic:sip_dialog.obj
 0003:00008de8       ??_C@_1CC@GAHEMDPG@?$AAd?$AAl?$AAg?$AA?9?$AA?$DO?$AAt?$AAs?$AAx?$AA_?$AAc?$AAo?$AAu?$AAn?$AAt?$AA?$DO@ 00506de8     pjsip-core-i386-win32-vc8-debug-dynamic:sip_dialog.obj
 0003:00008e10       ??_C@_1BG@CCKPBGCD@?$AAd?$AAl?$AAg?$AA?5?$AA?$CG?$AA?$CG?$AA?5?$AAs?$AAe?$AAl@ 00506e10     pjsip-core-i386-win32-vc8-debug-dynamic:sip_dialog.obj
 0003:00008e2c       ??_C@_17BHLLIOEM@?$AAd?$AAl?$AAg@ 00506e2c     pjsip-core-i386-win32-vc8-debug-dynamic:sip_dialog.obj
 0003:00008e38       ??_C@_1DM@DOGMJPC@?$AAf?$AAi?$AAr?$AAs?$AAt?$AA_?$AAd?$AAl?$AAg?$AA?5?$AA?$CG?$AA?$CG?$AA?5?$AAr?$AAd@ 00506e38     pjsip-core-i386-win32-vc8-debug-dynamic:sip_dialog.obj
 0003:00008e80       ??_C@_1GE@LICDLKFE@?$AA?$CI?$AAs?$AAt?$AAa?$AAt?$AAu?$AAs?$AA?1?$AA1?$AA0?$AA0?$AA?$DN?$AA?$DN?$AA1?$AA?5@ 00506e80     pjsip-core-i386-win32-vc8-debug-dynamic:sip_dialog.obj
 0003:00008ef8       ??_C@_1EE@OMCHPKLH@?$AAr?$AAd?$AAa?$AAt?$AAa?$AA?9?$AA?$DO?$AAm?$AAs?$AAg?$AA_?$AAi?$AAn?$AAf?$AAo@ 00506ef8     pjsip-core-i386-win32-vc8-debug-dynamic:sip_dialog.obj
 0003:00008f4c       ??_C@_0BE@CHLCJPPO@Invalid?5status?5code@ 00506f4c     pjsip-core-i386-win32-vc8-debug-dynamic:sip_dialog.obj
 0003:00008f64       ??_C@_1CO@NIPLEAMN@?$AA?$CB?$AA?$CC?$AAI?$AAn?$AAv?$AAa?$AAl?$AAi?$AAd?$AA?5?$AAs?$AAt?$AAa?$AAt?$AAu@ 00506f64     pjsip-core-i386-win32-vc8-debug-dynamic:sip_dialog.obj
 0003:00008f9c       ??_C@_0BG@EPLOFPC@Forked?5dialog?5created@ 00506f9c     pjsip-core-i386-win32-vc8-debug-dynamic:sip_dialog.obj
 0003:00008fb8       ??_C@_1CG@PCHICMAM@?$AAd?$AAl?$AAg?$AA?9?$AA?$DO?$AAs?$AAe?$AAs?$AAs?$AA_?$AAc?$AAo?$AAu?$AAn?$AAt@ 00506fb8     pjsip-core-i386-win32-vc8-debug-dynamic:sip_dialog.obj
 0003:00008fe8       ??_C@_1CE@ICLBFJNJ@?$AAd?$AAl?$AAg?$AA?9?$AA?$DO?$AAt?$AAs?$AAx?$AA_?$AAc?$AAo?$AAu?$AAn?$AAt?$AA?$DN@ 00506fe8     pjsip-core-i386-win32-vc8-debug-dynamic:sip_dialog.obj
 0003:00009014       ??_C@_0CC@NJAKGIPA@Unexpected?5failed?5unregistratio@ 00507014     pjsip-core-i386-win32-vc8-debug-dynamic:sip_dialog.obj
 0003:00009040       ??_C@_1EK@PDDKPAGH@?$AA?$CB?$AA?$CC?$AAU?$AAn?$AAe?$AAx?$AAp?$AAe?$AAc?$AAt?$AAe?$AAd?$AA?5?$AAf?$AAa@ 00507040     pjsip-core-i386-win32-vc8-debug-dynamic:sip_dialog.obj
 0003:00009098       ??_C@_0BB@KCGOEMJG@Dialog?5destroyed@ 00507098     pjsip-core-i386-win32-vc8-debug-dynamic:sip_dialog.obj
 0003:000090ac       ??_C@_1BG@CPLBDOLD@?$AAd?$AAl?$AAg?$AA?5?$AA?$CG?$AA?$CG?$AA?5?$AAm?$AAo?$AAd@ 005070ac     pjsip-core-i386-win32-vc8-debug-dynamic:sip_dialog.obj
 0003:000090c8       ??_C@_0CA@PEKDEADC@Session?5count?5inc?5to?5?$CFd?5by?5?$CF?4?$CKs@ 005070c8     pjsip-core-i386-win32-vc8-debug-dynamic:sip_dialog.obj
 0003:000090f0       ??_C@_1CC@KDECMMAH@?$AAd?$AAl?$AAg?$AA?$CB?$AA?$DN?$AA?$CI?$AA?$CI?$AAv?$AAo?$AAi?$AAd?$AA?5?$AA?$CK?$AA?$CJ?$AA0@ 005070f0     pjsip-core-i386-win32-vc8-debug-dynamic:sip_dialog.obj
 0003:00009118       ??_C@_1CI@DBEPCGBG@?$AAd?$AAl?$AAg?$AA?9?$AA?$DO?$AAs?$AAe?$AAs?$AAs?$AA_?$AAc?$AAo?$AAu?$AAn?$AAt@ 00507118     pjsip-core-i386-win32-vc8-debug-dynamic:sip_dialog.obj
 0003:00009148       ??_C@_0CA@LCICJLMD@Session?5count?5dec?5to?5?$CFd?5by?5?$CF?4?$CKs@ 00507148     pjsip-core-i386-win32-vc8-debug-dynamic:sip_dialog.obj
 0003:00009170       ??_C@_1DK@IDPADBHL@?$AAm?$AAo?$AAd?$AA?9?$AA?$DO?$AAi?$AAd?$AA?5?$AA?$DO?$AA?$DN?$AA?5?$AA0?$AA?5?$AA?$CG?$AA?$CG@ 00507170     pjsip-core-i386-win32-vc8-debug-dynamic:sip_dialog.obj
 0003:000091b8       ??_C@_1CI@MAPJKCGG@?$AAd?$AAl?$AAg?$AA?9?$AA?$DO?$AAu?$AAs?$AAa?$AAg?$AAe?$AA_?$AAc?$AAn?$AAt?$AA?5@ 005071b8     pjsip-core-i386-win32-vc8-debug-dynamic:sip_dialog.obj
 0003:000091e8       ??_C@_0CL@CCAGPMOP@Module?5?$CF?4?$CKs?5added?5as?5dialog?5usa@ 005071e8     pjsip-core-i386-win32-vc8-debug-dynamic:sip_dialog.obj
 0003:00009220       ??_C@_0EF@MJEHGCLG@Module?5?$CF?4?$CKs?5already?5registered?5@ 00507220     pjsip-core-i386-win32-vc8-debug-dynamic:sip_dialog.obj
 0003:00009274       ??_C@_1DG@LGOONBPA@?$AAm?$AAo?$AAd?$AA_?$AAi?$AAd?$AA?5?$AA?$DO?$AA?$DN?$AA?5?$AA0?$AA?5?$AA?$CG?$AA?$CG?$AA?5@ 00507274     pjsip-core-i386-win32-vc8-debug-dynamic:sip_dialog.obj
 0003:000092b4       ??_C@_1DC@GLPAKKGA@?$AAd?$AAl?$AAg?$AA?5?$AA?$CG?$AA?$CG?$AA?5?$AAm?$AAe?$AAt?$AAh?$AAo?$AAd?$AA?5?$AA?$CG@ 005072b4     pjsip-core-i386-win32-vc8-debug-dynamic:sip_dialog.obj
 0003:000092f0       ??_C@_1DG@MACJEIAA@?$AAd?$AAl?$AAg?$AA?5?$AA?$CG?$AA?$CG?$AA?5?$AAt?$AAd?$AAa?$AAt?$AAa?$AA?5?$AA?$CG?$AA?$CG@ 005072f0     pjsip-core-i386-win32-vc8-debug-dynamic:sip_dialog.obj
 0003:00009330       ??_C@_1CA@GCFBHFGK@?$AAc?$AAh?$AA?$CB?$AA?$DN?$AA?$CI?$AA?$CI?$AAv?$AAo?$AAi?$AAd?$AA?5?$AA?$CK?$AA?$CJ?$AA0?$AA?$CJ@ 00507330     pjsip-core-i386-win32-vc8-debug-dynamic:sip_dialog.obj
 0003:00009358       ??_C@_1CE@LNMILBPB@?$AAt?$AAo?$AA?5?$AA?$CB?$AA?$DN?$AA?5?$AA?$CI?$AA?$CI?$AAv?$AAo?$AAi?$AAd?$AA?5?$AA?$CK?$AA?$CJ@ 00507358     pjsip-core-i386-win32-vc8-debug-dynamic:sip_dialog.obj
 0003:00009388       ??_C@_1EE@NNPOOCME@?$AAd?$AAl?$AAg?$AA?5?$AA?$CG?$AA?$CG?$AA?5?$AAt?$AAs?$AAx?$AA?5?$AA?$CG?$AA?$CG?$AA?5?$AAt@ 00507388     pjsip-core-i386-win32-vc8-debug-dynamic:sip_dialog.obj
 0003:000093e0       ??_C@_1EE@HKOKILGI@?$AAt?$AAs?$AAx?$AA?9?$AA?$DO?$AAm?$AAo?$AAd?$AA_?$AAd?$AAa?$AAt?$AAa?$AA?$FL?$AAd@ 005073e0     pjsip-core-i386-win32-vc8-debug-dynamic:sip_dialog.obj
 0003:00009438       ??_C@_1BLI@OLIMOOK@?$AA?$CI?$AA?$CI?$AAp?$AAj?$AAs?$AAi?$AAp?$AA_?$AAc?$AAs?$AAe?$AAq?$AA_?$AAh?$AAd@ 00507438     pjsip-core-i386-win32-vc8-debug-dynamic:sip_dialog.obj
 0003:00009648       ??_C@_1EI@HFLKEDIN@?$AAd?$AAl?$AAg?$AA?5?$AA?$CG?$AA?$CG?$AA?5?$AAr?$AAd?$AAa?$AAt?$AAa?$AA?5?$AA?$CG?$AA?$CG@ 00507648     pjsip-core-i386-win32-vc8-debug-dynamic:sip_dialog.obj
 0003:000096a0       ??_C@_1KO@PKHMCJGC@?$AAp?$AAj?$AAs?$AAi?$AAp?$AA_?$AAr?$AAd?$AAa?$AAt?$AAa?$AA_?$AAg?$AAe?$AAt@ 005076a0     pjsip-core-i386-win32-vc8-debug-dynamic:sip_dialog.obj
 0003:00009770       ??_C@_0M@LHPMKMAE@Received?5?$CFs@ 00507770     pjsip-core-i386-win32-vc8-debug-dynamic:sip_dialog.obj
 0003:00009780       ??_C@_1FE@IPNMLAKD@?$AAp?$AAj?$AAs?$AAi?$AAp?$AA_?$AAr?$AAd?$AAa?$AAt?$AAa?$AA_?$AAg?$AAe?$AAt@ 00507780     pjsip-core-i386-win32-vc8-debug-dynamic:sip_dialog.obj
 0003:000097e4       ??_C@_0N@JADHANJP@Invalid?5CSeq@ 005077e4     pjsip-core-i386-win32-vc8-debug-dynamic:sip_dialog.obj
 0003:000097f4       ??_C@_0BL@HAJOOCAF@Unhandled?5by?5dialog?5usages@ 005077f4     pjsip-core-i386-win32-vc8-debug-dynamic:sip_dialog.obj
 0003:00009814       ??_C@_0DI@GPBFFFGN@?$CFs?5was?5unhandled?5by?5dialog?5usag@ 00507814     pjsip-core-i386-win32-vc8-debug-dynamic:sip_dialog.obj
 0003:00009858       ??_C@_0BC@PCHBAKGP@Route?9set?5updated@ 00507858     pjsip-core-i386-win32-vc8-debug-dynamic:sip_dialog.obj
 0003:00009870       ??_C@_0BB@EMPDFCEJ@Route?9set?5frozen@ 00507870     pjsip-core-i386-win32-vc8-debug-dynamic:sip_dialog.obj
 0003:00009888       ??_C@_1EE@HICKJNML@?$AAp?$AAj?$AAs?$AAi?$AAp?$AA_?$AAr?$AAd?$AAa?$AAt?$AAa?$AA_?$AAg?$AAe?$AAt@ 00507888     pjsip-core-i386-win32-vc8-debug-dynamic:sip_dialog.obj
 0003:000098dc       ??_C@_0CD@PIHECLAB@Transaction?5?$CFs?5state?5changed?5to@ 005078dc     pjsip-core-i386-win32-vc8-debug-dynamic:sip_dialog.obj
 0003:00009908       ??_C@_1BK@LMGMFAFG@?$AAd?$AAl?$AAg?$AA?5?$AA?$CG?$AA?$CG?$AA?5?$AAt?$AAo?$AAk?$AAe?$AAn@ 00507908     pjsip-core-i386-win32-vc8-debug-dynamic:sip_dialog.obj
 0003:00009928       ??_C@_1BG@EJBAFDLN@?$AAd?$AAl?$AAg?$AA?5?$AA?$CG?$AA?$CG?$AA?5?$AAm?$AAs?$AAg@ 00507928     pjsip-core-i386-win32-vc8-debug-dynamic:sip_dialog.obj
 0003:00009948       ??_C@_1GG@GFIMIGJL@?$AA?$CI?$AAh?$AAt?$AAy?$AAp?$AAe?$AA?5?$AA?$CB?$AA?$DN?$AA?5?$AAP?$AAJ?$AAS?$AAI?$AAP@ 00507948     pjsip-core-i386-win32-vc8-debug-dynamic:sip_dialog.obj
 0003:000099c4       ??_C@_1BO@MPGHEBHG@?$AAd?$AAl?$AAg?$AA?5?$AA?$CG?$AA?$CG?$AA?5?$AAc?$AAa?$AAp?$AA_?$AAh?$AAd?$AAr@ 005079c4     pjsip-core-i386-win32-vc8-debug-dynamic:sip_dialog.obj
 0003:000099e8       ??_C@_0BB@JCEFLFJE@0123456789abcdef@ 005079e8     pjsip-core-i386-win32-vc8-debug-dynamic:sip_auth_client.obj
 0003:00009a00       ??_C@_1HC@IHKAGMAD@?$AAd?$AA?3?$AA?2?$AAp?$AAj?$AAs?$AAi?$AAp?$AA?2?$AAp?$AAj?$AAp?$AAr?$AAo?$AAj@ 00507a00     pjsip-core-i386-win32-vc8-debug-dynamic:sip_auth_client.obj
 0003:00009a88       ??_C@_1CG@ODPPELPF@?$AAr?$AAe?$AAs?$AAu?$AAl?$AAt?$AA?9?$AA?$DO?$AAs?$AAl?$AAe?$AAn?$AA?5?$AA?$DO?$AA?$DN@ 00507a88     pjsip-core-i386-win32-vc8-debug-dynamic:sip_auth_client.obj
 0003:00009ab8       ??_C@_01JLIPDDHJ@?3@       00507ab8     pjsip-core-i386-win32-vc8-debug-dynamic:sip_auth_client.obj
 0003:00009abc       ??_C@_1DG@IAFCGOHD@?$AAc?$AAr?$AAe?$AAd?$AA_?$AAi?$AAn?$AAf?$AAo?$AA?9?$AA?$DO?$AAd?$AAa?$AAt?$AAa@ 00507abc     pjsip-core-i386-win32-vc8-debug-dynamic:sip_auth_client.obj
 0003:00009afc       ??_C@_0BC@CABGKIBM@Invalid?5data_type@ 00507afc     pjsip-core-i386-win32-vc8-debug-dynamic:sip_auth_client.obj
 0003:00009b14       ??_C@_1CK@PPBJENKJ@?$AA?$CB?$AA?$CC?$AAI?$AAn?$AAv?$AAa?$AAl?$AAi?$AAd?$AA?5?$AAd?$AAa?$AAt?$AAa?$AA_@ 00507b14     pjsip-core-i386-win32-vc8-debug-dynamic:sip_auth_client.obj
 0003:00009b48       ??_C@_09BBOOBJFI@AKAv1?9MD5@ 00507b48     pjsip-core-i386-win32-vc8-debug-dynamic:sip_auth_client.obj
 0003:00009b54       ??_C@_0CE@PAGGDDKM@Unsupported?5digest?5algorithm?5?$CC?$CF@ 00507b54     pjsip-core-i386-win32-vc8-debug-dynamic:sip_auth_client.obj
 0003:00009b80       ??_C@_0BC@IFICLNCF@sip_auth_client?4c@ 00507b80     pjsip-core-i386-win32-vc8-debug-dynamic:sip_auth_client.obj
 0003:00009b98       ??_C@_04LIOHGJKM@?$CF08u@  00507b98     pjsip-core-i386-win32-vc8-debug-dynamic:sip_auth_client.obj
 0003:00009ba0       ??_C@_06DKDPJBDF@b39971@   00507ba0     pjsip-core-i386-win32-vc8-debug-dynamic:sip_auth_client.obj
 0003:00009ba8       ??_C@_0BL@DHABBKFJ@Unsupported?5qop?5offer?5?$CF?4?$CKs@ 00507ba8     pjsip-core-i386-win32-vc8-debug-dynamic:sip_auth_client.obj
 0003:00009bc8       ??_C@_1EM@JJPKMEAJ@?$AAs?$AAe?$AAs?$AAs?$AA?5?$AA?$CG?$AA?$CG?$AA?5?$AAe?$AAn?$AAd?$AAp?$AAt?$AA?5?$AA?$CG@ 00507bc8     pjsip-core-i386-win32-vc8-debug-dynamic:sip_auth_client.obj
 0003:00009c24       ??_C@_1CI@JJKJBPNP@?$AAs?$AAe?$AAs?$AAs?$AA?5?$AA?$CG?$AA?$CG?$AA?5?$AAs?$AAe?$AAs?$AAs?$AA?9?$AA?$DO?$AAe@ 00507c24     pjsip-core-i386-win32-vc8-debug-dynamic:sip_auth_client.obj
 0003:00009c54       ??_C@_1CI@BLFGLAIC@?$AAp?$AAo?$AAo?$AAl?$AA?5?$AA?$CG?$AA?$CG?$AA?5?$AAs?$AAe?$AAs?$AAs?$AA?5?$AA?$CG?$AA?$CG@ 00507c54     pjsip-core-i386-win32-vc8-debug-dynamic:sip_auth_client.obj
 0003:00009c84       ??_C@_1BE@LIIENECH@?$AAs?$AAe?$AAs?$AAs?$AA?5?$AA?$CG?$AA?$CG?$AA?5?$AAc@ 00507c84     pjsip-core-i386-win32-vc8-debug-dynamic:sip_auth_client.obj
 0003:00009c9c       ??_C@_0CJ@HLCPJHMN@PJSIP_HAS_DIGEST_AKA_AUTH?5is?5no@ 00507c9c     pjsip-core-i386-win32-vc8-debug-dynamic:sip_auth_client.obj
 0003:00009cd0       ??_C@_1FI@MOOKMECN@?$AA?$CB?$AA?$CC?$AAP?$AAJ?$AAS?$AAI?$AAP?$AA_?$AAH?$AAA?$AAS?$AA_?$AAD?$AAI?$AAG@ 00507cd0     pjsip-core-i386-win32-vc8-debug-dynamic:sip_auth_client.obj
 0003:00009d3c       ??_C@_1DO@GLOJAMOP@?$AAc?$AA?$FL?$AAi?$AA?$FN?$AA?4?$AAe?$AAx?$AAt?$AA?4?$AAa?$AAk?$AAa?$AA?4?$AAc?$AAb@ 00507d3c     pjsip-core-i386-win32-vc8-debug-dynamic:sip_auth_client.obj
 0003:00009d88       ??_C@_1DE@FFLMJDPC@?$AAc?$AA?$FL?$AAi?$AA?$FN?$AA?4?$AAe?$AAx?$AAt?$AA?4?$AAa?$AAk?$AAa?$AA?4?$AAk?$AA?4@ 00507d88     pjsip-core-i386-win32-vc8-debug-dynamic:sip_auth_client.obj
 0003:00009dc8       ??_C@_1DG@CNKBOPNN@?$AAc?$AA?$FL?$AAi?$AA?$FN?$AA?4?$AAe?$AAx?$AAt?$AA?4?$AAa?$AAk?$AAa?$AA?4?$AAo?$AAp@ 00507dc8     pjsip-core-i386-win32-vc8-debug-dynamic:sip_auth_client.obj
 0003:00009e08       ??_C@_1DG@IAMHNCEO@?$AAc?$AA?$FL?$AAi?$AA?$FN?$AA?4?$AAe?$AAx?$AAt?$AA?4?$AAa?$AAk?$AAa?$AA?4?$AAa?$AAm@ 00507e08     pjsip-core-i386-win32-vc8-debug-dynamic:sip_auth_client.obj
 0003:00009e48       ??_C@_1BE@PKCICMFG@?$AAs?$AAe?$AAs?$AAs?$AA?5?$AA?$CG?$AA?$CG?$AA?5?$AAp@ 00507e48     pjsip-core-i386-win32-vc8-debug-dynamic:sip_auth_client.obj
 0003:00009e60       ??_C@_1KM@IEMIHLKG@?$AAr?$AAe?$AAq?$AA_?$AAp?$AAo?$AAo?$AAl?$AA?5?$AA?$CG?$AA?$CG?$AA?5?$AAh?$AAd?$AAr@ 00507e60     pjsip-core-i386-win32-vc8-debug-dynamic:sip_auth_client.obj
 0003:00009f30       ??_C@_1BM@KGENIGOP@?$AAs?$AAe?$AAs?$AAs?$AA?5?$AA?$CG?$AA?$CG?$AA?5?$AAt?$AAd?$AAa?$AAt?$AAa@ 00507f30     pjsip-core-i386-win32-vc8-debug-dynamic:sip_auth_client.obj
 0003:00009f54       ??_C@_1BG@KEBAFJPL@?$AAs?$AAe?$AAs?$AAs?$AA?9?$AA?$DO?$AAp?$AAo?$AAo?$AAl@ 00507f54     pjsip-core-i386-win32-vc8-debug-dynamic:sip_auth_client.obj
 0003:00009f70       ??_C@_1EI@EGKNKFME@?$AAt?$AAd?$AAa?$AAt?$AAa?$AA?9?$AA?$DO?$AAm?$AAs?$AAg?$AA?9?$AA?$DO?$AAt?$AAy?$AAp@ 00507f70     pjsip-core-i386-win32-vc8-debug-dynamic:sip_auth_client.obj
 0003:00009fc8       ??_C@_0L@OLKLFLHC@auth_cli?$CFp@ 00507fc8     pjsip-core-i386-win32-vc8-debug-dynamic:sip_auth_client.obj
 0003:00009fd8       ??_C@_0EF@GMAJJJPM@Authorization?5failed?5for?5?$CF?4?$CKs?$EA?$CF@ 00507fd8     pjsip-core-i386-win32-vc8-debug-dynamic:sip_auth_client.obj
 0003:0000a030       ??_C@_0EN@FFFABAE@Authorization?5failed?5for?5?$CF?4?$CKs?$EA?$CF@ 00508030     pjsip-core-i386-win32-vc8-debug-dynamic:sip_auth_client.obj
 0003:0000a090       ??_C@_0EB@PMHMAEL@Unable?5to?5set?5auth?5for?5?$CFs?3?5can?5@ 00508090     pjsip-core-i386-win32-vc8-debug-dynamic:sip_auth_client.obj
 0003:0000a0e0       ??_C@_1FI@NPPOBLBH@?$AAs?$AAe?$AAs?$AAs?$AA?5?$AA?$CG?$AA?$CG?$AA?5?$AAr?$AAd?$AAa?$AAt?$AAa?$AA?5?$AA?$CG@ 005080e0     pjsip-core-i386-win32-vc8-debug-dynamic:sip_auth_client.obj
 0003:0000a150       ??_C@_1GA@JIEMNOKH@?$AAr?$AAd?$AAa?$AAt?$AAa?$AA?9?$AA?$DO?$AAm?$AAs?$AAg?$AA_?$AAi?$AAn?$AAf?$AAo@ 00508150     pjsip-core-i386-win32-vc8-debug-dynamic:sip_auth_client.obj
 0003:0000a1c8       ??_C@_1FI@DAMPIJII@?$AAo?$AAl?$AAd?$AA_?$AAr?$AAe?$AAq?$AAu?$AAe?$AAs?$AAt?$AA?9?$AA?$DO?$AAm?$AAs@ 005081c8     pjsip-core-i386-win32-vc8-debug-dynamic:sip_auth_client.obj
 0003:0000a238       ??_C@_1LK@NFNMJODL@?$AAr?$AAd?$AAa?$AAt?$AAa?$AA?9?$AA?$DO?$AAm?$AAs?$AAg?$AA_?$AAi?$AAn?$AAf?$AAo@ 00508238     pjsip-core-i386-win32-vc8-debug-dynamic:sip_auth_client.obj
 0003:0000a318       ??_C@_04CCHAHKJA@user@     00508318     pjsip-core-i386-win32-vc8-debug-dynamic:sip_parser.obj
 0003:0000a320       ??_C@_06GABBCIBA@method@   00508320     pjsip-core-i386-win32-vc8-debug-dynamic:sip_parser.obj
 0003:0000a328       ??_C@_09PBENLGJM@transport@ 00508328     pjsip-core-i386-win32-vc8-debug-dynamic:sip_parser.obj
 0003:0000a334       ??_C@_05LIJGAEPJ@maddr@    00508334     pjsip-core-i386-win32-vc8-debug-dynamic:sip_parser.obj
 0003:0000a33c       ??_C@_02FMHKAPNN@lr@       0050833c     pjsip-core-i386-win32-vc8-debug-dynamic:sip_parser.obj
 0003:0000a340       ??_C@_03LNLCDKEI@tel@      00508340     pjsip-core-i386-win32-vc8-debug-dynamic:sip_parser.obj
 0003:0000a344       ??_C@_06KAEOJLJM@branch@   00508344     pjsip-core-i386-win32-vc8-debug-dynamic:sip_parser.obj
 0003:0000a34c       ??_C@_03KAFGPDAP@ttl@      0050834c     pjsip-core-i386-win32-vc8-debug-dynamic:sip_parser.obj
 0003:0000a350       ??_C@_08CIDECLFI@received@ 00508350     pjsip-core-i386-win32-vc8-debug-dynamic:sip_parser.obj
 0003:0000a35c       ??_C@_01IIACKFLH@q@        0050835c     pjsip-core-i386-win32-vc8-debug-dynamic:sip_parser.obj
 0003:0000a360       ??_C@_07MJGJEDBB@expires@  00508360     pjsip-core-i386-win32-vc8-debug-dynamic:sip_parser.obj
 0003:0000a36c       ??_C@_03FJEPELFP@tag@      0050836c     pjsip-core-i386-win32-vc8-debug-dynamic:sip_parser.obj
 0003:0000a370       ??_C@_05IOGGPFMA@rport@    00508370     pjsip-core-i386-win32-vc8-debug-dynamic:sip_parser.obj
 0003:0000a378       ??_C@_0EG@NDDOOCLK@NULL?5input?5string?0?5invalid?5inpu@ 00508378     pjsip-core-i386-win32-vc8-debug-dynamic:sip_parser.obj
 0003:0000a3cc       ??_C@_0DG@PAKEPEOC@String?5value?5was?5less?5than?5the?5@ 005083cc     pjsip-core-i386-win32-vc8-debug-dynamic:sip_parser.obj
 0003:0000a40c       ??_C@_0DJ@LBDEGIMP@String?5value?5was?5greater?5than?5t@ 0050840c     pjsip-core-i386-win32-vc8-debug-dynamic:sip_parser.obj
 0003:0000a450       ??_C@_0O@NIPGCINC@Unknown?5error@ 00508450     pjsip-core-i386-win32-vc8-debug-dynamic:sip_parser.obj
 0003:0000a460       ??_C@_0BJ@JCIGOHAI@Error?5parsing?5?8?$CF?4?$CKs?8?3?5?$CFs@ 00508460     pjsip-core-i386-win32-vc8-debug-dynamic:sip_parser.obj
 0003:0000a480       ??_C@_0N@CDHGOKB@sip_parser?4c@ 00508480     pjsip-core-i386-win32-vc8-debug-dynamic:sip_parser.obj
 0003:0000a490       ??_C@_0BN@NMLJIDND@Can?8t?5parse?5input?5string?3?5?$CFs@ 00508490     pjsip-core-i386-win32-vc8-debug-dynamic:sip_parser.obj
 0003:0000a4b8       ??_C@_1GI@NADGDKDD@?$AAd?$AA?3?$AA?2?$AAp?$AAj?$AAs?$AAi?$AAp?$AA?2?$AAp?$AAj?$AAp?$AAr?$AAo?$AAj@ 005084b8     pjsip-core-i386-win32-vc8-debug-dynamic:sip_parser.obj
 0003:0000a534       ??_C@_1DM@KEIOLPDE@?$AAP?$AAJ?$AAS?$AAI?$AAP?$AA_?$AAS?$AAY?$AAN?$AA_?$AAE?$AAR?$AAR?$AA_?$AAE@ 00508534     pjsip-core-i386-win32-vc8-debug-dynamic:sip_parser.obj
 0003:0000a57c       ??_C@_0BD@IGJCFAAL@PJSIP?5syntax?5error@ 0050857c     pjsip-core-i386-win32-vc8-debug-dynamic:sip_parser.obj
 0003:0000a598       ??_C@_1EC@EEOMFCJN@?$AAP?$AAJ?$AAS?$AAI?$AAP?$AA_?$AAE?$AAI?$AAN?$AAV?$AAA?$AAL?$AA_?$AAE?$AAR@ 00508598     pjsip-core-i386-win32-vc8-debug-dynamic:sip_parser.obj
 0003:0000a5e8       ??_C@_0BK@PNNGKLIN@PJSIP?5invalid?5value?5error@ 005085e8     pjsip-core-i386-win32-vc8-debug-dynamic:sip_parser.obj
 0003:0000a608       ??_C@_02PCIJFNDE@?$AN?6@   00508608     pjsip-core-i386-win32-vc8-debug-dynamic:sip_parser.obj
 0003:0000a60c       ??_C@_03MGGIELLM@?0?$AN?6@ 0050860c     pjsip-core-i386-win32-vc8-debug-dynamic:sip_parser.obj
 0003:0000a610       ??_C@_0L@LGCFMBHL@?9?4?$CB?$CF?$CK_?$GA?8?$HO?$CL@ 00508610     pjsip-core-i386-win32-vc8-debug-dynamic:sip_parser.obj
 0003:0000a620       ??_C@_01FGNFDNOH@?$CF@     00508620     pjsip-core-i386-win32-vc8-debug-dynamic:sip_parser.obj
 0003:0000a624       ??_C@_03HGEHODII@_?9?4@    00508624     pjsip-core-i386-win32-vc8-debug-dynamic:sip_parser.obj
 0003:0000a628       ??_C@_0N@INHGOOCE@abcdefABCDEF@ 00508628     pjsip-core-i386-win32-vc8-debug-dynamic:sip_parser.obj
 0003:0000a638       ??_C@_0BC@EIHPKHIH@?$FL?$FN?1?3?$CG?$CL$?9_?4?$CB?$HO?$CK?8?$CI?$CJ?$CF@ 00508638     pjsip-core-i386-win32-vc8-debug-dynamic:sip_parser.obj
 0003:0000a650       ??_C@_0BC@DHLPLEEN@?$FL?$FN?1?$DP?3?$CL$?9_?4?$CB?$HO?$CK?8?$CI?$CJ?$CF@ 00508650     pjsip-core-i386-win32-vc8-debug-dynamic:sip_parser.obj
 0003:0000a668       ??_C@_0BD@FAKEDBHK@?9_?4?$CB?$HO?$CK?8?$CI?$CJ?$CF?$CG?$DN?$CL$?0?$DL?$DP?1@ 00508668     pjsip-core-i386-win32-vc8-debug-dynamic:sip_parser.obj
 0003:0000a680       ??_C@_01IPJKGB@?$CD@       00508680     pjsip-core-i386-win32-vc8-debug-dynamic:sip_parser.obj
 0003:0000a684       ??_C@_0BA@GJPAFF@?9_?4?$CB?$HO?$CK?8?$CI?$CJ?$CF?$CG?$DN?$CL$?0@ 00508684     pjsip-core-i386-win32-vc8-debug-dynamic:sip_parser.obj
 0003:0000a698       ??_C@_04INEOGBDO@?$EA?5?6?$DO@ 00508698     pjsip-core-i386-win32-vc8-debug-dynamic:sip_parser.obj
 0003:0000a6a0       ??_C@_04FOECIMDB@?3?$AN?6?$DM@ 005086a0     pjsip-core-i386-win32-vc8-debug-dynamic:sip_parser.obj
 0003:0000a6a8       ??_C@_0BH@KMKLEGFJ@?$CD?$DP?$DL?3?$EA?$CG?$DN?$CL?9_?4?$CB?$HO?$CK?8?$CI?$CJ?$CF$?0?1?$CF@ 005086a8     pjsip-core-i386-win32-vc8-debug-dynamic:sip_parser.obj
 0003:0000a6c4       ??_C@_0BD@EDPLLDNP@Too?5many?5handlers?$CB@ 005086c4     pjsip-core-i386-win32-vc8-debug-dynamic:sip_parser.obj
 0003:0000a6dc       ??_C@_1CM@LPFIANDA@?$AA?$CB?$AA?$CC?$AAT?$AAo?$AAo?$AA?5?$AAm?$AAa?$AAn?$AAy?$AA?5?$AAh?$AAa?$AAn?$AAd@ 005086dc     pjsip-core-i386-win32-vc8-debug-dynamic:sip_parser.obj
 0003:0000a710       ??_C@_0BJ@OAGIOOBF@Header?5name?5is?5too?5long?$CB@ 00508710     pjsip-core-i386-win32-vc8-debug-dynamic:sip_parser.obj
 0003:0000a730       ??_C@_1DI@PLCFOBDA@?$AA?$CB?$AA?$CC?$AAH?$AAe?$AAa?$AAd?$AAe?$AAr?$AA?5?$AAn?$AAa?$AAm?$AAe?$AA?5?$AAi@ 00508730     pjsip-core-i386-win32-vc8-debug-dynamic:sip_parser.obj
 0003:0000a774       ??_C@_03EDDBLLFO@?6?$AN?6@ 00508774     pjsip-core-i386-win32-vc8-debug-dynamic:sip_parser.obj
 0003:0000a778       ??_C@_03MCPDGLLE@SIP@      00508778     pjsip-core-i386-win32-vc8-debug-dynamic:sip_parser.obj
 0003:0000a77c       ??_C@_03GJAMENNA@2?40@     0050877c     pjsip-core-i386-win32-vc8-debug-dynamic:sip_parser.obj
 0003:0000a780       ??_C@_0N@KMCODECP@Request?5Line@ 00508780     pjsip-core-i386-win32-vc8-debug-dynamic:sip_parser.obj
 0003:0000a790       ??_C@_0M@KNCMEJPH@Status?5Line@ 00508790     pjsip-core-i386-win32-vc8-debug-dynamic:sip_parser.obj
 0003:0000a7a0       ??_C@_01CLKCMJKC@?5@       005087a0     pjsip-core-i386-win32-vc8-debug-dynamic:sip_parser.obj
 0003:0000a7a4       ??_C@_0CM@MBFLJJMP@Error?5parsing?5header?3?5?8?$CF?4?$CKs?8?5li@ 005087a4     pjsip-core-i386-win32-vc8-debug-dynamic:sip_parser.obj
 0003:0000a7d8       ??_C@_1GO@GJENLKAG@?$AAd?$AA?3?$AA?2?$AAp?$AAj?$AAs?$AAi?$AAp?$AA?2?$AAp?$AAj?$AAp?$AAr?$AAo?$AAj@ 005087d8     pjsip-core-i386-win32-vc8-debug-dynamic:sip_multipart.obj
 0003:0000a860       ??_C@_1FK@BACJKHL@?$AAm?$AA_?$AAd?$AAa?$AAt?$AAa?$AA?5?$AA?$CG?$AA?$CG?$AA?5?$AA?$CB?$AAp?$AAj?$AA_?$AAl@ 00508860     pjsip-core-i386-win32-vc8-debug-dynamic:sip_multipart.obj
 0003:0000a8cc       ??_C@_1DE@PMCDMLO@?$AAp?$AAa?$AAr?$AAt?$AA?9?$AA?$DO?$AAb?$AAo?$AAd?$AAy?$AA?5?$AA?$CB?$AA?$DN?$AA?5?$AA?$CI@ 005088cc     pjsip-core-i386-win32-vc8-debug-dynamic:sip_multipart.obj
 0003:0000a90c       ??_C@_08KIKGFOKI@boundary@ 0050890c     pjsip-core-i386-win32-vc8-debug-dynamic:sip_multipart.obj
 0003:0000a918       ??_C@_19GLKFFFDC@?$AAp?$AAo?$AAo?$AAl@ 00508918     pjsip-core-i386-win32-vc8-debug-dynamic:sip_multipart.obj
 0003:0000a924       ??_C@_1CG@EAPCMBNP@?$AAp?$AAo?$AAo?$AAl?$AA?5?$AA?$CG?$AA?$CG?$AA?5?$AAm?$AAp?$AA?5?$AA?$CG?$AA?$CG?$AA?5?$AAp@ 00508924     pjsip-core-i386-win32-vc8-debug-dynamic:sip_multipart.obj
 0003:0000a958       ??_C@_1EM@OHBLDLEL@?$AAm?$AAp?$AA?9?$AA?$DO?$AAp?$AAr?$AAi?$AAn?$AAt?$AA_?$AAb?$AAo?$AAd?$AAy?$AA?$DN@ 00508958     pjsip-core-i386-win32-vc8-debug-dynamic:sip_multipart.obj
 0003:0000a9b8       ??_C@_1EK@JKDFDFCP@?$AAp?$AAa?$AAr?$AAt?$AA?9?$AA?$DO?$AAb?$AAo?$AAd?$AAy?$AA?5?$AA?$CG?$AA?$CG?$AA?5?$AAp@ 005089b8     pjsip-core-i386-win32-vc8-debug-dynamic:sip_multipart.obj
 0003:0000aa10       ??_C@_15JBGIOCEE@?$AAm?$AAp@ 00508a10     pjsip-core-i386-win32-vc8-debug-dynamic:sip_multipart.obj
 0003:0000aa18       ??_C@_1BG@FEMPIJGA@?$AAm?$AAp?$AA?5?$AA?$CG?$AA?$CG?$AA?5?$AAp?$AAa?$AAr?$AAt@ 00508a18     pjsip-core-i386-win32-vc8-debug-dynamic:sip_multipart.obj
 0003:0000aa38       ??_C@_1HG@COKFDLMC@?$AAp?$AAj?$AA_?$AAl?$AAi?$AAs?$AAt?$AA_?$AAf?$AAi?$AAn?$AAd?$AA_?$AAn?$AAo@ 00508a38     pjsip-core-i386-win32-vc8-debug-dynamic:sip_multipart.obj
 0003:0000aac8       ??_C@_1CG@MGEADCGP@?$AAm?$AAp?$AA?5?$AA?$CG?$AA?$CG?$AA?5?$AAc?$AAo?$AAn?$AAt?$AAe?$AAn?$AAt?$AA_?$AAt@ 00508ac8     pjsip-core-i386-win32-vc8-debug-dynamic:sip_multipart.obj
 0003:0000aaf8       ??_C@_0CI@MEJEAPPA@Warning?3?5error?5parsing?5multipar@ 00508af8     pjsip-core-i386-win32-vc8-debug-dynamic:sip_multipart.obj
 0003:0000ab28       ??_C@_0BA@LBAHDFBC@sip_multipart?4c@ 00508b28     pjsip-core-i386-win32-vc8-debug-dynamic:sip_multipart.obj
 0003:0000ab3c       ??_C@_06IJPNAHC@digest@    00508b3c     pjsip-core-i386-win32-vc8-debug-dynamic:sip_multipart.obj
 0003:0000ab44       ??_C@_07ONPBMBOP@message@  00508b44     pjsip-core-i386-win32-vc8-debug-dynamic:sip_multipart.obj
 0003:0000ab50       ??_C@_06OGFLLFJI@rfc822@   00508b50     pjsip-core-i386-win32-vc8-debug-dynamic:sip_multipart.obj
 0003:0000ab58       ??_C@_1FA@DDNPPGON@?$AAp?$AAo?$AAo?$AAl?$AA?5?$AA?$CG?$AA?$CG?$AA?5?$AAb?$AAu?$AAf?$AA?5?$AA?$CG?$AA?$CG?$AA?5@ 00508b58     pjsip-core-i386-win32-vc8-debug-dynamic:sip_multipart.obj
 0003:0000abb8       ??_C@_0FD@FFFCNLOH@Warning?3?5boundary?5parameter?5not@ 00508bb8     pjsip-core-i386-win32-vc8-debug-dynamic:sip_multipart.obj
 0003:0000ac20       ??_C@_0EO@HHPEFGCJ@Error?3?5multipart?5boundary?5not?5s@ 00508c20     pjsip-core-i386-win32-vc8-debug-dynamic:sip_multipart.obj
 0003:0000ac80       ??_C@_1GC@KEHIPBKE@?$AAd?$AA?3?$AA?2?$AAp?$AAj?$AAs?$AAi?$AAp?$AA?2?$AAp?$AAj?$AAp?$AAr?$AAo?$AAj@ 00508c80     pjsip-core-i386-win32-vc8-debug-dynamic:sip_uri.obj
 0003:0000acf8       ??_C@_1CI@JKBBIMAG@?$AAu?$AAr?$AAl?$AA?9?$AA?$DO?$AAh?$AAo?$AAs?$AAt?$AA?4?$AAs?$AAl?$AAe?$AAn?$AA?5@ 00508cf8     pjsip-core-i386-win32-vc8-debug-dynamic:sip_uri.obj
 0003:0000ad28       ??_C@_06BMAPCEPF@?$DLuser?$DN@ 00508d28     pjsip-core-i386-win32-vc8-debug-dynamic:sip_uri.obj
 0003:0000ad30       ??_C@_08FIHANMDK@?$DLmethod?$DN@ 00508d30     pjsip-core-i386-win32-vc8-debug-dynamic:sip_uri.obj
 0003:0000ad3c       ??_C@_0M@OGEJDPOO@?$DLtransport?$DN@ 00508d3c     pjsip-core-i386-win32-vc8-debug-dynamic:sip_uri.obj
 0003:0000ad4c       ??_C@_03KFFFHGHD@?$DLlr@   00508d4c     pjsip-core-i386-win32-vc8-debug-dynamic:sip_uri.obj
 0003:0000ad50       ??_C@_1DC@IJLHHHKA@?$AAn?$AAa?$AAm?$AAe?$AA?9?$AA?$DO?$AAu?$AAr?$AAi?$AA?5?$AA?$CB?$AA?$DN?$AA?5?$AA?$CI?$AA?$CI@ 00508d50     pjsip-core-i386-win32-vc8-debug-dynamic:sip_uri.obj
 0003:0000ad8c       ??_C@_1CG@DFIMFNPH@?$AAu?$AAr?$AAi?$AA?5?$AA?$CB?$AA?$DN?$AA?5?$AA?$CI?$AA?$CI?$AAv?$AAo?$AAi?$AAd?$AA?5?$AA?$CK@ 00508d8c     pjsip-core-i386-win32-vc8-debug-dynamic:sip_uri.obj
 0003:0000adbc       ??_C@_1DG@BAELOOIG@?$AAn?$AAa?$AAd?$AAd?$AAr?$AA1?$AA?9?$AA?$DO?$AAu?$AAr?$AAi?$AA?5?$AA?$CB?$AA?$DN?$AA?5@ 00508dbc     pjsip-core-i386-win32-vc8-debug-dynamic:sip_uri.obj
 0003:0000adfc       ??_C@_1DG@GODDKGCA@?$AAn?$AAa?$AAd?$AAd?$AAr?$AA2?$AA?9?$AA?$DO?$AAu?$AAr?$AAi?$AA?5?$AA?$CB?$AA?$DN?$AA?5@ 00508dfc     pjsip-core-i386-win32-vc8-debug-dynamic:sip_uri.obj
 0003:0000ae40       ??_C@_1GK@GLMOPEOB@?$AAd?$AA?3?$AA?2?$AAp?$AAj?$AAs?$AAi?$AAp?$AA?2?$AAp?$AAj?$AAp?$AAr?$AAo?$AAj@ 00508e40     pjsip-core-i386-win32-vc8-debug-dynamic:sip_resolve.obj
 0003:0000aec0       ??_C@_1BM@GEGFCJE@?$AAp?$AAo?$AAo?$AAl?$AA?5?$AA?$CG?$AA?$CG?$AA?5?$AAp?$AA_?$AAr?$AAe?$AAs@ 00508ec0     pjsip-core-i386-win32-vc8-debug-dynamic:sip_resolve.obj
 0003:0000aee8       ??_C@_0FJ@MFGCGKIL@DNS?5resolver?5not?5available?0?5tar@ 00508ee8     pjsip-core-i386-win32-vc8-debug-dynamic:sip_resolve.obj
 0003:0000af54       ??_C@_0O@DMBGNNMG@sip_resolve?4c@ 00508f54     pjsip-core-i386-win32-vc8-debug-dynamic:sip_resolve.obj
 0003:0000af64       ??_C@_0DH@DPGIKKNN@Target?5?8?$CF?4?$CKs?3?$CFd?8?5type?$DN?$CFs?5resolv@ 00508f64     pjsip-core-i386-win32-vc8-debug-dynamic:sip_resolve.obj
 0003:0000afa8       ??_C@_0M@EKOGDFHO@_sips?4_tcp?4@ 00508fa8     pjsip-core-i386-win32-vc8-debug-dynamic:sip_resolve.obj
 0003:0000afb8       ??_C@_0L@CGLNHIHI@_sip?4_tcp?4@ 00508fb8     pjsip-core-i386-win32-vc8-debug-dynamic:sip_resolve.obj
 0003:0000afc8       ??_C@_0L@IGAKGJHB@_sip?4_udp?4@ 00508fc8     pjsip-core-i386-win32-vc8-debug-dynamic:sip_resolve.obj
 0003:0000afd8       ??_C@_0BH@JFKNGOEE@Unknown?5transport?5type@ 00508fd8     pjsip-core-i386-win32-vc8-debug-dynamic:sip_resolve.obj
 0003:0000aff4       ??_C@_1DE@LBIIFKHI@?$AA?$CB?$AA?$CC?$AAU?$AAn?$AAk?$AAn?$AAo?$AAw?$AAn?$AA?5?$AAt?$AAr?$AAa?$AAn?$AAs@ 00508ff4     pjsip-core-i386-win32-vc8-debug-dynamic:sip_resolve.obj
 0003:0000b038       ??_C@_0EE@KKBDDFND@Starting?5async?5DNS?5?$CFs?5query?3?5ta@ 00509038     pjsip-core-i386-win32-vc8-debug-dynamic:sip_resolve.obj
 0003:0000b08c       ??_C@_0L@PKONJGIE@Unexpected@ 0050908c     pjsip-core-i386-win32-vc8-debug-dynamic:sip_resolve.obj
 0003:0000b09c       ??_C@_1BM@EGHJMJCG@?$AA?$CB?$AA?$CC?$AAU?$AAn?$AAe?$AAx?$AAp?$AAe?$AAc?$AAt?$AAe?$AAd?$AA?$CC@ 0050909c     pjsip-core-i386-win32-vc8-debug-dynamic:sip_resolve.obj
 0003:0000b0c0       ??_C@_0CG@CBPKEJKE@Failed?5to?5resolve?5?8?$CF?4?$CKs?8?4?5Err?$DN?$CF@ 005090c0     pjsip-core-i386-win32-vc8-debug-dynamic:sip_resolve.obj
 0003:0000b0f0       ??_C@_0CD@MNOGDEHE@DNS?5A?5record?5resolution?5failed?3@ 005090f0     pjsip-core-i386-win32-vc8-debug-dynamic:sip_resolve.obj
 0003:0000b11c       ??_C@_0CG@MIJEEMDF@DNS?5AAAA?5record?5resolution?5fail@ 0050911c     pjsip-core-i386-win32-vc8-debug-dynamic:sip_resolve.obj
 0003:0000b14c       ??_C@_0CI@CCJDGPEP@DNS?5A?1AAAA?5record?5resolution?5fa@ 0050914c     pjsip-core-i386-win32-vc8-debug-dynamic:sip_resolve.obj
 0003:0000b464       ??_C@_0BN@NDHPCAAG@Object?5is?5busy?5?$CIPJSIP_EBUSY?$CJ@ 00509464     pjsip-core-i386-win32-vc8-debug-dynamic:sip_errno.obj
 0003:0000b488       ??_C@_0DF@LHIGDAHP@Object?5with?5the?5same?5type?5exist@ 00509488     pjsip-core-i386-win32-vc8-debug-dynamic:sip_errno.obj
 0003:0000b4c8       ??_C@_0CK@JJDNDGNE@SIP?5stack?5shutting?5down?5?$CIPJSIP_@ 005094c8     pjsip-core-i386-win32-vc8-debug-dynamic:sip_errno.obj
 0003:0000b4fc       ??_C@_0DH@GEJHNFDM@SIP?5object?5is?5not?5initialized?4?5@ 005094fc     pjsip-core-i386-win32-vc8-debug-dynamic:sip_errno.obj
 0003:0000b540       ??_C@_0DF@DFCKLJD@Missing?5route?5set?5?$CIfor?5tel?3?5URI@ 00509540     pjsip-core-i386-win32-vc8-debug-dynamic:sip_errno.obj
 0003:0000b580       ??_C@_0DB@LNGCHBD@Invalid?5message?1syntax?5error?5?$CIP@ 00509580     pjsip-core-i386-win32-vc8-debug-dynamic:sip_errno.obj
 0003:0000b5bc       ??_C@_0DB@NNKMNMEK@Expecting?5request?5message?5?$CIPJSI@ 005095bc     pjsip-core-i386-win32-vc8-debug-dynamic:sip_errno.obj
 0003:0000b5f8       ??_C@_0DD@MODFKCPK@Expecting?5response?5message?5?$CIPJS@ 005095f8     pjsip-core-i386-win32-vc8-debug-dynamic:sip_errno.obj
 0003:0000b638       ??_C@_0CF@NOACODOC@Message?5too?5long?5?$CIPJSIP_EMSGTOO@ 00509638     pjsip-core-i386-win32-vc8-debug-dynamic:sip_errno.obj
 0003:0000b664       ??_C@_0CE@FONCLLMK@Partial?5message?5?$CIPJSIP_EPARTIAL@ 00509664     pjsip-core-i386-win32-vc8-debug-dynamic:sip_errno.obj
 0003:0000b690       ??_C@_0DK@HMGLEHFD@Invalid?1unexpected?5SIP?5status?5c@ 00509690     pjsip-core-i386-win32-vc8-debug-dynamic:sip_errno.obj
 0003:0000b6d8       ??_C@_0CA@ICJGNPBL@Invalid?5URI?5?$CIPJSIP_EINVALIDURI?$CJ@ 005096d8     pjsip-core-i386-win32-vc8-debug-dynamic:sip_errno.obj
 0003:0000b700       ??_C@_0CK@PDIHHAGH@Invalid?5URI?5scheme?5?$CIPJSIP_EINVA@ 00509700     pjsip-core-i386-win32-vc8-debug-dynamic:sip_errno.obj
 0003:0000b734       ??_C@_0CL@FGPCAKCH@Missing?5Request?9URI?5?$CIPJSIP_EMIS@ 00509734     pjsip-core-i386-win32-vc8-debug-dynamic:sip_errno.obj
 0003:0000b768       ??_C@_0CL@JOKFDOLI@Invalid?5Request?5URI?5?$CIPJSIP_EINV@ 00509768     pjsip-core-i386-win32-vc8-debug-dynamic:sip_errno.obj
 0003:0000b79c       ??_C@_0CE@NBJPLEOO@URI?5is?5too?5long?5?$CIPJSIP_EURITOOL@ 0050979c     pjsip-core-i386-win32-vc8-debug-dynamic:sip_errno.obj
 0003:0000b7c8       ??_C@_0CP@PNHNBIME@Missing?5required?5header?$CIs?$CJ?5?$CIPJS@ 005097c8     pjsip-core-i386-win32-vc8-debug-dynamic:sip_errno.obj
 0003:0000b800       ??_C@_0CJ@GFIBJIAO@Invalid?5header?5field?5?$CIPJSIP_EIN@ 00509800     pjsip-core-i386-win32-vc8-debug-dynamic:sip_errno.obj
 0003:0000b834       ??_C@_0CH@NDGOCBBP@Invalid?5Via?5header?5?$CIPJSIP_EINVA@ 00509834     pjsip-core-i386-win32-vc8-debug-dynamic:sip_errno.obj
 0003:0000b864       ??_C@_0DG@HLMABLPG@Multiple?5Via?5headers?5in?5respons@ 00509864     pjsip-core-i386-win32-vc8-debug-dynamic:sip_errno.obj
 0003:0000b8a4       ??_C@_0CK@LJCOFGPN@Missing?5message?5body?5?$CIPJSIP_EMI@ 005098a4     pjsip-core-i386-win32-vc8-debug-dynamic:sip_errno.obj
 0003:0000b8d8       ??_C@_0DB@NINEONMP@Invalid?1unexpected?5method?5?$CIPJSI@ 005098d8     pjsip-core-i386-win32-vc8-debug-dynamic:sip_errno.obj
 0003:0000b914       ??_C@_0CO@MKNJKJDL@Unsupported?5transport?5?$CIPJSIP_EU@ 00509914     pjsip-core-i386-win32-vc8-debug-dynamic:sip_errno.obj
 0003:0000b94c       ??_C@_0DD@FMJGJHHJ@Transmit?5buffer?5already?5pending@ 0050994c     pjsip-core-i386-win32-vc8-debug-dynamic:sip_errno.obj
 0003:0000b98c       ??_C@_0CH@FGKEPDFL@Rx?5buffer?5overflow?5?$CIPJSIP_ERXOV@ 0050998c     pjsip-core-i386-win32-vc8-debug-dynamic:sip_errno.obj
 0003:0000b9bc       ??_C@_0CH@IPJBAOPN@Buffer?5destroyed?5?$CIPJSIP_EBUFDES@ 005099bc     pjsip-core-i386-win32-vc8-debug-dynamic:sip_errno.obj
 0003:0000b9ec       ??_C@_0DF@PBAMDOH@Unsuitable?5transport?5selected?5?$CI@ 005099ec     pjsip-core-i386-win32-vc8-debug-dynamic:sip_errno.obj
 0003:0000ba2c       ??_C@_0DE@NJLNEKOM@Transport?5not?5available?5for?5use@ 00509a2c     pjsip-core-i386-win32-vc8-debug-dynamic:sip_errno.obj
 0003:0000ba6c       ??_C@_0DF@DPMOHHML@Transaction?5has?5been?5destroyed?5@ 00509a6c     pjsip-core-i386-win32-vc8-debug-dynamic:sip_errno.obj
 0003:0000bab0       ??_C@_0FM@JGDLJGMK@No?5transaction?5is?5associated?5wi@ 00509ab0     pjsip-core-i386-win32-vc8-debug-dynamic:sip_errno.obj
 0003:0000bb20       ??_C@_0CH@EBPFAGMB@URI?5scheme?5mismatch?5?$CIPJSIP_ECMP@ 00509b20     pjsip-core-i386-win32-vc8-debug-dynamic:sip_errno.obj
 0003:0000bb50       ??_C@_0CI@DCNDLDIL@URI?5user?5part?5mismatch?5?$CIPJSIP_E@ 00509b50     pjsip-core-i386-win32-vc8-debug-dynamic:sip_errno.obj
 0003:0000bb80       ??_C@_0CO@NLCBDNGP@URI?5password?5part?5mismatch?5?$CIPJS@ 00509b80     pjsip-core-i386-win32-vc8-debug-dynamic:sip_errno.obj
 0003:0000bbb8       ??_C@_0CI@CAAENIBN@URI?5host?5part?5mismatch?5?$CIPJSIP_E@ 00509bb8     pjsip-core-i386-win32-vc8-debug-dynamic:sip_errno.obj
 0003:0000bbe8       ??_C@_0CD@LGFLCNGN@URI?5port?5mismatch?5?$CIPJSIP_ECMPPO@ 00509be8     pjsip-core-i386-win32-vc8-debug-dynamic:sip_errno.obj
 0003:0000bc14       ??_C@_0DG@KAIIGJOM@URI?5transport?5param?5mismatch?5?$CIP@ 00509c14     pjsip-core-i386-win32-vc8-debug-dynamic:sip_errno.obj
 0003:0000bc54       ??_C@_0CM@PONOAHFI@URI?5ttl?5param?5mismatch?5?$CIPJSIP_E@ 00509c54     pjsip-core-i386-win32-vc8-debug-dynamic:sip_errno.obj
 0003:0000bc88       ??_C@_0CO@PNILAMMK@URI?5user?5param?5mismatch?5?$CIPJSIP_@ 00509c88     pjsip-core-i386-win32-vc8-debug-dynamic:sip_errno.obj
 0003:0000bcc0       ??_C@_0DC@BPANLPFC@URI?5method?5param?5mismatch?5?$CIPJSI@ 00509cc0     pjsip-core-i386-win32-vc8-debug-dynamic:sip_errno.obj
 0003:0000bcfc       ??_C@_0DA@HIHPGKKA@URI?5maddr?5param?5mismatch?5?$CIPJSIP@ 00509cfc     pjsip-core-i386-win32-vc8-debug-dynamic:sip_errno.obj
 0003:0000bd38       ??_C@_0DA@DADPPELC@URI?5other?5param?5mismatch?5?$CIPJSIP@ 00509d38     pjsip-core-i386-win32-vc8-debug-dynamic:sip_errno.obj
 0003:0000bd74       ??_C@_0DG@CFNMFPOM@URI?5header?5parameter?5mismatch?5?$CI@ 00509d74     pjsip-core-i386-win32-vc8-debug-dynamic:sip_errno.obj
 0003:0000bdb4       ??_C@_0DM@LOOBEDNN@Credential?5failed?5to?5authentica@ 00509db4     pjsip-core-i386-win32-vc8-debug-dynamic:sip_errno.obj
 0003:0000bdfc       ??_C@_0CN@IIEEILJJ@No?5suitable?5credential?5?$CIPJSIP_E@ 00509dfc     pjsip-core-i386-win32-vc8-debug-dynamic:sip_errno.obj
 0003:0000be34       ??_C@_0DP@NGPGIDFF@Invalid?1unsupported?5digest?5algo@ 00509e34     pjsip-core-i386-win32-vc8-debug-dynamic:sip_errno.obj
 0003:0000be80       ??_C@_0DD@GJOGBLMF@Invalid?1unsupported?5digest?5qop?5@ 00509e80     pjsip-core-i386-win32-vc8-debug-dynamic:sip_errno.obj
 0003:0000bec0       ??_C@_0DN@GPEKONDD@Unsupported?5authentication?5sche@ 00509ec0     pjsip-core-i386-win32-vc8-debug-dynamic:sip_errno.obj
 0003:0000bf0c       ??_C@_0CO@BMGFFPME@No?5previous?5challenge?5?$CIPJSIP_EA@ 00509f0c     pjsip-core-i386-win32-vc8-debug-dynamic:sip_errno.obj
 0003:0000bf44       ??_C@_0DF@DNNICPPN@No?5suitable?5authorization?5heade@ 00509f44     pjsip-core-i386-win32-vc8-debug-dynamic:sip_errno.obj
 0003:0000bf84       ??_C@_0DJ@LPEDCKOO@Account?5or?5credential?5not?5found@ 00509f84     pjsip-core-i386-win32-vc8-debug-dynamic:sip_errno.obj
 0003:0000bfc8       ??_C@_0DL@CMLHLLPG@Account?5or?5credential?5is?5disabl@ 00509fc8     pjsip-core-i386-win32-vc8-debug-dynamic:sip_errno.obj
 0003:0000c010       ??_C@_0DG@HIIKPIBJ@Invalid?5authorization?5realm?5?$CIPJ@ 0050a010     pjsip-core-i386-win32-vc8-debug-dynamic:sip_errno.obj
 0003:0000c050       ??_C@_0DI@MHHCMF@Invalid?5authorization?5digest?5?$CIP@ 0050a050     pjsip-core-i386-win32-vc8-debug-dynamic:sip_errno.obj
 0003:0000c098       ??_C@_0EB@JCHOOAEG@Maximum?5number?5of?5stale?5retries@ 0050a098     pjsip-core-i386-win32-vc8-debug-dynamic:sip_errno.obj
 0003:0000c0e8       ??_C@_0EF@LIONEPAL@Invalid?5nonce?5value?5in?5authenti@ 0050a0e8     pjsip-core-i386-win32-vc8-debug-dynamic:sip_errno.obj
 0003:0000c13c       ??_C@_0CO@PNJFNJKN@Invalid?5AKA?5credential?5?$CIPJSIP_E@ 0050a13c     pjsip-core-i386-win32-vc8-debug-dynamic:sip_errno.obj
 0003:0000c174       ??_C@_0CK@IIJPHHCN@No?5challenge?5is?5found?5?$CIPJSIP_EA@ 0050a174     pjsip-core-i386-win32-vc8-debug-dynamic:sip_errno.obj
 0003:0000c1a8       ??_C@_0DC@HLPJEBKI@Missing?5From?1To?5tag?5parameter?5?$CI@ 0050a1a8     pjsip-core-i386-win32-vc8-debug-dynamic:sip_errno.obj
 0003:0000c1e4       ??_C@_0CK@NLEHMEII@Expecting?5REFER?5request?5?$CIPJSIP_@ 0050a1e4     pjsip-core-i386-win32-vc8-debug-dynamic:sip_errno.obj
 0003:0000c218       ??_C@_0DP@GMKFENNH@Not?5associated?5with?5REFER?5subsc@ 0050a218     pjsip-core-i386-win32-vc8-debug-dynamic:sip_errno.obj
 0003:0000c264       ??_C@_0DN@EOKOKJCK@INVITE?5session?5already?5terminat@ 0050a264     pjsip-core-i386-win32-vc8-debug-dynamic:sip_errno.obj
 0003:0000c2b0       ??_C@_0DD@DMBFAKPC@Invalid?5INVITE?5session?5state?5?$CIP@ 0050a2b0     pjsip-core-i386-win32-vc8-debug-dynamic:sip_errno.obj
 0003:0000c2f0       ??_C@_0DK@CJAGEDOD@Require?5secure?5session?1transpor@ 0050a2f0     pjsip-core-i386-win32-vc8-debug-dynamic:sip_errno.obj
 0003:0000c338       ??_C@_0CH@HBADBAEP@Unknown?5TLS?5error?5?$CIPJSIP_TLS_EU@ 0050a338     pjsip-core-i386-win32-vc8-debug-dynamic:sip_errno.obj
 0003:0000c368       ??_C@_0DD@NFLPGFPJ@Invalid?5SSL?5protocol?5method?5?$CIPJ@ 0050a368     pjsip-core-i386-win32-vc8-debug-dynamic:sip_errno.obj
 0003:0000c3a8       ??_C@_0DN@LHDHPIOK@Error?5loading?1verifying?5SSL?5CA?5@ 0050a3a8     pjsip-core-i386-win32-vc8-debug-dynamic:sip_errno.obj
 0003:0000c3f4       ??_C@_0DP@NPMNFNID@Error?5loading?5SSL?5certificate?5c@ 0050a3f4     pjsip-core-i386-win32-vc8-debug-dynamic:sip_errno.obj
 0003:0000c440       ??_C@_0EI@PNDINLEB@Error?5adding?5private?5key?5from?5S@ 0050a440     pjsip-core-i386-win32-vc8-debug-dynamic:sip_errno.obj
 0003:0000c498       ??_C@_0DC@HMDIEPNK@Error?5setting?5SSL?5cipher?5list?5?$CI@ 0050a498     pjsip-core-i386-win32-vc8-debug-dynamic:sip_errno.obj
 0003:0000c4d4       ??_C@_0CM@KJHKFFIL@Error?5creating?5SSL?5context?5?$CIPJS@ 0050a4d4     pjsip-core-i386-win32-vc8-debug-dynamic:sip_errno.obj
 0003:0000c508       ??_C@_0DK@GBGOJKMK@Error?5creating?5SSL?5connection?5o@ 0050a508     pjsip-core-i386-win32-vc8-debug-dynamic:sip_errno.obj
 0003:0000c550       ??_C@_0EB@LOJLDGBN@Unknown?5error?5when?5performing?5S@ 0050a550     pjsip-core-i386-win32-vc8-debug-dynamic:sip_errno.obj
 0003:0000c5a0       ??_C@_0DP@CGFDGHCM@Unknown?5error?5when?5performing?5S@ 0050a5a0     pjsip-core-i386-win32-vc8-debug-dynamic:sip_errno.obj
 0003:0000c5ec       ??_C@_0DG@LGELLHGA@Unknown?5error?5when?5sending?5SSL?5@ 0050a5ec     pjsip-core-i386-win32-vc8-debug-dynamic:sip_errno.obj
 0003:0000c62c       ??_C@_0DG@GNCBAFL@Unknown?5error?5when?5reading?5SSL?5@ 0050a62c     pjsip-core-i386-win32-vc8-debug-dynamic:sip_errno.obj
 0003:0000c66c       ??_C@_0DE@NMMHGAJD@SSL?5negotiation?5has?5timed?5out?5?$CI@ 0050a66c     pjsip-core-i386-win32-vc8-debug-dynamic:sip_errno.obj
 0003:0000c6ac       ??_C@_0DK@PDMPPIHB@SSL?5certificate?5verification?5er@ 0050a6ac     pjsip-core-i386-win32-vc8-debug-dynamic:sip_errno.obj
 0003:0000c6f4       ??_C@_0BH@IINGFMKF@Unknown?5pjsip?5error?5?$CFd@ 0050a6f4     pjsip-core-i386-win32-vc8-debug-dynamic:sip_errno.obj
 0003:0000c710       ??_C@_04NBIELBDC@isub@     0050a710     pjsip-core-i386-win32-vc8-debug-dynamic:sip_tel_uri.obj
 0003:0000c718       ??_C@_03MDPCKCMI@ext@      0050a718     pjsip-core-i386-win32-vc8-debug-dynamic:sip_tel_uri.obj
 0003:0000c71c       ??_C@_0O@IMLAOJJD@phone?9context@ 0050a71c     pjsip-core-i386-win32-vc8-debug-dynamic:sip_tel_uri.obj
 0003:0000c730       ??_C@_1GK@ODADBGHM@?$AAd?$AA?3?$AA?2?$AAp?$AAj?$AAs?$AAi?$AAp?$AA?2?$AAp?$AAj?$AAp?$AAr?$AAo?$AAj@ 0050a730     pjsip-core-i386-win32-vc8-debug-dynamic:sip_tel_uri.obj
 0003:0000c7b0       ??_C@_1CG@JMFHHDAJ@?$AAs?$AAt?$AAa?$AAt?$AAu?$AAs?$AA?$DN?$AA?$DN?$AAP?$AAJ?$AA_?$AAS?$AAU?$AAC?$AAC@ 0050a7b0     pjsip-core-i386-win32-vc8-debug-dynamic:sip_tel_uri.obj
 0003:0000c7e0       ??_C@_0P@KBNHNABO@0123456789?9?4?$CI?$CJ@ 0050a7e0     pjsip-core-i386-win32-vc8-debug-dynamic:sip_tel_uri.obj
 0003:0000c7f4       ??_C@_0CM@MMELMJHM@0123456789aAbBcCdDeEfF?$CK?$CD?9?4?$CI?$CJ?$CL01@ 0050a7f4     pjsip-core-i386-win32-vc8-debug-dynamic:sip_tel_uri.obj
 0003:0000c828       ??_C@_04DCHJLDOJ@?9?4?$CI?$CJ@ 0050a828     pjsip-core-i386-win32-vc8-debug-dynamic:sip_tel_uri.obj
 0003:0000c830       ??_C@_0BA@NHFLMIGM@?$CL0123456789?9?4?$CI?$CJ@ 0050a830     pjsip-core-i386-win32-vc8-debug-dynamic:sip_tel_uri.obj
 0003:0000c844       ??_C@_0BP@LJHGJILO@?1?3?$EA?$CG$?0?$CL0123456789?9_?4?$CB?$HO?$CK?8?$CI?$CJ?$CF?$FL?$FN?$CL@ 0050a844     pjsip-core-i386-win32-vc8-debug-dynamic:sip_tel_uri.obj
 0003:0000c86c       ??_C@_01JOAMLHOP@?9@       0050a86c     pjsip-core-i386-win32-vc8-debug-dynamic:sip_tel_uri.obj
 0003:0000c870       ??_C@_0BM@IILGPONN@?$FL?$FN?1?3?$CG?$CL$0123456789?9_?4?$CB?$HO?$CK?8?$CI?$CJ?$CF@ 0050a870     pjsip-core-i386-win32-vc8-debug-dynamic:sip_tel_uri.obj
 0003:0000c894       ??_C@_01NEMOKFLO@?$DN@     0050a894     pjsip-core-i386-win32-vc8-debug-dynamic:sip_tel_uri.obj
 0003:0000c898       ??_C@_05OGMJFBEO@?$DLext?$DN@ 0050a898     pjsip-core-i386-win32-vc8-debug-dynamic:sip_tel_uri.obj
 0003:0000c8a0       ??_C@_06CECEBCPK@?$DLisub?$DN@ 0050a8a0     pjsip-core-i386-win32-vc8-debug-dynamic:sip_tel_uri.obj
 0003:0000c8a8       ??_C@_0BA@JDMJBMEF@?$DLphone?9context?$DN@ 0050a8a8     pjsip-core-i386-win32-vc8-debug-dynamic:sip_tel_uri.obj
 0003:0000c8bc       ??_C@_0BC@OBBFELDN@mod?9stateful?9util@ 0050a8bc     pjsip-core-i386-win32-vc8-debug-dynamic:sip_util_statefull.obj
 0003:0000c8d8       ??_C@_1HI@HHONMNPH@?$AAd?$AA?3?$AA?2?$AAp?$AAj?$AAs?$AAi?$AAp?$AA?2?$AAp?$AAj?$AAp?$AAr?$AAo?$AAj@ 0050a8d8     pjsip-core-i386-win32-vc8-debug-dynamic:sip_util_statefull.obj
 0003:0000c968       ??_C@_1FK@KDJACFDP@?$AAe?$AAn?$AAd?$AAp?$AAt?$AA?5?$AA?$CG?$AA?$CG?$AA?5?$AAt?$AAd?$AAa?$AAt?$AAa?$AA?5@ 0050a968     pjsip-core-i386-win32-vc8-debug-dynamic:sip_util_statefull.obj
 0003:0000c9d4       ??_C@_1DG@FANFAPDE@?$AAm?$AAo?$AAd?$AA_?$AAs?$AAt?$AAa?$AAt?$AAe?$AAf?$AAu?$AAl?$AA_?$AAu?$AAt@ 0050a9d4     pjsip-core-i386-win32-vc8-debug-dynamic:sip_util_statefull.obj
 0003:0000ca14       ??_C@_09FNNDBHOE@username?$DN@ 0050aa14     pjsip-core-i386-win32-vc8-debug-dynamic:sip_auth_msg.obj
 0003:0000ca20       ??_C@_08FIMOKBNA@?0?5realm?$DN@ 0050aa20     pjsip-core-i386-win32-vc8-debug-dynamic:sip_auth_msg.obj
 0003:0000ca2c       ??_C@_08INALKCDD@?0?5nonce?$DN@ 0050aa2c     pjsip-core-i386-win32-vc8-debug-dynamic:sip_auth_msg.obj
 0003:0000ca38       ??_C@_06LAMIMJOG@?0?5uri?$DN@ 0050aa38     pjsip-core-i386-win32-vc8-debug-dynamic:sip_auth_msg.obj
 0003:0000ca40       ??_C@_0M@LHKMMNIM@?0?5response?$DN@ 0050aa40     pjsip-core-i386-win32-vc8-debug-dynamic:sip_auth_msg.obj
 0003:0000ca50       ??_C@_0N@CGBNHFEJ@?0?5algorithm?$DN@ 0050aa50     pjsip-core-i386-win32-vc8-debug-dynamic:sip_auth_msg.obj
 0003:0000ca60       ??_C@_09JMMPALKP@?0?5cnonce?$DN@ 0050aa60     pjsip-core-i386-win32-vc8-debug-dynamic:sip_auth_msg.obj
 0003:0000ca6c       ??_C@_09FBEJJABD@?0?5opaque?$DN@ 0050aa6c     pjsip-core-i386-win32-vc8-debug-dynamic:sip_auth_msg.obj
 0003:0000ca78       ??_C@_06PEMMHIJL@?0?5qop?$DN@ 0050aa78     pjsip-core-i386-win32-vc8-debug-dynamic:sip_auth_msg.obj
 0003:0000ca80       ??_C@_05EBCAJOC@?0?5nc?$DN@ 0050aa80     pjsip-core-i386-win32-vc8-debug-dynamic:sip_auth_msg.obj
 0003:0000ca88       ??_C@_1GM@LNCBGAPI@?$AAd?$AA?3?$AA?2?$AAp?$AAj?$AAs?$AAi?$AAp?$AA?2?$AAp?$AAj?$AAp?$AAr?$AAo?$AAj@ 0050aa88     pjsip-core-i386-win32-vc8-debug-dynamic:sip_auth_msg.obj
 0003:0000cb0c       ??_C@_03NHCDCECM@pgp@      0050ab0c     pjsip-core-i386-win32-vc8-debug-dynamic:sip_auth_msg.obj
 0003:0000cb10       ??_C@_06LOBIHJOB@realm?$DN@ 0050ab10     pjsip-core-i386-win32-vc8-debug-dynamic:sip_auth_msg.obj
 0003:0000cb18       ??_C@_08CKNLFMMP@?0domain?$DN@ 0050ab18     pjsip-core-i386-win32-vc8-debug-dynamic:sip_auth_msg.obj
 0003:0000cb24       ??_C@_07DNEKANAM@?0nonce?$DN@ 0050ab24     pjsip-core-i386-win32-vc8-debug-dynamic:sip_auth_msg.obj
 0003:0000cb30       ??_C@_08OHJPPMIB@?0opaque?$DN@ 0050ab30     pjsip-core-i386-win32-vc8-debug-dynamic:sip_auth_msg.obj
 0003:0000cb3c       ??_C@_04LOAJBDKD@true@     0050ab3c     pjsip-core-i386-win32-vc8-debug-dynamic:sip_auth_msg.obj
 0003:0000cb44       ??_C@_07IIGBIFNN@?0stale?$DN@ 0050ab44     pjsip-core-i386-win32-vc8-debug-dynamic:sip_auth_msg.obj
 0003:0000cb50       ??_C@_0M@HOHCEKCL@?0algorithm?$DN@ 0050ab50     pjsip-core-i386-win32-vc8-debug-dynamic:sip_auth_msg.obj
 0003:0000cb60       ??_C@_05KHLNJFNF@?0qop?$DN@ 0050ab60     pjsip-core-i386-win32-vc8-debug-dynamic:sip_auth_msg.obj
 0003:0000cb68       _pjsip_USERNAME_STR        0050ab68     pjsip-core-i386-win32-vc8-debug-dynamic:sip_auth_parser.obj
 0003:0000cb70       _pjsip_REALM_STR           0050ab70     pjsip-core-i386-win32-vc8-debug-dynamic:sip_auth_parser.obj
 0003:0000cb78       _pjsip_NONCE_STR           0050ab78     pjsip-core-i386-win32-vc8-debug-dynamic:sip_auth_parser.obj
 0003:0000cb80       _pjsip_URI_STR             0050ab80     pjsip-core-i386-win32-vc8-debug-dynamic:sip_auth_parser.obj
 0003:0000cb88       _pjsip_RESPONSE_STR        0050ab88     pjsip-core-i386-win32-vc8-debug-dynamic:sip_auth_parser.obj
 0003:0000cb90       _pjsip_ALGORITHM_STR       0050ab90     pjsip-core-i386-win32-vc8-debug-dynamic:sip_auth_parser.obj
 0003:0000cb98       _pjsip_DOMAIN_STR          0050ab98     pjsip-core-i386-win32-vc8-debug-dynamic:sip_auth_parser.obj
 0003:0000cba0       _pjsip_STALE_STR           0050aba0     pjsip-core-i386-win32-vc8-debug-dynamic:sip_auth_parser.obj
 0003:0000cba8       _pjsip_QOP_STR             0050aba8     pjsip-core-i386-win32-vc8-debug-dynamic:sip_auth_parser.obj
 0003:0000cbb0       _pjsip_CNONCE_STR          0050abb0     pjsip-core-i386-win32-vc8-debug-dynamic:sip_auth_parser.obj
 0003:0000cbb8       _pjsip_OPAQUE_STR          0050abb8     pjsip-core-i386-win32-vc8-debug-dynamic:sip_auth_parser.obj
 0003:0000cbc0       _pjsip_NC_STR              0050abc0     pjsip-core-i386-win32-vc8-debug-dynamic:sip_auth_parser.obj
 0003:0000cbc8       _pjsip_TRUE_STR            0050abc8     pjsip-core-i386-win32-vc8-debug-dynamic:sip_auth_parser.obj
 0003:0000cbd0       _pjsip_FALSE_STR           0050abd0     pjsip-core-i386-win32-vc8-debug-dynamic:sip_auth_parser.obj
 0003:0000cbd8       _pjsip_DIGEST_STR          0050abd8     pjsip-core-i386-win32-vc8-debug-dynamic:sip_auth_parser.obj
 0003:0000cbe0       _pjsip_PGP_STR             0050abe0     pjsip-core-i386-win32-vc8-debug-dynamic:sip_auth_parser.obj
 0003:0000cbe8       _pjsip_MD5_STR             0050abe8     pjsip-core-i386-win32-vc8-debug-dynamic:sip_auth_parser.obj
 0003:0000cbf0       _pjsip_AUTH_STR            0050abf0     pjsip-core-i386-win32-vc8-debug-dynamic:sip_auth_parser.obj
 0003:0000cbf8       _pjsip_QUOTED_TRUE_STR     0050abf8     pjsip-core-i386-win32-vc8-debug-dynamic:sip_auth_parser.obj
 0003:0000cc00       _pjsip_QUOTED_FALSE_STR    0050ac00     pjsip-core-i386-win32-vc8-debug-dynamic:sip_auth_parser.obj
 0003:0000cc08       _pjsip_QUOTED_DIGEST_STR   0050ac08     pjsip-core-i386-win32-vc8-debug-dynamic:sip_auth_parser.obj
 0003:0000cc10       _pjsip_QUOTED_PGP_STR      0050ac10     pjsip-core-i386-win32-vc8-debug-dynamic:sip_auth_parser.obj
 0003:0000cc18       _pjsip_QUOTED_MD5_STR      0050ac18     pjsip-core-i386-win32-vc8-debug-dynamic:sip_auth_parser.obj
 0003:0000cc20       _pjsip_QUOTED_AUTH_STR     0050ac20     pjsip-core-i386-win32-vc8-debug-dynamic:sip_auth_parser.obj
 0003:0000cc50       ??_C@_08ODGEKKOL@username@ 0050ac50     pjsip-core-i386-win32-vc8-debug-dynamic:sip_auth_parser.obj
 0003:0000cc5c       ??_C@_05ELABLNGD@realm@    0050ac5c     pjsip-core-i386-win32-vc8-debug-dynamic:sip_auth_parser.obj
 0003:0000cc64       ??_C@_05OOEDLKEB@nonce@    0050ac64     pjsip-core-i386-win32-vc8-debug-dynamic:sip_auth_parser.obj
 0003:0000cc6c       ??_C@_03GBBABMJN@uri@      0050ac6c     pjsip-core-i386-win32-vc8-debug-dynamic:sip_auth_parser.obj
 0003:0000cc70       ??_C@_08HKMEAON@response@  0050ac70     pjsip-core-i386-win32-vc8-debug-dynamic:sip_auth_parser.obj
 0003:0000cc7c       ??_C@_09JPNFBOJG@algorithm@ 0050ac7c     pjsip-core-i386-win32-vc8-debug-dynamic:sip_auth_parser.obj
 0003:0000cc88       ??_C@_06LKIIGAOE@domain@   0050ac88     pjsip-core-i386-win32-vc8-debug-dynamic:sip_auth_parser.obj
 0003:0000cc90       ??_C@_05BFAEFKPM@stale@    0050ac90     pjsip-core-i386-win32-vc8-debug-dynamic:sip_auth_parser.obj
 0003:0000cc98       ??_C@_03GBIMBCPB@qop@      0050ac98     pjsip-core-i386-win32-vc8-debug-dynamic:sip_auth_parser.obj
 0003:0000cc9c       ??_C@_06HILDJCOE@cnonce@   0050ac9c     pjsip-core-i386-win32-vc8-debug-dynamic:sip_auth_parser.obj
 0003:0000cca4       ??_C@_06CJCOLNBB@opaque@   0050aca4     pjsip-core-i386-win32-vc8-debug-dynamic:sip_auth_parser.obj
 0003:0000ccac       ??_C@_02MCHPIKD@nc@        0050acac     pjsip-core-i386-win32-vc8-debug-dynamic:sip_auth_parser.obj
 0003:0000ccb0       ??_C@_06JMFPOLAJ@?$CCtrue?$CC@ 0050acb0     pjsip-core-i386-win32-vc8-debug-dynamic:sip_auth_parser.obj
 0003:0000ccb8       ??_C@_05LAPONLG@false@     0050acb8     pjsip-core-i386-win32-vc8-debug-dynamic:sip_auth_parser.obj
 0003:0000ccc0       ??_C@_07MGKGDKEI@?$CCfalse?$CC@ 0050acc0     pjsip-core-i386-win32-vc8-debug-dynamic:sip_auth_parser.obj
 0003:0000cccc       ??_C@_06MHCCOJOO@Digest@   0050accc     pjsip-core-i386-win32-vc8-debug-dynamic:sip_auth_parser.obj
 0003:0000ccd4       ??_C@_08MPOLMKFE@?$CCDigest?$CC@ 0050acd4     pjsip-core-i386-win32-vc8-debug-dynamic:sip_auth_parser.obj
 0003:0000cce0       ??_C@_03NKNIOJFA@PGP@      0050ace0     pjsip-core-i386-win32-vc8-debug-dynamic:sip_auth_parser.obj
 0003:0000cce4       ??_C@_05PBIHDNLO@?$CCPGP?$CC@ 0050ace4     pjsip-core-i386-win32-vc8-debug-dynamic:sip_auth_parser.obj
 0003:0000ccec       ??_C@_03PKBIKOHH@md5@      0050acec     pjsip-core-i386-win32-vc8-debug-dynamic:sip_auth_parser.obj
 0003:0000ccf0       ??_C@_05FEKNEIJC@?$CCmd5?$CC@ 0050acf0     pjsip-core-i386-win32-vc8-debug-dynamic:sip_auth_parser.obj
 0003:0000ccf8       ??_C@_04DPLCCHJC@auth@     0050acf8     pjsip-core-i386-win32-vc8-debug-dynamic:sip_auth_parser.obj
 0003:0000cd00       ??_C@_06MNAAFAAH@?$CCauth?$CC@ 0050ad00     pjsip-core-i386-win32-vc8-debug-dynamic:sip_auth_parser.obj
 0003:0000cd08       ??_C@_1HC@LOOPBCMN@?$AAd?$AA?3?$AA?2?$AAp?$AAj?$AAs?$AAi?$AAp?$AA?2?$AAp?$AAj?$AAp?$AAr?$AAo?$AAj@ 0050ad08     pjsip-core-i386-win32-vc8-debug-dynamic:sip_auth_parser.obj
 0003:0000cd90       ??_C@_1HO@DHEIMHMF@?$AAd?$AA?3?$AA?2?$AAp?$AAj?$AAs?$AAi?$AAp?$AA?2?$AAp?$AAj?$AAp?$AAr?$AAo?$AAj@ 0050ad90     pjmedia-audiodev-i386-win32-vc8-debug-dynamic:audiodev.obj
 0003:0000ce9c       ??_C@_0DC@MHBBCDGM@Unspecified?5audio?5device?5error?5@ 0050ae9c     pjmedia-audiodev-i386-win32-vc8-debug-dynamic:errno.obj
 0003:0000ced8       ??_C@_0DG@FEDKLOFB@Unknown?5error?5from?5audio?5driver@ 0050aed8     pjmedia-audiodev-i386-win32-vc8-debug-dynamic:errno.obj
 0003:0000cf18       ??_C@_0DE@DOHCBKFK@Audio?5subsystem?5not?5initialized@ 0050af18     pjmedia-audiodev-i386-win32-vc8-debug-dynamic:errno.obj
 0003:0000cf58       ??_C@_0CL@NCBJPCNF@Invalid?5audio?5device?5?$CIPJMEDIA_E@ 0050af58     pjmedia-audiodev-i386-win32-vc8-debug-dynamic:errno.obj
 0003:0000cf8c       ??_C@_0CM@LOPLLMHO@Found?5no?5audio?5devices?5?$CIPJMEDIA@ 0050af8c     pjmedia-audiodev-i386-win32-vc8-debug-dynamic:errno.obj
 0003:0000cfc0       ??_C@_0DM@DPDKGMIE@Unable?5to?5find?5default?5audio?5de@ 0050afc0     pjmedia-audiodev-i386-win32-vc8-debug-dynamic:errno.obj
 0003:0000d008       ??_C@_0CP@JIPJOIMB@Audio?5device?5not?5ready?5?$CIPJMEDIA@ 0050b008     pjmedia-audiodev-i386-win32-vc8-debug-dynamic:errno.obj
 0003:0000d040       ??_C@_0DO@NMIGLFFA@Invalid?5or?5unsupported?5audio?5ca@ 0050b040     pjmedia-audiodev-i386-win32-vc8-debug-dynamic:errno.obj
 0003:0000d090       ??_C@_0ED@PLJALPOA@Invalid?5or?5unsupported?5audio?5de@ 0050b090     pjmedia-audiodev-i386-win32-vc8-debug-dynamic:errno.obj
 0003:0000d0e0       ??_C@_0DM@JKDJGBNG@Bad?5or?5invalid?5audio?5device?5for@ 0050b0e0     pjmedia-audiodev-i386-win32-vc8-debug-dynamic:errno.obj
 0003:0000d128       ??_C@_0DN@BLAJILEA@Invalid?5audio?5device?5sample?5for@ 0050b128     pjmedia-audiodev-i386-win32-vc8-debug-dynamic:errno.obj
 0003:0000d174       ??_C@_0DE@LJJGJIEF@Bad?5audio?5latency?5setting?5?$CIPJME@ 0050b174     pjmedia-audiodev-i386-win32-vc8-debug-dynamic:errno.obj
 0003:0000d1b4       ??_C@_0BJ@GMHLEOAL@MMSYSTEM?5native?5error?5?$CFd@ 0050b1b4     pjmedia-audiodev-i386-win32-vc8-debug-dynamic:errno.obj
 0003:0000d1d4       ??_C@_0CC@MFOJNIAN@Unknown?5pjmedia?9audiodev?5error?5@ 0050b1d4     pjmedia-audiodev-i386-win32-vc8-debug-dynamic:errno.obj
 0003:0000d1fc       ??_C@_09OFDCJLJM@WMME?5base@ 0050b1fc     pjmedia-audiodev-i386-win32-vc8-debug-dynamic:wmme_dev.obj
 0003:0000d208       ??_C@_0M@KBHHDDLP@Wave?5mapper@ 0050b208     pjmedia-audiodev-i386-win32-vc8-debug-dynamic:wmme_dev.obj
 0003:0000d218       ??_C@_04CPNMDOAK@WMME@     0050b218     pjmedia-audiodev-i386-win32-vc8-debug-dynamic:wmme_dev.obj
 0003:0000d220       ??_C@_0BB@EOKKHGLD@WMME?5initialized@ 0050b220     pjmedia-audiodev-i386-win32-vc8-debug-dynamic:wmme_dev.obj
 0003:0000d234       ??_C@_0L@HHCCMOGO@wmme_dev?4c@ 0050b234     pjmedia-audiodev-i386-win32-vc8-debug-dynamic:wmme_dev.obj
 0003:0000d244       ??_C@_0BM@OMJMEAMB@WMME?5found?5no?5sound?5devices@ 0050b244     pjmedia-audiodev-i386-win32-vc8-debug-dynamic:wmme_dev.obj
 0003:0000d268       ??_C@_11LOCGONAA@@         0050b268     pjmedia-audiodev-i386-win32-vc8-debug-dynamic:wmme_dev.obj
 0003:0000d26c       ??_C@_0BH@GEMAAOCL@WMME?5found?5?$CFd?5devices?3@ 0050b26c     pjmedia-audiodev-i386-win32-vc8-debug-dynamic:wmme_dev.obj
 0003:0000d288       ??_C@_0CA@NLJGEGOG@?5dev_id?5?$CFd?3?5?$CFs?5?5?$CIin?$DN?$CFd?0?5out?$DN?$CFd?$CJ@ 0050b288     pjmedia-audiodev-i386-win32-vc8-debug-dynamic:wmme_dev.obj
 0003:0000d2b0       ??_C@_1HO@GFKECFAC@?$AAd?$AA?3?$AA?2?$AAp?$AAj?$AAs?$AAi?$AAp?$AA?2?$AAp?$AAj?$AAp?$AAr?$AAo?$AAj@ 0050b2b0     pjmedia-audiodev-i386-win32-vc8-debug-dynamic:wmme_dev.obj
 0003:0000d348       ??_C@_1CM@DCIMFEME@?$AAi?$AAn?$AAd?$AAe?$AAx?$AA?5?$AA?$DM?$AA?5?$AAw?$AAf?$AA?9?$AA?$DO?$AAd?$AAe?$AAv@ 0050b348     pjmedia-audiodev-i386-win32-vc8-debug-dynamic:wmme_dev.obj
 0003:0000d37c       ??_C@_03CCLNCNJA@PCM@      0050b37c     pjmedia-audiodev-i386-win32-vc8-debug-dynamic:wmme_dev.obj
 0003:0000d380       ??_C@_1EE@KABDJHEG@?$AAp?$AAr?$AAm?$AA?9?$AA?$DO?$AAp?$AAl?$AAa?$AAy?$AA_?$AAi?$AAd?$AA?5?$AA?$DM?$AA?5@ 0050b380     pjmedia-audiodev-i386-win32-vc8-debug-dynamic:wmme_dev.obj
 0003:0000d3d8       ??_C@_0HB@MKIBCFPJ@?5WaveAPI?5Sound?5player?5?$CC?$CFs?$CC?5init@ 0050b3d8     pjmedia-audiodev-i386-win32-vc8-debug-dynamic:wmme_dev.obj
 0003:0000d460       ??_C@_1EC@CICBGNKJ@?$AAp?$AAr?$AAm?$AA?9?$AA?$DO?$AAr?$AAe?$AAc?$AA_?$AAi?$AAd?$AA?5?$AA?$DM?$AA?5?$AA?$CI@ 0050b460     pjmedia-audiodev-i386-win32-vc8-debug-dynamic:wmme_dev.obj
 0003:0000d4b0       ??_C@_0HD@PIICIPL@?5WaveAPI?5Sound?5recorder?5?$CC?$CFs?$CC?5in@ 0050b4b0     pjmedia-audiodev-i386-win32-vc8-debug-dynamic:wmme_dev.obj
 0003:0000d53c       ??_C@_0BJ@JGIOJGMH@Frame?5type?5not?5supported@ 0050b53c     pjmedia-audiodev-i386-win32-vc8-debug-dynamic:wmme_dev.obj
 0003:0000d55c       ??_C@_1DI@LANCDOGM@?$AA?$CB?$AA?$CC?$AAF?$AAr?$AAa?$AAm?$AAe?$AA?5?$AAt?$AAy?$AAp?$AAe?$AA?5?$AAn?$AAo@ 0050b55c     pjmedia-audiodev-i386-win32-vc8-debug-dynamic:wmme_dev.obj
 0003:0000d5a0       ??_C@_0BI@BEJPJEBJ@WMME?3?5thread?5stopping?4?4@ 0050b5a0     pjmedia-audiodev-i386-win32-vc8-debug-dynamic:wmme_dev.obj
 0003:0000d5bc       ??_C@_08MOOOBPLB@wmme?9dev@ 0050b5bc     pjmedia-audiodev-i386-win32-vc8-debug-dynamic:wmme_dev.obj
 0003:0000d5c8       ??_C@_1CI@KPEGEECM@?$AAp?$AAo?$AAo?$AAl?$AA?5?$AA?$CB?$AA?$DN?$AA?5?$AA?$CI?$AA?$CI?$AAv?$AAo?$AAi?$AAd?$AA?5@ 0050b5c8     pjmedia-audiodev-i386-win32-vc8-debug-dynamic:wmme_dev.obj
 0003:0000d5f8       ??_C@_04ODOGNMHC@wmme@     0050b5f8     pjmedia-audiodev-i386-win32-vc8-debug-dynamic:wmme_dev.obj
 0003:0000d600       ??_C@_1BG@DEEBDKCH@?$AAs?$AAt?$AAr?$AAm?$AA?5?$AA?$CG?$AA?$CG?$AA?5?$AAp?$AAi@ 0050b600     pjmedia-audiodev-i386-win32-vc8-debug-dynamic:wmme_dev.obj
 0003:0000d61c       ??_C@_1BE@IKBALJHE@?$AAs?$AA?5?$AA?$CG?$AA?$CG?$AA?5?$AAp?$AAv?$AAa?$AAl@ 0050b61c     pjmedia-audiodev-i386-win32-vc8-debug-dynamic:wmme_dev.obj
 0003:0000d634       ??_C@_0BN@MNACKNIN@WMME?5playback?5stream?5started@ 0050b634     pjmedia-audiodev-i386-win32-vc8-debug-dynamic:wmme_dev.obj
 0003:0000d658       ??_C@_0BM@NKDLICNM@WMME?5capture?5stream?5started@ 0050b658     pjmedia-audiodev-i386-win32-vc8-debug-dynamic:wmme_dev.obj
 0003:0000d67c       ??_C@_1CM@EEPLMOAE@?$AAs?$AAt?$AAr?$AAe?$AAa?$AAm?$AA?5?$AA?$CB?$AA?$DN?$AA?5?$AA?$CI?$AA?$CI?$AAv?$AAo?$AAi@ 0050b67c     pjmedia-audiodev-i386-win32-vc8-debug-dynamic:wmme_dev.obj
 0003:0000d6b0       ??_C@_0BN@FMJNHCPG@Stopped?5WMME?5playback?5stream@ 0050b6b0     pjmedia-audiodev-i386-win32-vc8-debug-dynamic:wmme_dev.obj
 0003:0000d6d4       ??_C@_0BM@KCHDOGNE@Stopped?5WMME?5capture?5stream@ 0050b6d4     pjmedia-audiodev-i386-win32-vc8-debug-dynamic:wmme_dev.obj
 0003:0000d6f8       ??_C@_0BC@KMLOGCBL@?$CB?$CD$?$CF?$CG?8?$CK?$CL?9?4?$FO_?$GA?$HL?$HM?$HN?$HO@ 0050b6f8     pjmedia-i386-win32-vc8-debug-dynamic:sdp.obj
 0003:0000d710       ??_C@_1GC@CFCJDFC@?$AAd?$AA?3?$AA?2?$AAp?$AAj?$AAs?$AAi?$AAp?$AA?2?$AAp?$AAj?$AAp?$AAr?$AAo?$AAj@ 0050b710     pjmedia-i386-win32-vc8-debug-dynamic:sdp.obj
 0003:0000d788       ??_C@_1BK@LHKKGLPP@?$AAp?$AAo?$AAo?$AAl?$AA?5?$AA?$CG?$AA?$CG?$AA?5?$AAn?$AAa?$AAm?$AAe@ 0050b788     pjmedia-i386-win32-vc8-debug-dynamic:sdp.obj
 0003:0000d7a8       ??_C@_1BI@CECNPHHM@?$AAp?$AAo?$AAo?$AAl?$AA?5?$AA?$CG?$AA?$CG?$AA?5?$AAr?$AAh?$AAs@ 0050b7a8     pjmedia-i386-win32-vc8-debug-dynamic:sdp.obj
 0003:0000d7c4       ??_C@_1CI@FGGAOBNE@?$AAc?$AAo?$AAu?$AAn?$AAt?$AA?5?$AA?$DM?$AA?$DN?$AA?5?$AA?$CI?$AA3?$AA2?$AA?$CK?$AA2?$AA?5@ 0050b7c4     pjmedia-i386-win32-vc8-debug-dynamic:sdp.obj
 0003:0000d7f4       ??_C@_1DI@HJCFDDCH@?$AAc?$AAo?$AAu?$AAn?$AAt?$AA?5?$AA?$CG?$AA?$CG?$AA?5?$AAa?$AAt?$AAt?$AAr?$AA_?$AAa@ 0050b7f4     pjmedia-i386-win32-vc8-debug-dynamic:sdp.obj
 0003:0000d838       ??_C@_1CI@HFMGJFMC@?$AA?$CK?$AAc?$AAo?$AAu?$AAn?$AAt?$AA?5?$AA?$DM?$AA?5?$AA?$CI?$AA3?$AA2?$AA?$CK?$AA2?$AA?5@ 0050b838     pjmedia-i386-win32-vc8-debug-dynamic:sdp.obj
 0003:0000d868       ??_C@_1DI@FFGCGLJA@?$AAc?$AAo?$AAu?$AAn?$AAt?$AA?5?$AA?$CG?$AA?$CG?$AA?5?$AAa?$AAt?$AAt?$AAr?$AA_?$AAa@ 0050b868     pjmedia-i386-win32-vc8-debug-dynamic:sdp.obj
 0003:0000d8ac       ??_C@_1CK@ONBGBNGI@?$AA?$CK?$AAc?$AAo?$AAu?$AAn?$AAt?$AA?5?$AA?$DM?$AA?$DN?$AA?5?$AA?$CI?$AA3?$AA2?$AA?$CK?$AA2@ 0050b8ac     pjmedia-i386-win32-vc8-debug-dynamic:sdp.obj
 0003:0000d8e0       ??_C@_06NPGDLJKE@rtpmap@   0050b8e0     pjmedia-i386-win32-vc8-debug-dynamic:sdp.obj
 0003:0000d8e8       ??_C@_1EK@FJKEMOIA@?$AAp?$AAj?$AA_?$AAs?$AAt?$AAr?$AAc?$AAm?$AAp?$AA2?$AA?$CI?$AA?$CG?$AAa?$AAt?$AAt@ 0050b8e8     pjmedia-i386-win32-vc8-debug-dynamic:sdp.obj
 0003:0000d940       ??_C@_0BB@FMMFANH@Shouldn?8t?5happen@ 0050b940     pjmedia-i386-win32-vc8-debug-dynamic:sdp.obj
 0003:0000d954       ??_C@_1CI@KMDGDPGJ@?$AA?$CB?$AA?$CC?$AAS?$AAh?$AAo?$AAu?$AAl?$AAd?$AAn?$AA?8?$AAt?$AA?5?$AAh?$AAa?$AAp@ 0050b954     pjmedia-i386-win32-vc8-debug-dynamic:sdp.obj
 0003:0000d984       ??_C@_04JKCEBMKL@fmtp@     0050b984     pjmedia-i386-win32-vc8-debug-dynamic:sdp.obj
 0003:0000d990       ??_C@_1EG@MKFCNOBN@?$AAp?$AAj?$AA_?$AAs?$AAt?$AAr?$AAc?$AAm?$AAp?$AA2?$AA?$CI?$AA?$CG?$AAa?$AAt?$AAt@ 0050b990     pjmedia-i386-win32-vc8-debug-dynamic:sdp.obj
 0003:0000d9e4       ??_C@_04DLDMIAAJ@rtcp@     0050b9e4     pjmedia-i386-win32-vc8-debug-dynamic:sdp.obj
 0003:0000d9f0       ??_C@_1EG@KJAHBMHP@?$AAp?$AAj?$AA_?$AAs?$AAt?$AAr?$AAc?$AAm?$AAp?$AA2?$AA?$CI?$AA?$CG?$AAa?$AAt?$AAt@ 0050b9f0     pjmedia-i386-win32-vc8-debug-dynamic:sdp.obj
 0003:0000da44       ??_C@_05PGDJPCOI@?1?5?7?$AN?6@ 0050ba44     pjmedia-i386-win32-vc8-debug-dynamic:sdp.obj
 0003:0000da4c       ??_C@_0N@PKDMIJBK@?$CFu?5IN?5IP4?5?$CFs@ 0050ba4c     pjmedia-i386-win32-vc8-debug-dynamic:sdp.obj
 0003:0000da5c       ??_C@_0N@IAPMNKHK@?$CFu?5IN?5IP6?5?$CFs@ 0050ba5c     pjmedia-i386-win32-vc8-debug-dynamic:sdp.obj
 0003:0000da6c       ??_C@_0BL@ILIKGEFL@Unsupported?5address?5family@ 0050ba6c     pjmedia-i386-win32-vc8-debug-dynamic:sdp.obj
 0003:0000da8c       ??_C@_1DM@IJIBEIIG@?$AA?$CB?$AA?$CC?$AAU?$AAn?$AAs?$AAu?$AAp?$AAp?$AAo?$AAr?$AAt?$AAe?$AAd?$AA?5?$AAa@ 0050ba8c     pjmedia-i386-win32-vc8-debug-dynamic:sdp.obj
 0003:0000dad4       ??_C@_04OHIABJNF@ssrc@     0050bad4     pjmedia-i386-win32-vc8-debug-dynamic:sdp.obj
 0003:0000dae0       ??_C@_1EG@HPNCJLOF@?$AAp?$AAj?$AA_?$AAs?$AAt?$AAr?$AAc?$AAm?$AAp?$AA2?$AA?$CI?$AA?$CG?$AAa?$AAt?$AAt@ 0050bae0     pjmedia-i386-win32-vc8-debug-dynamic:sdp.obj
 0003:0000db34       ??_C@_05DNEALNHD@cname@    0050bb34     pjmedia-i386-win32-vc8-debug-dynamic:sdp.obj
 0003:0000db3c       ??_C@_0O@LDHNMJDJ@?$CFd?5cname?3?$CF?4?$CKs@ 0050bb3c     pjmedia-i386-win32-vc8-debug-dynamic:sdp.obj
 0003:0000db4c       ??_C@_1DC@MOOEGOAE@?$AAp?$AAo?$AAo?$AAl?$AA?5?$AA?$CG?$AA?$CG?$AA?5?$AAa?$AAt?$AAt?$AAr?$AA?5?$AA?$CG?$AA?$CG@ 0050bb4c     pjmedia-i386-win32-vc8-debug-dynamic:sdp.obj
 0003:0000db88       ??_C@_1BE@LGFCOKD@?$AA?$CK?$AAp?$AA_?$AAr?$AAt?$AAp?$AAm?$AAa?$AAp@ 0050bb88     pjmedia-i386-win32-vc8-debug-dynamic:sdp.obj
 0003:0000dba0       ??_C@_1DC@EIKIHHHP@?$AAp?$AAo?$AAo?$AAl?$AA?5?$AA?$CG?$AA?$CG?$AA?5?$AAr?$AAt?$AAp?$AAm?$AAa?$AAp?$AA?5@ 0050bba0     pjmedia-i386-win32-vc8-debug-dynamic:sdp.obj
 0003:0000dbe0       ??_C@_1FI@PEPMJPO@?$AAr?$AAt?$AAp?$AAm?$AAa?$AAp?$AA?9?$AA?$DO?$AAe?$AAn?$AAc?$AA_?$AAn?$AAa?$AAm@ 0050bbe0     pjmedia-i386-win32-vc8-debug-dynamic:sdp.obj
 0003:0000dc4c       ??_C@_1CI@EPAHAEGD@?$AAa?$AAt?$AAt?$AAr?$AA?5?$AA?$CB?$AA?$DN?$AA?5?$AA?$CI?$AA?$CI?$AAv?$AAo?$AAi?$AAd?$AA?5@ 0050bc4c     pjmedia-i386-win32-vc8-debug-dynamic:sdp.obj
 0003:0000dc7c       ??_C@_01KMDKNFGN@?1@       0050bc7c     pjmedia-i386-win32-vc8-debug-dynamic:sdp.obj
 0003:0000dc80       ??_C@_0BD@HEFIBNKB@?$CF?4?$CKs?5?$CF?4?$CKs?1?$CFu?$CFs?$CF?4?$CKs@ 0050bc80     pjmedia-i386-win32-vc8-debug-dynamic:sdp.obj
 0003:0000dc98       ??_C@_0BD@NGNJPLJA@c?$DN?$CF?4?$CKs?5?$CF?4?$CKs?5?$CF?4?$CKs?$AN?6@ 0050bc98     pjmedia-i386-win32-vc8-debug-dynamic:sdp.obj
 0003:0000dcb0       ??_C@_1CC@CMAOLAKC@?$AAm?$AA?5?$AA?$CB?$AA?$DN?$AA?5?$AA?$CI?$AA?$CI?$AAv?$AAo?$AAi?$AAd?$AA?5?$AA?$CK?$AA?$CJ?$AA0@ 0050bcb0     pjmedia-i386-win32-vc8-debug-dynamic:sdp.obj
 0003:0000dcd8       ??_C@_1CO@IELLMBJI@?$AAm?$AA?9?$AA?$DO?$AAc?$AAo?$AAn?$AAn?$AA?5?$AA?$CB?$AA?$DN?$AA?5?$AA?$CI?$AA?$CI?$AAv?$AAo@ 0050bcd8     pjmedia-i386-win32-vc8-debug-dynamic:sdp.obj
 0003:0000dd10       ??_C@_1DG@MEBEIEJJ@?$AAm?$AA?9?$AA?$DO?$AAb?$AAa?$AAn?$AAd?$AAw?$AA?$FL?$AAi?$AA?$FN?$AA?5?$AA?$CB?$AA?$DN?$AA?5@ 0050bd10     pjmedia-i386-win32-vc8-debug-dynamic:sdp.obj
 0003:0000dd50       ??_C@_1DE@GHMIPEL@?$AAm?$AA?9?$AA?$DO?$AAa?$AAt?$AAt?$AAr?$AA?$FL?$AAi?$AA?$FN?$AA?5?$AA?$CB?$AA?$DN?$AA?5?$AA?$CI@ 0050bd50     pjmedia-i386-win32-vc8-debug-dynamic:sdp.obj
 0003:0000dd90       ??_C@_1BE@DGPNFPKO@?$AAm?$AA?5?$AA?$CG?$AA?$CG?$AA?5?$AAn?$AAa?$AAm?$AAe@ 0050bd90     pjmedia-i386-win32-vc8-debug-dynamic:sdp.obj
 0003:0000dda8       ??_C@_05MIOLEPMP@v?$DN0?$AN?6@ 0050bda8     pjmedia-i386-win32-vc8-debug-dynamic:sdp.obj
 0003:0000ddb0       ??_C@_04HHCDBDLF@?5?7?$AN?6@ 0050bdb0     pjmedia-i386-win32-vc8-debug-dynamic:sdp.obj
 0003:0000ddb8       ??_C@_0DG@FMMLOIKL@Error?5adding?5SDP?5media?5format?5?$CF@ 0050bdb8     pjmedia-i386-win32-vc8-debug-dynamic:sdp.obj
 0003:0000ddf8       ??_C@_05LIAFADKM@sdp?4c@   0050bdf8     pjmedia-i386-win32-vc8-debug-dynamic:sdp.obj
 0003:0000de00       ??_C@_08INHMCBAE@inactive@ 0050be00     pjmedia-i386-win32-vc8-debug-dynamic:sdp.obj
 0003:0000de0c       ??_C@_08HPJEFADN@sendonly@ 0050be0c     pjmedia-i386-win32-vc8-debug-dynamic:sdp.obj
 0003:0000de18       ??_C@_08EHCGIGCO@recvonly@ 0050be18     pjmedia-i386-win32-vc8-debug-dynamic:sdp.obj
 0003:0000de24       ??_C@_08LMCBNPPN@sendrecv@ 0050be24     pjmedia-i386-win32-vc8-debug-dynamic:sdp.obj
 0003:0000de30       ??_C@_1CO@HBFFMPPN@?$AAs?$AAe?$AAs?$AAs?$AAi?$AAo?$AAn?$AA?5?$AA?$CB?$AA?$DN?$AA?5?$AA?$CI?$AA?$CI?$AAv?$AAo@ 0050be30     pjmedia-i386-win32-vc8-debug-dynamic:sdp.obj
 0003:0000de68       ??_C@_0DD@EJNOLNM@Error?5adding?5media?5attribute?0?5a@ 0050be68     pjmedia-i386-win32-vc8-debug-dynamic:sdp.obj
 0003:0000dea8       ??_C@_0DF@GDECOCN@Error?5adding?5session?5attribute?0@ 0050bea8     pjmedia-i386-win32-vc8-debug-dynamic:sdp.obj
 0003:0000dee8       ??_C@_0CF@NCOGEPJF@Error?5adding?5media?0?5media?5is?5ig@ 0050bee8     pjmedia-i386-win32-vc8-debug-dynamic:sdp.obj
 0003:0000df14       ??_C@_0DD@FDBIEIFP@Error?5adding?5media?5bandwidth?5in@ 0050bf14     pjmedia-i386-win32-vc8-debug-dynamic:sdp.obj
 0003:0000df54       ??_C@_0DF@FBLBINKO@Error?5adding?5session?5bandwidth?5@ 0050bf54     pjmedia-i386-win32-vc8-debug-dynamic:sdp.obj
 0003:0000df94       ??_C@_0CI@CAFHMKHI@Error?5parsing?5SDP?5in?5line?5?$CFd?5co@ 0050bf94     pjmedia-i386-win32-vc8-debug-dynamic:sdp.obj
 0003:0000dfc4       ??_C@_1DK@FGCOIPPN@?$AAc?$AAt?$AAx?$AA?4?$AAl?$AAa?$AAs?$AAt?$AA_?$AAe?$AAr?$AAr?$AAo?$AAr?$AA?5@ 0050bfc4     pjmedia-i386-win32-vc8-debug-dynamic:sdp.obj
 0003:0000e00c       ??_C@_1CI@HOBAFJIC@?$AAs?$AAe?$AAs?$AAs?$AA?5?$AA?$CB?$AA?$DN?$AA?5?$AA?$CI?$AA?$CI?$AAv?$AAo?$AAi?$AAd?$AA?5@ 0050c00c     pjmedia-i386-win32-vc8-debug-dynamic:sdp.obj
 0003:0000e03c       ??_C@_1DE@KFDBFPOJ@?$AAs?$AAe?$AAs?$AAs?$AA?9?$AA?$DO?$AAc?$AAo?$AAn?$AAn?$AA?5?$AA?$CB?$AA?$DN?$AA?5?$AA?$CI@ 0050c03c     pjmedia-i386-win32-vc8-debug-dynamic:sdp.obj
 0003:0000e07c       ??_C@_02BBAPPCCJ@IN@       0050c07c     pjmedia-i386-win32-vc8-debug-dynamic:sdp.obj
 0003:0000e080       ??_C@_03OPDBOKBD@IP4@      0050c080     pjmedia-i386-win32-vc8-debug-dynamic:sdp.obj
 0003:0000e084       ??_C@_03NNAHIIJB@IP6@      0050c084     pjmedia-i386-win32-vc8-debug-dynamic:sdp.obj
 0003:0000e088       ??_C@_15LFLBLBBH@?$AAt?$AAp@ 0050c088     pjmedia-i386-win32-vc8-debug-dynamic:sdp.obj
 0003:0000e090       ??_C@_03GOLBDMPC@RTP@      0050c090     pjmedia-i386-win32-vc8-debug-dynamic:sdp.obj
 0003:0000e094       ??_C@_03CPJJBAON@AVP@      0050c094     pjmedia-i386-win32-vc8-debug-dynamic:sdp.obj
 0003:0000e098       ??_C@_04LHEMINPH@SAVP@     0050c098     pjmedia-i386-win32-vc8-debug-dynamic:sdp.obj
 0003:0000e0a0       ??_C@_04HILHOPFG@AVPF@     0050c0a0     pjmedia-i386-win32-vc8-debug-dynamic:sdp.obj
 0003:0000e0a8       ??_C@_05IFENMDLB@SAVPF@    0050c0a8     pjmedia-i386-win32-vc8-debug-dynamic:sdp.obj
 0003:0000e0b0       ??_C@_0N@IFKNLCBO@TLS?1RTP?1SAVP@ 0050c0b0     pjmedia-i386-win32-vc8-debug-dynamic:sdp.obj
 0003:0000e0c0       ??_C@_0O@FMKJHIFC@TLS?1RTP?1SAVPF@ 0050c0c0     pjmedia-i386-win32-vc8-debug-dynamic:sdp.obj
 0003:0000e0d0       ??_C@_13BHPHAPDN@?$AAm@    0050c0d0     pjmedia-i386-win32-vc8-debug-dynamic:sdp.obj
 0003:0000e110       ??_C@_07OEHJJJKF@RTP?1AVP@ 0050c110     pjmedia-i386-win32-vc8-debug-dynamic:endpoint.obj
 0003:0000e11c       ??_C@_07HDFHIMAJ@pjmedia@  0050c11c     pjmedia-i386-win32-vc8-debug-dynamic:endpoint.obj
 0003:0000e128       ??_C@_1GM@ODKJJIIE@?$AAd?$AA?3?$AA?2?$AAp?$AAj?$AAs?$AAi?$AAp?$AA?2?$AAp?$AAj?$AAp?$AAr?$AAo?$AAj@ 0050c128     pjmedia-i386-win32-vc8-debug-dynamic:endpoint.obj
 0003:0000e1ac       ??_C@_1BM@OGBIIDDA@?$AAp?$AAf?$AA?5?$AA?$CG?$AA?$CG?$AA?5?$AAp?$AA_?$AAe?$AAn?$AAd?$AAp?$AAt@ 0050c1ac     pjmedia-i386-win32-vc8-debug-dynamic:endpoint.obj
 0003:0000e1d0       ??_C@_1CC@JIGJPFHP@?$AAw?$AAo?$AAr?$AAk?$AAe?$AAr?$AA_?$AAc?$AAn?$AAt?$AA?5?$AA?$DM?$AA?$DN?$AA?5?$AA1@ 0050c1d0     pjmedia-i386-win32-vc8-debug-dynamic:endpoint.obj
 0003:0000e1f8       ??_C@_07LBNDIDNE@med?9ept@ 0050c1f8     pjmedia-i386-win32-vc8-debug-dynamic:endpoint.obj
 0003:0000e208       ??_C@_0EL@BIFHLACC@Warning?3?5no?5worker?5thread?5is?5cr@ 0050c208     pjmedia-i386-win32-vc8-debug-dynamic:endpoint.obj
 0003:0000e264       ??_C@_0L@DLFDMOGF@endpoint?4c@ 0050c264     pjmedia-i386-win32-vc8-debug-dynamic:endpoint.obj
 0003:0000e274       ??_C@_05CECBHAPI@media@    0050c274     pjmedia-i386-win32-vc8-debug-dynamic:endpoint.obj
 0003:0000e27c       ??_C@_1DE@FPNJNJGM@?$AAi?$AAn?$AAd?$AAe?$AAx?$AA?5?$AA?$DM?$AA?5?$AAe?$AAn?$AAd?$AAp?$AAt?$AA?9?$AA?$DO@ 0050c27c     pjmedia-i386-win32-vc8-debug-dynamic:endpoint.obj
 0003:0000e2c0       ??_C@_1JE@HCLFLOKE@?$AAa?$AAd?$AAd?$AAr?$AA?9?$AA?$DO?$AAa?$AAd?$AAd?$AAr?$AA?4?$AAs?$AAa?$AA_?$AAf@ 0050c2c0     pjmedia-i386-win32-vc8-debug-dynamic:endpoint.obj
 0003:0000e374       ??_C@_05KNIAAKIP@audio@    0050c374     pjmedia-i386-win32-vc8-debug-dynamic:endpoint.obj
 0003:0000e380       ??_C@_1EC@FHIDABHP@?$AAe?$AAn?$AAd?$AAp?$AAt?$AA?9?$AA?$DO?$AAc?$AAo?$AAd?$AAe?$AAc?$AA_?$AAm?$AAg@ 0050c380     pjmedia-i386-win32-vc8-debug-dynamic:endpoint.obj
 0003:0000e3d0       ??_C@_1DK@OFJDILED@?$AAc?$AAo?$AAd?$AAe?$AAc?$AA_?$AAi?$AAn?$AAf?$AAo?$AA?9?$AA?$DO?$AAc?$AAh?$AAa@ 0050c3d0     pjmedia-i386-win32-vc8-debug-dynamic:endpoint.obj
 0003:0000e418       ??_C@_02DPKJAMEF@?$CFd@    0050c418     pjmedia-i386-win32-vc8-debug-dynamic:endpoint.obj
 0003:0000e41c       ??_C@_01ICJEACDI@?$DL@     0050c41c     pjmedia-i386-win32-vc8-debug-dynamic:endpoint.obj
 0003:0000e420       ??_C@_09IKOEDHAN@?$CF?4?$CKs?$DN?$CF?4?$CKs@ 0050c420     pjmedia-i386-win32-vc8-debug-dynamic:endpoint.obj
 0003:0000e42c       ??_C@_04EBNJJJJI@?$CF?4?$CKs@ 0050c42c     pjmedia-i386-win32-vc8-debug-dynamic:endpoint.obj
 0003:0000e434       ??_C@_02KCBIGJIH@96@       0050c434     pjmedia-i386-win32-vc8-debug-dynamic:endpoint.obj
 0003:0000e438       ??_C@_0BI@MJDIOLFC@96?5telephone?9event?18000@ 0050c438     pjmedia-i386-win32-vc8-debug-dynamic:endpoint.obj
 0003:0000e454       ??_C@_07JDIMCMCJ@96?50?916@ 0050c454     pjmedia-i386-win32-vc8-debug-dynamic:endpoint.obj
 0003:0000e460       ??_C@_04PCJMJPDO@TIAS@     0050c460     pjmedia-i386-win32-vc8-debug-dynamic:endpoint.obj
 0003:0000e468       ??_C@_1CO@HNJEPJHN@?$AAe?$AAn?$AAd?$AAp?$AAt?$AA?5?$AA?$CG?$AA?$CG?$AA?5?$AAp?$AAo?$AAo?$AAl?$AA?5?$AA?$CG@ 0050c468     pjmedia-i386-win32-vc8-debug-dynamic:endpoint.obj
 0003:0000e4a0       ??_C@_0BH@FKKILFGM@Invalid?5address?5family@ 0050c4a0     pjmedia-i386-win32-vc8-debug-dynamic:endpoint.obj
 0003:0000e4bc       ??_C@_1DE@IHJPNLLP@?$AA?$CB?$AA?$CC?$AAI?$AAn?$AAv?$AAa?$AAl?$AAi?$AAd?$AA?5?$AAa?$AAd?$AAd?$AAr?$AAe@ 0050c4bc     pjmedia-i386-win32-vc8-debug-dynamic:endpoint.obj
 0003:0000e500       ??_C@_1EK@OMFKIODI@?$AAe?$AAn?$AAd?$AAp?$AAt?$AA?5?$AA?$CG?$AA?$CG?$AA?5?$AAp?$AAo?$AAo?$AAl?$AA?5?$AA?$CG@ 0050c500     pjmedia-i386-win32-vc8-debug-dynamic:endpoint.obj
 0003:0000e558       ??_C@_1CA@OOFGDMNP@?$AAs?$AAt?$AAr?$AAe?$AAa?$AAm?$AA_?$AAc?$AAn?$AAt?$AA?5?$AA?$DM?$AA?5?$AA1?$AA6@ 0050c558     pjmedia-i386-win32-vc8-debug-dynamic:endpoint.obj
 0003:0000e580       ??_C@_06NJDNEAKN@?$CFd?4?$CFdK@ 0050c580     pjmedia-i386-win32-vc8-debug-dynamic:endpoint.obj
 0003:0000e588       ??_C@_08LMNIIOKA@?$CFd?4?$CF02dM@ 0050c588     pjmedia-i386-win32-vc8-debug-dynamic:endpoint.obj
 0003:0000e594       ??_C@_0BO@DJCACKHJ@Dumping?5PJMEDIA?5capabilities?3@ 0050c594     pjmedia-i386-win32-vc8-debug-dynamic:endpoint.obj
 0003:0000e5b8       ??_C@_0BP@LIKCCMEP@?5?9error?3?5failed?5to?5enum?5codecs@ 0050c5b8     pjmedia-i386-win32-vc8-debug-dynamic:endpoint.obj
 0003:0000e5e0       ??_C@_0CH@IFCBLLJF@?5?5Total?5number?5of?5installed?5cod@ 0050c5e0     pjmedia-i386-win32-vc8-debug-dynamic:endpoint.obj
 0003:0000e610       ??_C@_05KKCMAPLJ@Audio@    0050c610     pjmedia-i386-win32-vc8-debug-dynamic:endpoint.obj
 0003:0000e618       ??_C@_05BIPFLOHN@Video@    0050c618     pjmedia-i386-win32-vc8-debug-dynamic:endpoint.obj
 0003:0000e620       ??_C@_0N@DGOCBNGP@Unknown?5type@ 0050c620     pjmedia-i386-win32-vc8-debug-dynamic:endpoint.obj
 0003:0000e630       ??_C@_09FOKECCNG@?5disabled@ 0050c630     pjmedia-i386-win32-vc8-debug-dynamic:endpoint.obj
 0003:0000e63c       ??_C@_05FDNGLLBB@?5penh@   0050c63c     pjmedia-i386-win32-vc8-debug-dynamic:endpoint.obj
 0003:0000e644       ??_C@_04JMDOINFK@?5plc@    0050c644     pjmedia-i386-win32-vc8-debug-dynamic:endpoint.obj
 0003:0000e64c       ??_C@_04LJHKGEEB@?5cng@    0050c64c     pjmedia-i386-win32-vc8-debug-dynamic:endpoint.obj
 0003:0000e654       ??_C@_04POMMNHBC@?5vad@    0050c654     pjmedia-i386-win32-vc8-debug-dynamic:endpoint.obj
 0003:0000e660       ??_C@_0EA@ILGHOPII@?5?5?5?$CFs?5codec?5?$CD?$CF2d?3?5pt?$DN?$CFd?5?$CI?$CF?4?$CKs?5?$EA@ 0050c660     pjmedia-i386-win32-vc8-debug-dynamic:endpoint.obj
 0003:0000e6ac       ??_C@_04JMMHOLLC@g711@     0050c6ac     pjmedia-i386-win32-vc8-debug-dynamic:g711.obj
 0003:0000e6b4       ??_C@_04CEHLIMNH@g611@     0050c6b4     pjmedia-i386-win32-vc8-debug-dynamic:g711.obj
 0003:0000e6bc       ??_C@_04DHOBIHHI@PCMU@     0050c6bc     pjmedia-i386-win32-vc8-debug-dynamic:g711.obj
 0003:0000e6c4       ??_C@_04BJEPFACN@PCMA@     0050c6c4     pjmedia-i386-win32-vc8-debug-dynamic:g711.obj
 0003:0000e6d0       ??_C@_1GE@JLMGMKLH@?$AAd?$AA?3?$AA?2?$AAp?$AAj?$AAs?$AAi?$AAp?$AA?2?$AAp?$AAj?$AAp?$AAr?$AAo?$AAj@ 0050c6d0     pjmedia-i386-win32-vc8-debug-dynamic:g711.obj
 0003:0000e748       ??_C@_1DI@PDDKDAMJ@?$AAf?$AAa?$AAc?$AAt?$AAo?$AAr?$AAy?$AA?$DN?$AA?$DN?$AA?$CG?$AAg?$AA7?$AA1?$AA1?$AA_@ 0050c748     pjmedia-i386-win32-vc8-debug-dynamic:g711.obj
 0003:0000e790       ??_C@_1GK@OKDEAMPG@?$AAc?$AAo?$AAd?$AAe?$AAc?$AA?9?$AA?$DO?$AAn?$AAe?$AAx?$AAt?$AA?$DN?$AA?$DN?$AA?$CI?$AA?$CI@ 0050c790     pjmedia-i386-win32-vc8-debug-dynamic:g711.obj
 0003:0000e810       ??_C@_1DE@BCBOGPPG@?$AAt?$AAs?$AA?5?$AA?$CG?$AA?$CG?$AA?5?$AAf?$AAr?$AAa?$AAm?$AAe?$AA_?$AAc?$AAn?$AAt@ 0050c810     pjmedia-i386-win32-vc8-debug-dynamic:g711.obj
 0003:0000e850       ??_C@_1EK@OGPDBHOE@?$AAo?$AAu?$AAt?$AAp?$AAu?$AAt?$AA_?$AAb?$AAu?$AAf?$AA_?$AAl?$AAe?$AAn?$AA?5@ 0050c850     pjmedia-i386-win32-vc8-debug-dynamic:g711.obj
 0003:0000e8a8       ??_C@_1EE@GCNJHDCF@?$AAi?$AAn?$AAp?$AAu?$AAt?$AA?9?$AA?$DO?$AAs?$AAi?$AAz?$AAe?$AA?5?$AA?$DN?$AA?$DN?$AA?5@ 0050c8a8     pjmedia-i386-win32-vc8-debug-dynamic:g711.obj
 0003:0000e900       ??_C@_1FC@MAFBDPCL@?$AAo?$AAu?$AAt?$AAp?$AAu?$AAt?$AA_?$AAb?$AAu?$AAf?$AA_?$AAl?$AAe?$AAn?$AA?5@ 0050c900     pjmedia-i386-win32-vc8-debug-dynamic:g711.obj
 0003:0000e964       ??_C@_0DL@OIPEDDCB@pjmedia_rtp_session_init?3?5ses?$DN?$CF@ 0050c964     pjmedia-i386-win32-vc8-debug-dynamic:rtp.obj
 0003:0000e9ac       ??_C@_05BDLJEHIL@rtp?4c@   0050c9ac     pjmedia-i386-win32-vc8-debug-dynamic:rtp.obj
 0003:0000e9b4       ??_C@_0BK@FBDELJKD@Wrong?5RTP?5header?5packing?$CB@ 0050c9b4     pjmedia-i386-win32-vc8-debug-dynamic:rtp.obj
 0003:0000e9d8       ??_C@_1GC@LOFJFONF@?$AAd?$AA?3?$AA?2?$AAp?$AAj?$AAs?$AAi?$AAp?$AA?2?$AAp?$AAj?$AAp?$AAr?$AAo?$AAj@ 0050c9d8     pjmedia-i386-win32-vc8-debug-dynamic:rtp.obj
 0003:0000ea50       ??_C@_1DK@DOGBEEBL@?$AA?$CB?$AA?$CC?$AAW?$AAr?$AAo?$AAn?$AAg?$AA?5?$AAR?$AAT?$AAP?$AA?5?$AAh?$AAe?$AAa@ 0050ca50     pjmedia-i386-win32-vc8-debug-dynamic:rtp.obj
 0003:0000ea98       ??_C@_1FA@OEJEKILO@?$AAc?$AAh?$AAe?$AAc?$AAk?$AA_?$AAp?$AAt?$AA?$DN?$AA?$DN?$AAP?$AAJ?$AA_?$AAT?$AAR@ 0050ca98     pjmedia-i386-win32-vc8-debug-dynamic:rtp.obj
 0003:0000eaf8       ??_C@_1GE@GGPMGJLA@?$AAd?$AA?3?$AA?2?$AAp?$AAj?$AAs?$AAi?$AAp?$AA?2?$AAp?$AAj?$AAp?$AAr?$AAo?$AAj@ 0050caf8     pjmedia-i386-win32-vc8-debug-dynamic:rtcp.obj
 0003:0000eb70       ??_C@_1DG@NOCGNPMP@?$AAt?$AAs?$AA?4?$AAu?$AA6?$AA4?$AA?5?$AA?$DM?$AA?5?$AAs?$AAe?$AAs?$AAs?$AA?9?$AA?$DO@ 0050cb70     pjmedia-i386-win32-vc8-debug-dynamic:rtcp.obj
 0003:0000ebb0       ??_C@_19OOENNEM@?$AAs?$AAt?$AAa?$AAt@ 0050cbb0     pjmedia-i386-win32-vc8-debug-dynamic:rtcp.obj
 0003:0000ebbc       ??_C@_06EAHJFANL@rtcp?4c@  0050cbbc     pjmedia-i386-win32-vc8-debug-dynamic:rtcp.obj
 0003:0000ebc4       ??_C@_0CL@JHAJNKLA@RTT?5value?5?$CFd?5usec?5is?5normalized@ 0050cbc4     pjmedia-i386-win32-vc8-debug-dynamic:rtcp.obj
 0003:0000ebf8       ??_C@_0FE@KPGOGEPL@Internal?5RTCP?5NTP?5clock?5skew?5de@ 0050cbf8     pjmedia-i386-win32-vc8-debug-dynamic:rtcp.obj
 0003:0000ec5c       ??_C@_0DD@HBJGFOMH@Unsufficient?5buffer?5to?5save?5RTC@ 0050cc5c     pjmedia-i386-win32-vc8-debug-dynamic:rtcp.obj
 0003:0000ec9c       ??_C@_0CA@DILGMHIA@Received?5RTCP?5BYE?0?5reason?3?5?$CF?4?$CKs@ 0050cc9c     pjmedia-i386-win32-vc8-debug-dynamic:rtcp.obj
 0003:0000ecc8       ??_C@_1EC@KIIOGPEH@?$AAs?$AAe?$AAs?$AAs?$AAi?$AAo?$AAn?$AA?5?$AA?$CG?$AA?$CG?$AA?5?$AAb?$AAu?$AAf?$AA?5@ 0050ccc8     pjmedia-i386-win32-vc8-debug-dynamic:rtcp.obj
 0003:0000ed18       ??_C@_1DO@JMNJNMNH@?$AA?$CI?$AAi?$AAn?$AAt?$AA?$CJ?$AAl?$AAe?$AAn?$AA?5?$AA?$DN?$AA?$DN?$AA?5?$AAp?$AA?9?$AA?$CI@ 0050cd18     pjmedia-i386-win32-vc8-debug-dynamic:rtcp.obj
 0003:0000ed64       ??_C@_1DC@LFAHFJEH@?$AAs?$AAe?$AAs?$AAs?$AAi?$AAo?$AAn?$AA?5?$AA?$CG?$AA?$CG?$AA?5?$AAb?$AAu?$AAf?$AA?5@ 0050cd64     pjmedia-i386-win32-vc8-debug-dynamic:rtcp.obj
 0003:0000eda0       __real@3fe0000000000000    0050cda0     pjmedia-i386-win32-vc8-debug-dynamic:rtcp.obj
 0003:0000edb0       __real@41efffffffe00000    0050cdb0     pjmedia-i386-win32-vc8-debug-dynamic:rtcp.obj
 0003:0000edbc       ??_C@_0L@IOJLEJF@STATE_NULL@ 0050cdbc     pjmedia-i386-win32-vc8-debug-dynamic:sdp_neg.obj
 0003:0000edcc       ??_C@_0BC@LOEMBHAD@STATE_LOCAL_OFFER@ 0050cdcc     pjmedia-i386-win32-vc8-debug-dynamic:sdp_neg.obj
 0003:0000ede4       ??_C@_0BD@EIDNGBFC@STATE_REMOTE_OFFER@ 0050cde4     pjmedia-i386-win32-vc8-debug-dynamic:sdp_neg.obj
 0003:0000edfc       ??_C@_0BA@GHLPEJJC@STATE_WAIT_NEGO@ 0050cdfc     pjmedia-i386-win32-vc8-debug-dynamic:sdp_neg.obj
 0003:0000ee10       ??_C@_0L@KPLLHEOI@STATE_DONE@ 0050ce10     pjmedia-i386-win32-vc8-debug-dynamic:sdp_neg.obj
 0003:0000ee20       ??_C@_0M@GGDBIFHF@?$DM?$DPUNKNOWN?$DP?$DO@ 0050ce20     pjmedia-i386-win32-vc8-debug-dynamic:sdp_neg.obj
 0003:0000ee30       ??_C@_1GK@OCLPGLGG@?$AAd?$AA?3?$AA?2?$AAp?$AAj?$AAs?$AAi?$AAp?$AA?2?$AAp?$AAj?$AAp?$AAr?$AAo?$AAj@ 0050ce30     pjmedia-i386-win32-vc8-debug-dynamic:sdp_neg.obj
 0003:0000eeb0       ??_C@_1CO@BIHDCGML@?$AAp?$AAo?$AAo?$AAl?$AA?5?$AA?$CG?$AA?$CG?$AA?5?$AAl?$AAo?$AAc?$AAa?$AAl?$AA?5?$AA?$CG@ 0050ceb0     pjmedia-i386-win32-vc8-debug-dynamic:sdp_neg.obj
 0003:0000eee8       ??_C@_1GC@HGHONHEF@?$AA?$CI?$AAs?$AAt?$AAa?$AAt?$AAu?$AAs?$AA?$DN?$AAp?$AAj?$AAm?$AAe?$AAd?$AAi?$AAa@ 0050cee8     pjmedia-i386-win32-vc8-debug-dynamic:sdp_neg.obj
 0003:0000ef60       ??_C@_1CG@ODCIHMBL@?$AAn?$AAe?$AAg?$AA?5?$AA?$CB?$AA?$DN?$AA?5?$AA?$CI?$AA?$CI?$AAv?$AAo?$AAi?$AAd?$AA?5?$AA?$CK@ 0050cf60     pjmedia-i386-win32-vc8-debug-dynamic:sdp_neg.obj
 0003:0000ef90       ??_C@_1DA@OIINGHHD@?$AAp?$AAo?$AAo?$AAl?$AA?5?$AA?$CG?$AA?$CG?$AA?5?$AAr?$AAe?$AAm?$AAo?$AAt?$AAe?$AA?5@ 0050cf90     pjmedia-i386-win32-vc8-debug-dynamic:sdp_neg.obj
 0003:0000efd0       ??_C@_1GG@PECOMAOP@?$AA?$CI?$AAs?$AAt?$AAa?$AAt?$AAu?$AAs?$AA?$DN?$AAp?$AAj?$AAm?$AAe?$AAd?$AAi?$AAa@ 0050cfd0     pjmedia-i386-win32-vc8-debug-dynamic:sdp_neg.obj
 0003:0000f04c       ??_C@_17KBHEMDEM@?$AAn?$AAe?$AAg@ 0050d04c     pjmedia-i386-win32-vc8-debug-dynamic:sdp_neg.obj
 0003:0000f058       ??_C@_1BK@EHEOGFDG@?$AAn?$AAe?$AAg?$AA?5?$AA?$CG?$AA?$CG?$AA?5?$AAl?$AAo?$AAc?$AAa?$AAl@ 0050d058     pjmedia-i386-win32-vc8-debug-dynamic:sdp_neg.obj
 0003:0000f078       ??_C@_1CM@IILFABKL@?$AAn?$AAe?$AAg?$AA?9?$AA?$DO?$AAa?$AAc?$AAt?$AAi?$AAv?$AAe?$AA_?$AAl?$AAo?$AAc@ 0050d078     pjmedia-i386-win32-vc8-debug-dynamic:sdp_neg.obj
 0003:0000f0ac       ??_C@_1BM@BLOEGHCH@?$AAn?$AAe?$AAg?$AA?5?$AA?$CG?$AA?$CG?$AA?5?$AAr?$AAe?$AAm?$AAo?$AAt?$AAe@ 0050d0ac     pjmedia-i386-win32-vc8-debug-dynamic:sdp_neg.obj
 0003:0000f0d0       ??_C@_1CO@ENJJGIJO@?$AAn?$AAe?$AAg?$AA?9?$AA?$DO?$AAa?$AAc?$AAt?$AAi?$AAv?$AAe?$AA_?$AAr?$AAe?$AAm@ 0050d0d0     pjmedia-i386-win32-vc8-debug-dynamic:sdp_neg.obj
 0003:0000f108       ??_C@_1CI@MEEGDBKJ@?$AAn?$AAe?$AAg?$AA?9?$AA?$DO?$AAn?$AAe?$AAg?$AA_?$AAr?$AAe?$AAm?$AAo?$AAt?$AAe@ 0050d108     pjmedia-i386-win32-vc8-debug-dynamic:sdp_neg.obj
 0003:0000f138       ??_C@_1CG@EMHJKAGA@?$AAn?$AAe?$AAg?$AA?9?$AA?$DO?$AAn?$AAe?$AAg?$AA_?$AAl?$AAo?$AAc?$AAa?$AAl?$AA_@ 0050d138     pjmedia-i386-win32-vc8-debug-dynamic:sdp_neg.obj
 0003:0000f168       ??_C@_09PFCHIMEP@127?40?40?41@ 0050d168     pjmedia-i386-win32-vc8-debug-dynamic:sdp_neg.obj
 0003:0000f174       ??_C@_1CK@MOEHLEB@?$AAp?$AAo?$AAo?$AAl?$AA?5?$AA?$CG?$AA?$CG?$AA?5?$AAn?$AAe?$AAg?$AA?5?$AA?$CG?$AA?$CG?$AA?5@ 0050d174     pjmedia-i386-win32-vc8-debug-dynamic:sdp_neg.obj
 0003:0000f1a8       ??_C@_1FC@GKFIFDHE@?$AAn?$AAe?$AAg?$AA?9?$AA?$DO?$AAs?$AAt?$AAa?$AAt?$AAe?$AA?5?$AA?$DN?$AA?$DN?$AA?5?$AAP@ 0050d1a8     pjmedia-i386-win32-vc8-debug-dynamic:sdp_neg.obj
 0003:0000f20c       ??_C@_1BK@KPHCPANC@?$AAn?$AAe?$AAg?$AA?5?$AA?$CG?$AA?$CG?$AA?5?$AAo?$AAf?$AAf?$AAe?$AAr@ 0050d20c     pjmedia-i386-win32-vc8-debug-dynamic:sdp_neg.obj
 0003:0000f230       ??_C@_1LI@MPFBNOJN@?$AAn?$AAe?$AAg?$AA?9?$AA?$DO?$AAs?$AAt?$AAa?$AAt?$AAe?$AA?5?$AA?$DN?$AA?$DN?$AA?5?$AAP@ 0050d230     pjmedia-i386-win32-vc8-debug-dynamic:sdp_neg.obj
 0003:0000f30c       ??_C@_1CM@IBJFPONP@?$AAp?$AAo?$AAo?$AAl?$AA?5?$AA?$CG?$AA?$CG?$AA?5?$AAn?$AAe?$AAg?$AA?5?$AA?$CG?$AA?$CG?$AA?5@ 0050d30c     pjmedia-i386-win32-vc8-debug-dynamic:sdp_neg.obj
 0003:0000f340       ??_C@_1GA@FIIIPKBJ@?$AAn?$AAe?$AAg?$AA?9?$AA?$DO?$AAs?$AAt?$AAa?$AAt?$AAe?$AA?5?$AA?$DN?$AA?$DN?$AA?5?$AAP@ 0050d340     pjmedia-i386-win32-vc8-debug-dynamic:sdp_neg.obj
 0003:0000f3b8       ??_C@_1ME@NDOLNKDA@?$AAn?$AAe?$AAg?$AA?9?$AA?$DO?$AAs?$AAt?$AAa?$AAt?$AAe?$AA?5?$AA?$DN?$AA?$DN?$AA?5?$AAP@ 0050d3b8     pjmedia-i386-win32-vc8-debug-dynamic:sdp_neg.obj
 0003:0000f4a4       ??_C@_1CC@OKPJAMKA@?$AAn?$AAe?$AAg?$AA?9?$AA?$DO?$AAi?$AAn?$AAi?$AAt?$AAi?$AAa?$AAl?$AA_?$AAs?$AAd@ 0050d4a4     pjmedia-i386-win32-vc8-debug-dynamic:sdp_neg.obj
 0003:0000f4d0       ??_C@_1GG@LIOHPLMA@?$AAn?$AAe?$AAg?$AA?5?$AA?$CG?$AA?$CG?$AA?5?$AAn?$AAe?$AAg?$AA?9?$AA?$DO?$AAs?$AAt?$AAa@ 0050d4d0     pjmedia-i386-win32-vc8-debug-dynamic:sdp_neg.obj
 0003:0000f54c       ??_C@_0CG@CJAMDJJ@Bug?$CB?5Offer?5should?5have?5been?5val@ 0050d54c     pjmedia-i386-win32-vc8-debug-dynamic:sdp_neg.obj
 0003:0000f580       ??_C@_1FC@PEPJHFED@?$AA?$CB?$AA?$CC?$AAB?$AAu?$AAg?$AA?$CB?$AA?5?$AAO?$AAf?$AAf?$AAe?$AAr?$AA?5?$AAs?$AAh@ 0050d580     pjmedia-i386-win32-vc8-debug-dynamic:sdp_neg.obj
 0003:0000f5e8       ??_C@_1EI@KGILKNJJ@?$AAp?$AAo?$AAo?$AAl?$AA?5?$AA?$CG?$AA?$CG?$AA?5?$AAo?$AAf?$AAf?$AAe?$AAr?$AA?5?$AA?$CG@ 0050d5e8     pjmedia-i386-win32-vc8-debug-dynamic:sdp_neg.obj
 0003:0000f640       ??_C@_0BA@LLGGBELL@telephone?9event@ 0050d640     pjmedia-i386-win32-vc8-debug-dynamic:sdp_neg.obj
 0003:0000f654       ??_C@_1DI@DPPKCGOE@?$AAj?$AA?5?$AA?$CB?$AA?$DN?$AA?5?$AAa?$AAn?$AAs?$AAw?$AAe?$AAr?$AA?9?$AA?$DO?$AAd?$AAe@ 0050d654     pjmedia-i386-win32-vc8-debug-dynamic:sdp_neg.obj
 0003:0000f698       ??_C@_1GC@OOAAOFOB@?$AA?$CI?$AAs?$AAt?$AAa?$AAt?$AAu?$AAs?$AA?$DN?$AAp?$AAj?$AAm?$AAe?$AAd?$AAi?$AAa@ 0050d698     pjmedia-i386-win32-vc8-debug-dynamic:sdp_neg.obj
 0003:0000f710       ??_C@_1CM@JLIIIFIP@?$AAa?$AAn?$AAs?$AAw?$AAe?$AAr?$AA?5?$AA?$CB?$AA?$DN?$AA?5?$AA?$CI?$AA?$CI?$AAv?$AAo?$AAi@ 0050d710     pjmedia-i386-win32-vc8-debug-dynamic:sdp_neg.obj
 0003:0000f744       ??_C@_1CE@LIKNPNMD@?$AAa?$AAm?$AA?5?$AA?$CB?$AA?$DN?$AA?5?$AA?$CI?$AA?$CI?$AAv?$AAo?$AAi?$AAd?$AA?5?$AA?$CK?$AA?$CJ@ 0050d744     pjmedia-i386-win32-vc8-debug-dynamic:sdp_neg.obj
 0003:0000f770       ??_C@_1MI@BDKAAFME@?$AAn?$AAe?$AAg?$AA?9?$AA?$DO?$AAs?$AAt?$AAa?$AAt?$AAe?$AA?5?$AA?$DN?$AA?$DN?$AA?5?$AAP@ 0050d770     pjmedia-i386-win32-vc8-debug-dynamic:sdp_neg.obj
 0003:0000f860       ??_C@_1BI@GMNMAAAO@?$AAp?$AAo?$AAo?$AAl?$AA?5?$AA?$CG?$AA?$CG?$AA?5?$AAn?$AAe?$AAg@ 0050d860     pjmedia-i386-win32-vc8-debug-dynamic:sdp_neg.obj
 0003:0000f880       ??_C@_1FM@DDLFDONI@?$AAn?$AAe?$AAg?$AA?9?$AA?$DO?$AAs?$AAt?$AAa?$AAt?$AAe?$AA?5?$AA?$DN?$AA?$DN?$AA?5?$AAP@ 0050d880     pjmedia-i386-win32-vc8-debug-dynamic:sdp_neg.obj
 0003:0000f8f0       ??_C@_1CG@MHJCFLPH@?$AAf?$AAm?$AAt?$AA_?$AAm?$AAa?$AAt?$AAc?$AAh?$AA_?$AAc?$AAb?$AA?$FL?$AAi?$AA?$FN@ 0050d8f0     pjmedia-i386-win32-vc8-debug-dynamic:sdp_neg.obj
 0003:0000f920       ??_C@_1BC@JHIJPNMJ@?$AAf?$AAm?$AAt?$AA_?$AAn?$AAa?$AAm?$AAe@ 0050d920     pjmedia-i386-win32-vc8-debug-dynamic:sdp_neg.obj
 0003:0000f938       ??_C@_0CC@FGBDGKAP@Bug?$CB?5Offer?5haven?8t?5been?5validat@ 0050d938     pjmedia-i386-win32-vc8-debug-dynamic:sdp_neg.obj
 0003:0000f960       ??_C@_1EK@FBCHIPHB@?$AA?$CB?$AA?$CC?$AAB?$AAu?$AAg?$AA?$CB?$AA?5?$AAO?$AAf?$AAf?$AAe?$AAr?$AA?5?$AAh?$AAa@ 0050d960     pjmedia-i386-win32-vc8-debug-dynamic:sdp_neg.obj
 0003:0000f9b8       ??_C@_0CD@PFKCFEFA@Bug?$CB?5Answer?5haven?8t?5been?5valida@ 0050d9b8     pjmedia-i386-win32-vc8-debug-dynamic:sdp_neg.obj
 0003:0000f9e8       ??_C@_1EM@DJCGELCI@?$AA?$CB?$AA?$CC?$AAB?$AAu?$AAg?$AA?$CB?$AA?5?$AAA?$AAn?$AAs?$AAw?$AAe?$AAr?$AA?5?$AAh@ 0050d9e8     pjmedia-i386-win32-vc8-debug-dynamic:sdp_neg.obj
 0003:0000fa80       ??_C@_0BF@BDOEAPGC@sprop?9maxcapturerate@ 0050da80     pjmedia-i386-win32-vc8-debug-dynamic:stream_info.obj
 0003:0000fa9c       ??_C@_0N@LGCDEDLG@sprop?9stereo@ 0050da9c     pjmedia-i386-win32-vc8-debug-dynamic:stream_info.obj
 0003:0000faac       ??_C@_0BA@PAFFCOOK@maxplaybackrate@ 0050daac     pjmedia-i386-win32-vc8-debug-dynamic:stream_info.obj
 0003:0000fac0       ??_C@_06BDDNELGJ@stereo@   0050dac0     pjmedia-i386-win32-vc8-debug-dynamic:stream_info.obj
 0003:0000fac8       ??_C@_04BPKIMIGM@opus@     0050dac8     pjmedia-i386-win32-vc8-debug-dynamic:stream_info.obj
 0003:0000fad0       ??_C@_05FHOGGKIK@ptime@    0050dad0     pjmedia-i386-win32-vc8-debug-dynamic:stream_info.obj
 0003:0000fad8       ??_C@_08GOMHIHBN@maxptime@ 0050dad8     pjmedia-i386-win32-vc8-debug-dynamic:stream_info.obj
 0003:0000fae8       ??_C@_1HC@HBLGIGJM@?$AAd?$AA?3?$AA?2?$AAp?$AAj?$AAs?$AAi?$AAp?$AA?2?$AAp?$AAj?$AAp?$AAr?$AAo?$AAj@ 0050dae8     pjmedia-i386-win32-vc8-debug-dynamic:stream_info.obj
 0003:0000fb70       ??_C@_1DM@PABICPNM@?$AAp?$AAo?$AAo?$AAl?$AA?5?$AA?$CG?$AA?$CG?$AA?5?$AAs?$AAi?$AA?5?$AA?$CG?$AA?$CG?$AA?5?$AAl@ 0050db70     pjmedia-i386-win32-vc8-debug-dynamic:stream_info.obj
 0003:0000fbb8       ??_C@_1EA@MMNABCAE@?$AAs?$AAt?$AAr?$AAe?$AAa?$AAm?$AA_?$AAi?$AAd?$AAx?$AA?5?$AA?$DM?$AA?5?$AAl?$AAo@ 0050dbb8     pjmedia-i386-win32-vc8-debug-dynamic:stream_info.obj
 0003:0000fc08       ??_C@_1EC@JLEIPHEN@?$AAs?$AAt?$AAr?$AAe?$AAa?$AAm?$AA_?$AAi?$AAd?$AAx?$AA?5?$AA?$DM?$AA?5?$AAr?$AAe@ 0050dc08     pjmedia-i386-win32-vc8-debug-dynamic:stream_info.obj
 0003:0000fc58       ??_C@_09FMIECHHF@candidate@ 0050dc58     pjmedia-i386-win32-vc8-debug-dynamic:stream_info.obj
 0003:0000fc64       ??_C@_08BLAEFJPP@rtcp?9mux@ 0050dc64     pjmedia-i386-win32-vc8-debug-dynamic:stream_info.obj
 0003:0000fc80       ??_C@_1HG@ECBKGEJG@?$AAd?$AA?3?$AA?2?$AAp?$AAj?$AAs?$AAi?$AAp?$AA?2?$AAp?$AAj?$AAp?$AAr?$AAo?$AAj@ 0050dc80     pjmedia-i386-win32-vc8-debug-dynamic:transport_udp.obj
 0003:0000fd10       ??_C@_1CM@KFFCHNBN@?$AAe?$AAn?$AAd?$AAp?$AAt?$AA?5?$AA?$CG?$AA?$CG?$AA?5?$AAp?$AAo?$AAr?$AAt?$AA?5?$AA?$CG@ 0050dd10     pjmedia-i386-win32-vc8-debug-dynamic:transport_udp.obj
 0003:0000fd44       ??_C@_1CI@PMPEEJBP@?$AAe?$AAn?$AAd?$AAp?$AAt?$AA?5?$AA?$CG?$AA?$CG?$AA?5?$AAs?$AAi?$AA?5?$AA?$CG?$AA?$CG?$AA?5@ 0050dd44     pjmedia-i386-win32-vc8-debug-dynamic:transport_udp.obj
 0003:0000fd74       ??_C@_0DF@BFHKOPKN@RX?5RTP?5packet?5dropped?5because?5o@ 0050dd74     pjmedia-i386-win32-vc8-debug-dynamic:transport_udp.obj
 0003:0000fdb4       ??_C@_0CC@MIINFHKB@Remote?5RTP?5address?5switched?5to?5@ 0050ddb4     pjmedia-i386-win32-vc8-debug-dynamic:transport_udp.obj
 0003:0000fddc       ??_C@_0DF@CBHGCLPC@Remote?5RTCP?5address?5switched?5to@ 0050dddc     pjmedia-i386-win32-vc8-debug-dynamic:transport_udp.obj
 0003:0000fe1c       ??_C@_0CD@KDFPBNLA@Remote?5RTCP?5address?5switched?5to@ 0050de1c     pjmedia-i386-win32-vc8-debug-dynamic:transport_udp.obj
 0003:0000fe48       ??_C@_1BG@EOJHKJHM@?$AAt?$AAp?$AA?5?$AA?$CG?$AA?$CG?$AA?5?$AAi?$AAn?$AAf?$AAo@ 0050de48     pjmedia-i386-win32-vc8-debug-dynamic:transport_udp.obj
 0003:0000fe64       ??_C@_1DG@DEIMONIE@?$AAt?$AAp?$AA?5?$AA?$CG?$AA?$CG?$AA?5?$AAr?$AAe?$AAm?$AA_?$AAa?$AAd?$AAd?$AAr?$AA?5@ 0050de64     pjmedia-i386-win32-vc8-debug-dynamic:transport_udp.obj
 0003:0000fea4       ??_C@_0DD@JENKINAB@Failed?5to?5synthesize?5the?5correc@ 0050dea4     pjmedia-i386-win32-vc8-debug-dynamic:transport_udp.obj
 0003:0000fee4       ??_C@_0DE@NDEIKKGG@Failed?5to?5synthesize?5the?5correc@ 0050dee4     pjmedia-i386-win32-vc8-debug-dynamic:transport_udp.obj
 0003:0000ff28       ??_C@_1FO@GKOOEHJD@?$AA?$CB?$AAu?$AAd?$AAp?$AA?9?$AA?$DO?$AAu?$AAs?$AAe?$AAr?$AA_?$AAd?$AAa?$AAt?$AAa@ 0050df28     pjmedia-i386-win32-vc8-debug-dynamic:transport_udp.obj
 0003:0000ff98       ??_C@_1BK@BKMMDFB@?$AAs?$AAi?$AAz?$AAe?$AA?5?$AA?$DM?$AA?$DN?$AA?5?$AA1?$AA5?$AA0?$AA0@ 0050df98     pjmedia-i386-win32-vc8-debug-dynamic:transport_udp.obj
 0003:0000ffb8       ??_C@_0DF@MINIEIGK@TX?5RTP?5packet?5dropped?5because?5o@ 0050dfb8     pjmedia-i386-win32-vc8-debug-dynamic:transport_udp.obj
 0003:0000fff8       ??_C@_1BG@GMDMPNOG@?$AAt?$AAp?$AA?5?$AA?$CG?$AA?$CG?$AA?5?$AAp?$AAo?$AAo?$AAl@ 0050dff8     pjmedia-i386-win32-vc8-debug-dynamic:transport_udp.obj
 0003:00010014       ??_C@_1CM@NEDAEJAI@?$AAt?$AAp?$AA?5?$AA?$CG?$AA?$CG?$AA?5?$AAp?$AAc?$AAt?$AA_?$AAl?$AAo?$AAs?$AAt?$AA?5@ 0050e014     pjmedia-i386-win32-vc8-debug-dynamic:transport_udp.obj
 0003:00010048       ??_C@_07GBKCPIDJ@ext?9fmt@ 0050e048     pjmedia-i386-win32-vc8-debug-dynamic:audiodev.obj
 0003:00010054       ??_C@_0BI@GGHCECPI@Extended?1non?9PCM?5format@ 0050e054     pjmedia-i386-win32-vc8-debug-dynamic:audiodev.obj
 0003:00010070       ??_C@_0L@IKNMBADD@latency?9in@ 0050e070     pjmedia-i386-win32-vc8-debug-dynamic:audiodev.obj
 0003:00010080       ??_C@_0CC@LIGOHOJN@Input?5latency?1buffer?5size?5setti@ 0050e080     pjmedia-i386-win32-vc8-debug-dynamic:audiodev.obj
 0003:000100a8       ??_C@_0M@MBBBBCLJ@latency?9out@ 0050e0a8     pjmedia-i386-win32-vc8-debug-dynamic:audiodev.obj
 0003:000100b8       ??_C@_0CD@GAINMBC@Output?5latency?1buffer?5size?5sett@ 0050e0b8     pjmedia-i386-win32-vc8-debug-dynamic:audiodev.obj
 0003:000100e4       ??_C@_06KGGLCDDG@vol?9in@  0050e0e4     pjmedia-i386-win32-vc8-debug-dynamic:audiodev.obj
 0003:000100ec       ??_C@_0BF@CCEKOJAN@Input?5volume?5setting@ 0050e0ec     pjmedia-i386-win32-vc8-debug-dynamic:audiodev.obj
 0003:00010108       ??_C@_07LBFHFBAF@vol?9out@ 0050e108     pjmedia-i386-win32-vc8-debug-dynamic:audiodev.obj
 0003:00010114       ??_C@_0BG@IBEHJHAD@Output?5volume?5setting@ 0050e114     pjmedia-i386-win32-vc8-debug-dynamic:audiodev.obj
 0003:00010130       ??_C@_08BPNDLGG@meter?9in@ 0050e130     pjmedia-i386-win32-vc8-debug-dynamic:audiodev.obj
 0003:0001013c       ??_C@_0M@NCGIGNPG@Input?5meter@ 0050e13c     pjmedia-i386-win32-vc8-debug-dynamic:audiodev.obj
 0003:0001014c       ??_C@_09NKJLJGOJ@meter?9out@ 0050e14c     pjmedia-i386-win32-vc8-debug-dynamic:audiodev.obj
 0003:00010158       ??_C@_0N@GBEOEOEP@Output?5meter@ 0050e158     pjmedia-i386-win32-vc8-debug-dynamic:audiodev.obj
 0003:00010168       ??_C@_08FPHJDLBG@route?9in@ 0050e168     pjmedia-i386-win32-vc8-debug-dynamic:audiodev.obj
 0003:00010174       ??_C@_0O@JDPFDDM@Input?5routing@ 0050e174     pjmedia-i386-win32-vc8-debug-dynamic:audiodev.obj
 0003:00010184       ??_C@_09IKMAGDNF@route?9out@ 0050e184     pjmedia-i386-win32-vc8-debug-dynamic:audiodev.obj
 0003:00010190       ??_C@_0P@JOFPIEJJ@Output?5routing@ 0050e190     pjmedia-i386-win32-vc8-debug-dynamic:audiodev.obj
 0003:000101a4       ??_C@_03FNONIBCK@aec@      0050e1a4     pjmedia-i386-win32-vc8-debug-dynamic:audiodev.obj
 0003:000101a8       ??_C@_0BM@HPDLGLFJ@Accoustic?5echo?5cancellation@ 0050e1a8     pjmedia-i386-win32-vc8-debug-dynamic:audiodev.obj
 0003:000101cc       ??_C@_08MKAPJCJE@aec?9tail@ 0050e1cc     pjmedia-i386-win32-vc8-debug-dynamic:audiodev.obj
 0003:000101d8       ??_C@_0BM@PBLLADJD@Tail?5length?5setting?5for?5AEC@ 0050e1d8     pjmedia-i386-win32-vc8-debug-dynamic:audiodev.obj
 0003:000101fc       ??_C@_03NIGLNABH@vad@      0050e1fc     pjmedia-i386-win32-vc8-debug-dynamic:audiodev.obj
 0003:00010200       ??_C@_0BJ@PEELNNPF@Voice?5activity?5detection@ 0050e200     pjmedia-i386-win32-vc8-debug-dynamic:audiodev.obj
 0003:00010220       ??_C@_03JPNNGDEE@cng@      0050e220     pjmedia-i386-win32-vc8-debug-dynamic:audiodev.obj
 0003:00010224       ??_C@_0BJ@MNDOFJGN@Comfort?5noise?5generation@ 0050e224     pjmedia-i386-win32-vc8-debug-dynamic:audiodev.obj
 0003:00010244       ??_C@_03NOPFEPFL@plg@      0050e244     pjmedia-i386-win32-vc8-debug-dynamic:audiodev.obj
 0003:00010248       ??_C@_0BI@OMEMKBHH@Packet?5loss?5concealment@ 0050e248     pjmedia-i386-win32-vc8-debug-dynamic:audiodev.obj
 0003:00010268       ??_C@_0EF@NLCNMHAD@?$CFd?5device?$CIs?$CJ?5cannot?5be?5register@ 0050e268     pjmedia-i386-win32-vc8-debug-dynamic:audiodev.obj
 0003:000102bc       ??_C@_0L@FGHHAHLM@audiodev?4c@ 0050e2bc     pjmedia-i386-win32-vc8-debug-dynamic:audiodev.obj
 0003:000102cc       ??_C@_0CF@NNKJIABC@Unable?5to?5refresh?5device?5list?5f@ 0050e2cc     pjmedia-i386-win32-vc8-debug-dynamic:audiodev.obj
 0003:000102f8       ??_C@_1GM@HCIKPGPN@?$AAd?$AA?3?$AA?2?$AAp?$AAj?$AAs?$AAi?$AAp?$AA?2?$AAp?$AAj?$AAp?$AAr?$AAo?$AAj@ 0050e2f8     pjmedia-i386-win32-vc8-debug-dynamic:audiodev.obj
 0003:0001037c       ??_C@_1DE@BIILPEEH@?$AAa?$AAu?$AAd?$AA_?$AAs?$AAu?$AAb?$AAs?$AAy?$AAs?$AA?4?$AAd?$AAr?$AAv?$AA?$FL@ 0050e37c     pjmedia-i386-win32-vc8-debug-dynamic:audiodev.obj
 0003:000103c0       ??_C@_1GG@CMJIPMBM@?$AA?$CK?$AAi?$AAd?$AA?$DO?$AA?$DN?$AA0?$AA?5?$AA?$CG?$AA?$CG?$AA?5?$AA?$CK?$AAi?$AAd?$AA?$DM?$AA?$CI@ 0050e3c0     pjmedia-i386-win32-vc8-debug-dynamic:audiodev.obj
 0003:00010440       ??_C@_1EI@NEALAIDF@?$AAi?$AAn?$AAf?$AAo?$AA?5?$AA?$CG?$AA?$CG?$AA?5?$AAi?$AAd?$AA?$CB?$AA?$DN?$AAP?$AAJ?$AAM@ 0050e440     pjmedia-i386-win32-vc8-debug-dynamic:audiodev.obj
 0003:00010498       ??_C@_1BM@DPBJELLN@?$AAa?$AAu?$AAd?$AA_?$AAs?$AAu?$AAb?$AAs?$AAy?$AAs?$AA?4?$AAp?$AAf@ 0050e498     pjmedia-i386-win32-vc8-debug-dynamic:audiodev.obj
 0003:000104bc       ??_C@_1DG@KGHCCJGJ@?$AAd?$AAr?$AAv?$AA_?$AAn?$AAa?$AAm?$AAe?$AA?5?$AA?$CG?$AA?$CG?$AA?5?$AAd?$AAe?$AAv@ 0050e4bc     pjmedia-i386-win32-vc8-debug-dynamic:audiodev.obj
 0003:00010500       ??_C@_1EK@DJOOKBNF@?$AAp?$AAa?$AAr?$AAa?$AAm?$AA?5?$AA?$CG?$AA?$CG?$AA?5?$AAi?$AAd?$AA?$CB?$AA?$DN?$AAP?$AAJ@ 0050e500     pjmedia-i386-win32-vc8-debug-dynamic:audiodev.obj
 0003:00010558       ??_C@_1DM@JABAMPOD@?$AAp?$AAr?$AAm?$AA?5?$AA?$CG?$AA?$CG?$AA?5?$AAp?$AAr?$AAm?$AA?9?$AA?$DO?$AAd?$AAi?$AAr@ 0050e558     pjmedia-i386-win32-vc8-debug-dynamic:audiodev.obj
 0003:000105a0       ??_C@_1NE@LCIHHDJA@?$AAp?$AAr?$AAm?$AA?9?$AA?$DO?$AAd?$AAi?$AAr?$AA?$DN?$AA?$DN?$AAP?$AAJ?$AAM?$AAE?$AAD@ 0050e5a0     pjmedia-i386-win32-vc8-debug-dynamic:audiodev.obj
 0003:000106a0       ??_C@_1CC@LOOLMMAJ@?$AAf?$AA?5?$AA?$CB?$AA?$DN?$AA?5?$AA?$CI?$AA?$CI?$AAv?$AAo?$AAi?$AAd?$AA?5?$AA?$CK?$AA?$CJ?$AA0@ 0050e6a0     pjmedia-i386-win32-vc8-debug-dynamic:audiodev.obj
 0003:000106c8       ??_C@_1IC@DBCNJHMM@?$AA?$CI?$AAp?$AAa?$AAr?$AAa?$AAm?$AA?4?$AAd?$AAi?$AAr?$AA?5?$AA?$CB?$AA?$DN?$AA?5?$AAP@ 0050e6c8     pjmedia-i386-win32-vc8-debug-dynamic:audiodev.obj
 0003:00010764       ??_C@_1BM@GLEMCIF@?$AAs?$AAt?$AAr?$AAm?$AA?5?$AA?$CG?$AA?$CG?$AA?5?$AAp?$AAa?$AAr?$AAa?$AAm@ 0050e764     pjmedia-i386-win32-vc8-debug-dynamic:audiodev.obj
 0003:00010788       ??_C@_1GG@CMLMIMHG@?$AAd?$AA?3?$AA?2?$AAp?$AAj?$AAs?$AAi?$AAp?$AA?2?$AAp?$AAj?$AAp?$AAr?$AAo?$AAj@ 0050e788     pjmedia-i386-win32-vc8-debug-dynamic:codec.obj
 0003:00010804       ??_C@_1BI@BKNDIBIA@?$AAp?$AAo?$AAo?$AAl?$AA?5?$AA?$CG?$AA?$CG?$AA?5?$AAs?$AAr?$AAc@ 0050e804     pjmedia-i386-win32-vc8-debug-dynamic:codec.obj
 0003:00010820       ??_C@_1BE@KDGOHEJD@?$AAm?$AAg?$AAr?$AA?5?$AA?$CG?$AA?$CG?$AA?5?$AAp?$AAf@ 0050e820     pjmedia-i386-win32-vc8-debug-dynamic:codec.obj
 0003:00010838       ??_C@_09GLMNEMC@codec?9mgr@ 0050e838     pjmedia-i386-win32-vc8-debug-dynamic:codec.obj
 0003:00010844       ??_C@_1DO@EEIIFHKJ@?$AAm?$AAg?$AAr?$AA?9?$AA?$DO?$AAc?$AAo?$AAd?$AAe?$AAc?$AA_?$AAd?$AAe?$AAs?$AAc@ 0050e844     pjmedia-i386-win32-vc8-debug-dynamic:codec.obj
 0003:00010890       ??_C@_1BO@BNPCENCC@?$AAm?$AAg?$AAr?$AA?5?$AA?$CG?$AA?$CG?$AA?5?$AAf?$AAa?$AAc?$AAt?$AAo?$AAr?$AAy@ 0050e890     pjmedia-i386-win32-vc8-debug-dynamic:codec.obj
 0003:000108b8       ??_C@_1EI@LPEKDADD@?$AAf?$AAa?$AAc?$AAt?$AAo?$AAr?$AAy?$AA?9?$AA?$DO?$AAo?$AAp?$AA?9?$AA?$DO?$AAd?$AAe@ 0050e8b8     pjmedia-i386-win32-vc8-debug-dynamic:codec.obj
 0003:00010910       ??_C@_1CO@FACHMPOK@?$AAm?$AAg?$AAr?$AA?5?$AA?$CG?$AA?$CG?$AA?5?$AAc?$AAo?$AAu?$AAn?$AAt?$AA?5?$AA?$CG?$AA?$CG@ 0050e910     pjmedia-i386-win32-vc8-debug-dynamic:codec.obj
 0003:00010948       ??_C@_1EE@JECMOLIN@?$AAm?$AAg?$AAr?$AA?5?$AA?$CG?$AA?$CG?$AA?5?$AAp?$AA_?$AAi?$AAn?$AAf?$AAo?$AA?5?$AA?$CG@ 0050e948     pjmedia-i386-win32-vc8-debug-dynamic:codec.obj
 0003:0001099c       ??_C@_1CM@NHECEOC@?$AAi?$AAn?$AAf?$AAo?$AA?5?$AA?$CG?$AA?$CG?$AA?5?$AAi?$AAd?$AA?5?$AA?$CG?$AA?$CG?$AA?5?$AAm@ 0050e99c     pjmedia-i386-win32-vc8-debug-dynamic:codec.obj
 0003:000109d0       ??_C@_0L@MMBOMEDE@?$CF?4?$CKs?1?$CFu?1?$CFu@ 0050e9d0     pjmedia-i386-win32-vc8-debug-dynamic:codec.obj
 0003:000109e0       ??_C@_1EG@PNDDPIBP@?$AAm?$AAg?$AAr?$AA?5?$AA?$CG?$AA?$CG?$AA?5?$AAc?$AAo?$AAd?$AAe?$AAc?$AA_?$AAi?$AAd@ 0050e9e0     pjmedia-i386-win32-vc8-debug-dynamic:codec.obj
 0003:00010a34       ??_C@_1CA@FGAKAPCG@?$AAm?$AAg?$AAr?$AA?5?$AA?$CG?$AA?$CG?$AA?5?$AAc?$AAo?$AAd?$AAe?$AAc?$AA_?$AAi?$AAd@ 0050ea34     pjmedia-i386-win32-vc8-debug-dynamic:codec.obj
 0003:00010a5c       ??_C@_1CO@PLEMIHIG@?$AAm?$AAg?$AAr?$AA?5?$AA?$CG?$AA?$CG?$AA?5?$AAi?$AAn?$AAf?$AAo?$AA?5?$AA?$CG?$AA?$CG?$AA?5@ 0050ea5c     pjmedia-i386-win32-vc8-debug-dynamic:codec.obj
 0003:00010a94       ??_C@_1CK@EGILOIOM@?$AAm?$AAg?$AAr?$AA?5?$AA?$CG?$AA?$CG?$AA?5?$AAi?$AAn?$AAf?$AAo?$AA?5?$AA?$CG?$AA?$CG?$AA?5@ 0050ea94     pjmedia-i386-win32-vc8-debug-dynamic:codec.obj
 0003:00010ac8       ??_C@_1DC@MPIDFLIE@?$AAc?$AAo?$AAd?$AAe?$AAc?$AA_?$AAd?$AAe?$AAs?$AAc?$AA?9?$AA?$DO?$AAp?$AAa?$AAr@ 0050eac8     pjmedia-i386-win32-vc8-debug-dynamic:codec.obj
 0003:00010b04       ??_C@_1BI@PNBKIADI@?$AAm?$AAg?$AAr?$AA?5?$AA?$CG?$AA?$CG?$AA?5?$AAi?$AAn?$AAf?$AAo@ 0050eb04     pjmedia-i386-win32-vc8-debug-dynamic:codec.obj
 0003:00010b20       ??_C@_1DA@EFFFDKKD@?$AAc?$AAo?$AAd?$AAe?$AAc?$AA_?$AAd?$AAe?$AAs?$AAc?$AA?9?$AA?$DO?$AAp?$AAa?$AAr@ 0050eb20     pjmedia-i386-win32-vc8-debug-dynamic:codec.obj
 0003:00010b5c       ??_C@_1BK@DFPPDNGI@?$AAm?$AAg?$AAr?$AA?5?$AA?$CG?$AA?$CG?$AA?5?$AAc?$AAo?$AAd?$AAe?$AAc@ 0050eb5c     pjmedia-i386-win32-vc8-debug-dynamic:codec.obj
 0003:00010f70       ??_C@_0CK@HBHLALIF@Unspecified?5PJMEDIA?5error?5?$CIPJME@ 0050ef70     pjmedia-i386-win32-vc8-debug-dynamic:errno.obj
 0003:00010fa4       ??_C@_0CM@KFAONKNJ@Invalid?5SDP?5descriptor?5?$CIPJMEDIA@ 0050efa4     pjmedia-i386-win32-vc8-debug-dynamic:errno.obj
 0003:00010fd8       ??_C@_0CO@ONPCFICA@Invalid?5SDP?5version?5line?5?$CIPJMED@ 0050efd8     pjmedia-i386-win32-vc8-debug-dynamic:errno.obj
 0003:00011010       ??_C@_0DA@DIKNJOEJ@Invalid?5SDP?5origin?5line?5?$CIPJMEDI@ 0050f010     pjmedia-i386-win32-vc8-debug-dynamic:errno.obj
 0003:0001104c       ??_C@_0CM@DLEAGODI@Invalid?5SDP?5time?5line?5?$CIPJMEDIA_@ 0050f04c     pjmedia-i386-win32-vc8-debug-dynamic:errno.obj
 0003:00011080       ??_C@_0DF@HNDCDPJF@SDP?5name?1subject?5line?5is?5empty?5@ 0050f080     pjmedia-i386-win32-vc8-debug-dynamic:errno.obj
 0003:000110c0       ??_C@_0DC@KNNPDHKA@Invalid?5SDP?5connection?5line?5?$CIPJ@ 0050f0c0     pjmedia-i386-win32-vc8-debug-dynamic:errno.obj
 0003:000110fc       ??_C@_0DM@NEDHCJGL@Missing?5SDP?5connection?5info?5lin@ 0050f0fc     pjmedia-i386-win32-vc8-debug-dynamic:errno.obj
 0003:00011144       ??_C@_0CN@JHLMEODJ@Invalid?5SDP?5attributes?5?$CIPJMEDIA@ 0050f144     pjmedia-i386-win32-vc8-debug-dynamic:errno.obj
 0003:0001117c       ??_C@_0DF@BJAALDOM@Invalid?5SDP?5rtpmap?5attribute?5?$CIP@ 0050f17c     pjmedia-i386-win32-vc8-debug-dynamic:errno.obj
 0003:000111bc       ??_C@_0DL@HCOGNPAF@SDP?5rtpmap?5attribute?5too?5long?5?$CI@ 0050f1bc     pjmedia-i386-win32-vc8-debug-dynamic:errno.obj
 0003:00011208       ??_C@_0EJ@IDNJACOO@Missing?5SDP?5rtpmap?5for?5dynamic?5@ 0050f208     pjmedia-i386-win32-vc8-debug-dynamic:errno.obj
 0003:00011260       ??_C@_0CO@DIKFNJOF@Invalid?5SDP?5media?5line?5?$CIPJMEDIA@ 0050f260     pjmedia-i386-win32-vc8-debug-dynamic:errno.obj
 0003:00011298       ??_C@_0DN@GADAENKO@No?5SDP?5payload?5format?5in?5the?5me@ 0050f298     pjmedia-i386-win32-vc8-debug-dynamic:errno.obj
 0003:000112e4       ??_C@_0DL@KAILPDC@Invalid?5SDP?5payload?5type?5in?5med@ 0050f2e4     pjmedia-i386-win32-vc8-debug-dynamic:errno.obj
 0003:0001132c       ??_C@_0DB@BJCACDID@Invalid?5SDP?5fmtp?5attribute?5?$CIPJM@ 0050f32c     pjmedia-i386-win32-vc8-debug-dynamic:errno.obj
 0003:00011368       ??_C@_0DB@GFBENNMO@Invalid?5SDP?5rtcp?5attribute?5?$CIPJM@ 0050f368     pjmedia-i386-win32-vc8-debug-dynamic:errno.obj
 0003:000113a4       ??_C@_0DM@JFGCNJLM@Invalid?5SDP?5media?5transport?5pro@ 0050f3a4     pjmedia-i386-win32-vc8-debug-dynamic:errno.obj
 0003:000113ec       ??_C@_0DH@PCNCDMKM@Invalid?5SDP?5bandwidth?5info?5line@ 0050f3ec     pjmedia-i386-win32-vc8-debug-dynamic:errno.obj
 0003:00011430       ??_C@_0DB@POLJHCKE@Invalid?5SDP?5ssrc?5attribute?5?$CIPJM@ 0050f430     pjmedia-i386-win32-vc8-debug-dynamic:errno.obj
 0003:00011470       ??_C@_0EF@CJNFLCEL@Invalid?5SDP?5negotiator?5state?5fo@ 0050f470     pjmedia-i386-win32-vc8-debug-dynamic:errno.obj
 0003:000114c8       ??_C@_0ED@IFOJJHNO@No?5initial?5local?5SDP?5in?5SDP?5neg@ 0050f4c8     pjmedia-i386-win32-vc8-debug-dynamic:errno.obj
 0003:00011518       ??_C@_0DL@MFMHOMBE@No?5active?5SDP?5in?5SDP?5negotiator@ 0050f518     pjmedia-i386-win32-vc8-debug-dynamic:errno.obj
 0003:00011560       ??_C@_0DN@JGPGLEOH@No?5current?5local?1remote?5offer?1a@ 0050f560     pjmedia-i386-win32-vc8-debug-dynamic:errno.obj
 0003:000115b0       ??_C@_0EE@BLNHOMNC@SDP?5media?5count?5mismatch?5in?5off@ 0050f5b0     pjmedia-i386-win32-vc8-debug-dynamic:errno.obj
 0003:00011608       ??_C@_0EG@MJOIPNIH@SDP?5media?5type?5mismatch?5in?5offe@ 0050f608     pjmedia-i386-win32-vc8-debug-dynamic:errno.obj
 0003:00011660       ??_C@_0EN@OPFCIOMP@SDP?5media?5transport?5type?5mismat@ 0050f660     pjmedia-i386-win32-vc8-debug-dynamic:errno.obj
 0003:000116c0       ??_C@_0ED@NGHPALDD@No?5common?5SDP?5media?5payload?5in?5@ 0050f6c0     pjmedia-i386-win32-vc8-debug-dynamic:errno.obj
 0003:00011710       ??_C@_0ED@HELGJJGO@No?5active?5media?5stream?5after?5ne@ 0050f710     pjmedia-i386-win32-vc8-debug-dynamic:errno.obj
 0003:00011760       ??_C@_0DP@KIMEPBPF@No?5suitable?5codec?5for?5remote?5of@ 0050f760     pjmedia-i386-win32-vc8-debug-dynamic:errno.obj
 0003:000117b0       ??_C@_0EM@LLMPLGCO@No?5suitable?5telephone?9event?5for@ 0050f7b0     pjmedia-i386-win32-vc8-debug-dynamic:errno.obj
 0003:00011810       ??_C@_0EK@LPNBCGHG@No?5suitable?5answer?5for?5unknown?5@ 0050f810     pjmedia-i386-win32-vc8-debug-dynamic:errno.obj
 0003:00011868       ??_C@_0DM@JMBBJEKO@SDP?5media?5descriptor?5not?5equal?5@ 0050f868     pjmedia-i386-win32-vc8-debug-dynamic:errno.obj
 0003:000118b0       ??_C@_0ED@KAALGBMF@Port?5in?5SDP?5media?5descriptor?5no@ 0050f8b0     pjmedia-i386-win32-vc8-debug-dynamic:errno.obj
 0003:00011900       ??_C@_0EJ@FJOJLJDF@Transport?5in?5SDP?5media?5descript@ 0050f900     pjmedia-i386-win32-vc8-debug-dynamic:errno.obj
 0003:00011958       ??_C@_0EH@FMIFCFBA@Format?5in?5SDP?5media?5descriptor?5@ 0050f958     pjmedia-i386-win32-vc8-debug-dynamic:errno.obj
 0003:000119b0       ??_C@_0DK@MAHAOAHF@SDP?5connection?5line?5not?5equal?5?$CI@ 0050f9b0     pjmedia-i386-win32-vc8-debug-dynamic:errno.obj
 0003:000119f8       ??_C@_0DF@HHCJAGLJ@SDP?5attributes?5not?5equal?5?$CIPJMED@ 0050f9f8     pjmedia-i386-win32-vc8-debug-dynamic:errno.obj
 0003:00011a38       ??_C@_0DJ@GGABIHGL@SDP?5media?5direction?5not?5equal?5?$CI@ 0050fa38     pjmedia-i386-win32-vc8-debug-dynamic:errno.obj
 0003:00011a7c       ??_C@_0DJ@FFGHKCEG@SDP?5fmtp?5attribute?5not?5equal?5?$CIP@ 0050fa7c     pjmedia-i386-win32-vc8-debug-dynamic:errno.obj
 0003:00011ac0       ??_C@_0DN@HLKACHFN@SDP?5rtpmap?5attribute?5not?5equal?5@ 0050fac0     pjmedia-i386-win32-vc8-debug-dynamic:errno.obj
 0003:00011b0c       ??_C@_0DN@EALGPLFN@SDP?5session?5descriptor?5not?5equa@ 0050fb0c     pjmedia-i386-win32-vc8-debug-dynamic:errno.obj
 0003:00011b58       ??_C@_0DI@BLKBMMGO@SDP?5origin?5line?5not?5equal?5?$CIPJME@ 0050fb58     pjmedia-i386-win32-vc8-debug-dynamic:errno.obj
 0003:00011b9c       ??_C@_0DM@HCOBINN@SDP?5name?1subject?5line?5not?5equal@ 0050fb9c     pjmedia-i386-win32-vc8-debug-dynamic:errno.obj
 0003:00011be4       ??_C@_0DE@PFJJJNGL@SDP?5time?5line?5not?5equal?5?$CIPJMEDI@ 0050fbe4     pjmedia-i386-win32-vc8-debug-dynamic:errno.obj
 0003:00011c24       ??_C@_0CP@ODMIIAEN@Unsupported?5media?5codec?5?$CIPJMEDI@ 0050fc24     pjmedia-i386-win32-vc8-debug-dynamic:errno.obj
 0003:00011c5c       ??_C@_0DG@KJBEJCIE@Codec?5internal?5creation?5error?5?$CI@ 0050fc5c     pjmedia-i386-win32-vc8-debug-dynamic:errno.obj
 0003:00011c9c       ??_C@_0DG@FOGENKNL@Codec?5frame?5is?5too?5short?5?$CIPJMED@ 0050fc9c     pjmedia-i386-win32-vc8-debug-dynamic:errno.obj
 0003:00011cdc       ??_C@_0DE@OLKJHMCL@PCM?5frame?5is?5too?5short?5?$CIPJMEDIA@ 0050fcdc     pjmedia-i386-win32-vc8-debug-dynamic:errno.obj
 0003:00011d1c       ??_C@_0DF@JDAOLAOM@Invalid?5codec?5frame?5length?5?$CIPJM@ 0050fd1c     pjmedia-i386-win32-vc8-debug-dynamic:errno.obj
 0003:00011d5c       ??_C@_0DG@LLBBCNCG@Invalid?5PCM?5frame?5length?5?$CIPJMED@ 0050fd5c     pjmedia-i386-win32-vc8-debug-dynamic:errno.obj
 0003:00011d9c       ??_C@_0DG@EKMGLMFL@Invalid?5codec?5mode?5?$CIno?5fmtp?$DP?$CJ?5?$CI@ 0050fd9c     pjmedia-i386-win32-vc8-debug-dynamic:errno.obj
 0003:00011ddc       ??_C@_0DJ@NJFBGAOC@Bad?5or?5corrupted?5bitstream?5?$CIPJM@ 0050fddc     pjmedia-i386-win32-vc8-debug-dynamic:errno.obj
 0003:00011e20       ??_C@_0DH@KOBKDDJI@Invalid?5remote?5media?5?$CIIP?$CJ?5addre@ 0050fe20     pjmedia-i386-win32-vc8-debug-dynamic:errno.obj
 0003:00011e64       ??_C@_0DM@GBJMMNCF@Asymetric?5media?5codec?5is?5not?5su@ 0050fe64     pjmedia-i386-win32-vc8-debug-dynamic:errno.obj
 0003:00011eac       ??_C@_0DA@DKJJFGPE@Invalid?5media?5payload?5type?5?$CIPJM@ 0050feac     pjmedia-i386-win32-vc8-debug-dynamic:errno.obj
 0003:00011ee8       ??_C@_0DN@IGGOEBDI@Missing?5rtpmap?5in?5media?5descrip@ 0050fee8     pjmedia-i386-win32-vc8-debug-dynamic:errno.obj
 0003:00011f34       ??_C@_0CO@MJBLNMMI@Invalid?5media?5type?5?$CIPJMEDIA_EIN@ 0050ff34     pjmedia-i386-win32-vc8-debug-dynamic:errno.obj
 0003:00011f6c       ??_C@_0DF@NNKPPHHC@Remote?5does?5not?5support?5DTMF?5?$CIP@ 0050ff6c     pjmedia-i386-win32-vc8-debug-dynamic:errno.obj
 0003:00011fac       ??_C@_0CJ@ECIKMCPH@Invalid?5DTMF?5digit?5?$CIPJMEDIA_RTP@ 0050ffac     pjmedia-i386-win32-vc8-debug-dynamic:errno.obj
 0003:00011fe0       ??_C@_0DN@EHCPFJJN@Remote?5does?5not?5support?5RFC?5283@ 0050ffe0     pjmedia-i386-win32-vc8-debug-dynamic:errno.obj
 0003:0001202c       ??_C@_0BN@LMCOIKH@Bad?5format?5?$CIPJMEDIA_EBADFMT?$CJ@ 0051002c     pjmedia-i386-win32-vc8-debug-dynamic:errno.obj
 0003:00012050       ??_C@_0DB@GBKLBGPK@Unsupported?5media?5type?5?$CIPJMEDIA@ 00510050     pjmedia-i386-win32-vc8-debug-dynamic:errno.obj
 0003:0001208c       ??_C@_0CI@KDAMKHEL@Invalid?5RTP?5packet?5?$CIPJMEDIA_RTP@ 0051008c     pjmedia-i386-win32-vc8-debug-dynamic:errno.obj
 0003:000120bc       ??_C@_0DL@KLDJIJLI@Invalid?5RTP?5packing?5?$CIinternal?5e@ 005100bc     pjmedia-i386-win32-vc8-debug-dynamic:errno.obj
 0003:00012104       ??_C@_0CJ@NGKNCMFA@Invalid?5RTP?5version?5?$CIPJMEDIA_RT@ 00510104     pjmedia-i386-win32-vc8-debug-dynamic:errno.obj
 0003:00012138       ??_C@_0DC@PFPAEINL@RTP?5packet?5SSRC?5id?5mismatch?5?$CIPJ@ 00510138     pjmedia-i386-win32-vc8-debug-dynamic:errno.obj
 0003:00012174       ??_C@_0DF@KDOADJLK@RTP?5packet?5payload?5type?5mismatc@ 00510174     pjmedia-i386-win32-vc8-debug-dynamic:errno.obj
 0003:000121b4       ??_C@_0CP@OBFABIAL@Invalid?5RTP?5packet?5length?5?$CIPJME@ 005101b4     pjmedia-i386-win32-vc8-debug-dynamic:errno.obj
 0003:000121ec       ??_C@_0DB@HLHLKEBJ@RTP?5session?5restarted?5?$CIPJMEDIA_@ 005101ec     pjmedia-i386-win32-vc8-debug-dynamic:errno.obj
 0003:00012228       ??_C@_0DG@OPPFJBGL@RTP?5session?5in?5probation?5?$CIPJMED@ 00510228     pjmedia-i386-win32-vc8-debug-dynamic:errno.obj
 0003:00012268       ??_C@_0DI@LFLLIJCB@Bad?5sequence?5number?5in?5RTP?5pack@ 00510268     pjmedia-i386-win32-vc8-debug-dynamic:errno.obj
 0003:000122b0       ??_C@_0EE@PHAAOPAG@RTP?5media?5port?5destination?5is?5n@ 005102b0     pjmedia-i386-win32-vc8-debug-dynamic:errno.obj
 0003:00012304       ??_C@_0CO@BFKJOFNE@RTP?5is?5not?5configured?5?$CIPJMEDIA_@ 00510304     pjmedia-i386-win32-vc8-debug-dynamic:errno.obj
 0003:0001233c       ??_C@_0DI@MEKDIPIO@Media?5ports?5are?5not?5compatible?5@ 0051033c     pjmedia-i386-win32-vc8-debug-dynamic:errno.obj
 0003:00012380       ??_C@_0EA@EJPEOGMK@Media?5ports?5have?5incompatible?5c@ 00510380     pjmedia-i386-win32-vc8-debug-dynamic:errno.obj
 0003:000123d0       ??_C@_0EL@KOIIKBFP@Media?5ports?5have?5incompatible?5s@ 005103d0     pjmedia-i386-win32-vc8-debug-dynamic:errno.obj
 0003:0001242c       ??_C@_0DL@FLCJCEPI@Media?5ports?5have?5incompatible?5m@ 0051042c     pjmedia-i386-win32-vc8-debug-dynamic:errno.obj
 0003:00012478       ??_C@_0EA@CDICINEI@Media?5ports?5have?5incompatible?5b@ 00510478     pjmedia-i386-win32-vc8-debug-dynamic:errno.obj
 0003:000124c8       ??_C@_0EB@DHIDGGBD@Media?5ports?5have?5incompatible?5b@ 005104c8     pjmedia-i386-win32-vc8-debug-dynamic:errno.obj
 0003:00012518       ??_C@_0EG@FBPNENMF@Media?5ports?5have?5incompatible?5n@ 00510518     pjmedia-i386-win32-vc8-debug-dynamic:errno.obj
 0003:0001256c       ??_C@_0CO@CKCFJDML@Not?5a?5valid?5WAVE?5file?5?$CIPJMEDIA_@ 0051056c     pjmedia-i386-win32-vc8-debug-dynamic:errno.obj
 0003:000125a4       ??_C@_0DD@FKNCKLNB@Unsupported?5WAVE?5file?5format?5?$CIP@ 005105a4     pjmedia-i386-win32-vc8-debug-dynamic:errno.obj
 0003:000125e4       ??_C@_0CM@HKHLDPDN@WAVE?5file?5too?5short?5?$CIPJMEDIA_EW@ 005105e4     pjmedia-i386-win32-vc8-debug-dynamic:errno.obj
 0003:00012618       ??_C@_0DP@HHAKLPGE@Sound?5frame?5too?5large?5for?5file?5@ 00510618     pjmedia-i386-win32-vc8-debug-dynamic:errno.obj
 0003:00012664       ??_C@_0CK@EMOCNCPF@Unsupported?5AVI?5file?5?$CIPJMEDIA_E@ 00510664     pjmedia-i386-win32-vc8-debug-dynamic:errno.obj
 0003:00012698       ??_C@_0DF@PKIKHNPA@No?5suitable?5sound?5capture?5devic@ 00510698     pjmedia-i386-win32-vc8-debug-dynamic:errno.obj
 0003:000126d8       ??_C@_0DH@NACBPKOD@No?5suitable?5sound?5playback?5devi@ 005106d8     pjmedia-i386-win32-vc8-debug-dynamic:errno.obj
 0003:0001271c       ??_C@_0CO@FCJGKBG@Invalid?5sound?5device?5ID?5?$CIPJMEDI@ 0051071c     pjmedia-i386-win32-vc8-debug-dynamic:errno.obj
 0003:00012758       ??_C@_0EB@GAMOPGD@Invalid?5sample?5format?5for?5sound@ 00510758     pjmedia-i386-win32-vc8-debug-dynamic:errno.obj
 0003:000127a8       ??_C@_0FA@HAKEALMK@SRTP?5crypto?9suite?5name?5not?5matc@ 005107a8     pjmedia-i386-win32-vc8-debug-dynamic:errno.obj
 0003:00012808       ??_C@_0EF@DCMAHBDI@Invalid?5SRTP?5key?5length?5for?5spe@ 00510808     pjmedia-i386-win32-vc8-debug-dynamic:errno.obj
 0003:0001285c       ??_C@_0DL@BINEGGLM@Unsupported?5SRTP?5crypto?9suite?5?$CI@ 0051085c     pjmedia-i386-win32-vc8-debug-dynamic:errno.obj
 0003:000128a4       ??_C@_0DP@DNDEFJI@SRTP?5SDP?5contains?5ambigue?5answe@ 005108a4     pjmedia-i386-win32-vc8-debug-dynamic:errno.obj
 0003:000128f0       ??_C@_0DL@PPDCJAFI@Duplicated?5SRTP?5crypto?5tag?5?$CIPJM@ 005108f0     pjmedia-i386-win32-vc8-debug-dynamic:errno.obj
 0003:00012938       ??_C@_0DK@EIEPDNB@Invalid?5SRTP?5crypto?5attribute?5?$CI@ 00510938     pjmedia-i386-win32-vc8-debug-dynamic:errno.obj
 0003:00012980       ??_C@_0DH@JABOECDK@Invalid?5SRTP?5crypto?5tag?5?$CIPJMEDI@ 00510980     pjmedia-i386-win32-vc8-debug-dynamic:errno.obj
 0003:000129c8       ??_C@_0EE@HKDIFKLN@Invalid?5SDP?5media?5transport?5for@ 005109c8     pjmedia-i386-win32-vc8-debug-dynamic:errno.obj
 0003:00012a1c       ??_C@_0DM@OPHJDJCK@SRTP?5crypto?5attribute?5required?5@ 00510a1c     pjmedia-i386-win32-vc8-debug-dynamic:errno.obj
 0003:00012a68       ??_C@_0EO@MOMMHEEA@Secure?5transport?5required?5in?5SD@ 00510a68     pjmedia-i386-win32-vc8-debug-dynamic:errno.obj
 0003:00012ac8       ??_C@_0EK@HIIDIBOJ@SRTP?5parameters?5negotiation?5sti@ 00510ac8     pjmedia-i386-win32-vc8-debug-dynamic:errno.obj
 0003:00012b20       ??_C@_0EM@HBHPHIDH@No?5matching?5SRTP?5crypto?9suite?5a@ 00510b20     pjmedia-i386-win32-vc8-debug-dynamic:errno.obj
 0003:00012b80       ??_C@_0EN@OKMMPCBN@No?5certificate?5supplied?5by?5peer@ 00510b80     pjmedia-i386-win32-vc8-debug-dynamic:errno.obj
 0003:00012be0       ??_C@_0FM@DHHDFBCG@Fingerprint?5from?5signalling?5not@ 00510be0     pjmedia-i386-win32-vc8-debug-dynamic:errno.obj
 0003:00012c50       ??_C@_0DE@BIABFNHJ@Fingerprint?5not?5found?5?$CIPJMEDIA_@ 00510c50     pjmedia-i386-win32-vc8-debug-dynamic:errno.obj
 0003:00012c90       ??_C@_0BJ@JGEGOKIK@Unknown?5pjmedia?5error?5?$CFd@ 00510c90     pjmedia-i386-win32-vc8-debug-dynamic:errno.obj
 0003:00012cb0       ??_C@_1HA@DGFHGCKO@?$AAd?$AA?3?$AA?2?$AAp?$AAj?$AAs?$AAi?$AAp?$AA?2?$AAp?$AAj?$AAp?$AAr?$AAo?$AAj@ 00510cb0     pjmedia-i386-win32-vc8-debug-dynamic:plc_common.obj
 0003:00012d38       ??_C@_1GC@MPPEPAIC@?$AAp?$AAo?$AAo?$AAl?$AA?5?$AA?$CG?$AA?$CG?$AA?5?$AAc?$AAl?$AAo?$AAc?$AAk?$AA_?$AAr@ 00510d38     pjmedia-i386-win32-vc8-debug-dynamic:plc_common.obj
 0003:00012db0       ??_C@_1BK@KDKCCGFK@?$AAo?$AAp?$AAt?$AAi?$AAo?$AAn?$AAs?$AA?5?$AA?$DN?$AA?$DN?$AA?5?$AA0@ 00510db0     pjmedia-i386-win32-vc8-debug-dynamic:plc_common.obj
 0003:00012dd0       ??_C@_1BK@PIOKGOGP@?$AAp?$AAl?$AAc?$AA?5?$AA?$CG?$AA?$CG?$AA?5?$AAf?$AAr?$AAa?$AAm?$AAe@ 00510dd0     pjmedia-i386-win32-vc8-debug-dynamic:plc_common.obj
 0003:00012df0       ??_C@_1HA@FNLGLCNA@?$AAd?$AA?3?$AA?2?$AAp?$AAj?$AAs?$AAi?$AAp?$AA?2?$AAp?$AAj?$AAp?$AAr?$AAo?$AAj@ 00510df0     pjmedia-i386-win32-vc8-debug-dynamic:silencedet.obj
 0003:00012e78       ??_C@_1BK@JPOKJPGF@?$AAp?$AAo?$AAo?$AAl?$AA?5?$AA?$CG?$AA?$CG?$AA?5?$AAp?$AA_?$AAs?$AAd@ 00510e78     pjmedia-i386-win32-vc8-debug-dynamic:silencedet.obj
 0003:00012e98       ??_C@_04CCFCAPFE@sd?$CFp@  00510e98     pjmedia-i386-win32-vc8-debug-dynamic:silencedet.obj
 0003:00012ea0       ??_C@_1BG@LLODMODC@?$AAs?$AAd?$AA?5?$AA?$CG?$AA?$CG?$AA?5?$AAn?$AAa?$AAm?$AAe@ 00510ea0     pjmedia-i386-win32-vc8-debug-dynamic:silencedet.obj
 0003:00012ebc       ??_C@_15HHMPEBGH@?$AAs?$AAd@ 00510ebc     pjmedia-i386-win32-vc8-debug-dynamic:silencedet.obj
 0003:00012ec4       ??_C@_0CJ@FEGDIEOD@Re?9adjust?5threshold?5?$CIin?5talk?5bu@ 00510ec4     pjmedia-i386-win32-vc8-debug-dynamic:silencedet.obj
 0003:00012ef8       ??_C@_0N@GGOMHLHN@silencedet?4c@ 00510ef8     pjmedia-i386-win32-vc8-debug-dynamic:silencedet.obj
 0003:00012f08       ??_C@_0CM@HFHDPICL@Starting?5talk?5burst?5?$CIlevel?$DN?$CFd?5t@ 00510f08     pjmedia-i386-win32-vc8-debug-dynamic:silencedet.obj
 0003:00012f3c       ??_C@_0CG@DGOMOKAK@Re?9adjust?5threshold?5?$CIin?5silence@ 00510f3c     pjmedia-i386-win32-vc8-debug-dynamic:silencedet.obj
 0003:00012f6c       ??_C@_0CJ@HMFIAFFP@Starting?5silence?5?$CIlevel?$DN?$CFd?5thre@ 00510f6c     pjmedia-i386-win32-vc8-debug-dynamic:silencedet.obj
 0003:00012fa0       _pjmedia_linear2ulaw_tab   00510fa0     pjmedia-i386-win32-vc8-debug-dynamic:alaw_ulaw_table.obj
 0003:00016fa0       _pjmedia_linear2alaw_tab   00514fa0     pjmedia-i386-win32-vc8-debug-dynamic:alaw_ulaw_table.obj
 0003:0001afa0       _pjmedia_ulaw2linear_tab   00518fa0     pjmedia-i386-win32-vc8-debug-dynamic:alaw_ulaw_table.obj
 0003:0001b1a0       _pjmedia_alaw2linear_tab   005191a0     pjmedia-i386-win32-vc8-debug-dynamic:alaw_ulaw_table.obj
 0003:0001ce08       ??_C@_0DH@LLDEKPNG@Lost?5event?5?$CFs?5from?5publisher?5?$FL0@ 0051ae08     pjmedia-i386-win32-vc8-debug-dynamic:event.obj
 0003:0001ce4c       ??_C@_07GLALFINI@event?4c@ 0051ae4c     pjmedia-i386-win32-vc8-debug-dynamic:event.obj
 0003:0001ce58       ??_C@_07EFMBOCIE@evt?5mgr@ 0051ae58     pjmedia-i386-win32-vc8-debug-dynamic:event.obj
 0003:0001ce64       ??_C@_06DLOAOGFG@ev_sem@   0051ae64     pjmedia-i386-win32-vc8-debug-dynamic:event.obj
 0003:0001ce6c       ??_C@_09BPOKMBKN@ev_thread@ 0051ae6c     pjmedia-i386-win32-vc8-debug-dynamic:event.obj
 0003:0001ce78       ??_C@_08HIFPJADG@ev_mutex@ 0051ae78     pjmedia-i386-win32-vc8-debug-dynamic:event.obj
 0003:0001ce88       ??_C@_1GG@KCPCKJBE@?$AAd?$AA?3?$AA?2?$AAp?$AAj?$AAs?$AAi?$AAp?$AA?2?$AAp?$AAj?$AAp?$AAr?$AAo?$AAj@ 0051ae88     pjmedia-i386-win32-vc8-debug-dynamic:event.obj
 0003:0001cf04       ??_C@_1CG@MMGNNPFK@?$AAm?$AAg?$AAr?$AA?5?$AA?$CB?$AA?$DN?$AA?5?$AA?$CI?$AA?$CI?$AAv?$AAo?$AAi?$AAd?$AA?5?$AA?$CK@ 0051af04     pjmedia-i386-win32-vc8-debug-dynamic:event.obj
 0003:0001cf34       ??_C@_15FBHCBMCA@?$AAc?$AAb@ 0051af34     pjmedia-i386-win32-vc8-debug-dynamic:event.obj
 0003:0001cf3c       ??_C@_1BM@CELBDGHN@?$AAe?$AAp?$AAu?$AAb?$AA?5?$AA?$CG?$AA?$CG?$AA?5?$AAe?$AAv?$AAe?$AAn?$AAt@ 0051af3c     pjmedia-i386-win32-vc8-debug-dynamic:event.obj
 0003:0001cf60       ??_C@_03JBLJHHJA@ack@      0051af60     pjmedia-i386-win32-vc8-debug-dynamic:rtcp_fb.obj
 0003:0001cf64       ??_C@_04FANNJGLN@nack@     0051af64     pjmedia-i386-win32-vc8-debug-dynamic:rtcp_fb.obj
 0003:0001cf6c       ??_C@_07PJLPNLNA@trr?9int@ 0051af6c     pjmedia-i386-win32-vc8-debug-dynamic:rtcp_fb.obj
 0003:0001cf78       ??_C@_1GK@NBDPIFHG@?$AAd?$AA?3?$AA?2?$AAp?$AAj?$AAs?$AAi?$AAp?$AA?2?$AAp?$AAj?$AAp?$AAr?$AAo?$AAj@ 0051af78     pjmedia-i386-win32-vc8-debug-dynamic:rtcp_fb.obj
 0003:0001cff8       ??_C@_1FK@PPOMABHI@?$AAs?$AAe?$AAs?$AAs?$AAi?$AAo?$AAn?$AA?5?$AA?$CG?$AA?$CG?$AA?5?$AAb?$AAu?$AAf?$AA?5@ 0051aff8     pjmedia-i386-win32-vc8-debug-dynamic:rtcp_fb.obj
 0003:0001d068       ??_C@_1FG@IDHHJC@?$AAs?$AAe?$AAs?$AAs?$AAi?$AAo?$AAn?$AA?5?$AA?$CG?$AA?$CG?$AA?5?$AAb?$AAu?$AAf?$AA?5@ 0051b068     pjmedia-i386-win32-vc8-debug-dynamic:rtcp_fb.obj
 0003:0001d0d0       ??_C@_1EC@FFJGGNNF@?$AAs?$AAe?$AAs?$AAs?$AAi?$AAo?$AAn?$AA?5?$AA?$CG?$AA?$CG?$AA?5?$AAb?$AAu?$AAf?$AA?5@ 0051b0d0     pjmedia-i386-win32-vc8-debug-dynamic:rtcp_fb.obj
 0003:0001d120       ??_C@_0N@KCELCMIJ@?$CFs?5?$CF?4?$CKs?5?$CF?4?$CKs@ 0051b120     pjmedia-i386-win32-vc8-debug-dynamic:rtcp_fb.obj
 0003:0001d130       ??_C@_07IJGDBCFO@?$CFs?5?$CF?4?$CKs@ 0051b130     pjmedia-i386-win32-vc8-debug-dynamic:rtcp_fb.obj
 0003:0001d13c       ??_C@_07FCPEBGCM@rtcp?9fb@ 0051b13c     pjmedia-i386-win32-vc8-debug-dynamic:rtcp_fb.obj
 0003:0001d148       ??_C@_0N@MLEOMPJK@?$CF?4?$CKs?1?$CFd?1?$CF?4?$CKs@ 0051b148     pjmedia-i386-win32-vc8-debug-dynamic:rtcp_fb.obj
 0003:0001d158       ??_C@_09PENHMDKI@?$CF?4?$CKs?1?$CFd?11@ 0051b158     pjmedia-i386-win32-vc8-debug-dynamic:rtcp_fb.obj
 0003:0001d168       ??_C@_1EC@DFEGLOJD@?$AAp?$AAo?$AAo?$AAl?$AA?5?$AA?$CG?$AA?$CG?$AA?5?$AAe?$AAn?$AAd?$AAp?$AAt?$AA?$CG?$AA?$CG@ 0051b168     pjmedia-i386-win32-vc8-debug-dynamic:rtcp_fb.obj
 0003:0001d1b8       ??_C@_1EC@IBPFHFHF@?$AAm?$AAe?$AAd?$AA_?$AAi?$AAd?$AAx?$AA?5?$AA?$DM?$AA?5?$AAs?$AAd?$AAp?$AA_?$AAl@ 0051b1b8     pjmedia-i386-win32-vc8-debug-dynamic:rtcp_fb.obj
 0003:0001d208       ??_C@_01BIAFAFID@F@        0051b208     pjmedia-i386-win32-vc8-debug-dynamic:rtcp_fb.obj
 0003:0001d20c       ??_C@_01NBENCBCI@?$CK@     0051b20c     pjmedia-i386-win32-vc8-debug-dynamic:rtcp_fb.obj
 0003:0001d210       ??_C@_0CC@NAFAGEDF@Failed?5generating?5SDP?5a?$DNrtcp?9fb@ 0051b210     pjmedia-i386-win32-vc8-debug-dynamic:rtcp_fb.obj
 0003:0001d238       ??_C@_09PHAMHDEP@rtcp_fb?4c@ 0051b238     pjmedia-i386-win32-vc8-debug-dynamic:rtcp_fb.obj
 0003:0001d244       ??_C@_0CG@BFEDBHHA@Failed?5populating?5codec?5info?5fr@ 0051b244     pjmedia-i386-win32-vc8-debug-dynamic:rtcp_fb.obj
 0003:0001d274       ??_C@_0CI@KLFIHAEG@Failed?5generating?5SDP?5a?$DNrtcp?9fb@ 0051b274     pjmedia-i386-win32-vc8-debug-dynamic:rtcp_fb.obj
 0003:0001d2a8       ??_C@_1FC@JDLDIMAM@?$AAp?$AAo?$AAo?$AAl?$AA?5?$AA?$CG?$AA?$CG?$AA?5?$AAe?$AAn?$AAd?$AAp?$AAt?$AA?5?$AA?$CG@ 0051b2a8     pjmedia-i386-win32-vc8-debug-dynamic:rtcp_fb.obj
 0003:0001d30c       ??_C@_1DG@DHOJDNBB@?$AAm?$AAe?$AAd?$AA_?$AAi?$AAd?$AAx?$AA?5?$AA?$DM?$AA?5?$AAs?$AAd?$AAp?$AA?9?$AA?$DO@ 0051b30c     pjmedia-i386-win32-vc8-debug-dynamic:rtcp_fb.obj
 0003:0001d34c       ??_C@_02OJDBNLEE@?5?7@     0051b34c     pjmedia-i386-win32-vc8-debug-dynamic:rtcp_fb.obj
 0003:0001d350       ??_C@_1DA@NKKNDEFC@?$AAb?$AAu?$AAf?$AA?5?$AA?$CG?$AA?$CG?$AA?5?$AAn?$AAa?$AAc?$AAk?$AA_?$AAc?$AAn?$AAt@ 0051b350     pjmedia-i386-win32-vc8-debug-dynamic:rtcp_fb.obj
 0003:0001d390       ??_C@_1EM@BGLMGIA@?$AAl?$AAe?$AAn?$AAg?$AAt?$AAh?$AA?5?$AA?$DO?$AA?$DN?$AA?5?$AAs?$AAi?$AAz?$AAe?$AAo@ 0051b390     pjmedia-i386-win32-vc8-debug-dynamic:rtcp_fb.obj
 0003:0001d3ec       ??_C@_17ENLBLDPN@?$AAb?$AAu?$AAf@ 0051b3ec     pjmedia-i386-win32-vc8-debug-dynamic:rtcp_fb.obj
 0003:0001d3f8       ??_C@_1BK@FKDKAKDI@?$AAl?$AAe?$AAn?$AAg?$AAt?$AAh?$AA?5?$AA?$DO?$AA?$DN?$AA?5?$AA1?$AA2@ 0051b3f8     pjmedia-i386-win32-vc8-debug-dynamic:rtcp_fb.obj
 0003:0001d418       ??_C@_1CM@MOBHHJPL@?$AAb?$AAu?$AAf?$AA?5?$AA?$CG?$AA?$CG?$AA?5?$AAs?$AAl?$AAi?$AA_?$AAc?$AAn?$AAt?$AA?5@ 0051b418     pjmedia-i386-win32-vc8-debug-dynamic:rtcp_fb.obj
 0003:0001d44c       ??_C@_1BI@PHIMNNLO@?$AAb?$AAu?$AAf?$AA?5?$AA?$CG?$AA?$CG?$AA?5?$AAr?$AAp?$AAs?$AAi@ 0051b44c     pjmedia-i386-win32-vc8-debug-dynamic:rtcp_fb.obj
 0003:0001d468       ??_C@_1HG@GGBFMFDC@?$AAd?$AA?3?$AA?2?$AAp?$AAj?$AAs?$AAi?$AAp?$AA?2?$AAp?$AAj?$AAp?$AAr?$AAo?$AAj@ 0051b468     pjmedia-i386-win32-vc8-debug-dynamic:stream_common.obj
 0003:0001d4f8       ??_C@_1BE@DBJLPOOL@?$AAm?$AA?5?$AA?$CG?$AA?$CG?$AA?5?$AAf?$AAm?$AAt?$AAp@ 0051b4f8     pjmedia-i386-win32-vc8-debug-dynamic:stream_common.obj
 0003:0001d510       ??_C@_0EB@OHKIBEFG@Warning?3?5fmtp?5parameter?5count?5e@ 0051b510     pjmedia-i386-win32-vc8-debug-dynamic:stream_common.obj
 0003:0001d560       ??_C@_0BA@JPAJDJED@stream_common?4c@ 0051b560     pjmedia-i386-win32-vc8-debug-dynamic:stream_common.obj
 0003:0001d590       ??_C@_08MPIAKENM@RTP?1SAVP@ 0051b590     pjmedia-i386-win32-vc8-debug-dynamic:transport_srtp.obj
 0003:0001d59c       ??_C@_06LAEHEPPF@crypto@   0051b59c     pjmedia-i386-win32-vc8-debug-dynamic:transport_srtp.obj
 0003:0001d5a4       ??_C@_0BI@FCCBBIDC@AES_256_CM_HMAC_SHA1_80@ 0051b5a4     pjmedia-i386-win32-vc8-debug-dynamic:transport_srtp.obj
 0003:0001d5c0       ??_C@_0BI@GMECJFFB@AES_256_CM_HMAC_SHA1_32@ 0051b5c0     pjmedia-i386-win32-vc8-debug-dynamic:transport_srtp.obj
 0003:0001d5dc       ??_C@_0BI@OADHPNHF@AES_CM_128_HMAC_SHA1_80@ 0051b5dc     pjmedia-i386-win32-vc8-debug-dynamic:transport_srtp.obj
 0003:0001d5f8       ??_C@_0BI@NOFEHABG@AES_CM_128_HMAC_SHA1_32@ 0051b5f8     pjmedia-i386-win32-vc8-debug-dynamic:transport_srtp.obj
 0003:0001d614       ??_C@_02MFDMBIJM@ok@       0051b614     pjmedia-i386-win32-vc8-debug-dynamic:transport_srtp.obj
 0003:0001d618       ??_C@_0BE@KFOIPNMM@unspecified?5failure@ 0051b618     pjmedia-i386-win32-vc8-debug-dynamic:transport_srtp.obj
 0003:0001d630       ??_C@_0BG@LENPEKHL@unsupported?5parameter@ 0051b630     pjmedia-i386-win32-vc8-debug-dynamic:transport_srtp.obj
 0003:0001d64c       ??_C@_0BJ@DGLNBGGB@couldn?8t?5allocate?5memory@ 0051b64c     pjmedia-i386-win32-vc8-debug-dynamic:transport_srtp.obj
 0003:0001d66c       ??_C@_0BN@LJIJFBAJ@couldn?8t?5deallocate?5properly@ 0051b66c     pjmedia-i386-win32-vc8-debug-dynamic:transport_srtp.obj
 0003:0001d690       ??_C@_0BE@KBPICNEA@couldn?8t?5initialize@ 0051b690     pjmedia-i386-win32-vc8-debug-dynamic:transport_srtp.obj
 0003:0001d6a8       ??_C@_0CI@FEPPFOBO@can?8t?5process?5as?5much?5data?5as?5r@ 0051b6a8     pjmedia-i386-win32-vc8-debug-dynamic:transport_srtp.obj
 0003:0001d6d8       ??_C@_0BH@DJJHFLDI@authentication?5failure@ 0051b6d8     pjmedia-i386-win32-vc8-debug-dynamic:transport_srtp.obj
 0003:0001d6f4       ??_C@_0P@MHOCHBCE@cipher?5failure@ 0051b6f4     pjmedia-i386-win32-vc8-debug-dynamic:transport_srtp.obj
 0003:0001d708       ??_C@_0CA@LIFPFHJ@replay?5check?5failed?5?$CIbad?5index?$CJ@ 0051b708     pjmedia-i386-win32-vc8-debug-dynamic:transport_srtp.obj
 0003:0001d730       ??_C@_0CE@GCMJOMFK@replay?5check?5failed?5?$CIindex?5too?5@ 0051b730     pjmedia-i386-win32-vc8-debug-dynamic:transport_srtp.obj
 0003:0001d75c       ??_C@_0BO@KLFALCF@algorithm?5failed?5test?5routine@ 0051b75c     pjmedia-i386-win32-vc8-debug-dynamic:transport_srtp.obj
 0003:0001d780       ??_C@_0BG@JKFIFBMN@unsupported?5operation@ 0051b780     pjmedia-i386-win32-vc8-debug-dynamic:transport_srtp.obj
 0003:0001d79c       ??_C@_0BN@PDJKDLOF@no?5appropriate?5context?5found@ 0051b79c     pjmedia-i386-win32-vc8-debug-dynamic:transport_srtp.obj
 0003:0001d7c0       ??_C@_0CF@DOHHPHGD@unable?5to?5perform?5desired?5valid@ 0051b7c0     pjmedia-i386-win32-vc8-debug-dynamic:transport_srtp.obj
 0003:0001d7ec       ??_C@_0BH@NKHPNDDN@can?8t?5use?5key?5any?5more@ 0051b7ec     pjmedia-i386-win32-vc8-debug-dynamic:transport_srtp.obj
 0003:0001d808       ??_C@_0BH@CDHGOGDE@error?5in?5use?5of?5socket@ 0051b808     pjmedia-i386-win32-vc8-debug-dynamic:transport_srtp.obj
 0003:0001d824       ??_C@_0BL@DJFHEKEC@error?5in?5use?5POSIX?5signals@ 0051b824     pjmedia-i386-win32-vc8-debug-dynamic:transport_srtp.obj
 0003:0001d844       ??_C@_0BD@HFMCMINA@nonce?5check?5failed@ 0051b844     pjmedia-i386-win32-vc8-debug-dynamic:transport_srtp.obj
 0003:0001d85c       ??_C@_0BD@FCFDDPHP@couldn?8t?5read?5data@ 0051b85c     pjmedia-i386-win32-vc8-debug-dynamic:transport_srtp.obj
 0003:0001d874       ??_C@_0BE@PIHIJLHG@couldn?8t?5write?5data@ 0051b874     pjmedia-i386-win32-vc8-debug-dynamic:transport_srtp.obj
 0003:0001d88c       ??_C@_0BD@PIIFGNCP@error?5pasring?5data@ 0051b88c     pjmedia-i386-win32-vc8-debug-dynamic:transport_srtp.obj
 0003:0001d8a4       ??_C@_0BE@FFKLLGEP@error?5encoding?5data@ 0051b8a4     pjmedia-i386-win32-vc8-debug-dynamic:transport_srtp.obj
 0003:0001d8bc       ??_C@_0BN@OEPMNKMP@error?5while?5using?5semaphores@ 0051b8bc     pjmedia-i386-win32-vc8-debug-dynamic:transport_srtp.obj
 0003:0001d8e0       ??_C@_0BI@JNCDFEKK@error?5while?5using?5pfkey@ 0051b8e0     pjmedia-i386-win32-vc8-debug-dynamic:transport_srtp.obj
 0003:0001d8fc       ??_C@_0BJ@BOBCJFAN@Unknown?5libsrtp?5error?5?$CFd@ 0051b8fc     pjmedia-i386-win32-vc8-debug-dynamic:transport_srtp.obj
 0003:0001d91c       ??_C@_04HJOFNBFH@sdes@     0051b91c     pjmedia-i386-win32-vc8-debug-dynamic:transport_srtp.obj
 0003:0001d924       ??_C@_0BJ@FEOOEBIC@SRTP?5keying?5SDES?5created@ 0051b924     pjmedia-i386-win32-vc8-debug-dynamic:transport_srtp.obj
 0003:0001d948       ??_C@_1IC@OBJGFNPB@?$AAd?$AA?3?$AA?2?$AAp?$AAj?$AAs?$AAi?$AAp?$AA?2?$AAp?$AAj?$AAp?$AAr?$AAo?$AAj@ 0051b948     pjmedia-i386-win32-vc8-debug-dynamic:transport_srtp.obj
 0003:0001d9e8       ??_C@_1FI@GEJKNFC@?$AA1?$AA2?$AA8?$AA?5?$AA?$DO?$AA?$DN?$AA?5?$AAc?$AAr?$AAy?$AAp?$AAt?$AAo?$AA_?$AAs@ 0051b9e8     pjmedia-i386-win32-vc8-debug-dynamic:transport_srtp.obj
 0003:0001da58       ??_C@_0EB@EJGHAKCH@Warning?3?5simple?5random?5generato@ 0051ba58     pjmedia-i386-win32-vc8-debug-dynamic:transport_srtp.obj
 0003:0001daa8       ??_C@_0BB@HGEADDBB@transport_srtp?4c@ 0051baa8     pjmedia-i386-win32-vc8-debug-dynamic:transport_srtp.obj
 0003:0001dabc       ??_C@_0CE@BAIPFCEP@Failed?5encoding?5plain?5key?5to?5ba@ 0051babc     pjmedia-i386-win32-vc8-debug-dynamic:transport_srtp.obj
 0003:0001dae8       ??_C@_1GM@GMFMOBNN@?$AA?$CK?$AAb?$AAu?$AAf?$AAf?$AAe?$AAr?$AA_?$AAl?$AAe?$AAn?$AA?5?$AA?$DO?$AA?$DN?$AA?5@ 0051bae8     pjmedia-i386-win32-vc8-debug-dynamic:transport_srtp.obj
 0003:0001db6c       ??_C@_0BA@OGAKIHAO@?$CFd?5?$CFs?5inline?3?$CFs@ 0051bb6c     pjmedia-i386-win32-vc8-debug-dynamic:transport_srtp.obj
 0003:0001db80       ??_C@_0BP@IBJNGPHO@Attribute?5crypto?5expecting?5tag@ 0051bb80     pjmedia-i386-win32-vc8-debug-dynamic:transport_srtp.obj
 0003:0001dba8       ??_C@_0CI@IIDGBGP@Attribute?5crypto?5expecting?5cryp@ 0051bba8     pjmedia-i386-win32-vc8-debug-dynamic:transport_srtp.obj
 0003:0001dbd8       ??_C@_02LMMGGCAJ@?3?5@     0051bbd8     pjmedia-i386-win32-vc8-debug-dynamic:transport_srtp.obj
 0003:0001dbdc       ??_C@_0CG@JCJFEHFF@Attribute?5crypto?5expecting?5key?5@ 0051bbdc     pjmedia-i386-win32-vc8-debug-dynamic:transport_srtp.obj
 0003:0001dc0c       ??_C@_06OGMBMJA@inline@    0051bc0c     pjmedia-i386-win32-vc8-debug-dynamic:transport_srtp.obj
 0003:0001dc14       ??_C@_0DC@FIGAPMKM@Attribute?5crypto?5key?5method?5?8?$CF?4@ 0051bc14     pjmedia-i386-win32-vc8-debug-dynamic:transport_srtp.obj
 0003:0001dc50       ??_C@_02MINBJDHL@?$HM?5@   0051bc50     pjmedia-i386-win32-vc8-debug-dynamic:transport_srtp.obj
 0003:0001dc54       ??_C@_0BP@FKKPLPLE@Attribute?5crypto?5expecting?5key@ 0051bc54     pjmedia-i386-win32-vc8-debug-dynamic:transport_srtp.obj
 0003:0001dc7c       ??_C@_0N@FJKIJMGM@Key?5too?5long@ 0051bc7c     pjmedia-i386-win32-vc8-debug-dynamic:transport_srtp.obj
 0003:0001dc8c       ??_C@_0CH@PPONEAL@Failed?5decoding?5crypto?5key?5from@ 0051bc8c     pjmedia-i386-win32-vc8-debug-dynamic:transport_srtp.obj
 0003:0001dcbc       ??_C@_1CI@PICKKBLK@?$AAs?$AAd?$AAp?$AA_?$AAr?$AAe?$AAm?$AAo?$AAt?$AAe?$AA?5?$AA?$CG?$AA?$CG?$AA?5?$AAm@ 0051bcbc     pjmedia-i386-win32-vc8-debug-dynamic:transport_srtp.obj
 0003:0001dcec       ??_C@_0CB@KJOFGAC@Failed?5to?5initialize?5libsrtp?3?5?$CF@ 0051bcec     pjmedia-i386-win32-vc8-debug-dynamic:transport_srtp.obj
 0003:0001dd14       ??_C@_0CD@JOBKHEBK@Failed?5to?5register?5libsrtp?5dein@ 0051bd14     pjmedia-i386-win32-vc8-debug-dynamic:transport_srtp.obj
 0003:0001dd40       ??_C@_0CD@EDFIBBCB@Failed?5to?5deinitialize?5libsrtp?3@ 0051bd40     pjmedia-i386-win32-vc8-debug-dynamic:transport_srtp.obj
 0003:0001dd70       ??_C@_1HI@KFDBMJLM@?$AAd?$AA?3?$AA?2?$AAp?$AAj?$AAs?$AAi?$AAp?$AA?2?$AAp?$AAj?$AAp?$AAr?$AAo?$AAj@ 0051bd70     pjmedia-i386-win32-vc8-debug-dynamic:transport_srtp.obj
 0003:0001de00       ??_C@_17HMGJKIIL@?$AAo?$AAp?$AAt@ 0051be00     pjmedia-i386-win32-vc8-debug-dynamic:transport_srtp.obj
 0003:0001de0c       ??_C@_1CA@IDGAABII@?$AAc?$AAo?$AAu?$AAn?$AAt?$AA?5?$AA?$CG?$AA?$CG?$AA?5?$AAc?$AAr?$AAy?$AAp?$AAt?$AAo@ 0051be0c     pjmedia-i386-win32-vc8-debug-dynamic:transport_srtp.obj
 0003:0001de34       ??_C@_1CA@MMLEDINP@?$AAc?$AAo?$AAu?$AAn?$AAt?$AA?5?$AA?$CG?$AA?$CG?$AA?5?$AAk?$AAe?$AAy?$AAi?$AAn?$AAg@ 0051be34     pjmedia-i386-win32-vc8-debug-dynamic:transport_srtp.obj
 0003:0001de5c       ??_C@_1CI@IBFHDBIO@?$AAe?$AAn?$AAd?$AAp?$AAt?$AA?5?$AA?$CG?$AA?$CG?$AA?5?$AAt?$AAp?$AA?5?$AA?$CG?$AA?$CG?$AA?5@ 0051be5c     pjmedia-i386-win32-vc8-debug-dynamic:transport_srtp.obj
 0003:0001de8c       ??_C@_06IPCNFNJD@srtp?$CFp@ 0051be8c     pjmedia-i386-win32-vc8-debug-dynamic:transport_srtp.obj
 0003:0001de94       ??_C@_1BO@OBDHBCGG@?$AAt?$AAp?$AA?5?$AA?$CG?$AA?$CG?$AA?5?$AAt?$AAx?$AA?5?$AA?$CG?$AA?$CG?$AA?5?$AAr?$AAx@ 0051be94     pjmedia-i386-win32-vc8-debug-dynamic:transport_srtp.obj
 0003:0001deb8       ??_C@_0BB@JENPEJDI@?9?9key?5too?5long?9?9@ 0051beb8     pjmedia-i386-win32-vc8-debug-dynamic:transport_srtp.obj
 0003:0001decc       ??_C@_0O@LPFLKIMI@TX?3?5?$CFs?5key?$DN?$CFs@ 0051becc     pjmedia-i386-win32-vc8-debug-dynamic:transport_srtp.obj
 0003:0001dedc       ??_C@_05EPPOHEBK@?5auth@   0051bedc     pjmedia-i386-win32-vc8-debug-dynamic:transport_srtp.obj
 0003:0001dee4       ??_C@_04PIHNPOJJ@?5enc@    0051bee4     pjmedia-i386-win32-vc8-debug-dynamic:transport_srtp.obj
 0003:0001deec       ??_C@_0BA@BONGIHBG@TX?3?5disable?$CFs?$CFs@ 0051beec     pjmedia-i386-win32-vc8-debug-dynamic:transport_srtp.obj
 0003:0001df00       ??_C@_0O@EHJJODHO@RX?3?5?$CFs?5key?$DN?$CFs@ 0051bf00     pjmedia-i386-win32-vc8-debug-dynamic:transport_srtp.obj
 0003:0001df10       ??_C@_0BA@ENEHOOPC@RX?3?5disable?$CFs?$CFs@ 0051bf10     pjmedia-i386-win32-vc8-debug-dynamic:transport_srtp.obj
 0003:0001df24       ??_C@_19BEPCNALE@?$AAs?$AAr?$AAt?$AAp@ 0051bf24     pjmedia-i386-win32-vc8-debug-dynamic:transport_srtp.obj
 0003:0001df30       ??_C@_0CG@KDAPJFOB@Failed?5to?5dealloc?5RX?5SRTP?5conte@ 0051bf30     pjmedia-i386-win32-vc8-debug-dynamic:transport_srtp.obj
 0003:0001df60       ??_C@_0CG@CHCMAIDE@Failed?5to?5dealloc?5TX?5SRTP?5conte@ 0051bf60     pjmedia-i386-win32-vc8-debug-dynamic:transport_srtp.obj
 0003:0001df90       ??_C@_0BA@CMIKGIPP@SRTP?5not?5active@ 0051bf90     pjmedia-i386-win32-vc8-debug-dynamic:transport_srtp.obj
 0003:0001dfa4       ??_C@_04LFNPDDCP@SDES@     0051bfa4     pjmedia-i386-win32-vc8-debug-dynamic:transport_srtp.obj
 0003:0001dfac       ??_C@_09LMBOLLED@DTLS?9SRTP@ 0051bfac     pjmedia-i386-win32-vc8-debug-dynamic:transport_srtp.obj
 0003:0001dfb8       ??_C@_0CD@NFEKFFAL@SRTP?5started?0?5keying?$DN?$CFs?0?5crypto@ 0051bfb8     pjmedia-i386-win32-vc8-debug-dynamic:transport_srtp.obj
 0003:0001dfe4       ??_C@_1DI@NHMPMOHF@?$AAi?$AAn?$AAf?$AAo?$AA?9?$AA?$DO?$AAs?$AAp?$AAe?$AAc?$AAi?$AAf?$AAi?$AAc?$AA_@ 0051bfe4     pjmedia-i386-win32-vc8-debug-dynamic:transport_srtp.obj
 0003:0001e028       ??_C@_1BI@EHINJOLO@?$AAt?$AAp?$AA?5?$AA?$CG?$AA?$CG?$AA?5?$AAp?$AAa?$AAr?$AAa?$AAm@ 0051c028     pjmedia-i386-win32-vc8-debug-dynamic:transport_srtp.obj
 0003:0001e044       ??_C@_1DM@LJGMPJIE@?$AA?$CI?$AA?$CI?$AA?$CI?$AAp?$AAj?$AA_?$AAs?$AAs?$AAi?$AAz?$AAe?$AA_?$AAt?$AA?$CJ?$AAp@ 0051c044     pjmedia-i386-win32-vc8-debug-dynamic:transport_srtp.obj
 0003:0001e08c       ??_C@_0BP@CAGNCNCA@Failed?5to?5restart?5SRTP?0?5err?$DN?$CFs@ 0051c08c     pjmedia-i386-win32-vc8-debug-dynamic:transport_srtp.obj
 0003:0001e0b4       ??_C@_0CO@EDHKLEPP@Failed?5to?5unprotect?5SRTP?0?5pkt?5s@ 0051c0b4     pjmedia-i386-win32-vc8-debug-dynamic:transport_srtp.obj
 0003:0001e0ec       ??_C@_0CP@OAIPELPD@Failed?5to?5unprotect?5SRTCP?0?5pkt?5@ 0051c0ec     pjmedia-i386-win32-vc8-debug-dynamic:transport_srtp.obj
 0003:0001e124       ??_C@_1DI@FKNKINIE@?$AAt?$AAp?$AA?5?$AA?$CG?$AA?$CG?$AA?5?$AAs?$AAd?$AAp?$AA_?$AAp?$AAo?$AAo?$AAl?$AA?5@ 0051c124     pjmedia-i386-win32-vc8-debug-dynamic:transport_srtp.obj
 0003:0001e168       ??_C@_1CM@ECNFEDDH@?$AAs?$AAr?$AAt?$AAp?$AA?9?$AA?$DO?$AAk?$AAe?$AAy?$AAi?$AAn?$AAg?$AA_?$AAc?$AAn@ 0051c168     pjmedia-i386-win32-vc8-debug-dynamic:transport_srtp.obj
 0003:0001e19c       ??_C@_0BL@LHHEAKNJ@SRTP?5uses?5keying?5method?5?$CFs@ 0051c19c     pjmedia-i386-win32-vc8-debug-dynamic:transport_srtp.obj
 0003:0001e1bc       ??_C@_1CM@KNBHCIAJ@?$AAs?$AAr?$AAt?$AAp?$AA?9?$AA?$DO?$AAk?$AAe?$AAy?$AAi?$AAn?$AAg?$AA_?$AAc?$AAn@ 0051c1bc     pjmedia-i386-win32-vc8-debug-dynamic:transport_srtp.obj
 0003:0001e1f0       ??_C@_0CN@IMPBKLBH@SRTP?5failed?5stop?5underlying?5med@ 0051c1f0     pjmedia-i386-win32-vc8-debug-dynamic:transport_srtp.obj
 0003:0001e228       ??_C@_1DE@DOJDHBHH@?$AAt?$AAp?$AA?5?$AA?$CG?$AA?$CG?$AA?5?$AAp?$AAk?$AAt?$AA?5?$AA?$CG?$AA?$CG?$AA?5?$AA?$CI?$AA?$CK@ 0051c228     pjmedia-i386-win32-vc8-debug-dynamic:transport_srtp.obj
 0003:0001e268       ??_C@_1CK@KNFDBKGE@?$AAs?$AAr?$AAt?$AAp?$AA?9?$AA?$DO?$AAs?$AAe?$AAs?$AAs?$AAi?$AAo?$AAn?$AA_?$AAi@ 0051c268     pjmedia-i386-win32-vc8-debug-dynamic:transport_srtp.obj
 0003:0001e2a0       ??_C@_1GG@JNEPNLJH@?$AAd?$AA?3?$AA?2?$AAp?$AAj?$AAs?$AAi?$AAp?$AA?2?$AAp?$AAj?$AAp?$AAr?$AAo?$AAj@ 0051c2a0     pjmedia-i386-win32-vc8-debug-dynamic:wsola.obj
 0003:0001e320       ??_C@_1GG@IAKBIPBK@?$AAp?$AAo?$AAo?$AAl?$AA?5?$AA?$CG?$AA?$CG?$AA?5?$AAc?$AAl?$AAo?$AAc?$AAk?$AA_?$AAr@ 0051c320     pjmedia-i386-win32-vc8-debug-dynamic:wsola.obj
 0003:0001e39c       ??_C@_1CI@CPJHFBDP@?$AAc?$AAl?$AAo?$AAc?$AAk?$AA_?$AAr?$AAa?$AAt?$AAe?$AA?5?$AA?$DM?$AA?$DN?$AA?5?$AA6@ 0051c39c     pjmedia-i386-win32-vc8-debug-dynamic:wsola.obj
 0003:0001e3cc       ??_C@_1DO@HNOJLLOB@?$AAs?$AAa?$AAm?$AAp?$AAl?$AAe?$AAs?$AA_?$AAp?$AAe?$AAr?$AA_?$AAf?$AAr?$AAa@ 0051c3cc     pjmedia-i386-win32-vc8-debug-dynamic:wsola.obj
 0003:0001e418       ??_C@_1CE@HKIMEAPL@?$AAc?$AAh?$AAa?$AAn?$AAn?$AAe?$AAl?$AA_?$AAc?$AAo?$AAu?$AAn?$AAt?$AA?5?$AA?$DO@ 0051c418     pjmedia-i386-win32-vc8-debug-dynamic:wsola.obj
 0003:0001e444       ??_C@_0BO@PBEKEGBF@Failed?5to?5create?5circular?5buf@ 0051c444     pjmedia-i386-win32-vc8-debug-dynamic:wsola.obj
 0003:0001e468       ??_C@_07LLDBJGIC@wsola?4c@ 0051c468     pjmedia-i386-win32-vc8-debug-dynamic:wsola.obj
 0003:0001e478       ??_C@_1FC@ONNECCLI@?$AAw?$AAs?$AAo?$AAl?$AAa?$AA?9?$AA?$DO?$AAt?$AAe?$AAm?$AAp?$AAl?$AA_?$AAs?$AAi@ 0051c478     pjmedia-i386-win32-vc8-debug-dynamic:wsola.obj
 0003:0001e4dc       ??_C@_1M@DMOBICCA@?$AAw?$AAs?$AAo?$AAl?$AAa@ 0051c4dc     pjmedia-i386-win32-vc8-debug-dynamic:wsola.obj
 0003:0001e4ec       ??_C@_1CI@POPKIGC@?$AAw?$AAs?$AAo?$AAl?$AAa?$AA?5?$AA?$CG?$AA?$CG?$AA?5?$AAo?$AAp?$AAt?$AAi?$AAo?$AAn@ 0051c4ec     pjmedia-i386-win32-vc8-debug-dynamic:wsola.obj
 0003:0001e51c       ??_C@_0CD@BICDEMGJ@WSOLA?5buffer?5size?5may?5be?5to?5sma@ 0051c51c     pjmedia-i386-win32-vc8-debug-dynamic:wsola.obj
 0003:0001e548       ??_C@_1EM@MPJCGMLC@?$AA?$CB?$AA?$CC?$AAW?$AAS?$AAO?$AAL?$AAA?$AA?5?$AAb?$AAu?$AAf?$AAf?$AAe?$AAr?$AA?5@ 0051c548     pjmedia-i386-win32-vc8-debug-dynamic:wsola.obj
 0003:0001e5a8       ??_C@_1EK@EPLDJPJP@?$AAw?$AAs?$AAo?$AAl?$AAa?$AA?5?$AA?$CG?$AA?$CG?$AA?5?$AAb?$AAu?$AAf?$AA1?$AA?5?$AA?$CG@ 0051c5a8     pjmedia-i386-win32-vc8-debug-dynamic:wsola.obj
 0003:0001e600       ??_C@_1BC@NPKJGPLM@?$AA?$CK?$AAd?$AAe?$AAl?$AA_?$AAc?$AAn?$AAt@ 0051c600     pjmedia-i386-win32-vc8-debug-dynamic:wsola.obj
 0003:0001e618       ??_C@_19KJFIAAFN@?$AAb?$AAu?$AAf?$AA2@ 0051c618     pjmedia-i386-win32-vc8-debug-dynamic:wsola.obj
 0003:0001e624       ??_C@_0BJ@IJOBNPHA@WSOLA?5need?5erase?5buffer?$CB@ 0051c624     pjmedia-i386-win32-vc8-debug-dynamic:wsola.obj
 0003:0001e644       ??_C@_1DI@CFNECNLA@?$AA?$CB?$AA?$CC?$AAW?$AAS?$AAO?$AAL?$AAA?$AA?5?$AAn?$AAe?$AAe?$AAd?$AA?5?$AAe?$AAr@ 0051c644     pjmedia-i386-win32-vc8-debug-dynamic:wsola.obj
 0003:0001e688       __real@00000000            0051c688     pjmedia-i386-win32-vc8-debug-dynamic:wsola.obj
 0003:0001e68c       __real@3f800000            0051c68c     pjmedia-i386-win32-vc8-debug-dynamic:wsola.obj
 0003:0001e690       __real@3ff0000000000000    0051c690     pjmedia-i386-win32-vc8-debug-dynamic:wsola.obj
 0003:0001e6a0       __real@3ff8000000000000    0051c6a0     pjmedia-i386-win32-vc8-debug-dynamic:wsola.obj
 0003:0001e6b0       __real@401921fb54442d18    0051c6b0     pjmedia-i386-win32-vc8-debug-dynamic:wsola.obj
 0003:0001e900       ??_C@_0DI@FPKNFLPC@Unable?5to?5resolve?5STUN?5server?5?$CI@ 0051c900     pjlib-util-i386-win32-vc8-debug-dynamic:errno.obj
 0003:0001e944       ??_C@_0DG@MLIAHJMC@Unknown?5STUN?5message?5type?5?$CIPJLI@ 0051c944     pjlib-util-i386-win32-vc8-debug-dynamic:errno.obj
 0003:0001e984       ??_C@_0DH@BGLGMNML@Invalid?5STUN?5message?5length?5?$CIPJ@ 0051c984     pjlib-util-i386-win32-vc8-debug-dynamic:errno.obj
 0003:0001e9c8       ??_C@_0DI@MNKBLDCO@STUN?5attribute?5length?5error?5?$CIPJ@ 0051c9c8     pjlib-util-i386-win32-vc8-debug-dynamic:errno.obj
 0003:0001ea0c       ??_C@_0DJ@GEFJCPHI@Invalid?5STUN?5attribute?5type?5?$CIPJ@ 0051ca0c     pjlib-util-i386-win32-vc8-debug-dynamic:errno.obj
 0003:0001ea50       ??_C@_0DL@JFEBBJAB@Invalid?5STUN?5server?1socket?5inde@ 0051ca50     pjlib-util-i386-win32-vc8-debug-dynamic:errno.obj
 0003:0001ea98       ??_C@_0EE@OMBAKMPD@No?5STUN?5binding?5response?5in?5the@ 0051ca98     pjlib-util-i386-win32-vc8-debug-dynamic:errno.obj
 0003:0001eaec       ??_C@_0DM@JJJKHKHH@Received?5STUN?5error?5attribute?5?$CI@ 0051caec     pjlib-util-i386-win32-vc8-debug-dynamic:errno.obj
 0003:0001eb34       ??_C@_0DJ@BDPKKDEL@No?5STUN?5mapped?5address?5attribut@ 0051cb34     pjlib-util-i386-win32-vc8-debug-dynamic:errno.obj
 0003:0001eb78       ??_C@_0ED@MIOBPJDH@Received?5no?5response?5from?5STUN?5@ 0051cb78     pjlib-util-i386-win32-vc8-debug-dynamic:errno.obj
 0003:0001ebc8       ??_C@_0DK@OILEGGA@Symetric?5NAT?5detected?5by?5STUN?5?$CI@ 0051cbc8     pjlib-util-i386-win32-vc8-debug-dynamic:errno.obj
 0003:0001ec10       ??_C@_0CI@OKGDIDF@Invalid?5XML?5message?5?$CIPJLIB_UTIL@ 0051cc10     pjlib-util-i386-win32-vc8-debug-dynamic:errno.obj
 0003:0001ec40       ??_C@_0CL@IPLFEOJE@Invalid?5JSON?5document?5?$CIPJLIB_UT@ 0051cc40     pjlib-util-i386-win32-vc8-debug-dynamic:errno.obj
 0003:0001ec78       ??_C@_0EC@KJLJANIE@DNS?5query?5packet?5buffer?5is?5too?5@ 0051cc78     pjlib-util-i386-win32-vc8-debug-dynamic:errno.obj
 0003:0001ecc8       ??_C@_0DC@JFKHADAC@Invalid?5DNS?5packet?5length?5?$CIPJLI@ 0051ccc8     pjlib-util-i386-win32-vc8-debug-dynamic:errno.obj
 0003:0001ed04       ??_C@_0CL@OCFDFFNM@Invalid?5DNS?5class?5?$CIPJLIB_UTIL_E@ 0051cd04     pjlib-util-i386-win32-vc8-debug-dynamic:errno.obj
 0003:0001ed38       ??_C@_0DE@FIPILDGP@Invalid?5DNS?5name?5pointer?5?$CIPJLIB@ 0051cd38     pjlib-util-i386-win32-vc8-debug-dynamic:errno.obj
 0003:0001ed78       ??_C@_0DJ@NBOGGJL@Invalid?5DNS?5nameserver?5address?5@ 0051cd78     pjlib-util-i386-win32-vc8-debug-dynamic:errno.obj
 0003:0001edbc       ??_C@_0DH@LFJGDOHB@No?5nameserver?5is?5in?5DNS?5resolve@ 0051cdbc     pjlib-util-i386-win32-vc8-debug-dynamic:errno.obj
 0003:0001ee00       ??_C@_0DH@PHJBLCKD@No?5working?5DNS?5nameserver?5?$CIPJLI@ 0051ce00     pjlib-util-i386-win32-vc8-debug-dynamic:errno.obj
 0003:0001ee48       ??_C@_0EC@HJFBNLFC@No?5answer?5record?5in?5the?5DNS?5res@ 0051ce48     pjlib-util-i386-win32-vc8-debug-dynamic:errno.obj
 0003:0001ee98       ??_C@_0CN@DEFBDJKF@Invalid?5DNS?5answer?5?$CIPJLIB_UTIL_@ 0051ce98     pjlib-util-i386-win32-vc8-debug-dynamic:errno.obj
 0003:0001eed0       ??_C@_0CN@BCAAPMPM@DNS?5?$CCFormat?5error?$CC?5?$CIPJLIB_UTIL_@ 0051ced0     pjlib-util-i386-win32-vc8-debug-dynamic:errno.obj
 0003:0001ef08       ??_C@_0DA@NBPIIAHM@DNS?5?$CCServer?5failure?$CC?5?$CIPJLIB_UTI@ 0051cf08     pjlib-util-i386-win32-vc8-debug-dynamic:errno.obj
 0003:0001ef44       ??_C@_0CM@CNNJNBCA@DNS?5?$CCName?5Error?$CC?5?$CIPJLIB_UTIL_ED@ 0051cf44     pjlib-util-i386-win32-vc8-debug-dynamic:errno.obj
 0003:0001ef78       ??_C@_0DA@DIMDKHPM@DNS?5?$CCNot?5Implemented?$CC?5?$CIPJLIB_UT@ 0051cf78     pjlib-util-i386-win32-vc8-debug-dynamic:errno.obj
 0003:0001efb4       ??_C@_0CI@LDMKLLKJ@DNS?5?$CCRefused?$CC?5?$CIPJLIB_UTIL_EDNS_@ 0051cfb4     pjlib-util-i386-win32-vc8-debug-dynamic:errno.obj
 0003:0001efe4       ??_C@_0DB@PFAMNHPJ@DNS?5?$CCThe?5name?5exists?$CC?5?$CIPJLIB_UT@ 0051cfe4     pjlib-util-i386-win32-vc8-debug-dynamic:errno.obj
 0003:0001f020       ??_C@_0DO@OIIHMCI@DNS?5?$CCThe?5RRset?5?$CIname?0?5type?$CJ?5exi@ 0051d020     pjlib-util-i386-win32-vc8-debug-dynamic:errno.obj
 0003:0001f070       ??_C@_0EG@OMHMBNML@DNS?5?$CCThe?5RRset?5?$CIname?0?5type?$CJ?5doe@ 0051d070     pjlib-util-i386-win32-vc8-debug-dynamic:errno.obj
 0003:0001f0c4       ??_C@_0CP@HJODAHHO@DNS?5?$CCNot?5authorized?$CC?5?$CIPJLIB_UTI@ 0051d0c4     pjlib-util-i386-win32-vc8-debug-dynamic:errno.obj
 0003:0001f100       ??_C@_0EB@GKEHOPAE@DNS?5?$CCThe?5zone?5specified?5is?5not?5@ 0051d100     pjlib-util-i386-win32-vc8-debug-dynamic:errno.obj
 0003:0001f150       ??_C@_0DH@EMGNELGL@Too?5many?5STUN?5attributes?5?$CIPJLIB@ 0051d150     pjlib-util-i386-win32-vc8-debug-dynamic:errno.obj
 0003:0001f194       ??_C@_0DF@KMIPDCMM@Unknown?5STUN?5attribute?5?$CIPJLIB_U@ 0051d194     pjlib-util-i386-win32-vc8-debug-dynamic:errno.obj
 0003:0001f1d4       ??_C@_0DP@PDBNFLFH@Invalid?5STUN?5socket?5address?5len@ 0051d1d4     pjlib-util-i386-win32-vc8-debug-dynamic:errno.obj
 0003:0001f220       ??_C@_0EA@NAKPKGDE@STUN?5IPv6?5attribute?5not?5support@ 0051d220     pjlib-util-i386-win32-vc8-debug-dynamic:errno.obj
 0003:0001f26c       ??_C@_0DO@LEKPMIHP@Expecting?5STUN?5response?5message@ 0051d26c     pjlib-util-i386-win32-vc8-debug-dynamic:errno.obj
 0003:0001f2b8       ??_C@_0DJ@DDEJFFIL@STUN?5transaction?5ID?5mismatch?5?$CIP@ 0051d2b8     pjlib-util-i386-win32-vc8-debug-dynamic:errno.obj
 0003:0001f300       ??_C@_0EI@BNLBFIKH@Unable?5to?5find?5STUN?5handler?5for@ 0051d300     pjlib-util-i386-win32-vc8-debug-dynamic:errno.obj
 0003:0001f358       ??_C@_0FA@DIAPLEFD@Found?5non?9FINGERPRINT?5attr?4?5aft@ 0051d358     pjlib-util-i386-win32-vc8-debug-dynamic:errno.obj
 0003:0001f3b8       ??_C@_0ED@CNMDGMPD@Found?5STUN?5attribute?5after?5FING@ 0051d3b8     pjlib-util-i386-win32-vc8-debug-dynamic:errno.obj
 0003:0001f408       ??_C@_0DN@JLMAJAKN@Missing?5STUN?5USERNAME?5attribute@ 0051d408     pjlib-util-i386-win32-vc8-debug-dynamic:errno.obj
 0003:0001f458       ??_C@_0EK@LMHKLKC@Missing?1invalid?5STUN?5MESSAGE?9IN@ 0051d458     pjlib-util-i386-win32-vc8-debug-dynamic:errno.obj
 0003:0001f4b0       ??_C@_0DJ@BCFNCGF@Found?5duplicate?5STUN?5attribute?5@ 0051d4b0     pjlib-util-i386-win32-vc8-debug-dynamic:errno.obj
 0003:0001f4f4       ??_C@_0DH@MMHMOPBG@Missing?5STUN?5REALM?5attribute?5?$CIP@ 0051d4f4     pjlib-util-i386-win32-vc8-debug-dynamic:errno.obj
 0003:0001f538       ??_C@_0EB@FGOGNHPO@Missing?1stale?5STUN?5NONCE?5attrib@ 0051d538     pjlib-util-i386-win32-vc8-debug-dynamic:errno.obj
 0003:0001f588       ??_C@_0EF@HAPLEMIK@STUN?5transaction?5terminates?5wit@ 0051d588     pjlib-util-i386-win32-vc8-debug-dynamic:errno.obj
 0003:0001f5dc       ??_C@_0CL@GOOAEBLJ@Invalid?5URL?5format?5?$CIPJLIB_UTIL_@ 0051d5dc     pjlib-util-i386-win32-vc8-debug-dynamic:errno.obj
 0003:0001f610       ??_C@_0DB@BDFJPAOA@Invalid?5URL?5port?5number?5?$CIPJLIB_@ 0051d610     pjlib-util-i386-win32-vc8-debug-dynamic:errno.obj
 0003:0001f64c       ??_C@_0DN@CABCKELB@Incomplete?5response?5header?5rece@ 0051d64c     pjlib-util-i386-win32-vc8-debug-dynamic:errno.obj
 0003:0001f698       ??_C@_0CN@MKMAKFDH@Insufficient?5buffer?5?$CIPJLIB_UTIL@ 0051d698     pjlib-util-i386-win32-vc8-debug-dynamic:errno.obj
 0003:0001f6d0       ??_C@_0CH@JNBFBBKA@Connection?5lost?5?$CIPJLIB_UTIL_EHT@ 0051d6d0     pjlib-util-i386-win32-vc8-debug-dynamic:errno.obj
 0003:0001f700       ??_C@_0CE@DHMMOEGP@Exit?5current?5session?5?$CIPJ_CLI_EE@ 0051d700     pjlib-util-i386-win32-vc8-debug-dynamic:errno.obj
 0003:0001f72c       ??_C@_0CG@LEDMCEME@Missing?5argument?5?$CIPJ_CLI_EMISSI@ 0051d72c     pjlib-util-i386-win32-vc8-debug-dynamic:errno.obj
 0003:0001f75c       ??_C@_0CJ@ECODGDHL@Too?5many?5arguments?5?$CIPJ_CLI_ETOO@ 0051d75c     pjlib-util-i386-win32-vc8-debug-dynamic:errno.obj
 0003:0001f790       ??_C@_0CC@NLPGOLED@Invalid?5argument?5?$CIPJ_CLI_EINVAR@ 0051d790     pjlib-util-i386-win32-vc8-debug-dynamic:errno.obj
 0003:0001f7b8       ??_C@_0CO@OOEOBCH@Command?5name?5already?5exists?5?$CIPJ@ 0051d7b8     pjlib-util-i386-win32-vc8-debug-dynamic:errno.obj
 0003:0001f7f0       ??_C@_0CK@MKOACJP@Command?5id?5already?5exists?5?$CIPJ_C@ 0051d7f0     pjlib-util-i386-win32-vc8-debug-dynamic:errno.obj
 0003:0001f824       ??_C@_0CE@LHHCBFML@Invalid?5XML?5format?5?$CIPJ_CLI_EBAD@ 0051d824     pjlib-util-i386-win32-vc8-debug-dynamic:errno.obj
 0003:0001f850       ??_C@_0CF@CKMLJLLP@Connection?5lost?5?$CIPJ_CLI_ETELNET@ 0051d850     pjlib-util-i386-win32-vc8-debug-dynamic:errno.obj
 0003:0001f87c       ??_C@_0BM@LDLEGOFO@Unknown?5pjlib?9util?5error?5?$CFd@ 0051d87c     pjlib-util-i386-win32-vc8-debug-dynamic:errno.obj
 0003:0001f8a0       ??_C@_1HC@CHGJDLBP@?$AAd?$AA?3?$AA?2?$AAp?$AAj?$AAs?$AAi?$AAp?$AA?2?$AAp?$AAj?$AAp?$AAr?$AAo?$AAj@ 0051d8a0     pjlib-util-i386-win32-vc8-debug-dynamic:errno.obj
 0003:0001f928       ??_C@_02BAABKJLB@?9?9@     0051d928     pjlib-util-i386-win32-vc8-debug-dynamic:getopt.obj
 0003:0001f930       ??_C@_1HG@CFBMDHO@?$AAd?$AA?3?$AA?2?$AAp?$AAj?$AAs?$AAi?$AAp?$AA?2?$AAp?$AAj?$AAp?$AAr?$AAo?$AAj@ 0051d930     pjlib-util-i386-win32-vc8-debug-dynamic:scanner.obj
 0003:0001f9c0       ??_C@_1BG@BNCNGJJK@?$AAc?$AAs?$AAt?$AAa?$AAr?$AAt?$AA?5?$AA?$DO?$AA?5?$AA0@ 0051d9c0     pjlib-util-i386-win32-vc8-debug-dynamic:scanner.obj
 0003:0001f9dc       ??_C@_0DL@LHIPNDIG@d?3?2pjsip?2pjproject?92?48?2pjlib?9ut@ 0051d9dc     pjlib-util-i386-win32-vc8-debug-dynamic:scanner.obj
 0003:0001fa24       ??_C@_1DA@FEHFDNDH@?$AAp?$AAj?$AA_?$AAc?$AAi?$AAs?$AA_?$AAm?$AAa?$AAt?$AAc?$AAh?$AA?$CI?$AAs?$AAp@ 0051da24     pjlib-util-i386-win32-vc8-debug-dynamic:scanner.obj
 0003:0001fa60       ??_C@_1DE@FFIKCEEP@?$AAp?$AAj?$AA_?$AAc?$AAi?$AAs?$AA_?$AAm?$AAa?$AAt?$AAc?$AAh?$AA?$CI?$AAs?$AAp@ 0051da60     pjlib-util-i386-win32-vc8-debug-dynamic:scanner.obj
 0003:0001faa0       ??_C@_1BE@DNGPADLB@?$AAq?$AAs?$AAi?$AAz?$AAe?$AA?5?$AA?$DO?$AA?5?$AA0@ 0051daa0     pjlib-util-i386-win32-vc8-debug-dynamic:scanner.obj
 0003:0001fab8       ??_C@_07IAIHCIDD@Probing@  0051dab8     pjlib-util-i386-win32-vc8-debug-dynamic:resolver.obj
 0003:0001fac4       ??_C@_06MAFFGDO@Active@    0051dac4     pjlib-util-i386-win32-vc8-debug-dynamic:resolver.obj
 0003:0001facc       ??_C@_03KHCCLPOB@Bad@      0051dacc     pjlib-util-i386-win32-vc8-debug-dynamic:resolver.obj
 0003:0001fad0       ??_C@_1HI@GCIDFMNK@?$AAd?$AA?3?$AA?2?$AAp?$AAj?$AAs?$AAi?$AAp?$AA?2?$AAp?$AAj?$AAp?$AAr?$AAo?$AAj@ 0051dad0     pjlib-util-i386-win32-vc8-debug-dynamic:resolver.obj
 0003:0001fb60       ??_C@_1CC@OFBCCIJI@?$AAp?$AAf?$AA?5?$AA?$CG?$AA?$CG?$AA?5?$AAp?$AA_?$AAr?$AAe?$AAs?$AAo?$AAl?$AAv?$AAe@ 0051db60     pjlib-util-i386-win32-vc8-debug-dynamic:resolver.obj
 0003:0001fb88       ??_C@_0L@LIJHCMPL@resolver?4c@ 0051db88     pjlib-util-i386-win32-vc8-debug-dynamic:resolver.obj
 0003:0001fb98       ??_C@_1BC@ODGDHABI@?$AAr?$AAe?$AAs?$AAo?$AAl?$AAv?$AAe?$AAr@ 0051db98     pjlib-util-i386-win32-vc8-debug-dynamic:resolver.obj
 0003:0001fbb0       ??_C@_1DK@JOOBACGJ@?$AAr?$AAe?$AAs?$AAo?$AAl?$AAv?$AAe?$AAr?$AA?5?$AA?$CG?$AA?$CG?$AA?5?$AAc?$AAo?$AAu@ 0051dbb0     pjlib-util-i386-win32-vc8-debug-dynamic:resolver.obj
 0003:0001fbf8       ??_C@_1BG@DBJIMINH@?$AAc?$AAo?$AAu?$AAn?$AAt?$AA?5?$AA?$DM?$AA?5?$AA1?$AA6@ 0051dbf8     pjlib-util-i386-win32-vc8-debug-dynamic:resolver.obj
 0003:0001fc14       ??_C@_1BO@CFOLJEAJ@?$AAr?$AAe?$AAs?$AAo?$AAl?$AAv?$AAe?$AAr?$AA?5?$AA?$CG?$AA?$CG?$AA?5?$AAs?$AAt@ 0051dc14     pjlib-util-i386-win32-vc8-debug-dynamic:resolver.obj
 0003:0001fc38       ??_C@_1CO@ILJIFBPI@?$AAq?$AA?9?$AA?$DO?$AAt?$AAi?$AAm?$AAe?$AAr?$AA_?$AAe?$AAn?$AAt?$AAr?$AAy?$AA?4@ 0051dc38     pjlib-util-i386-win32-vc8-debug-dynamic:resolver.obj
 0003:0001fc70       ??_C@_0BH@PPEBBIFJ@?0?5will?5try?5again?5later@ 0051dc70     pjlib-util-i386-win32-vc8-debug-dynamic:resolver.obj
 0003:0001fc8c       ??_C@_0DC@GOFLGJND@Socket?5busy?5in?5transmitting?5DNS@ 0051dc8c     pjlib-util-i386-win32-vc8-debug-dynamic:resolver.obj
 0003:0001fcc8       ??_C@_0N@IBGJGPJN@Transmitting@ 0051dcc8     pjlib-util-i386-win32-vc8-debug-dynamic:resolver.obj
 0003:0001fcd8       ??_C@_0BA@JFAGDHFD@Re?9transmitting@ 0051dcd8     pjlib-util-i386-win32-vc8-debug-dynamic:resolver.obj
 0003:0001fcec       ??_C@_0DC@PBGKNNLN@?$CFs?5?$CFd?5bytes?5to?5NS?5?$CFd?5?$CI?$CFs?3?$CFd?$CJ?3?5D@ 0051dcec     pjlib-util-i386-win32-vc8-debug-dynamic:resolver.obj
 0003:0001fd28       ??_C@_08FNHHDNFI@dnscache@ 0051dd28     pjlib-util-i386-win32-vc8-debug-dynamic:resolver.obj
 0003:0001fd34       ??_C@_1DC@JIMKOFBN@?$AAr?$AAe?$AAs?$AAo?$AAl?$AAv?$AAe?$AAr?$AA?5?$AA?$CG?$AA?$CG?$AA?5?$AAn?$AAa?$AAm@ 0051dd34     pjlib-util-i386-win32-vc8-debug-dynamic:resolver.obj
 0003:0001fd70       ??_C@_1EG@EMHOAJBD@?$AAn?$AAa?$AAm?$AAe?$AA?9?$AA?$DO?$AAs?$AAl?$AAe?$AAn?$AA?$DO?$AA0?$AA?5?$AA?$CG?$AA?$CG@ 0051dd70     pjlib-util-i386-win32-vc8-debug-dynamic:resolver.obj
 0003:0001fdc4       ??_C@_1DE@BCKLCGBP@?$AAt?$AAy?$AAp?$AAe?$AA?5?$AA?$DO?$AA?5?$AA0?$AA?5?$AA?$CG?$AA?$CG?$AA?5?$AAt?$AAy?$AAp@ 0051ddc4     pjlib-util-i386-win32-vc8-debug-dynamic:resolver.obj
 0003:0001fe04       ??_C@_0DE@LLACOPGB@Picked?5up?5DNS?5?$CFs?5record?5for?5?$CF?4?$CK@ 0051de04     pjlib-util-i386-win32-vc8-debug-dynamic:resolver.obj
 0003:0001fe44       ??_C@_1M@ODHDFHNE@?$AAq?$AAu?$AAe?$AAr?$AAy@ 0051de44     pjlib-util-i386-win32-vc8-debug-dynamic:resolver.obj
 0003:0001fe54       ??_C@_1BG@GGFBPIED@?$AAp?$AAk?$AAt?$AA?5?$AA?$CG?$AA?$CG?$AA?5?$AAr?$AAe?$AAc@ 0051de54     pjlib-util-i386-win32-vc8-debug-dynamic:resolver.obj
 0003:0001fe70       ??_C@_0CJ@MMDCPKPE@Nameserver?5?$CFs?3?$CFd?5state?5changed?5@ 0051de70     pjlib-util-i386-win32-vc8-debug-dynamic:resolver.obj
 0003:0001fea4       ??_C@_1BM@DEGOKKDC@?$AAm?$AAa?$AAx?$AA_?$AAc?$AAo?$AAu?$AAn?$AAt?$AA?5?$AA?$DO?$AA?5?$AA0@ 0051dea4     pjlib-util-i386-win32-vc8-debug-dynamic:resolver.obj
 0003:0001fec8       ??_C@_0BP@GLADIPED@Error?5transmitting?5request?3?5?$CFs@ 0051dec8     pjlib-util-i386-win32-vc8-debug-dynamic:resolver.obj
 0003:0001fef0       ??_C@_0BM@NDPEOFNB@DNS?5resolver?5read?5error?3?5?$CFs@ 0051def0     pjlib-util-i386-win32-vc8-debug-dynamic:resolver.obj
 0003:0001ff14       ??_C@_0CK@MMBMIKLP@Received?5?$CFd?5bytes?5DNS?5response?5@ 0051df14     pjlib-util-i386-win32-vc8-debug-dynamic:resolver.obj
 0003:0001ff48       ??_C@_06HEECPDDL@restmp@   0051df48     pjlib-util-i386-win32-vc8-debug-dynamic:resolver.obj
 0003:0001ff50       ??_C@_0CK@NLLFBPNI@Error?5parsing?5DNS?5response?5from@ 0051df50     pjlib-util-i386-win32-vc8-debug-dynamic:resolver.obj
 0003:0001ff84       ??_C@_0CI@NOCPIGKM@DNS?5response?5from?5?$CFs?3?$CFd?5id?$DN?$CFd?5d@ 0051df84     pjlib-util-i386-win32-vc8-debug-dynamic:resolver.obj
 0003:0001ffb4       ??_C@_1CO@LGAKDAJO@?$AAq?$AA?9?$AA?$DO?$AAt?$AAi?$AAm?$AAe?$AAr?$AA_?$AAe?$AAn?$AAt?$AAr?$AAy?$AA?4@ 0051dfb4     pjlib-util-i386-win32-vc8-debug-dynamic:resolver.obj
 0003:0001ffec       ??_C@_0CE@JHMLGLFH@DNS?5resolver?5ioqueue?5read?5error@ 0051dfec     pjlib-util-i386-win32-vc8-debug-dynamic:resolver.obj
 0003:00020018       ??_C@_0BA@EBCKFBNG@Unhandled?5error@ 0051e018     pjlib-util-i386-win32-vc8-debug-dynamic:resolver.obj
 0003:0002002c       ??_C@_1CG@HGDGJNAK@?$AA?$CB?$AA?$CC?$AAU?$AAn?$AAh?$AAa?$AAn?$AAd?$AAl?$AAe?$AAd?$AA?5?$AAe?$AAr?$AAr@ 0051e02c     pjlib-util-i386-win32-vc8-debug-dynamic:resolver.obj
 0003:0002005c       ??_C@_1CA@LOPCEJJJ@?$AAr?$AAe?$AAs?$AAo?$AAl?$AAv?$AAe?$AAr?$AA?5?$AA?$CG?$AA?$CG?$AA?5?$AAp?$AAk?$AAt@ 0051e05c     pjlib-util-i386-win32-vc8-debug-dynamic:resolver.obj
 0003:00020088       ??_C@_1HI@JPFAAAJI@?$AA?$CI?$AA?$CI?$AA?$CI?$AAp?$AAk?$AAt?$AA?9?$AA?$DO?$AAh?$AAd?$AAr?$AA?4?$AAf?$AAl?$AAa@ 0051e088     pjlib-util-i386-win32-vc8-debug-dynamic:resolver.obj
 0003:00020118       ??_C@_1IA@BBOEGBAL@?$AA?$CI?$AAp?$AAk?$AAt?$AA?9?$AA?$DO?$AAh?$AAd?$AAr?$AA?4?$AAa?$AAn?$AAs?$AAc?$AAo@ 0051e118     pjlib-util-i386-win32-vc8-debug-dynamic:resolver.obj
 0003:000201b4       ??_C@_1DM@FHJBJANL@?$AAp?$AAk?$AAt?$AA?9?$AA?$DO?$AAa?$AAn?$AAs?$AA?$FL?$AA0?$AA?$FN?$AA?4?$AAn?$AAa?$AAm@ 0051e1b4     pjlib-util-i386-win32-vc8-debug-dynamic:resolver.obj
 0003:000201fc       ??_C@_1DI@JEHHLBLM@?$AAp?$AAk?$AAt?$AA?9?$AA?$DO?$AAq?$AA?$FL?$AA0?$AA?$FN?$AA?4?$AAn?$AAa?$AAm?$AAe?$AA?4@ 0051e1fc     pjlib-util-i386-win32-vc8-debug-dynamic:resolver.obj
 0003:00020240       ??_C@_0BJ@DHDGEIGD@?5Dumping?5resolver?5state?3@ 0051e240     pjlib-util-i386-win32-vc8-debug-dynamic:resolver.obj
 0003:00020260       ??_C@_0BA@BJIJOCOE@?5?5Name?5servers?3@ 0051e260     pjlib-util-i386-win32-vc8-debug-dynamic:resolver.obj
 0003:00020274       ??_C@_0DA@FCCMJHFI@?5?5?5NS?5?$CFd?3?5?$CFs?3?$CFd?5?$CIstate?$DN?$CFs?5until@ 0051e274     pjlib-util-i386-win32-vc8-debug-dynamic:resolver.obj
 0003:000202b0       ??_C@_0BO@LKJCLCIL@?5?5Nb?4?5of?5cached?5responses?3?5?$CFu@ 0051e2b0     pjlib-util-i386-win32-vc8-debug-dynamic:resolver.obj
 0003:000202d4       ??_C@_0P@BMCOBHPI@?5?5?5Type?5?$CFs?3?5?$CFs@ 0051e2d4     pjlib-util-i386-win32-vc8-debug-dynamic:resolver.obj
 0003:000202e8       ??_C@_0CC@ENHNPIME@?5?5Nb?4?5of?5pending?5queries?3?5?$CFu?5?$CI?$CF@ 0051e2e8     pjlib-util-i386-win32-vc8-debug-dynamic:resolver.obj
 0003:00020310       ??_C@_0CG@DNEONFED@?5?5Nb?4?5of?5pending?5query?5free?5nod@ 0051e310     pjlib-util-i386-win32-vc8-debug-dynamic:resolver.obj
 0003:00020340       ??_C@_0BL@OIOIOFBO@?5?5Nb?4?5of?5timer?5entries?3?5?$CFu@ 0051e340     pjlib-util-i386-win32-vc8-debug-dynamic:resolver.obj
 0003:00020360       ??_C@_0CD@MOCMLNNF@?5?5Pool?5capacity?3?5?$CFd?0?5used?5size?3@ 0051e360     pjlib-util-i386-win32-vc8-debug-dynamic:resolver.obj
 0003:0002038c       ??_C@_01FHEEJDEE@A@        0051e38c     pjlib-util-i386-win32-vc8-debug-dynamic:dns.obj
 0003:00020390       ??_C@_04OHNMNPPA@AAAA@     0051e390     pjlib-util-i386-win32-vc8-debug-dynamic:dns.obj
 0003:00020398       ??_C@_03IENKIAKD@SRV@      0051e398     pjlib-util-i386-win32-vc8-debug-dynamic:dns.obj
 0003:0002039c       ??_C@_02OLCMIILA@NS@       0051e39c     pjlib-util-i386-win32-vc8-debug-dynamic:dns.obj
 0003:000203a0       ??_C@_05PGNGFKDN@CNAME@    0051e3a0     pjlib-util-i386-win32-vc8-debug-dynamic:dns.obj
 0003:000203a8       ??_C@_03PGIOJGPL@PTR@      0051e3a8     pjlib-util-i386-win32-vc8-debug-dynamic:dns.obj
 0003:000203ac       ??_C@_02KJOOPCC@MX@        0051e3ac     pjlib-util-i386-win32-vc8-debug-dynamic:dns.obj
 0003:000203b0       ??_C@_03CGKMFPEO@TXT@      0051e3b0     pjlib-util-i386-win32-vc8-debug-dynamic:dns.obj
 0003:000203b4       ??_C@_05DGMJPCKB@NAPTR@    0051e3b4     pjlib-util-i386-win32-vc8-debug-dynamic:dns.obj
 0003:000203bc       ??_C@_09ONJBBFFA@?$CIUnknown?$CJ@ 0051e3bc     pjlib-util-i386-win32-vc8-debug-dynamic:dns.obj
 0003:000203c8       ??_C@_1GO@HPKGEHMB@?$AAd?$AA?3?$AA?2?$AAp?$AAj?$AAs?$AAi?$AAp?$AA?2?$AAp?$AAj?$AAp?$AAr?$AAo?$AAj@ 0051e3c8     pjlib-util-i386-win32-vc8-debug-dynamic:dns.obj
 0003:00020450       ??_C@_1EA@GPIEHAJL@?$AAp?$AAa?$AAc?$AAk?$AAe?$AAt?$AA?5?$AA?$CG?$AA?$CG?$AA?5?$AAs?$AAi?$AAz?$AAe?$AA?5@ 0051e450     pjlib-util-i386-win32-vc8-debug-dynamic:dns.obj
 0003:0002049c       ??_C@_1BG@NHHJFHNP@?$AA?$CK?$AAs?$AAi?$AAz?$AAe?$AA?5?$AA?$DO?$AA?$DN?$AA?5?$AAd@ 0051e49c     pjlib-util-i386-win32-vc8-debug-dynamic:dns.obj
 0003:000204b8       ??_C@_1EA@OPKPHOGB@?$AAp?$AAo?$AAo?$AAl?$AA?5?$AA?$CG?$AA?$CG?$AA?5?$AAp?$AAa?$AAc?$AAk?$AAe?$AAt?$AA?5@ 0051e4b8     pjlib-util-i386-win32-vc8-debug-dynamic:dns.obj
 0003:00020504       ??_C@_1CG@DJNOHJMO@?$AAp?$AAo?$AAo?$AAl?$AA?5?$AA?$CG?$AA?$CG?$AA?5?$AAp?$AA?5?$AA?$CG?$AA?$CG?$AA?5?$AAp?$AA_@ 0051e504     pjlib-util-i386-win32-vc8-debug-dynamic:dns.obj
 0003:00020538       ??_C@_1IA@HMAGFLHP@?$AAd?$AA?3?$AA?2?$AAp?$AAj?$AAs?$AAi?$AAp?$AA?2?$AAp?$AAj?$AAp?$AAr?$AAo?$AAj@ 0051e538     pjlib-util-i386-win32-vc8-debug-dynamic:srv_resolver.obj
 0003:000205d8       ??_C@_1LC@GLFIPECN@?$AAd?$AAo?$AAm?$AAa?$AAi?$AAn?$AA_?$AAn?$AAa?$AAm?$AAe?$AA?5?$AA?$CG?$AA?$CG?$AA?5@ 0051e5d8     pjlib-util-i386-win32-vc8-debug-dynamic:srv_resolver.obj
 0003:000206b0       ??_C@_01LFCBOECM@?4@       0051e6b0     pjlib-util-i386-win32-vc8-debug-dynamic:srv_resolver.obj
 0003:000206b4       ??_C@_0DA@GGGKMBOI@Starting?5async?5DNS?5?$CFs?5query_job@ 0051e6b4     pjlib-util-i386-win32-vc8-debug-dynamic:srv_resolver.obj
 0003:000206f0       ??_C@_0CL@ICCMMEFF@Received?5non?5SRV?5answer?5for?5SRV@ 0051e6f0     pjlib-util-i386-win32-vc8-debug-dynamic:srv_resolver.obj
 0003:00020724       ??_C@_0BG@OENDJHLB@Hostname?5is?5too?5long?$CB@ 0051e724     pjlib-util-i386-win32-vc8-debug-dynamic:srv_resolver.obj
 0003:00020740       ??_C@_0CJ@IGNPBKGN@Could?5not?5find?5SRV?5record?5in?5DN@ 0051e740     pjlib-util-i386-win32-vc8-debug-dynamic:srv_resolver.obj
 0003:00020774       ??_C@_1BK@GGFKDK@?$AAj?$AA?5?$AA?$CB?$AA?$DN?$AA?5?$AAi?$AA?$CL?$AAc?$AAo?$AAu?$AAn?$AAt@ 0051e774     pjlib-util-i386-win32-vc8-debug-dynamic:srv_resolver.obj
 0003:00020798       ??_C@_0EE@LPMFAMKM@SRV?5query_job?5for?5?$CF?4?$CKs?5complete@ 0051e798     pjlib-util-i386-win32-vc8-debug-dynamic:srv_resolver.obj
 0003:000207ec       ??_C@_0BM@MJBLDIAG@?5?$CFd?3?5SRV?5?$CFd?5?$CFd?5?$CFd?5?$CF?4?$CKs?5?$CI?$CFs?$CJ@ 0051e7ec     pjlib-util-i386-win32-vc8-debug-dynamic:srv_resolver.obj
 0003:00020810       ??_C@_0CI@IBPJGCBL@Starting?5async?5DNS?5A?5query_job?5@ 0051e810     pjlib-util-i386-win32-vc8-debug-dynamic:srv_resolver.obj
 0003:00020840       ??_C@_0BG@FLJDAEL@Unexpected?5user?5data?$CB@ 0051e840     pjlib-util-i386-win32-vc8-debug-dynamic:srv_resolver.obj
 0003:0002085c       ??_C@_1DC@DFELOOOO@?$AA?$CB?$AA?$CC?$AAU?$AAn?$AAe?$AAx?$AAp?$AAe?$AAc?$AAt?$AAe?$AAd?$AA?5?$AAu?$AAs@ 0051e85c     pjlib-util-i386-win32-vc8-debug-dynamic:srv_resolver.obj
 0003:00020898       ??_C@_0CH@COCLGFLO@DNS?5SRV?5resolution?5failed?5for?5?$CF@ 0051e898     pjlib-util-i386-win32-vc8-debug-dynamic:srv_resolver.obj
 0003:000208c8       ??_C@_0EM@PBBBMOKP@DNS?5SRV?5resolution?5failed?5for?5?$CF@ 0051e8c8     pjlib-util-i386-win32-vc8-debug-dynamic:srv_resolver.obj
 0003:00020924       ??_C@_0BE@MGGIKNDB@Unexpected?5job?5type@ 0051e924     pjlib-util-i386-win32-vc8-debug-dynamic:srv_resolver.obj
 0003:0002093c       ??_C@_1CO@NIGIGFIO@?$AA?$CB?$AA?$CC?$AAU?$AAn?$AAe?$AAx?$AAp?$AAe?$AAc?$AAt?$AAe?$AAd?$AA?5?$AAj?$AAo@ 0051e93c     pjlib-util-i386-win32-vc8-debug-dynamic:srv_resolver.obj
 0003:00020974       ??_C@_0DC@FOMADMGC@DNS?5?$CFs?5record?5parse?5error?5for?5?8@ 0051e974     pjlib-util-i386-win32-vc8-debug-dynamic:srv_resolver.obj
 0003:000209b0       ??_C@_1CI@NHDLLOGC@?$AAr?$AAe?$AAc?$AA?4?$AAa?$AAd?$AAd?$AAr?$AA_?$AAc?$AAo?$AAu?$AAn?$AAt?$AA?5@ 0051e9b0     pjlib-util-i386-win32-vc8-debug-dynamic:srv_resolver.obj
 0003:000209e0       ??_C@_1FM@BHHJCKDA@?$AAr?$AAe?$AAc?$AA?4?$AAa?$AAl?$AAi?$AAa?$AAs?$AA?4?$AAs?$AAl?$AAe?$AAn?$AA?5@ 0051e9e0     pjlib-util-i386-win32-vc8-debug-dynamic:srv_resolver.obj
 0003:00020a50       ??_C@_0CM@GNPJLEOH@Bad?5address?5family?5in?5DNS?5?$CFs?5qu@ 0051ea50     pjlib-util-i386-win32-vc8-debug-dynamic:srv_resolver.obj
 0003:00020a84       ??_C@_0BE@BLHHGJAP@DNS?5?$CFs?5for?5?$CF?4?$CKs?3?5?$CFs@ 0051ea84     pjlib-util-i386-win32-vc8-debug-dynamic:srv_resolver.obj
 0003:00020a9c       ??_C@_0CE@INBOJAA@DNS?5?$CFs?5record?5resolution?5failed@ 0051ea9c     pjlib-util-i386-win32-vc8-debug-dynamic:srv_resolver.obj
 0003:00020ac8       ??_C@_0BC@LIDAFMDL@Unexpected?5state?$CB@ 0051eac8     pjlib-util-i386-win32-vc8-debug-dynamic:srv_resolver.obj
 0003:00020ae0       ??_C@_1CK@DKOGKPLJ@?$AA?$CB?$AA?$CC?$AAU?$AAn?$AAe?$AAx?$AAp?$AAe?$AAc?$AAt?$AAe?$AAd?$AA?5?$AAs?$AAt@ 0051eae0     pjlib-util-i386-win32-vc8-debug-dynamic:srv_resolver.obj
 0003:00020b14       ??_C@_1CI@PKNHBFME@?$AAs?$AAr?$AAv?$AA2?$AA?9?$AA?$DO?$AAa?$AAd?$AAd?$AAr?$AA_?$AAc?$AAn?$AAt?$AA?5@ 0051eb14     pjlib-util-i386-win32-vc8-debug-dynamic:srv_resolver.obj
 0003:00020b44       ??_C@_0DF@NMOAKAGH@Server?5resolution?5complete?0?5?$CFd?5@ 0051eb44     pjlib-util-i386-win32-vc8-debug-dynamic:srv_resolver.obj
 0003:00020b84       ??_C@_0DH@GBMACLIM@DNS?5?$CFs?5record?5resolution?5error?5@ 0051eb84     pjlib-util-i386-win32-vc8-debug-dynamic:srv_resolver.obj
 0003:00020c18       ??_C@_1HE@IMCCMEJN@?$AAd?$AA?3?$AA?2?$AAp?$AAj?$AAs?$AAi?$AAp?$AA?2?$AAp?$AAj?$AAp?$AAr?$AAo?$AAj@ 0051ec18     pjlib-util-i386-win32-vc8-debug-dynamic:base64.obj
 0003:00020ca4       ??_C@_1DG@FBBIODPK@?$AAi?$AAn?$AAp?$AAu?$AAt?$AA?5?$AA?$CG?$AA?$CG?$AA?5?$AAo?$AAu?$AAt?$AAp?$AAu?$AAt@ 0051eca4     pjlib-util-i386-win32-vc8-debug-dynamic:base64.obj
 0003:00020ce8       ??_C@_1EC@PACNHEMO@?$AA?$CK?$AAo?$AAu?$AAt?$AA_?$AAl?$AAe?$AAn?$AA?5?$AA?$DO?$AA?$DN?$AA?5?$AA?$CI?$AAi?$AAn@ 0051ece8     pjlib-util-i386-win32-vc8-debug-dynamic:base64.obj
 0003:00020d38       ??_C@_1DA@PGJCBFEE@?$AAi?$AAn?$AAp?$AAu?$AAt?$AA?5?$AA?$CG?$AA?$CG?$AA?5?$AAo?$AAu?$AAt?$AA?5?$AA?$CG?$AA?$CG@ 0051ed38     pjlib-util-i386-win32-vc8-debug-dynamic:base64.obj
 0003:00020d74       ??_C@_1DE@FJIMPKJC@?$AA?$CK?$AAo?$AAu?$AAt?$AA_?$AAl?$AAe?$AAn?$AA?5?$AA?$DO?$AA?$DN?$AA?5?$AA?$CI?$AAl?$AAe@ 0051ed74     pjlib-util-i386-win32-vc8-debug-dynamic:base64.obj
 0003:00020db4       ??_C@_1BM@KLMFDCDD@?$AAj?$AA?5?$AA?$DM?$AA?$DN?$AA?5?$AA?$CK?$AAo?$AAu?$AAt?$AA_?$AAl?$AAe?$AAn@ 0051edb4     pjlib-util-i386-win32-vc8-debug-dynamic:base64.obj
 0003:00020dd8       ??_C@_04IFCNACLH@pj?$CFp@  0051edd8     pjlib-i386-win32-vc8-debug-dynamic:os_core_win32.obj
 0003:00020de0       ??_C@_0BA@NGJFHJA@PJLIB?1No?5memory@ 0051ede0     pjlib-i386-win32-vc8-debug-dynamic:os_core_win32.obj
 0003:00020df8       ??_C@_1GI@NLIDAGMB@?$AAd?$AA?3?$AA?2?$AAp?$AAj?$AAs?$AAi?$AAp?$AA?2?$AAp?$AAj?$AAp?$AAr?$AAo?$AAj@ 0051edf8     pjlib-i386-win32-vc8-debug-dynamic:os_core_win32.obj
 0003:00020e74       ??_C@_1CC@OPMEMEDD@?$AAi?$AAn?$AAi?$AAt?$AAi?$AAa?$AAl?$AAi?$AAz?$AAe?$AAd?$AA?5?$AA?$DN?$AA?$DN?$AA?5@ 0051ee74     pjlib-i386-win32-vc8-debug-dynamic:os_core_win32.obj
 0003:00020e9c       ??_C@_0BP@NGEKBPIB@pjlib?5?$CFs?5for?5win32?5initialized@ 0051ee9c     pjlib-i386-win32-vc8-debug-dynamic:os_core_win32.obj
 0003:00020ec4       ??_C@_0BA@FNCACAIG@os_core_win32?4c@ 0051eec4     pjlib-i386-win32-vc8-debug-dynamic:os_core_win32.obj
 0003:00020ed8       ??_C@_1CA@HCJBFJFA@?$AAi?$AAn?$AAi?$AAt?$AAi?$AAa?$AAl?$AAi?$AAz?$AAe?$AAd?$AA?5?$AA?$DO?$AA?5?$AA0@ 0051eed8     pjlib-i386-win32-vc8-debug-dynamic:os_core_win32.obj
 0003:00020f00       ??_C@_0CI@EAKIIBBA@Main?5thread?5stack?5max?5usage?$DN?$CFu?5@ 0051ef00     pjlib-i386-win32-vc8-debug-dynamic:os_core_win32.obj
 0003:00020f30       ??_C@_0DE@FMBDMABK@d?3?2pjsip?2pjproject?92?48?2pjlib?2sr@ 0051ef30     pjlib-i386-win32-vc8-debug-dynamic:os_core_win32.obj
 0003:00020f70       ??_C@_1O@OOICOHEB@?$AAt?$AAh?$AAr?$AAe?$AAa?$AAd@ 0051ef70     pjlib-i386-win32-vc8-debug-dynamic:os_core_win32.obj
 0003:00020f80       ??_C@_1DA@EPDLFMNN@?$AAp?$AAr?$AAi?$AAo?$AA?$DO?$AA?$DN?$AA?$CI?$AA?9?$AA1?$AA5?$AA?$CJ?$AA?5?$AA?$CG?$AA?$CG?$AA?5@ 0051ef80     pjlib-i386-win32-vc8-debug-dynamic:os_core_win32.obj
 0003:00020fbc       ??_C@_0CA@KDDLBGGI@Not?5enough?5pj_thread_desc?5size?$CB@ 0051efbc     pjlib-i386-win32-vc8-debug-dynamic:os_core_win32.obj
 0003:00020fe8       ??_C@_1EG@HCJPCAON@?$AA?$CB?$AA?$CC?$AAN?$AAo?$AAt?$AA?5?$AAe?$AAn?$AAo?$AAu?$AAg?$AAh?$AA?5?$AAp?$AAj@ 0051efe8     pjlib-i386-win32-vc8-debug-dynamic:os_core_win32.obj
 0003:0002103c       ??_C@_05KHEDLION@thr?$CFp@ 0051f03c     pjlib-i386-win32-vc8-debug-dynamic:os_core_win32.obj
 0003:00021044       ??_C@_0CC@JLGHEGJO@TLS?5is?5not?5set?5?$CIpj_init?$CI?$CJ?5error@ 0051f044     pjlib-i386-win32-vc8-debug-dynamic:os_core_win32.obj
 0003:00021070       ??_C@_1EK@KGMDGLFJ@?$AA?$CB?$AA?$CC?$AAT?$AAL?$AAS?$AA?5?$AAi?$AAs?$AA?5?$AAn?$AAo?$AAt?$AA?5?$AAs?$AAe@ 0051f070     pjlib-i386-win32-vc8-debug-dynamic:os_core_win32.obj
 0003:000210c8       ??_C@_0CD@GPHECFNA@Thread?5stack?5max?5usage?$DN?$CFu?5by?5?$CFs@ 0051f0c8     pjlib-i386-win32-vc8-debug-dynamic:os_core_win32.obj
 0003:000210f4       ??_C@_1DG@GPPEEMGI@?$AAp?$AAo?$AAo?$AAl?$AA?5?$AA?$CG?$AA?$CG?$AA?5?$AAp?$AAr?$AAo?$AAc?$AA?5?$AA?$CG?$AA?$CG@ 0051f0f4     pjlib-i386-win32-vc8-debug-dynamic:os_core_win32.obj
 0003:00021134       ??_C@_13LFIEIAHP@?$AAp@    0051f134     pjlib-i386-win32-vc8-debug-dynamic:os_core_win32.obj
 0003:00021138       ??_C@_0IN@DGHJHPPL@Calling?5pjlib?5from?5unknown?1exte@ 0051f138     pjlib-i386-win32-vc8-debug-dynamic:os_core_win32.obj
 0003:000211e8       ??_C@_1BCM@LMJGLOKF@?$AA?$CB?$AA?$CC?$AAC?$AAa?$AAl?$AAl?$AAi?$AAn?$AAg?$AA?5?$AAp?$AAj?$AAl?$AAi?$AAb@ 0051f1e8     pjlib-i386-win32-vc8-debug-dynamic:os_core_win32.obj
 0003:00021350       ??_C@_0BC@GDBGMOLB@STACK?5OVERFLOW?$CB?$CB?5@ 0051f350     pjlib-i386-win32-vc8-debug-dynamic:os_core_win32.obj
 0003:00021368       ??_C@_1HC@CNEMGLGB@?$AA?$CC?$AAS?$AAT?$AAA?$AAC?$AAK?$AA?5?$AAO?$AAV?$AAE?$AAR?$AAF?$AAL?$AAO?$AAW@ 0051f368     pjlib-i386-win32-vc8-debug-dynamic:os_core_win32.obj
 0003:000213f0       ??_C@_17PCHMAMGJ@?$AAv?$AAa?$AAr@ 0051f3f0     pjlib-i386-win32-vc8-debug-dynamic:os_core_win32.obj
 0003:000213fc       ??_C@_1BG@PPEGLHPH@?$AAa?$AAt?$AAo?$AAm?$AAi?$AAc?$AA_?$AAv?$AAa?$AAr@ 0051f3fc     pjlib-i386-win32-vc8-debug-dynamic:os_core_win32.obj
 0003:00021418       ??_C@_1CK@HHDJMMIF@?$AAi?$AAn?$AAd?$AAe?$AAx?$AA?5?$AA?$CB?$AA?$DN?$AA?5?$AA?$CI?$AA?$CI?$AAv?$AAo?$AAi?$AAd@ 0051f418     pjlib-i386-win32-vc8-debug-dynamic:os_core_win32.obj
 0003:0002144c       ??_C@_05EJDHHBFJ@mtx?$CFp@ 0051f44c     pjlib-i386-win32-vc8-debug-dynamic:os_core_win32.obj
 0003:00021454       ??_C@_1CE@MHFMCIAM@?$AAp?$AAo?$AAo?$AAl?$AA?5?$AA?$CG?$AA?$CG?$AA?5?$AAm?$AAu?$AAt?$AAe?$AAx?$AA_?$AAp@ 0051f454     pjlib-i386-win32-vc8-debug-dynamic:os_core_win32.obj
 0003:00021480       ??_C@_1M@PMBPJDFK@?$AAm?$AAu?$AAt?$AAe?$AAx@ 0051f480     pjlib-i386-win32-vc8-debug-dynamic:os_core_win32.obj
 0003:00021490       ??_C@_1EC@GCIAJGPL@?$AAm?$AAu?$AAt?$AAe?$AAx?$AA?9?$AA?$DO?$AAo?$AAw?$AAn?$AAe?$AAr?$AA?5?$AA?$DN?$AA?$DN@ 0051f490     pjlib-i386-win32-vc8-debug-dynamic:os_core_win32.obj
 0003:000214e0       ??_C@_1GC@PJJPAHKO@?$AAd?$AA?3?$AA?2?$AAp?$AAj?$AAs?$AAi?$AAp?$AA?2?$AAp?$AAj?$AAp?$AAr?$AAo?$AAj@ 0051f4e0     pjlib-i386-win32-vc8-debug-dynamic:os_core_win32.obj
 0003:00021558       ??_C@_1CA@LHAPCNHN@?$AAp?$AAo?$AAo?$AAl?$AA?5?$AA?$CG?$AA?$CG?$AA?5?$AAp?$AA_?$AAm?$AAu?$AAt?$AAe?$AAx@ 0051f558     pjlib-i386-win32-vc8-debug-dynamic:os_core_win32.obj
 0003:00021580       ??_C@_0BP@HDILOBIG@This?5pretty?5much?5is?5unexpected@ 0051f580     pjlib-i386-win32-vc8-debug-dynamic:os_core_win32.obj
 0003:000215a8       ??_C@_1EE@FBNPIAAA@?$AA?$CB?$AA?$CC?$AAT?$AAh?$AAi?$AAs?$AA?5?$AAp?$AAr?$AAe?$AAt?$AAt?$AAy?$AA?5?$AAm@ 0051f5a8     pjlib-i386-win32-vc8-debug-dynamic:os_core_win32.obj
 0003:00021600       ??_C@_1EE@JKGKFCJM@?$AAm?$AAu?$AAt?$AAe?$AAx?$AA?9?$AA?$DO?$AAr?$AAe?$AAa?$AAd?$AAe?$AAr?$AA_?$AAc@ 0051f600     pjlib-i386-win32-vc8-debug-dynamic:os_core_win32.obj
 0003:00021654       ??_C@_1DC@HENDGEDB@?$AAm?$AAu?$AAt?$AAe?$AAx?$AA?9?$AA?$DO?$AAr?$AAe?$AAa?$AAd?$AAe?$AAr?$AA_?$AAc@ 0051f654     pjlib-i386-win32-vc8-debug-dynamic:os_core_win32.obj
 0003:00021690       ??_C@_1DC@HACGLEAM@?$AAm?$AAu?$AAt?$AAe?$AAx?$AA?9?$AA?$DO?$AAr?$AAe?$AAa?$AAd?$AAe?$AAr?$AA_?$AAc@ 0051f690     pjlib-i386-win32-vc8-debug-dynamic:os_core_win32.obj
 0003:000216cc       ??_C@_1CA@JMCEKLBJ@?$AAp?$AAo?$AAo?$AAl?$AA?5?$AA?$CG?$AA?$CG?$AA?5?$AAs?$AAe?$AAm?$AA_?$AAp?$AAt?$AAr@ 0051f6cc     pjlib-i386-win32-vc8-debug-dynamic:os_core_win32.obj
 0003:000216f4       ??_C@_05EKKMALCN@sem?$CFp@ 0051f6f4     pjlib-i386-win32-vc8-debug-dynamic:os_core_win32.obj
 0003:000216fc       ??_C@_17CJHHAHNC@?$AAs?$AAe?$AAm@ 0051f6fc     pjlib-i386-win32-vc8-debug-dynamic:os_core_win32.obj
 0003:00021708       ??_C@_1CE@LCHMPKLP@?$AAp?$AAo?$AAo?$AAl?$AA?5?$AA?$CG?$AA?$CG?$AA?5?$AAe?$AAv?$AAe?$AAn?$AAt?$AA_?$AAp@ 0051f708     pjlib-i386-win32-vc8-debug-dynamic:os_core_win32.obj
 0003:00021734       ??_C@_05JFHCBPOM@evt?$CFp@ 0051f734     pjlib-i386-win32-vc8-debug-dynamic:os_core_win32.obj
 0003:0002173c       ??_C@_1M@IBCECAGJ@?$AAe?$AAv?$AAe?$AAn?$AAt@ 0051f73c     pjlib-i386-win32-vc8-debug-dynamic:os_core_win32.obj
 0003:0002174c       ??_C@_0CM@KDINLFNB@d?3?2pjsip?2pjproject?92?48?2pjlib?2sr@ 0051f74c     pjlib-i386-win32-vc8-debug-dynamic:types.obj
 0003:00021868       ??_C@_0BM@FLPPOGAG@Unknown?5Error?5?$CIPJ_EUNKNOWN?$CJ@ 0051f868     pjlib-i386-win32-vc8-debug-dynamic:errno.obj
 0003:0002188c       ??_C@_0CA@DCLOOJGD@Pending?5operation?5?$CIPJ_EPENDING?$CJ@ 0051f88c     pjlib-i386-win32-vc8-debug-dynamic:errno.obj
 0003:000218b4       ??_C@_0CO@GABEOAFF@Too?5many?5connecting?5sockets?5?$CIPJ@ 0051f8b4     pjlib-i386-win32-vc8-debug-dynamic:errno.obj
 0003:000218ec       ??_C@_0CG@CBCJBJGD@Invalid?5value?5or?5argument?5?$CIPJ_E@ 0051f8ec     pjlib-i386-win32-vc8-debug-dynamic:errno.obj
 0003:0002191c       ??_C@_0CA@GJABNEKD@Name?5too?5long?5?$CIPJ_ENAMETOOLONG?$CJ@ 0051f91c     pjlib-i386-win32-vc8-debug-dynamic:errno.obj
 0003:00021944       ??_C@_0BJ@JNKLPII@Not?5found?5?$CIPJ_ENOTFOUND?$CJ@ 0051f944     pjlib-i386-win32-vc8-debug-dynamic:errno.obj
 0003:00021964       ??_C@_0BO@GOLCMJKK@Not?5enough?5memory?5?$CIPJ_ENOMEM?$CJ@ 0051f964     pjlib-i386-win32-vc8-debug-dynamic:errno.obj
 0003:00021988       ??_C@_0BI@HHGDCAID@BUG?5DETECTED?$CB?5?$CIPJ_EBUG?$CJ@ 0051f988     pjlib-i386-win32-vc8-debug-dynamic:errno.obj
 0003:000219a4       ??_C@_0CD@JOGIDHPJ@Operation?5timed?5out?5?$CIPJ_ETIMEDO@ 0051f9a4     pjlib-i386-win32-vc8-debug-dynamic:errno.obj
 0003:000219d0       ??_C@_0DF@MIFNAIHL@Too?5many?5objects?5of?5the?5specifi@ 0051f9d0     pjlib-i386-win32-vc8-debug-dynamic:errno.obj
 0003:00021a10       ??_C@_0BK@OMPILOH@Object?5is?5busy?5?$CIPJ_EBUSY?$CJ@ 0051fa10     pjlib-i386-win32-vc8-debug-dynamic:errno.obj
 0003:00021a30       ??_C@_0CP@BAIBJOJE@Option?1operation?5is?5not?5support@ 0051fa30     pjlib-i386-win32-vc8-debug-dynamic:errno.obj
 0003:00021a68       ??_C@_0CC@OEEEEEML@Invalid?5operation?5?$CIPJ_EINVALIDO@ 0051fa68     pjlib-i386-win32-vc8-debug-dynamic:errno.obj
 0003:00021a90       ??_C@_0CE@KDDMJLGF@Operation?5cancelled?5?$CIPJ_ECANCEL@ 0051fa90     pjlib-i386-win32-vc8-debug-dynamic:errno.obj
 0003:00021abc       ??_C@_0CD@LODOFNLC@Object?5already?5exists?5?$CIPJ_EEXIS@ 0051fabc     pjlib-i386-win32-vc8-debug-dynamic:errno.obj
 0003:00021ae8       ??_C@_0BG@GMBDFNLN@End?5of?5file?5?$CIPJ_EEOF?$CJ@ 0051fae8     pjlib-i386-win32-vc8-debug-dynamic:errno.obj
 0003:00021b04       ??_C@_0BN@PCCNBFLN@Size?5is?5too?5big?5?$CIPJ_ETOOBIG?$CJ@ 0051fb04     pjlib-i386-win32-vc8-debug-dynamic:errno.obj
 0003:00021b28       ??_C@_0DB@FDCHLEID@gethostbyname?$CI?$CJ?5has?5returned?5er@ 0051fb28     pjlib-i386-win32-vc8-debug-dynamic:errno.obj
 0003:00021b64       ??_C@_0CB@MGGLJMNO@Size?5is?5too?5short?5?$CIPJ_ETOOSMALL@ 0051fb64     pjlib-i386-win32-vc8-debug-dynamic:errno.obj
 0003:00021b8c       ??_C@_0BG@NBDJGAFI@Ignored?5?$CIPJ_EIGNORED?$CJ@ 0051fb8c     pjlib-i386-win32-vc8-debug-dynamic:errno.obj
 0003:00021ba8       ??_C@_0CH@OGOOBJBE@IPv6?5is?5not?5supported?5?$CIPJ_EIPV6@ 0051fba8     pjlib-i386-win32-vc8-debug-dynamic:errno.obj
 0003:00021bd8       ??_C@_0CK@DJAHHNOI@Unsupported?5address?5family?5?$CIPJ_@ 0051fbd8     pjlib-i386-win32-vc8-debug-dynamic:errno.obj
 0003:00021c0c       ??_C@_0CD@PDGCJOJH@Object?5no?5longer?5exists?5?$CIPJ_EGO@ 0051fc0c     pjlib-i386-win32-vc8-debug-dynamic:errno.obj
 0003:00021c38       ??_C@_0CI@LBHALONI@Socket?5is?5in?5bad?5state?5?$CIPJ_ESOC@ 0051fc38     pjlib-i386-win32-vc8-debug-dynamic:errno.obj
 0003:00021c68       ??_C@_0BH@ONDLFCEA@Unknown?5pjlib?5error?5?$CFd@ 0051fc68     pjlib-i386-win32-vc8-debug-dynamic:errno.obj
 0003:00021c88       ??_C@_1FI@GNMHFBCM@?$AAd?$AA?3?$AA?2?$AAp?$AAj?$AAs?$AAi?$AAp?$AA?2?$AAp?$AAj?$AAp?$AAr?$AAo?$AAj@ 0051fc88     pjlib-i386-win32-vc8-debug-dynamic:errno.obj
 0003:00021cf4       ??_C@_1CI@LKNPLGGB@?$AAs?$AAt?$AAa?$AAr?$AAt?$AA?5?$AA?$CG?$AA?$CG?$AA?5?$AAs?$AAp?$AAa?$AAc?$AAe?$AA?5@ 0051fcf4     pjlib-i386-win32-vc8-debug-dynamic:errno.obj
 0003:00021d28       ??_C@_1HO@NFELGIHB@?$AAe?$AAr?$AAr?$AA_?$AAm?$AAs?$AAg?$AA_?$AAh?$AAn?$AAd?$AA_?$AAc?$AAn?$AAt@ 0051fd28     pjlib-i386-win32-vc8-debug-dynamic:errno.obj
 0003:00021dc0       ??_C@_1FK@DLNOOHBD@?$AAs?$AAt?$AAa?$AAr?$AAt?$AA?5?$AA?$DO?$AA?$DN?$AA?5?$AA?$CI?$AA?$CI?$AA?$CI?$AA2?$AA0?$AA0@ 0051fdc0     pjlib-i386-win32-vc8-debug-dynamic:errno.obj
 0003:00021e2c       ??_C@_1BO@OJPHOMAD@?$AAb?$AAu?$AAf?$AA?5?$AA?$CG?$AA?$CG?$AA?5?$AAb?$AAu?$AAf?$AAs?$AAi?$AAz?$AAe@ 0051fe2c     pjlib-i386-win32-vc8-debug-dynamic:errno.obj
 0003:00021e50       ??_C@_07PBILKAFL@Success@  0051fe50     pjlib-i386-win32-vc8-debug-dynamic:errno.obj
 0003:00021e5c       ??_C@_0BB@BIKLJNJD@Unknown?5error?5?$CFd@ 0051fe5c     pjlib-i386-win32-vc8-debug-dynamic:errno.obj
 0003:00021e70       ??_C@_05NAOIJFC@Error@     0051fe70     pjlib-i386-win32-vc8-debug-dynamic:errno.obj
 0003:00021e78       ??_C@_06DJHOIPC@?$CFs?3?5?$CFs@ 0051fe78     pjlib-i386-win32-vc8-debug-dynamic:errno.obj
 0003:00021e80       _PJ_AF_UNSPEC              0051fe80     pjlib-i386-win32-vc8-debug-dynamic:sock_bsd.obj
 0003:00021e84       _PJ_AF_UNIX                0051fe84     pjlib-i386-win32-vc8-debug-dynamic:sock_bsd.obj
 0003:00021e88       _PJ_AF_INET                0051fe88     pjlib-i386-win32-vc8-debug-dynamic:sock_bsd.obj
 0003:00021e8c       _PJ_AF_INET6               0051fe8c     pjlib-i386-win32-vc8-debug-dynamic:sock_bsd.obj
 0003:00021e90       _PJ_AF_PACKET              0051fe90     pjlib-i386-win32-vc8-debug-dynamic:sock_bsd.obj
 0003:00021e94       _PJ_AF_IRDA                0051fe94     pjlib-i386-win32-vc8-debug-dynamic:sock_bsd.obj
 0003:00021e98       _PJ_SOCK_STREAM            0051fe98     pjlib-i386-win32-vc8-debug-dynamic:sock_bsd.obj
 0003:00021e9c       _PJ_SOCK_DGRAM             0051fe9c     pjlib-i386-win32-vc8-debug-dynamic:sock_bsd.obj
 0003:00021ea0       _PJ_SOCK_RAW               0051fea0     pjlib-i386-win32-vc8-debug-dynamic:sock_bsd.obj
 0003:00021ea4       _PJ_SOCK_RDM               0051fea4     pjlib-i386-win32-vc8-debug-dynamic:sock_bsd.obj
 0003:00021ea8       _PJ_SOL_SOCKET             0051fea8     pjlib-i386-win32-vc8-debug-dynamic:sock_bsd.obj
 0003:00021eac       _PJ_SOL_IP                 0051feac     pjlib-i386-win32-vc8-debug-dynamic:sock_bsd.obj
 0003:00021eb0       _PJ_SOL_TCP                0051feb0     pjlib-i386-win32-vc8-debug-dynamic:sock_bsd.obj
 0003:00021eb4       _PJ_SOL_UDP                0051feb4     pjlib-i386-win32-vc8-debug-dynamic:sock_bsd.obj
 0003:00021eb8       _PJ_SOL_IPV6               0051feb8     pjlib-i386-win32-vc8-debug-dynamic:sock_bsd.obj
 0003:00021ebc       _PJ_IP_TOS                 0051febc     pjlib-i386-win32-vc8-debug-dynamic:sock_bsd.obj
 0003:00021ec0       _PJ_IPTOS_LOWDELAY         0051fec0     pjlib-i386-win32-vc8-debug-dynamic:sock_bsd.obj
 0003:00021ec4       _PJ_IPTOS_THROUGHPUT       0051fec4     pjlib-i386-win32-vc8-debug-dynamic:sock_bsd.obj
 0003:00021ec8       _PJ_IPTOS_RELIABILITY      0051fec8     pjlib-i386-win32-vc8-debug-dynamic:sock_bsd.obj
 0003:00021ecc       _PJ_IPTOS_MINCOST          0051fecc     pjlib-i386-win32-vc8-debug-dynamic:sock_bsd.obj
 0003:00021ed0       _PJ_IPV6_TCLASS            0051fed0     pjlib-i386-win32-vc8-debug-dynamic:sock_bsd.obj
 0003:00021ed4       _PJ_SO_TYPE                0051fed4     pjlib-i386-win32-vc8-debug-dynamic:sock_bsd.obj
 0003:00021ed8       _PJ_SO_RCVBUF              0051fed8     pjlib-i386-win32-vc8-debug-dynamic:sock_bsd.obj
 0003:00021edc       _PJ_SO_SNDBUF              0051fedc     pjlib-i386-win32-vc8-debug-dynamic:sock_bsd.obj
 0003:00021ee0       _PJ_TCP_NODELAY            0051fee0     pjlib-i386-win32-vc8-debug-dynamic:sock_bsd.obj
 0003:00021ee4       _PJ_SO_REUSEADDR           0051fee4     pjlib-i386-win32-vc8-debug-dynamic:sock_bsd.obj
 0003:00021ee8       _PJ_SO_NOSIGPIPE           0051fee8     pjlib-i386-win32-vc8-debug-dynamic:sock_bsd.obj
 0003:00021eec       _PJ_SO_PRIORITY            0051feec     pjlib-i386-win32-vc8-debug-dynamic:sock_bsd.obj
 0003:00021ef0       _PJ_IP_MULTICAST_IF        0051fef0     pjlib-i386-win32-vc8-debug-dynamic:sock_bsd.obj
 0003:00021ef4       _PJ_IP_MULTICAST_TTL       0051fef4     pjlib-i386-win32-vc8-debug-dynamic:sock_bsd.obj
 0003:00021ef8       _PJ_IP_MULTICAST_LOOP      0051fef8     pjlib-i386-win32-vc8-debug-dynamic:sock_bsd.obj
 0003:00021efc       _PJ_IP_ADD_MEMBERSHIP      0051fefc     pjlib-i386-win32-vc8-debug-dynamic:sock_bsd.obj
 0003:00021f00       _PJ_IP_DROP_MEMBERSHIP     0051ff00     pjlib-i386-win32-vc8-debug-dynamic:sock_bsd.obj
 0003:00021f04       _PJ_MSG_OOB                0051ff04     pjlib-i386-win32-vc8-debug-dynamic:sock_bsd.obj
 0003:00021f08       _PJ_MSG_PEEK               0051ff08     pjlib-i386-win32-vc8-debug-dynamic:sock_bsd.obj
 0003:00021f0c       _PJ_MSG_DONTROUTE          0051ff0c     pjlib-i386-win32-vc8-debug-dynamic:sock_bsd.obj
 0003:00021f30       ??_C@_1FO@BBDEIKJL@?$AAd?$AA?3?$AA?2?$AAp?$AAj?$AAs?$AAi?$AAp?$AA?2?$AAp?$AAj?$AAp?$AAr?$AAo?$AAj@ 0051ff30     pjlib-i386-win32-vc8-debug-dynamic:sock_bsd.obj
 0003:00021fa0       ??_C@_1CM@OEECOBPG@?$AAc?$AAp?$AA?5?$AA?$CG?$AA?$CG?$AA?5?$AAc?$AAp?$AA?9?$AA?$DO?$AAs?$AAl?$AAe?$AAn?$AA?5@ 0051ffa0     pjlib-i386-win32-vc8-debug-dynamic:sock_bsd.obj
 0003:00021fd8       ??_C@_1EE@BHODCNOF@?$AAa?$AAf?$AA?$DN?$AA?$DN?$AAP?$AAJ?$AA_?$AAA?$AAF?$AA_?$AAI?$AAN?$AAE?$AAT?$AA?5@ 0051ffd8     pjlib-i386-win32-vc8-debug-dynamic:sock_bsd.obj
 0003:0002202c       ??_C@_1DA@NIAFCNGJ@?$AAs?$AAr?$AAc?$AA?5?$AA?$CG?$AA?$CG?$AA?5?$AAs?$AAr?$AAc?$AA?9?$AA?$DO?$AAs?$AAl?$AAe@ 0052002c     pjlib-i386-win32-vc8-debug-dynamic:sock_bsd.obj
 0003:00022068       ??_C@_1CG@FCIAPMOJ@?$AAs?$AAr?$AAc?$AA?5?$AA?$CG?$AA?$CG?$AA?5?$AAd?$AAs?$AAt?$AA?5?$AA?$CG?$AA?$CG?$AA?5?$AAs@ 00520068     pjlib-i386-win32-vc8-debug-dynamic:sock_bsd.obj
 0003:00022098       ??_C@_0CP@NNJMEPMJ@d?3?2pjsip?2pjproject?92?48?2pjlib?2sr@ 00520098     pjlib-i386-win32-vc8-debug-dynamic:sock_bsd.obj
 0003:000220d0       ??_C@_1CE@CHKBIEBK@?$AAs?$AAo?$AAc?$AAk?$AA?$CB?$AA?$DN?$AA?$CI?$AA?$CI?$AAv?$AAo?$AAi?$AAd?$AA?5?$AA?$CK?$AA?$CJ@ 005200d0     pjlib-i386-win32-vc8-debug-dynamic:sock_bsd.obj
 0003:00022100       ??_C@_1FO@NFJOCODB@?$AAa?$AAd?$AAd?$AAr?$AA?5?$AA?$CG?$AA?$CG?$AA?5?$AAl?$AAe?$AAn?$AA?5?$AA?$DO?$AA?$DN?$AA?5@ 00520100     pjlib-i386-win32-vc8-debug-dynamic:sock_bsd.obj
 0003:00022170       ??_C@_17JOFJILLL@?$AAl?$AAe?$AAn@ 00520170     pjlib-i386-win32-vc8-debug-dynamic:sock_bsd.obj
 0003:0002217c       ??_C@_1BG@KIOEFHJP@?$AAb?$AAu?$AAf?$AA?5?$AA?$CG?$AA?$CG?$AA?5?$AAl?$AAe?$AAn@ 0052017c     pjlib-i386-win32-vc8-debug-dynamic:sock_bsd.obj
 0003:00022198       ??_C@_1CC@JEHODAPI@?$AAo?$AAp?$AAt?$AAv?$AAa?$AAl?$AA?5?$AA?$CG?$AA?$CG?$AA?5?$AAo?$AAp?$AAt?$AAl?$AAe@ 00520198     pjlib-i386-win32-vc8-debug-dynamic:sock_bsd.obj
 0003:000221c0       ??_C@_1O@FEMBPDGM@?$AAp?$AAa?$AAr?$AAa?$AAm?$AAs@ 005201c0     pjlib-i386-win32-vc8-debug-dynamic:sock_bsd.obj
 0003:000221d0       ??_C@_0CE@IJGJDCPP@Warning?3?5error?5applying?5sock?5op@ 005201d0     pjlib-i386-win32-vc8-debug-dynamic:sock_bsd.obj
 0003:000221fc       ??_C@_0L@NNKPLKFK@sock_bsd?4c@ 005201fc     pjlib-i386-win32-vc8-debug-dynamic:sock_bsd.obj
 0003:0002220c       ??_C@_1CO@HPOGKJKP@?$AAn?$AAe?$AAw?$AAs?$AAo?$AAc?$AAk?$AA?5?$AA?$CB?$AA?$DN?$AA?5?$AA?$CI?$AA?$CI?$AAv?$AAo@ 0052020c     pjlib-i386-win32-vc8-debug-dynamic:sock_bsd.obj
 0003:00022244       ??_C@_03HODKBCIO@?3?$CFd@  00520244     pjlib-i386-win32-vc8-debug-dynamic:sock_common.obj
 0003:00022248       ??_C@_08KJEDNCKC@?$CFs?$CFs?$CFs?$CFs@ 00520248     pjlib-i386-win32-vc8-debug-dynamic:sock_common.obj
 0003:00022254       ??_C@_0DC@FCBHBCDO@d?3?2pjsip?2pjproject?92?48?2pjlib?2sr@ 00520254     pjlib-i386-win32-vc8-debug-dynamic:sock_common.obj
 0003:00022290       ??_C@_1GE@GCMOEHFJ@?$AAd?$AA?3?$AA?2?$AAp?$AAj?$AAs?$AAi?$AAp?$AA?2?$AAp?$AAj?$AAp?$AAr?$AAo?$AAj@ 00520290     pjlib-i386-win32-vc8-debug-dynamic:sock_common.obj
 0003:00022308       ??_C@_1EI@LMAIDKEG@?$AA?$CB?$AAs?$AAt?$AAr?$AA_?$AAa?$AAd?$AAd?$AAr?$AA?5?$AA?$HM?$AA?$HM?$AA?5?$AAs?$AAt@ 00520308     pjlib-i386-win32-vc8-debug-dynamic:sock_common.obj
 0003:00022360       ??_C@_1CA@EINGOHHA@?$AAa?$AAf?$AA?$DN?$AA?$DN?$AAP?$AAJ?$AA_?$AAA?$AAF?$AA_?$AAI?$AAN?$AAE?$AAT?$AA6@ 00520360     pjlib-i386-win32-vc8-debug-dynamic:sock_common.obj
 0003:00022388       ??_C@_19CEKCHDNN@?$AAa?$AAd?$AAd?$AAr@ 00520388     pjlib-i386-win32-vc8-debug-dynamic:sock_common.obj
 0003:00022398       ??_C@_1II@IEDNCJLG@?$AAa?$AA?9?$AA?$DO?$AAa?$AAd?$AAd?$AAr?$AA?4?$AAs?$AAa?$AA_?$AAf?$AAa?$AAm?$AAi@ 00520398     pjlib-i386-win32-vc8-debug-dynamic:sock_common.obj
 0003:0002243c       ??_C@_1BG@CKELPDKC@?$AAs?$AAr?$AAc?$AA?5?$AA?$CG?$AA?$CG?$AA?5?$AAd?$AAs?$AAt@ 0052043c     pjlib-i386-win32-vc8-debug-dynamic:sock_common.obj
 0003:00022458       ??_C@_1LE@BCBAMGPH@?$AA?$CI?$AAa?$AAf?$AA?$DN?$AA?$DN?$AAP?$AAJ?$AA_?$AAA?$AAF?$AA_?$AAI?$AAN?$AAE?$AAT@ 00520458     pjlib-i386-win32-vc8-debug-dynamic:sock_common.obj
 0003:00022530       ??_C@_1GM@GCDHCLKA@?$AAa?$AAf?$AA?$DN?$AA?$DN?$AAP?$AAJ?$AA_?$AAA?$AAF?$AA_?$AAU?$AAN?$AAS?$AAP?$AAE@ 00520530     pjlib-i386-win32-vc8-debug-dynamic:sock_common.obj
 0003:000225b8       ??_C@_1FK@OKOAJPPE@?$AAa?$AAi?$AA?4?$AAa?$AAi?$AA_?$AAa?$AAd?$AAd?$AAr?$AA?4?$AAa?$AAd?$AAd?$AAr@ 005205b8     pjlib-i386-win32-vc8-debug-dynamic:sock_common.obj
 0003:00022624       ??_C@_07EBPGIHEF@1?41?41?41@ 00520624     pjlib-i386-win32-vc8-debug-dynamic:sock_common.obj
 0003:00022630       ??_C@_04NFKLOGOF@1?3?31@   00520630     pjlib-i386-win32-vc8-debug-dynamic:sock_common.obj
 0003:00022638       ??_C@_1MI@MLDCCECM@?$AAs?$AAo?$AAc?$AAk?$AAf?$AAd?$AA?5?$AA?$CB?$AA?$DN?$AA?5?$AA?$CI?$AA?9?$AA1?$AA?$CJ?$AA?5@ 00520638     pjlib-i386-win32-vc8-debug-dynamic:sock_common.obj
 0003:00022728       ??_C@_0M@HMJLLIPA@?$CFs?$CF?4?$CKs?$CFs?3?$CFd@ 00520728     pjlib-i386-win32-vc8-debug-dynamic:sock_common.obj
 0003:00022738       ??_C@_08JLADFOFK@?$CFs?$CF?4?$CKs?$CFs@ 00520738     pjlib-i386-win32-vc8-debug-dynamic:sock_common.obj
 0003:00022744       ??_C@_0CL@HKMFJDGH@d?3?2pjsip?2pjproject?92?48?2pjlib?2sr@ 00520744     pjlib-i386-win32-vc8-debug-dynamic:pool.obj
 0003:00022778       ??_C@_1FG@GMGKLKGP@?$AAd?$AA?3?$AA?2?$AAp?$AAj?$AAs?$AAi?$AAp?$AA?2?$AAp?$AAj?$AAp?$AAr?$AAo?$AAj@ 00520778     pjlib-i386-win32-vc8-debug-dynamic:pool.obj
 0003:000227e0       ??_C@_1DM@GJMPJMCP@?$AAs?$AAi?$AAz?$AAe?$AA?5?$AA?$DO?$AA?$DN?$AA?5?$AAs?$AAi?$AAz?$AAe?$AAo?$AAf?$AA?$CI@ 005207e0     pjlib-i386-win32-vc8-debug-dynamic:pool.obj
 0003:00022828       ??_C@_1CC@EAFADDBO@?$AAp?$AA?5?$AA?$CB?$AA?$DN?$AA?5?$AA?$CI?$AA?$CI?$AAv?$AAo?$AAi?$AAd?$AA?5?$AA?$CK?$AA?$CJ?$AA0@ 00520828     pjlib-i386-win32-vc8-debug-dynamic:pool.obj
 0003:00022850       ??_C@_1HA@KHKDBJOJ@?$AAi?$AAn?$AAi?$AAt?$AAi?$AAa?$AAl?$AA_?$AAs?$AAi?$AAz?$AAe?$AA?5?$AA?$DO?$AA?$DN@ 00520850     pjlib-i386-win32-vc8-debug-dynamic:pool.obj
 0003:000228d8       ??_C@_0DD@LHMLAEOO@d?3?2pjsip?2pjproject?92?48?2pjlib?2sr@ 005208d8     pjlib-i386-win32-vc8-debug-dynamic:pool_caching.obj
 0003:00022918       ??_C@_0M@IGFPEOLJ@cachingpool@ 00520918     pjlib-i386-win32-vc8-debug-dynamic:pool_caching.obj
 0003:00022928       ??_C@_0DD@ECGDPCBA@Pool?5is?5not?5released?5by?5applica@ 00520928     pjlib-i386-win32-vc8-debug-dynamic:pool_caching.obj
 0003:00022968       ??_C@_1GG@HHHDEONL@?$AAd?$AA?3?$AA?2?$AAp?$AAj?$AAs?$AAi?$AAp?$AA?2?$AAp?$AAj?$AAp?$AAr?$AAo?$AAj@ 00520968     pjlib-i386-win32-vc8-debug-dynamic:pool_caching.obj
 0003:000229e4       ??_C@_1BG@FEHIFIBG@?$AAp?$AAf?$AA?5?$AA?$CG?$AA?$CG?$AA?5?$AAp?$AAo?$AAo?$AAl@ 005209e4     pjlib-i386-win32-vc8-debug-dynamic:pool_caching.obj
 0003:00022a00       ??_C@_19PJIDINHE@?$AAi?$AA?$DM?$AA1?$AA6@ 00520a00     pjlib-i386-win32-vc8-debug-dynamic:pool_caching.obj
 0003:00022a0c       ??_C@_0BH@BBPHJKOA@?5Dumping?5caching?5pool?3@ 00520a0c     pjlib-i386-win32-vc8-debug-dynamic:pool_caching.obj
 0003:00022a28       ??_C@_08COPEICHG@cachpool@ 00520a28     pjlib-i386-win32-vc8-debug-dynamic:pool_caching.obj
 0003:00022a34       ??_C@_0CN@DOKPIIOH@?5?5?5Capacity?$DN?$CFu?0?5max_capacity?$DN?$CFu@ 00520a34     pjlib-i386-win32-vc8-debug-dynamic:pool_caching.obj
 0003:00022a6c       ??_C@_0BM@IDLDGCC@?5?5Dumping?5all?5active?5pools?3@ 00520a6c     pjlib-i386-win32-vc8-debug-dynamic:pool_caching.obj
 0003:00022a90       ??_C@_0CA@MMLIKIEG@?5?5?5?$CF16s?3?5?$CF8d?5of?5?$CF8d?5?$CI?$CFd?$CF?$CF?$CJ?5used@ 00520a90     pjlib-i386-win32-vc8-debug-dynamic:pool_caching.obj
 0003:00022ab8       ??_C@_0CB@GKBJPDKG@?5?5Total?5?$CF9d?5of?5?$CF9d?5?$CI?$CFd?5?$CF?$CF?$CJ?5used@ 00520ab8     pjlib-i386-win32-vc8-debug-dynamic:pool_caching.obj
 0003:00022ae0       ??_C@_1GG@FCNGCDIF@?$AAd?$AA?3?$AA?2?$AAp?$AAj?$AAs?$AAi?$AAp?$AA?2?$AAp?$AAj?$AAp?$AAr?$AAo?$AAj@ 00520ae0     pjlib-i386-win32-vc8-debug-dynamic:string.obj
 0003:00022b5c       ??_C@_1BC@EFNPFECE@?$AAm?$AAa?$AAx?$AA?5?$AA?$DO?$AA?$DN?$AA?5?$AA0@ 00520b5c     pjlib-i386-win32-vc8-debug-dynamic:string.obj
 0003:00022b74       ??_C@_1BA@DIEGFNCJ@?$AAm?$AAa?$AAx?$AA?5?$AA?$DO?$AA?5?$AA0@ 00520b74     pjlib-i386-win32-vc8-debug-dynamic:string.obj
 0003:00022b88       ??_C@_0CN@KGLAKEMO@d?3?2pjsip?2pjproject?92?48?2pjlib?2sr@ 00520b88     pjlib-i386-win32-vc8-debug-dynamic:string.obj
 0003:00022bc0       ??_C@_0BB@CEONGONL@Unsupported?5base@ 00520bc0     pjlib-i386-win32-vc8-debug-dynamic:string.obj
 0003:00022bd8       ??_C@_1FK@GBMOPEFK@?$AAd?$AA?3?$AA?2?$AAp?$AAj?$AAs?$AAi?$AAp?$AA?2?$AAp?$AAj?$AAp?$AAr?$AAo?$AAj@ 00520bd8     pjlib-i386-win32-vc8-debug-dynamic:string.obj
 0003:00022c44       ??_C@_1CI@NFHHBACP@?$AA?$CB?$AA?$CC?$AAU?$AAn?$AAs?$AAu?$AAp?$AAp?$AAo?$AAr?$AAt?$AAe?$AAd?$AA?5?$AAb@ 00520c44     pjlib-i386-win32-vc8-debug-dynamic:string.obj
 0003:00022c74       __real@41200000            00520c74     pjlib-i386-win32-vc8-debug-dynamic:string.obj
 0003:00022c78       ??_C@_0DI@DHEDKGDI@d?3?2pjsip?2pjproject?92?48?2pjlib?2sr@ 00520c78     pjlib-i386-win32-vc8-debug-dynamic:log_writer_stdout.obj
 0003:00022cbc       ??_C@_06DDFOEFIF@FATAL?3@  00520cbc     pjlib-i386-win32-vc8-debug-dynamic:log.obj
 0003:00022cc4       ??_C@_06PONDCDME@ERROR?3@  00520cc4     pjlib-i386-win32-vc8-debug-dynamic:log.obj
 0003:00022ccc       ??_C@_06OHJPOJDB@?5WARN?3@ 00520ccc     pjlib-i386-win32-vc8-debug-dynamic:log.obj
 0003:00022cd4       ??_C@_06ICKKLHPE@?5INFO?3@ 00520cd4     pjlib-i386-win32-vc8-debug-dynamic:log.obj
 0003:00022cdc       ??_C@_06DNOFLLB@DEBUG?3@   00520cdc     pjlib-i386-win32-vc8-debug-dynamic:log.obj
 0003:00022ce4       ??_C@_06ELIFFDKB@TRACE?3@  00520ce4     pjlib-i386-win32-vc8-debug-dynamic:log.obj
 0003:00022cec       ??_C@_06HGKAKJPG@DETRC?3@  00520cec     pjlib-i386-win32-vc8-debug-dynamic:log.obj
 0003:00022cf4       ??_C@_03KOEHGMDN@Sun@      00520cf4     pjlib-i386-win32-vc8-debug-dynamic:log.obj
 0003:00022cf8       ??_C@_03PDAGKDH@Mon@       00520cf8     pjlib-i386-win32-vc8-debug-dynamic:log.obj
 0003:00022cfc       ??_C@_03NAGEINEP@Tue@      00520cfc     pjlib-i386-win32-vc8-debug-dynamic:log.obj
 0003:00022d00       ??_C@_03MHOMLAJA@Wed@      00520d00     pjlib-i386-win32-vc8-debug-dynamic:log.obj
 0003:00022d04       ??_C@_03IOFIKPDN@Thu@      00520d04     pjlib-i386-win32-vc8-debug-dynamic:log.obj
 0003:00022d08       ??_C@_03IDIOELNC@Fri@      00520d08     pjlib-i386-win32-vc8-debug-dynamic:log.obj
 0003:00022d0c       ??_C@_03FEFJNEK@Sat@       00520d0c     pjlib-i386-win32-vc8-debug-dynamic:log.obj
 0003:00022d10       ??_C@_0CK@PMBLHNIA@d?3?2pjsip?2pjproject?92?48?2pjlib?2sr@ 00520d10     pjlib-i386-win32-vc8-debug-dynamic:log.obj
 0003:00022d44       ??_C@_0BO@BGMDCDKP@?$DMlogging?5error?3?5msg?5too?5long?$DO@ 00520d44     pjlib-i386-win32-vc8-debug-dynamic:log.obj
 0003:00022d68       ??_C@_0CL@CPIEOCGB@d?3?2pjsip?2pjproject?92?48?2pjlib?2sr@ 00520d68     pjlib-i386-win32-vc8-debug-dynamic:rand.obj
 0003:00022d9c       ??_C@_0DJ@NPDLGDNP@d?3?2pjsip?2pjproject?92?48?2pjlib?2sr@ 00520d9c     pjlib-i386-win32-vc8-debug-dynamic:pool_policy_malloc.obj
 0003:00022de0       ??_C@_1FG@DANEPOLJ@?$AAd?$AA?3?$AA?2?$AAp?$AAj?$AAs?$AAi?$AAp?$AA?2?$AAp?$AAj?$AAp?$AAr?$AAo?$AAj@ 00520de0     pjlib-i386-win32-vc8-debug-dynamic:lock.obj
 0003:00022e48       ??_C@_1BK@HMAALPLD@?$AAp?$AAo?$AAo?$AAl?$AA?5?$AA?$CG?$AA?$CG?$AA?5?$AAl?$AAo?$AAc?$AAk@ 00520e48     pjlib-i386-win32-vc8-debug-dynamic:lock.obj
 0003:00022e68       ??_C@_19LMCCMMJG@?$AAl?$AAo?$AAc?$AAk@ 00520e68     pjlib-i386-win32-vc8-debug-dynamic:lock.obj
 0003:00022e74       ??_C@_1CI@EGCMNLMJ@?$AAl?$AAo?$AAc?$AAk?$AA?5?$AA?$CB?$AA?$DN?$AA?5?$AA?$CI?$AA?$CI?$AAv?$AAo?$AAi?$AAd?$AA?5@ 00520e74     pjlib-i386-win32-vc8-debug-dynamic:lock.obj
 0003:00022ea8       ??_C@_1EC@BAIJMPOD@?$AAg?$AAl?$AAo?$AAc?$AAk?$AA?9?$AA?$DO?$AAo?$AAw?$AAn?$AAe?$AAr?$AA?5?$AA?$DN?$AA?$DN@ 00520ea8     pjlib-i386-win32-vc8-debug-dynamic:lock.obj
 0003:00022ef8       ??_C@_1CK@GIKHEGPF@?$AAg?$AAl?$AAo?$AAc?$AAk?$AA?9?$AA?$DO?$AAo?$AAw?$AAn?$AAe?$AAr?$AA_?$AAc?$AAn@ 00520ef8     pjlib-i386-win32-vc8-debug-dynamic:lock.obj
 0003:00022f30       ??_C@_1EE@CPEFOKMM@?$AAp?$AAj?$AA_?$AAa?$AAt?$AAo?$AAm?$AAi?$AAc?$AA_?$AAg?$AAe?$AAt?$AA?$CI?$AAg@ 00520f30     pjlib-i386-win32-vc8-debug-dynamic:lock.obj
 0003:00022f84       ??_C@_1CG@FLJIPPJO@?$AAp?$AAo?$AAo?$AAl?$AA?5?$AA?$CG?$AA?$CG?$AA?5?$AAp?$AA_?$AAg?$AAr?$AAp?$AA_?$AAl@ 00520f84     pjlib-i386-win32-vc8-debug-dynamic:lock.obj
 0003:00022fb4       ??_C@_06HALIBNKJ@glck?$CFp@ 00520fb4     pjlib-i386-win32-vc8-debug-dynamic:lock.obj
 0003:00022fbc       ??_C@_1BA@ELFKFCPF@?$AAc?$AAn?$AAt?$AA?5?$AA?$DO?$AA?5?$AA0@ 00520fbc     pjlib-i386-win32-vc8-debug-dynamic:lock.obj
 0003:00022fd0       ??_C@_0BL@IKAPFLNO@Group?5lock?5?$CFp?0?5ref_cnt?$DN?$CFd?4@ 00520fd0     pjlib-i386-win32-vc8-debug-dynamic:lock.obj
 0003:00022ff0       ??_C@_06JJJBJFIO@lock?4c@  00520ff0     pjlib-i386-win32-vc8-debug-dynamic:lock.obj
 0003:00022ff8       ??_C@_1FI@PCCJHOIK@?$AAd?$AA?3?$AA?2?$AAp?$AAj?$AAs?$AAi?$AAp?$AA?2?$AAp?$AAj?$AAp?$AAr?$AAo?$AAj@ 00520ff8     pjlib-i386-win32-vc8-debug-dynamic:array.obj
 0003:00023064       ??_C@_1BG@OJJHGIJH@?$AAc?$AAo?$AAu?$AAn?$AAt?$AA?5?$AA?$CB?$AA?$DN?$AA?5?$AA0@ 00521064     pjlib-i386-win32-vc8-debug-dynamic:array.obj
 0003:00023080       ??_C@_0CM@MDKHFPDP@d?3?2pjsip?2pjproject?92?48?2pjlib?2sr@ 00521080     pjlib-i386-win32-vc8-debug-dynamic:timer.obj
 0003:000230b8       ??_C@_1FI@GNNAFECC@?$AAd?$AA?3?$AA?2?$AAp?$AAj?$AAs?$AAi?$AAp?$AA?2?$AAp?$AAj?$AAp?$AAr?$AAo?$AAj@ 005210b8     pjlib-i386-win32-vc8-debug-dynamic:timer.obj
 0003:00023128       ??_C@_1EG@MEMOBNLP@?$AAe?$AAn?$AAt?$AAr?$AAy?$AA?5?$AA?$DN?$AA?$DN?$AA?5?$AAh?$AAt?$AA?9?$AA?$DO?$AAh?$AAe@ 00521128     pjlib-i386-win32-vc8-debug-dynamic:timer.obj
 0003:0002317c       ??_C@_1BO@IFOFGLKN@?$AAp?$AAo?$AAo?$AAl?$AA?5?$AA?$CG?$AA?$CG?$AA?5?$AAp?$AA_?$AAh?$AAe?$AAa?$AAp@ 0052117c     pjlib-i386-win32-vc8-debug-dynamic:timer.obj
 0003:000231a0       ??_C@_1BI@DEOIKAPM@?$AAe?$AAn?$AAt?$AAr?$AAy?$AA?5?$AA?$CG?$AA?$CG?$AA?5?$AAc?$AAb@ 005211a0     pjlib-i386-win32-vc8-debug-dynamic:timer.obj
 0003:000231bc       ??_C@_1CK@NIFHNMEB@?$AAh?$AAt?$AA?5?$AA?$CG?$AA?$CG?$AA?5?$AAe?$AAn?$AAt?$AAr?$AAy?$AA?5?$AA?$CG?$AA?$CG?$AA?5@ 005211bc     pjlib-i386-win32-vc8-debug-dynamic:timer.obj
 0003:000231f0       ??_C@_1DC@NCOGDIAG@?$AAe?$AAn?$AAt?$AAr?$AAy?$AA?9?$AA?$DO?$AAc?$AAb?$AA?5?$AA?$CB?$AA?$DN?$AA?5?$AA?$CI?$AA?$CI@ 005211f0     pjlib-i386-win32-vc8-debug-dynamic:timer.obj
 0003:0002322c       ??_C@_1CK@BOBACKKA@?$AAe?$AAn?$AAt?$AAr?$AAy?$AA?9?$AA?$DO?$AA_?$AAt?$AAi?$AAm?$AAe?$AAr?$AA_?$AAi@ 0052122c     pjlib-i386-win32-vc8-debug-dynamic:timer.obj
 0003:00023260       ??_C@_1BI@CGKKKIHJ@?$AAh?$AAt?$AA?5?$AA?$CG?$AA?$CG?$AA?5?$AAe?$AAn?$AAt?$AAr?$AAy@ 00521260     pjlib-i386-win32-vc8-debug-dynamic:timer.obj
 0003:0002327c       ??_C@_15EOMHOEKA@?$AAh?$AAt@ 0052127c     pjlib-i386-win32-vc8-debug-dynamic:timer.obj
 0003:00023284       ??_C@_1CE@GFFKOKMD@?$AAh?$AAt?$AA?9?$AA?$DO?$AAc?$AAu?$AAr?$AA_?$AAs?$AAi?$AAz?$AAe?$AA?5?$AA?$CB?$AA?$DN@ 00521284     pjlib-i386-win32-vc8-debug-dynamic:timer.obj
 0003:000232b0       ??_C@_1HC@FJDBECCA@?$AAd?$AA?3?$AA?2?$AAp?$AAj?$AAs?$AAi?$AAp?$AA?2?$AAp?$AAj?$AAp?$AAr?$AAo?$AAj@ 005212b0     pjlib-i386-win32-vc8-debug-dynamic:ioqueue_select.obj
 0003:00023338       ??_C@_1CA@KCHPHKDA@?$AAi?$AAo?$AAq?$AAu?$AAe?$AAu?$AAe?$AA?5?$AA?$CG?$AA?$CG?$AA?5?$AAl?$AAo?$AAc?$AAk@ 00521338     pjlib-i386-win32-vc8-debug-dynamic:ioqueue_select.obj
 0003:00023360       ??_C@_1CI@INOOPFAE@?$AAk?$AAe?$AAy?$AA?9?$AA?$DO?$AAr?$AAe?$AAf?$AA_?$AAc?$AAo?$AAu?$AAn?$AAt?$AA?5@ 00521360     pjlib-i386-win32-vc8-debug-dynamic:ioqueue_select.obj
 0003:00023390       ??_C@_1CG@DEMIAMFE@?$AAk?$AAe?$AAy?$AA?5?$AA?$CB?$AA?$DN?$AA?5?$AA?$CI?$AA?$CI?$AAv?$AAo?$AAi?$AAd?$AA?5?$AA?$CK@ 00521390     pjlib-i386-win32-vc8-debug-dynamic:ioqueue_select.obj
 0003:000233c0       ??_C@_17FJFCONIE@?$AAk?$AAe?$AAy@ 005213c0     pjlib-i386-win32-vc8-debug-dynamic:ioqueue_select.obj
 0003:000233cc       ??_C@_0BI@NKJLJNEF@Invalid?5operation?5type?$CB@ 005213cc     pjlib-i386-win32-vc8-debug-dynamic:ioqueue_select.obj
 0003:000233e8       ??_C@_1DG@KDBMKDML@?$AA?$CB?$AA?$CC?$AAI?$AAn?$AAv?$AAa?$AAl?$AAi?$AAd?$AA?5?$AAo?$AAp?$AAe?$AAr?$AAa@ 005213e8     pjlib-i386-win32-vc8-debug-dynamic:ioqueue_select.obj
 0003:00023428       ??_C@_1BI@EKGFNMKL@?$AAs?$AAe?$AAn?$AAd?$AA_?$AAr?$AAc?$AA?5?$AA?$DO?$AA?5?$AA0@ 00521428     pjlib-i386-win32-vc8-debug-dynamic:ioqueue_select.obj
 0003:00023448       ??_C@_1EE@CNIDBBIK@?$AAr?$AAe?$AAa?$AAd?$AA_?$AAo?$AAp?$AA?9?$AA?$DO?$AAo?$AAp?$AA?5?$AA?$DN?$AA?$DN?$AA?5@ 00521448     pjlib-i386-win32-vc8-debug-dynamic:ioqueue_select.obj
 0003:000234a0       ??_C@_1EE@GPIKMDPH@?$AAk?$AAe?$AAy?$AA?5?$AA?$CG?$AA?$CG?$AA?5?$AAo?$AAp?$AA_?$AAk?$AAe?$AAy?$AA?5?$AA?$CG@ 005214a0     pjlib-i386-win32-vc8-debug-dynamic:ioqueue_select.obj
 0003:000234f4       ??_C@_0DJ@IJGBOMPN@d?3?2pjsip?2pjproject?92?48?2pjlib?2sr@ 005214f4     pjlib-i386-win32-vc8-debug-dynamic:ioqueue_select.obj
 0003:00023538       ??_C@_1EA@PBLBPGMH@?$AAk?$AAe?$AAy?$AA?5?$AA?$CG?$AA?$CG?$AA?5?$AAo?$AAp?$AA_?$AAk?$AAe?$AAy?$AA?5?$AA?$CG@ 00521538     pjlib-i386-win32-vc8-debug-dynamic:ioqueue_select.obj
 0003:00023588       ??_C@_1EO@LGPBHJKN@?$AAa?$AAd?$AAd?$AAr?$AAl?$AAe?$AAn?$AA?5?$AA?$DM?$AA?$DN?$AA?5?$AA?$CI?$AAi?$AAn?$AAt@ 00521588     pjlib-i386-win32-vc8-debug-dynamic:ioqueue_select.obj
 0003:000235e8       ??_C@_1DE@IAHNELBK@?$AAk?$AAe?$AAy?$AA?5?$AA?$CG?$AA?$CG?$AA?5?$AAo?$AAp?$AA_?$AAk?$AAe?$AAy?$AA?5?$AA?$CG@ 005215e8     pjlib-i386-win32-vc8-debug-dynamic:ioqueue_select.obj
 0003:00023628       ??_C@_1CO@PMKELHLG@?$AAk?$AAe?$AAy?$AA?5?$AA?$CG?$AA?$CG?$AA?5?$AAa?$AAd?$AAd?$AAr?$AA?5?$AA?$CG?$AA?$CG?$AA?5@ 00521628     pjlib-i386-win32-vc8-debug-dynamic:ioqueue_select.obj
 0003:00023660       ??_C@_1CO@FLGLFEIC@?$AAi?$AAo?$AAq?$AAu?$AAe?$AAu?$AAe?$AA?5?$AA?$CB?$AA?$DN?$AA?5?$AA?$CI?$AA?$CI?$AAv?$AAo@ 00521660     pjlib-i386-win32-vc8-debug-dynamic:ioqueue_select.obj
 0003:00023698       ??_C@_1BG@HNKGLEIM@?$AAa?$AAl?$AAl?$AAo?$AAw?$AA?5?$AA?$HM?$AA?$HM?$AA?5?$AA1@ 00521698     pjlib-i386-win32-vc8-debug-dynamic:ioqueue_select.obj
 0003:000236b4       ??_C@_06LGNCCACI@select@   005216b4     pjlib-i386-win32-vc8-debug-dynamic:ioqueue_select.obj
 0003:000236c0       ??_C@_1GK@MGPLOADN@?$AAd?$AA?3?$AA?2?$AAp?$AAj?$AAs?$AAi?$AAp?$AA?2?$AAp?$AAj?$AAp?$AAr?$AAo?$AAj@ 005216c0     pjlib-i386-win32-vc8-debug-dynamic:ioqueue_select.obj
 0003:00023740       ??_C@_1KA@LNOEPJNH@?$AAp?$AAo?$AAo?$AAl?$AA?5?$AA?$CB?$AA?$DN?$AA?5?$AA?$CI?$AA?$CI?$AAv?$AAo?$AAi?$AAd?$AA?5@ 00521740     pjlib-i386-win32-vc8-debug-dynamic:ioqueue_select.obj
 0003:00023800       ??_C@_05LIJONKFG@ioq?$CFp@ 00521800     pjlib-i386-win32-vc8-debug-dynamic:ioqueue_select.obj
 0003:00023808       ??_C@_0CA@IMDCINDN@select?$CI?$CJ?5I?1O?5Queue?5created?5?$CI?$CFp?$CJ@ 00521808     pjlib-i386-win32-vc8-debug-dynamic:ioqueue_select.obj
 0003:00023830       ??_C@_05PHKAINEA@pjlib@    00521830     pjlib-i386-win32-vc8-debug-dynamic:ioqueue_select.obj
 0003:00023838       ??_C@_1BA@ENKELKPH@?$AAi?$AAo?$AAq?$AAu?$AAe?$AAu?$AAe@ 00521838     pjlib-i386-win32-vc8-debug-dynamic:ioqueue_select.obj
 0003:00023850       ??_C@_1FO@PPHPABF@?$AAp?$AAo?$AAo?$AAl?$AA?5?$AA?$CG?$AA?$CG?$AA?5?$AAi?$AAo?$AAq?$AAu?$AAe?$AAu?$AAe@ 00521850     pjlib-i386-win32-vc8-debug-dynamic:ioqueue_select.obj
 0003:000238c0       ??_C@_0FI@FLNGAOFF@Failed?5to?5register?5socket?5to?5io@ 005218c0     pjlib-i386-win32-vc8-debug-dynamic:ioqueue_select.obj
 0003:00023930       ??_C@_1EI@PJMCDAJH@?$AA?$CB?$AAp?$AAj?$AA_?$AAl?$AAi?$AAs?$AAt?$AA_?$AAe?$AAm?$AAp?$AAt?$AAy?$AA?$CI@ 00521930     pjlib-i386-win32-vc8-debug-dynamic:ioqueue_select.obj
 0003:00023988       ??_C@_1CE@KOHBIHOL@?$AAk?$AAe?$AAy?$AA?9?$AA?$DO?$AAc?$AAl?$AAo?$AAs?$AAi?$AAn?$AAg?$AA?5?$AA?$DN?$AA?$DN@ 00521988     pjlib-i386-win32-vc8-debug-dynamic:ioqueue_select.obj
 0003:000239b4       ??_C@_0CJ@NPMLHLI@Bad?5ioqueue?5count?5in?5key?5unregi@ 005219b4     pjlib-i386-win32-vc8-debug-dynamic:ioqueue_select.obj
 0003:000239e8       ??_C@_1FI@CFFJHCOI@?$AA?$CB?$AA?$CC?$AAB?$AAa?$AAd?$AA?5?$AAi?$AAo?$AAq?$AAu?$AAe?$AAu?$AAe?$AA?5?$AAc@ 005219e8     pjlib-i386-win32-vc8-debug-dynamic:ioqueue_select.obj
 0003:00023a54       ??_C@_0L@CAJCIPAG@ioq_select@ 00521a54     pjlib-i386-win32-vc8-debug-dynamic:ioqueue_select.obj
 0003:00023a64       ??_C@_1CA@OBALMACM@?$AAh?$AA?9?$AA?$DO?$AAc?$AAl?$AAo?$AAs?$AAi?$AAn?$AAg?$AA?5?$AA?$CB?$AA?$DN?$AA?5?$AA0@ 00521a64     pjlib-i386-win32-vc8-debug-dynamic:ioqueue_select.obj
 0003:00023a8c       ??_C@_0P@KEHJHANK@Invalid?5event?$CB@ 00521a8c     pjlib-i386-win32-vc8-debug-dynamic:ioqueue_select.obj
 0003:00023aa0       ??_C@_1CE@KOLKIPFK@?$AA?$CB?$AA?$CC?$AAI?$AAn?$AAv?$AAa?$AAl?$AAi?$AAd?$AA?5?$AAe?$AAv?$AAe?$AAn?$AAt@ 00521aa0     pjlib-i386-win32-vc8-debug-dynamic:ioqueue_select.obj
 0003:00023acc       ??_C@_0CD@KFHCCJFN@?$CB?$CB?$CBFATAL?3?5unhandled?5exception?5?$CF@ 00521acc     pjlib-i386-win32-vc8-debug-dynamic:except.obj
 0003:00023af8       ??_C@_08PDFMOJIE@except?4c@ 00521af8     pjlib-i386-win32-vc8-debug-dynamic:except.obj
 0003:00023b08       ??_C@_1FK@NDNHNAAH@?$AAd?$AA?3?$AA?2?$AAp?$AAj?$AAs?$AAi?$AAp?$AA?2?$AAp?$AAj?$AAp?$AAr?$AAo?$AAj@ 00521b08     pjlib-i386-win32-vc8-debug-dynamic:except.obj
 0003:00023b74       ??_C@_1CO@MDLDAOGN@?$AAh?$AAa?$AAn?$AAd?$AAl?$AAe?$AAr?$AA?5?$AA?$CB?$AA?$DN?$AA?5?$AA?$CI?$AA?$CI?$AAv?$AAo@ 00521b74     pjlib-i386-win32-vc8-debug-dynamic:except.obj
 0003:00023bac       ??_C@_1CM@CIICDJMC@?$AAt?$AAh?$AAr?$AAe?$AAa?$AAd?$AA_?$AAl?$AAo?$AAc?$AAa?$AAl?$AA_?$AAi?$AAd@ 00521bac     pjlib-i386-win32-vc8-debug-dynamic:except.obj
 0003:00023be0       ??_C@_1BM@OONEPGEP@?$AAi?$AAd?$AA?$DO?$AA0?$AA?5?$AA?$CG?$AA?$CG?$AA?5?$AAi?$AAd?$AA?$DM?$AA1?$AA6@ 00521be0     pjlib-i386-win32-vc8-debug-dynamic:except.obj
 0003:00023c04       ??_C@_0N@GJOLEKJC@?$DMInvalid?5ID?$DO@ 00521c04     pjlib-i386-win32-vc8-debug-dynamic:except.obj
 0003:00023c14       ??_C@_0N@LJPLLMIL@exception?5?$CFd@ 00521c14     pjlib-i386-win32-vc8-debug-dynamic:except.obj
 0003:00023c24       ??_C@_0CL@DOIMMNGK@d?3?2pjsip?2pjproject?92?48?2pjlib?2sr@ 00521c24     pjlib-i386-win32-vc8-debug-dynamic:hash.obj
 0003:00023c58       ??_C@_1FG@GJGICELH@?$AAd?$AA?3?$AA?2?$AAp?$AAj?$AAs?$AAi?$AAp?$AA?2?$AAp?$AAj?$AAp?$AAr?$AAo?$AAj@ 00521c58     pjlib-i386-win32-vc8-debug-dynamic:hash.obj
 0003:00023ea0       ??_C@_0CD@FNMHLHMI@Interrupted?5system?5call?5?$CIWSAEIN@ 00521ea0     pjlib-i386-win32-vc8-debug-dynamic:os_error_win32.obj
 0003:00023ecc       ??_C@_0BL@OKPDNKLH@Bad?5file?5number?5?$CIWSAEBADF?$CJ@ 00521ecc     pjlib-i386-win32-vc8-debug-dynamic:os_error_win32.obj
 0003:00023eec       ??_C@_0BO@BMBEEPBP@Permission?5denied?5?$CIWSAEACCES?$CJ@ 00521eec     pjlib-i386-win32-vc8-debug-dynamic:os_error_win32.obj
 0003:00023f10       ??_C@_0BI@LAKHPJJ@Bad?5address?5?$CIWSAEFAULT?$CJ@ 00521f10     pjlib-i386-win32-vc8-debug-dynamic:os_error_win32.obj
 0003:00023f2c       ??_C@_0BN@FEIDINKH@Invalid?5argument?5?$CIWSAEINVAL?$CJ@ 00521f2c     pjlib-i386-win32-vc8-debug-dynamic:os_error_win32.obj
 0003:00023f50       ??_C@_0CC@HMKKNDGL@Too?5many?5open?5sockets?5?$CIWSAEMFIL@ 00521f50     pjlib-i386-win32-vc8-debug-dynamic:os_error_win32.obj
 0003:00023f78       ??_C@_0CH@GCPPFMGM@Operation?5would?5block?5?$CIWSAEWOUL@ 00521f78     pjlib-i386-win32-vc8-debug-dynamic:os_error_win32.obj
 0003:00023fa8       ??_C@_0CL@DKGHEPCD@Operation?5now?5in?5progress?5?$CIWSAE@ 00521fa8     pjlib-i386-win32-vc8-debug-dynamic:os_error_win32.obj
 0003:00023fdc       ??_C@_0CM@BEMCBKDH@Operation?5already?5in?5progress?5?$CI@ 00521fdc     pjlib-i386-win32-vc8-debug-dynamic:os_error_win32.obj
 0003:00024010       ??_C@_0CN@PAFKDEBN@Socket?5operation?5on?5non?9socket?5@ 00522010     pjlib-i386-win32-vc8-debug-dynamic:os_error_win32.obj
 0003:00024048       ??_C@_0CP@HCDICECK@Destination?5address?5required?5?$CIW@ 00522048     pjlib-i386-win32-vc8-debug-dynamic:os_error_win32.obj
 0003:00024080       ??_C@_0BP@LNFPBFEK@Message?5too?5long?5?$CIWSAEMSGSIZE?$CJ@ 00522080     pjlib-i386-win32-vc8-debug-dynamic:os_error_win32.obj
 0003:000240a8       ??_C@_0CP@MMIMIEMF@Protocol?5wrong?5type?5for?5socket?5@ 005220a8     pjlib-i386-win32-vc8-debug-dynamic:os_error_win32.obj
 0003:000240e0       ??_C@_0CF@HNFLHOHA@Bad?5protocol?5option?5?$CIWSAENOPROT@ 005220e0     pjlib-i386-win32-vc8-debug-dynamic:os_error_win32.obj
 0003:0002410c       ??_C@_0CM@HPGHEHCE@Protocol?5not?5supported?5?$CIWSAEPRO@ 0052210c     pjlib-i386-win32-vc8-debug-dynamic:os_error_win32.obj
 0003:00024140       ??_C@_0CP@JLBNHCOL@Socket?5type?5not?5supported?5?$CIWSAE@ 00522140     pjlib-i386-win32-vc8-debug-dynamic:os_error_win32.obj
 0003:00024178       ??_C@_0DC@GJMFANID@Operation?5not?5supported?5on?5sock@ 00522178     pjlib-i386-win32-vc8-debug-dynamic:os_error_win32.obj
 0003:000241b4       ??_C@_0DA@GFNBENIG@Protocol?5family?5not?5supported?5?$CI@ 005221b4     pjlib-i386-win32-vc8-debug-dynamic:os_error_win32.obj
 0003:000241f0       ??_C@_0CP@MMKHGIFC@Address?5family?5not?5supported?5?$CIW@ 005221f0     pjlib-i386-win32-vc8-debug-dynamic:os_error_win32.obj
 0003:00024228       ??_C@_0CH@OCKNFBKE@Address?5already?5in?5use?5?$CIWSAEADD@ 00522228     pjlib-i386-win32-vc8-debug-dynamic:os_error_win32.obj
 0003:00024258       ??_C@_0DC@FJJPJPOD@Can?8t?5assign?5requested?5address?5@ 00522258     pjlib-i386-win32-vc8-debug-dynamic:os_error_win32.obj
 0003:00024294       ??_C@_0BO@IICKDHLJ@Network?5is?5down?5?$CIWSAENETDOWN?$CJ@ 00522294     pjlib-i386-win32-vc8-debug-dynamic:os_error_win32.obj
 0003:000242b8       ??_C@_0CI@NKJAACME@Network?5is?5unreachable?5?$CIWSAENET@ 005222b8     pjlib-i386-win32-vc8-debug-dynamic:os_error_win32.obj
 0003:000242e8       ??_C@_0CE@LJEEEFEC@Net?5connection?5reset?5?$CIWSAENETRE@ 005222e8     pjlib-i386-win32-vc8-debug-dynamic:os_error_win32.obj
 0003:00024314       ??_C@_0DD@PGDIHOBG@Software?5caused?5connection?5abor@ 00522314     pjlib-i386-win32-vc8-debug-dynamic:os_error_win32.obj
 0003:00024354       ??_C@_0CJ@PJHCFAAN@Connection?5reset?5by?5peer?5?$CIWSAEC@ 00522354     pjlib-i386-win32-vc8-debug-dynamic:os_error_win32.obj
 0003:00024388       ??_C@_0CH@EKNGIMKN@No?5buffer?5space?5available?5?$CIWSAE@ 00522388     pjlib-i386-win32-vc8-debug-dynamic:os_error_win32.obj
 0003:000243b8       ??_C@_0CJ@JOPBNNOD@Socket?5is?5already?5connected?5?$CIWS@ 005223b8     pjlib-i386-win32-vc8-debug-dynamic:os_error_win32.obj
 0003:000243ec       ??_C@_0CG@CECDMHLL@Socket?5is?5not?5connected?5?$CIWSAENO@ 005223ec     pjlib-i386-win32-vc8-debug-dynamic:os_error_win32.obj
 0003:0002441c       ??_C@_0DA@JGJMJPNM@Can?8t?5send?5after?5socket?5shutdow@ 0052241c     pjlib-i386-win32-vc8-debug-dynamic:os_error_win32.obj
 0003:00024458       ??_C@_0DE@CAILNFFE@Too?5many?5references?0?5can?8t?5spli@ 00522458     pjlib-i386-win32-vc8-debug-dynamic:os_error_win32.obj
 0003:00024498       ??_C@_0CE@IIKHBGF@Connection?5timed?5out?5?$CIWSAETIMED@ 00522498     pjlib-i386-win32-vc8-debug-dynamic:os_error_win32.obj
 0003:000244c4       ??_C@_0CF@JMKFBJH@Connection?5refused?5?$CIWSAECONNREF@ 005224c4     pjlib-i386-win32-vc8-debug-dynamic:os_error_win32.obj
 0003:000244f0       ??_C@_0CN@FCKBNFMB@Too?5many?5levels?5of?5symbolic?5lin@ 005224f0     pjlib-i386-win32-vc8-debug-dynamic:os_error_win32.obj
 0003:00024528       ??_C@_0CF@MOFKOMBB@File?5name?5too?5long?5?$CIWSAENAMETOO@ 00522528     pjlib-i386-win32-vc8-debug-dynamic:os_error_win32.obj
 0003:00024554       ??_C@_0BM@NCJCEEDP@Host?5is?5down?5?$CIWSAEHOSTDOWN?$CJ@ 00522554     pjlib-i386-win32-vc8-debug-dynamic:os_error_win32.obj
 0003:00024578       ??_C@_0CD@ECJOJHBH@No?5route?5to?5host?5?$CIWSAEHOSTUNREA@ 00522578     pjlib-i386-win32-vc8-debug-dynamic:os_error_win32.obj
 0003:000245a4       ??_C@_0CD@NEFLEHEG@Directory?5not?5empty?5?$CIWSAENOTEMP@ 005225a4     pjlib-i386-win32-vc8-debug-dynamic:os_error_win32.obj
 0003:000245d0       ??_C@_0CB@GPCGLHOJ@Too?5many?5processes?5?$CIWSAEPROCLIM@ 005225d0     pjlib-i386-win32-vc8-debug-dynamic:os_error_win32.obj
 0003:000245f8       ??_C@_0BL@IGHJMJKO@Too?5many?5users?5?$CIWSAEUSERS?$CJ@ 005225f8     pjlib-i386-win32-vc8-debug-dynamic:os_error_win32.obj
 0003:00024618       ??_C@_0CA@MIOFDKMA@Disc?5quota?5exceeded?5?$CIWSAEDQUOT?$CJ@ 00522618     pjlib-i386-win32-vc8-debug-dynamic:os_error_win32.obj
 0003:00024640       ??_C@_0CC@IMLIDHNH@Stale?5NFS?5file?5handle?5?$CIWSAESTAL@ 00522640     pjlib-i386-win32-vc8-debug-dynamic:os_error_win32.obj
 0003:00024668       ??_C@_0CP@MLAFGPOA@Too?5many?5levels?5of?5remote?5in?5pa@ 00522668     pjlib-i386-win32-vc8-debug-dynamic:os_error_win32.obj
 0003:000246a0       ??_C@_0CP@IBAEMKGH@Network?5system?5is?5unavailable?5?$CI@ 005226a0     pjlib-i386-win32-vc8-debug-dynamic:os_error_win32.obj
 0003:000246d8       ??_C@_0DC@BLAKHMMJ@Winsock?5version?5out?5of?5range?5?$CIW@ 005226d8     pjlib-i386-win32-vc8-debug-dynamic:os_error_win32.obj
 0003:00024714       ??_C@_0CO@HPDHHDHA@WSAStartup?5not?5yet?5called?5?$CIWSAN@ 00522714     pjlib-i386-win32-vc8-debug-dynamic:os_error_win32.obj
 0003:0002474c       ??_C@_0CL@GFDHEKLB@Graceful?5shutdown?5in?5progress?5?$CI@ 0052274c     pjlib-i386-win32-vc8-debug-dynamic:os_error_win32.obj
 0003:00024780       ??_C@_0CD@OEALOMDH@Host?5not?5found?5?$CIWSAHOST_NOT_FOU@ 00522780     pjlib-i386-win32-vc8-debug-dynamic:os_error_win32.obj
 0003:000247ac       ??_C@_0DB@KFPHELLI@No?5host?5data?5of?5that?5type?5was?5f@ 005227ac     pjlib-i386-win32-vc8-debug-dynamic:os_error_win32.obj
 0003:000247e8       ??_C@_1GK@CCFKEIHC@?$AAd?$AA?3?$AA?2?$AAp?$AAj?$AAs?$AAi?$AAp?$AA?2?$AAp?$AAj?$AAp?$AAr?$AAo?$AAj@ 005227e8     pjlib-i386-win32-vc8-debug-dynamic:os_error_win32.obj
 0003:00024868       ??_C@_1CG@MKDKEIKM@?$AAb?$AAu?$AAf?$AA?5?$AA?$CB?$AA?$DN?$AA?5?$AA?$CI?$AA?$CI?$AAv?$AAo?$AAi?$AAd?$AA?5?$AA?$CK@ 00522868     pjlib-i386-win32-vc8-debug-dynamic:os_error_win32.obj
 0003:00024898       ??_C@_1BK@KKHIEKEI@?$AAb?$AAu?$AAf?$AAs?$AAi?$AAz?$AAe?$AA?5?$AA?$DO?$AA?$DN?$AA?5?$AA0@ 00522898     pjlib-i386-win32-vc8-debug-dynamic:os_error_win32.obj
 0003:000248b8       ??_C@_0BE@JPHLLAEM@Win32?5error?5code?5?$CFu@ 005228b8     pjlib-i386-win32-vc8-debug-dynamic:os_error_win32.obj
 0003:000248d0       _PJ_GUID_STRING_LENGTH     005228d0     pjlib-i386-win32-vc8-debug-dynamic:guid_win32.obj
 0003:000248d4       ??_C@_0DB@LMMCJAJB@d?3?2pjsip?2pjproject?92?48?2pjlib?2sr@ 005228d4     pjlib-i386-win32-vc8-debug-dynamic:guid_win32.obj
 0003:00024950       ??_C@_1GM@HJLMGLPH@?$AAd?$AA?3?$AA?2?$AAp?$AAj?$AAs?$AAi?$AAp?$AA?2?$AAp?$AAj?$AAp?$AAr?$AAo?$AAj@ 00522950     pjlib-i386-win32-vc8-debug-dynamic:sock_qos_common.obj
 0003:000249d8       ??_C@_1EK@FDLHHEKP@?$AAt?$AAy?$AAp?$AAe?$AA?$DM?$AA?$DN?$AAP?$AAJ?$AA_?$AAQ?$AAO?$AAS?$AA_?$AAT?$AAY@ 005229d8     pjlib-i386-win32-vc8-debug-dynamic:sock_qos_common.obj
 0003:00024a30       ??_C@_1CA@MBGCEBMK@?$AAp?$AAa?$AAr?$AAa?$AAm?$AA?5?$AA?$CG?$AA?$CG?$AA?5?$AAp?$AA_?$AAt?$AAy?$AAp?$AAe@ 00522a30     pjlib-i386-win32-vc8-debug-dynamic:sock_qos_common.obj
 0003:00024a58       ??_C@_0BC@GPHMAKPK@sock_qos_common?4c@ 00522a58     pjlib-i386-win32-vc8-debug-dynamic:sock_qos_common.obj
 0003:00024a70       ??_C@_06HBELJPBO@socket@   00522a70     pjlib-i386-win32-vc8-debug-dynamic:sock_qos_common.obj
 0003:00024a78       ??_C@_0CA@EBJCMLJI@Error?5setting?5QoS?5type?5?$CFd?5to?5?$CFs@ 00522a78     pjlib-i386-win32-vc8-debug-dynamic:sock_qos_common.obj
 0003:00024aa0       ??_C@_0CK@CGDCCPNL@Error?5setting?5QoS?5params?5?$CIflags@ 00522aa0     pjlib-i386-win32-vc8-debug-dynamic:sock_qos_common.obj
 0003:00024ad8       ??_C@_1GO@MLKBIBD@?$AAd?$AA?3?$AA?2?$AAp?$AAj?$AAs?$AAi?$AAp?$AA?2?$AAp?$AAj?$AAp?$AAr?$AAo?$AAj@ 00522ad8     pjlib-i386-win32-vc8-debug-dynamic:addr_resolv_sock.obj
 0003:00024b60       ??_C@_1EI@LHIOBFFM@?$AAh?$AAo?$AAs?$AAt?$AAn?$AAa?$AAm?$AAe?$AA?5?$AA?$CG?$AA?$CG?$AA?5?$AAh?$AAo?$AAs@ 00522b60     pjlib-i386-win32-vc8-debug-dynamic:addr_resolv_sock.obj
 0003:00024bb8       ??_C@_1CA@LMDHKGAC@?$AAc?$AAo?$AAu?$AAn?$AAt?$AA?5?$AA?$CG?$AA?$CG?$AA?5?$AA?$CK?$AAc?$AAo?$AAu?$AAn?$AAt@ 00522bb8     pjlib-i386-win32-vc8-debug-dynamic:addr_resolv_sock.obj
 0003:00024be0       ??_C@_1FO@IGHHNBJO@?$AAd?$AA?3?$AA?2?$AAp?$AAj?$AAs?$AAi?$AAp?$AA?2?$AAp?$AAj?$AAp?$AAr?$AAo?$AAj@ 00522be0     pjlib-i386-win32-vc8-debug-dynamic:pool_buf.obj
 0003:00024c50       ??_C@_1CI@HJOGHDAN@?$AAs?$AAi?$AAz?$AAe?$AA?5?$AA?$DM?$AA?$DN?$AA?5?$AAp?$AAa?$AAr?$AAa?$AAm?$AA?9?$AA?$DO@ 00522c50     pjlib-i386-win32-vc8-debug-dynamic:pool_buf.obj
 0003:00024c80       ??_C@_1BI@BGGDHCPA@?$AAb?$AAu?$AAf?$AA?5?$AA?$CG?$AA?$CG?$AA?5?$AAs?$AAi?$AAz?$AAe@ 00522c80     pjlib-i386-win32-vc8-debug-dynamic:pool_buf.obj
 0003:00024c9c       ??_C@_08DOCHLGNA@config?4c@ 00522c9c     pjlib-i386-win32-vc8-debug-dynamic:config.obj
 0003:00024ca8       ??_C@_03KBNFMHNI@2?48@     00522ca8     pjlib-i386-win32-vc8-debug-dynamic:config.obj
 0003:00024cac       ??_C@_0BO@LAKNEFOB@PJLIB?5?$CIc?$CJ2008?92016?5Teluu?5Inc?4@ 00522cac     pjlib-i386-win32-vc8-debug-dynamic:config.obj
 0003:00024cd0       ??_C@_0BI@GDBJIAMF@Dumping?5configurations?3@ 00522cd0     pjlib-i386-win32-vc8-debug-dynamic:config.obj
 0003:00024cec       ??_C@_0CA@JHFFEGGP@?5PJ_VERSION?5?5?5?5?5?5?5?5?5?5?5?5?5?5?5?5?3?5?$CFs@ 00522cec     pjlib-i386-win32-vc8-debug-dynamic:config.obj
 0003:00024d14       ??_C@_04OMAFGPMM@i386@     00522d14     pjlib-i386-win32-vc8-debug-dynamic:config.obj
 0003:00024d1c       ??_C@_0CA@NCEBBBBA@?5PJ_M_NAME?5?5?5?5?5?5?5?5?5?5?5?5?5?5?5?5?5?3?5?$CFs@ 00522d1c     pjlib-i386-win32-vc8-debug-dynamic:config.obj
 0003:00024d44       ??_C@_0CA@KOLEBPNK@?5PJ_HAS_PENTIUM?5?5?5?5?5?5?5?5?5?5?5?5?3?5?$CFd@ 00522d44     pjlib-i386-win32-vc8-debug-dynamic:config.obj
 0003:00024d6c       ??_C@_05NMJMPJJB@win32@    00522d6c     pjlib-i386-win32-vc8-debug-dynamic:config.obj
 0003:00024d74       ??_C@_0CA@GPBHGDBG@?5PJ_OS_NAME?5?5?5?5?5?5?5?5?5?5?5?5?5?5?5?5?3?5?$CFs@ 00522d74     pjlib-i386-win32-vc8-debug-dynamic:config.obj
 0003:00024d9c       ??_C@_04DPFJJIOK@msvc@     00522d9c     pjlib-i386-win32-vc8-debug-dynamic:config.obj
 0003:00024da4       ??_C@_0CJ@BAKBAPNO@?5PJ_CC_NAME?1VER_?$CI1?02?03?$CJ?5?5?5?5?3?5?$CFs@ 00522da4     pjlib-i386-win32-vc8-debug-dynamic:config.obj
 0003:00024dd8       ??_C@_0O@KEGGAHLA@little?9endian@ 00522dd8     pjlib-i386-win32-vc8-debug-dynamic:config.obj
 0003:00024de8       ??_C@_0CA@CNKKKLLD@?5PJ_IS_?$CIBIG?1LITTLE?$CJ_ENDIAN?5?3?5?$CFs@ 00522de8     pjlib-i386-win32-vc8-debug-dynamic:config.obj
 0003:00024e10       ??_C@_0CA@GGBFPJFC@?5PJ_HAS_INT64?5?5?5?5?5?5?5?5?5?5?5?5?5?5?3?5?$CFd@ 00522e10     pjlib-i386-win32-vc8-debug-dynamic:config.obj
 0003:00024e38       ??_C@_0CA@LMENGBAP@?5PJ_HAS_FLOATING_POINT?5?5?5?5?5?3?5?$CFd@ 00522e38     pjlib-i386-win32-vc8-debug-dynamic:config.obj
 0003:00024e60       ??_C@_0CA@NBBHLDIH@?5PJ_DEBUG?5?5?5?5?5?5?5?5?5?5?5?5?5?5?5?5?5?5?3?5?$CFd@ 00522e60     pjlib-i386-win32-vc8-debug-dynamic:config.obj
 0003:00024e88       ??_C@_0CA@PKIHIMKF@?5PJ_FUNCTIONS_ARE_INLINED?5?5?3?5?$CFd@ 00522e88     pjlib-i386-win32-vc8-debug-dynamic:config.obj
 0003:00024eb0       ??_C@_0CA@GEBJAONH@?5PJ_LOG_MAX_LEVEL?5?5?5?5?5?5?5?5?5?5?3?5?$CFd@ 00522eb0     pjlib-i386-win32-vc8-debug-dynamic:config.obj
 0003:00024ed8       ??_C@_0CA@JKBDOCPB@?5PJ_LOG_MAX_SIZE?5?5?5?5?5?5?5?5?5?5?5?3?5?$CFd@ 00522ed8     pjlib-i386-win32-vc8-debug-dynamic:config.obj
 0003:00024f00       ??_C@_0CA@LNDGNGPB@?5PJ_LOG_USE_STACK_BUFFER?5?5?5?3?5?$CFd@ 00522f00     pjlib-i386-win32-vc8-debug-dynamic:config.obj
 0003:00024f28       ??_C@_0CA@HLGIANHB@?5PJ_POOL_DEBUG?5?5?5?5?5?5?5?5?5?5?5?5?5?3?5?$CFd@ 00522f28     pjlib-i386-win32-vc8-debug-dynamic:config.obj
 0003:00024f50       ??_C@_0CA@JFMEIGNB@?5PJ_HAS_POOL_ALT_API?5?5?5?5?5?5?5?3?5?$CFd@ 00522f50     pjlib-i386-win32-vc8-debug-dynamic:config.obj
 0003:00024f78       ??_C@_0CA@PHJFINJO@?5PJ_HAS_TCP?5?5?5?5?5?5?5?5?5?5?5?5?5?5?5?5?3?5?$CFd@ 00522f78     pjlib-i386-win32-vc8-debug-dynamic:config.obj
 0003:00024fa0       ??_C@_0CA@IJPJLFMD@?5PJ_MAX_HOSTNAME?5?5?5?5?5?5?5?5?5?5?5?3?5?$CFd@ 00522fa0     pjlib-i386-win32-vc8-debug-dynamic:config.obj
 0003:00024fc8       ??_C@_0CA@IFEKDPPK@?5ioqueue?5type?5?5?5?5?5?5?5?5?5?5?5?5?5?5?3?5?$CFs@ 00522fc8     pjlib-i386-win32-vc8-debug-dynamic:config.obj
 0003:00024ff0       ??_C@_0CA@MFIGELPB@?5PJ_IOQUEUE_MAX_HANDLES?5?5?5?5?3?5?$CFd@ 00522ff0     pjlib-i386-win32-vc8-debug-dynamic:config.obj
 0003:00025018       ??_C@_0CA@EOIHPMGI@?5PJ_IOQUEUE_HAS_SAFE_UNREG?5?3?5?$CFd@ 00523018     pjlib-i386-win32-vc8-debug-dynamic:config.obj
 0003:00025040       ??_C@_0CA@KKPKMEKG@?5PJ_HAS_THREADS?5?5?5?5?5?5?5?5?5?5?5?5?3?5?$CFd@ 00523040     pjlib-i386-win32-vc8-debug-dynamic:config.obj
 0003:00025068       ??_C@_0CA@MDECAGDJ@?5PJ_HAS_SEMAPHORE?5?5?5?5?5?5?5?5?5?5?3?5?$CFd@ 00523068     pjlib-i386-win32-vc8-debug-dynamic:config.obj
 0003:00025090       ??_C@_0CA@PPJIFE@?5PJ_HAS_EVENT_OBJ?5?5?5?5?5?5?5?5?5?5?3?5?$CFd@ 00523090     pjlib-i386-win32-vc8-debug-dynamic:config.obj
 0003:000250b8       ??_C@_0CA@HDOPKKCK@?5PJ_ENABLE_EXTRA_CHECK?5?5?5?5?5?3?5?$CFd@ 005230b8     pjlib-i386-win32-vc8-debug-dynamic:config.obj
 0003:000250e0       ??_C@_0CA@KBIPPCDM@?5PJ_HAS_EXCEPTION_NAMES?5?5?5?5?3?5?$CFd@ 005230e0     pjlib-i386-win32-vc8-debug-dynamic:config.obj
 0003:00025108       ??_C@_0CA@PDHBELMF@?5PJ_MAX_EXCEPTION_ID?5?5?5?5?5?5?5?3?5?$CFd@ 00523108     pjlib-i386-win32-vc8-debug-dynamic:config.obj
 0003:00025130       ??_C@_0CA@JCLOPIAE@?5PJ_EXCEPTION_USE_WIN32_SEH?3?5?$CFd@ 00523130     pjlib-i386-win32-vc8-debug-dynamic:config.obj
 0003:00025158       ??_C@_0CA@ELABDFDK@?5PJ_TIMESTAMP_USE_RDTSC?3?5?5?5?3?5?$CFd@ 00523158     pjlib-i386-win32-vc8-debug-dynamic:config.obj
 0003:00025180       ??_C@_0CA@KNFEOAMF@?5PJ_OS_HAS_CHECK_STACK?5?5?5?5?5?3?5?$CFd@ 00523180     pjlib-i386-win32-vc8-debug-dynamic:config.obj
 0003:000251a8       ??_C@_0CA@HPFADEMC@?5PJ_HAS_HIGH_RES_TIMER?5?5?5?5?5?3?5?$CFd@ 005231a8     pjlib-i386-win32-vc8-debug-dynamic:config.obj
 0003:000251d0       ??_C@_0CA@KGPMHLO@?5PJ_HAS_IPV6?5?5?5?5?5?5?5?5?5?5?5?5?5?5?5?3?5?$CFd@ 005231d0     pjlib-i386-win32-vc8-debug-dynamic:config.obj
 0003:000251f8       ??_C@_08PFPBFMIL@IpHlpApi@ 005231f8     pjlib-i386-win32-vc8-debug-dynamic:ip_helper_win32.obj
 0003:00025204       ??_C@_0P@PMIJPFPM@GetIpAddrTable@ 00523204     pjlib-i386-win32-vc8-debug-dynamic:ip_helper_win32.obj
 0003:00025218       ??_C@_0BF@LHFCIIHE@GetAdaptersAddresses@ 00523218     pjlib-i386-win32-vc8-debug-dynamic:ip_helper_win32.obj
 0003:00025234       ??_C@_0L@BLHMKEDC@GetIfEntry@ 00523234     pjlib-i386-win32-vc8-debug-dynamic:ip_helper_win32.obj
 0003:00025244       ??_C@_0BC@MNHJPEOP@GetIpForwardTable@ 00523244     pjlib-i386-win32-vc8-debug-dynamic:ip_helper_win32.obj
 0003:00025260       ??_C@_1GM@CPLHLII@?$AAd?$AA?3?$AA?2?$AAp?$AAj?$AAs?$AAi?$AAp?$AA?2?$AAp?$AAj?$AAp?$AAr?$AAo?$AAj@ 00523260     pjlib-i386-win32-vc8-debug-dynamic:ip_helper_win32.obj
 0003:000252e4       ??_C@_1BK@HGDCMKGI@?$AAp?$AA_?$AAc?$AAn?$AAt?$AA?5?$AA?$CG?$AA?$CG?$AA?5?$AAi?$AAf?$AAs@ 005232e4     pjlib-i386-win32-vc8-debug-dynamic:ip_helper_win32.obj
 0003:00025304       ??_C@_1CA@PNMIBKCD@?$AAp?$AA_?$AAc?$AAn?$AAt?$AA?5?$AA?$CG?$AA?$CG?$AA?5?$AAr?$AAo?$AAu?$AAt?$AAe?$AAs@ 00523304     pjlib-i386-win32-vc8-debug-dynamic:ip_helper_win32.obj
 0003:00025330       __real@0000000000000000    00523330     pjlib-i386-win32-vc8-debug-dynamic:os_timestamp_common.obj
 0003:00025340       __real@412e848000000000    00523340     pjlib-i386-win32-vc8-debug-dynamic:os_timestamp_common.obj
 0003:00025350       __real@41cdcd6500000000    00523350     pjlib-i386-win32-vc8-debug-dynamic:os_timestamp_common.obj
 0003:0002535c       ??_C@_0DC@NPGHJPKE@d?3?2pjsip?2pjproject?92?48?2pjlib?2sr@ 0052335c     pjlib-i386-win32-vc8-debug-dynamic:sock_select.obj
 0003:00025398       ??_C@_04DKFOEDJA@srtp@     00523398     libsrtp-i386-win32-vc8-debug-dynamic:srtp.obj
 0003:000253a0       ??_C@_0O@MPMBEIB@libsrtp?52?41?40@ 005233a0     libsrtp-i386-win32-vc8-debug-dynamic:srtp.obj
 0003:000253b0       ??_C@_08OANCNLAH@?$CFu?4?$CFu?4?$CFu@ 005233b0     libsrtp-i386-win32-vc8-debug-dynamic:srtp.obj
 0003:000253bc       ??_C@_05NMHMKLEC@2?41?40@  005233bc     libsrtp-i386-win32-vc8-debug-dynamic:srtp.obj
 0003:000253c4       ??_C@_0CD@KFGKPJOG@?$CFs?3?5cloning?5stream?5?$CISSRC?3?50x?$CF08@ 005233c4     libsrtp-i386-win32-vc8-debug-dynamic:srtp.obj
 0003:000253f0       ??_C@_0BG@DDGAJBGL@?$CFs?3?5srtp?5key?5len?3?5?$CFd?6@ 005233f0     libsrtp-i386-win32-vc8-debug-dynamic:srtp.obj
 0003:0002540c       ??_C@_0BH@DGNFCKJN@?$CFs?3?5srtcp?5key?5len?3?5?$CFd?6@ 0052340c     libsrtp-i386-win32-vc8-debug-dynamic:srtp.obj
 0003:00025428       ??_C@_0BG@DMEGGANK@?$CFs?3?5base?5key?5len?3?5?$CFd?6@ 00523428     libsrtp-i386-win32-vc8-debug-dynamic:srtp.obj
 0003:00025444       ??_C@_0BF@HLIACONN@?$CFs?3?5kdf?5key?5len?3?5?$CFd?6@ 00523444     libsrtp-i386-win32-vc8-debug-dynamic:srtp.obj
 0003:00025460       ??_C@_0BG@BGKGMHMB@?$CFs?3?5rtp?5salt?5len?3?5?$CFd?6@ 00523460     libsrtp-i386-win32-vc8-debug-dynamic:srtp.obj
 0003:0002547c       ??_C@_0BE@PGOGLMMP@?$CFs?3?5cipher?5key?3?5?$CFs?6@ 0052347c     libsrtp-i386-win32-vc8-debug-dynamic:srtp.obj
 0003:00025494       ??_C@_0CN@BDCDAMHJ@?$CFs?3?5found?5rtp_salt_len?5?$DO?50?0?5gen@ 00523494     libsrtp-i386-win32-vc8-debug-dynamic:srtp.obj
 0003:000254cc       ??_C@_0BF@GHNDNNEA@?$CFs?3?5cipher?5salt?3?5?$CFs?6@ 005234cc     libsrtp-i386-win32-vc8-debug-dynamic:srtp.obj
 0003:000254e8       ??_C@_0BP@LJKEDGBP@?$CFs?3?5extensions?5cipher?5key?3?5?$CFs?6@ 005234e8     libsrtp-i386-win32-vc8-debug-dynamic:srtp.obj
 0003:00025510       ??_C@_0DF@NJKDAIDN@?$CFs?3?5found?5rtp_xtn_hdr_salt_len?5@ 00523510     libsrtp-i386-win32-vc8-debug-dynamic:srtp.obj
 0003:00025550       ??_C@_0CA@OBEPENBO@?$CFs?3?5extensions?5cipher?5salt?3?5?$CFs?6@ 00523550     libsrtp-i386-win32-vc8-debug-dynamic:srtp.obj
 0003:00025578       ??_C@_0BE@HGKFNAFC@?$CFs?3?5auth?5key?3?5?5?5?$CFs?6@ 00523578     libsrtp-i386-win32-vc8-debug-dynamic:srtp.obj
 0003:00025590       ??_C@_0BH@KOPGGCNO@?$CFs?3?5rtcp?5salt?5len?3?5?$CFd?6@ 00523590     libsrtp-i386-win32-vc8-debug-dynamic:srtp.obj
 0003:000255ac       ??_C@_0DD@DNDBGLG@?$CFs?3?5found?5rtcp_salt_len?5?$DO?50?0?5ge@ 005235ac     libsrtp-i386-win32-vc8-debug-dynamic:srtp.obj
 0003:000255ec       ??_C@_0BJ@KAKGCCMO@?$CFs?3?5rtcp?5cipher?5key?3?5?$CFs?6@ 005235ec     libsrtp-i386-win32-vc8-debug-dynamic:srtp.obj
 0003:0002560c       ??_C@_0BK@BAICKNEI@?$CFs?3?5rtcp?5cipher?5salt?3?5?$CFs?6@ 0052360c     libsrtp-i386-win32-vc8-debug-dynamic:srtp.obj
 0003:0002562c       ??_C@_0BJ@CAOFEOFD@?$CFs?3?5rtcp?5auth?5key?3?5?5?5?$CFs?6@ 0052362c     libsrtp-i386-win32-vc8-debug-dynamic:srtp.obj
 0003:0002564c       ??_C@_0CI@PDNDGOMA@?$CFs?3?5initializing?5stream?5?$CISSRC?3?5@ 0052364c     libsrtp-i386-win32-vc8-debug-dynamic:srtp.obj
 0003:0002567c       ??_C@_0BH@GAKJJGLB@srtp?3?5in?5stream?50x?$CFx?3?5@ 0052367c     libsrtp-i386-win32-vc8-debug-dynamic:srtp.obj
 0003:00025698       ??_C@_0BB@PPFALDPP@?7SSRC?5collision?6@ 00523698     libsrtp-i386-win32-vc8-debug-dynamic:srtp.obj
 0003:000256ac       ??_C@_0BP@HOEKLBIN@?7key?5usage?5soft?5limit?5reached?6@ 005236ac     libsrtp-i386-win32-vc8-debug-dynamic:srtp.obj
 0003:000256d4       ??_C@_0BP@KNJIFCF@?7key?5usage?5hard?5limit?5reached?6@ 005236d4     libsrtp-i386-win32-vc8-debug-dynamic:srtp.obj
 0003:000256fc       ??_C@_0BN@MKCGGAOP@?7packet?5index?5limit?5reached?6@ 005236fc     libsrtp-i386-win32-vc8-debug-dynamic:srtp.obj
 0003:00025720       ??_C@_0CE@FFJEPPID@?7unknown?5event?5reported?5to?5hand@ 00523720     libsrtp-i386-win32-vc8-debug-dynamic:srtp.obj
 0003:0002574c       ??_C@_0BN@IJKEFIPG@?$CFs?3?5Pre?9salted?5RTP?5IV?5?$DN?5?$CFs?6?6@ 0052374c     libsrtp-i386-win32-vc8-debug-dynamic:srtp.obj
 0003:00025770       ??_C@_0BE@MNMIOELF@?$CFs?3?5RTP?5SALT?5?$DN?5?$CFs?6?6@ 00523770     libsrtp-i386-win32-vc8-debug-dynamic:srtp.obj
 0003:00025788       ??_C@_0CH@MOHBLIMO@?$CFs?3?5estimated?5u_packet?5index?3?5?$CF@ 00523788     libsrtp-i386-win32-vc8-debug-dynamic:srtp.obj
 0003:000257b8       ??_C@_0CA@OMJPHCHL@?$CFs?3?5function?5srtp_protect_aead?6@ 005237b8     libsrtp-i386-win32-vc8-debug-dynamic:srtp.obj
 0003:000257e0       ??_C@_0CF@PEPHCKJP@?$CFs?3?5estimated?5packet?5index?3?5?$CF01@ 005237e0     libsrtp-i386-win32-vc8-debug-dynamic:srtp.obj
 0003:0002580c       ??_C@_0CC@KIGABHOG@?$CFs?3?5function?5srtp_unprotect_aea@ 0052380c     libsrtp-i386-win32-vc8-debug-dynamic:srtp.obj
 0003:00025834       ??_C@_0BL@MADNODBC@?$CFs?3?5function?5srtp_protect?6@ 00523834     libsrtp-i386-win32-vc8-debug-dynamic:srtp.obj
 0003:00025854       ??_C@_0BK@KLBGMJPP@?$CFs?3?5keystream?5prefix?3?5?$CFs?6@ 00523854     libsrtp-i386-win32-vc8-debug-dynamic:srtp.obj
 0003:00025874       ??_C@_0BK@GCKOFNLP@?$CFs?3?5srtp?5auth?5tag?3?5?5?5?5?$CFs?6@ 00523874     libsrtp-i386-win32-vc8-debug-dynamic:srtp.obj
 0003:00025894       ??_C@_0BN@LADOAJPP@?$CFs?3?5function?5srtp_unprotect?6@ 00523894     libsrtp-i386-win32-vc8-debug-dynamic:srtp.obj
 0003:000258b8       ??_C@_0CN@PJAKIEAG@?$CFs?3?5using?5provisional?5stream?5?$CIS@ 005238b8     libsrtp-i386-win32-vc8-debug-dynamic:srtp.obj
 0003:000258f0       ??_C@_0BO@BONEKIBH@?$CFs?3?5computed?5auth?5tag?3?5?5?5?5?$CFs?6@ 005238f0     libsrtp-i386-win32-vc8-debug-dynamic:srtp.obj
 0003:00025914       ??_C@_0BO@KMHOFFAA@?$CFs?3?5packet?5auth?5tag?3?5?5?5?5?5?5?$CFs?6@ 00523914     libsrtp-i386-win32-vc8-debug-dynamic:srtp.obj
 0003:00025938       ??_C@_0BO@ONKEAFKG@?$CFs?3?5Pre?9salted?5RTCP?5IV?5?$DN?5?$CFs?6?6@ 00523938     libsrtp-i386-win32-vc8-debug-dynamic:srtp.obj
 0003:0002595c       ??_C@_0BF@FLPIMBMP@?$CFs?3?5RTCP?5SALT?5?$DN?5?$CFs?6?6@ 0052395c     libsrtp-i386-win32-vc8-debug-dynamic:srtp.obj
 0003:00025978       ??_C@_0BF@JBCKCIAJ@?$CFs?3?5srtcp?5index?3?5?$CFx?6@ 00523978     libsrtp-i386-win32-vc8-debug-dynamic:srtp.obj
 0003:00025994       ??_C@_0BL@OBHAKLEH@?$CFs?3?5srtcp?5auth?5tag?3?5?5?5?5?$CFs?6@ 00523994     libsrtp-i386-win32-vc8-debug-dynamic:srtp.obj
 0003:000259b4       ??_C@_0DD@HHOLLDKC@?$CFs?3?5srtcp?5using?5provisional?5str@ 005239b4     libsrtp-i386-win32-vc8-debug-dynamic:srtp.obj
 0003:000259f4       ??_C@_0CC@IMKDPKDI@?$CFs?3?5srtcp?5computed?5tag?3?5?5?5?5?5?5?5?$CF@ 005239f4     libsrtp-i386-win32-vc8-debug-dynamic:srtp.obj
 0003:00025a1c       ??_C@_0CC@GFCANNPL@?$CFs?3?5srtcp?5tag?5from?5packet?3?5?5?5?5?$CF@ 00523a1c     libsrtp-i386-win32-vc8-debug-dynamic:srtp.obj
 0003:00025a44       ??_C@_05KNPMOECN@alloc@    00523a44     libsrtp-i386-win32-vc8-debug-dynamic:alloc.obj
 0003:00025a4c       ??_C@_0BO@KJOGHNGM@?$CFs?3?5?$CIlocation?3?5?$CFp?$CJ?5allocated?6@ 00523a4c     libsrtp-i386-win32-vc8-debug-dynamic:alloc.obj
 0003:00025a70       ??_C@_0CN@JJLNACEJ@?$CFs?3?5allocation?5failed?5?$CIasked?5fo@ 00523a70     libsrtp-i386-win32-vc8-debug-dynamic:alloc.obj
 0003:00025aa8       ??_C@_0BK@BNKOPMHD@?$CFs?3?5?$CIlocation?3?5?$CFp?$CJ?5freed?6@ 00523aa8     libsrtp-i386-win32-vc8-debug-dynamic:alloc.obj
 0003:00025ac8       ??_C@_07EFAIHJHH@libsrtp@  00523ac8     libsrtp-i386-win32-vc8-debug-dynamic:srtp_err.obj
 0003:00025ad4       ??_C@_06KDGDAFPH@cipher@   00523ad4     libsrtp-i386-win32-vc8-debug-dynamic:cipher.obj
 0003:00025adc       ??_C@_0CF@FLDNHEPF@?$CFs?3?5running?5self?9test?5for?5ciphe@ 00523adc     libsrtp-i386-win32-vc8-debug-dynamic:cipher.obj
 0003:00025b08       ??_C@_0BI@DMHBCEPE@?$CFs?3?5testing?5encryption?6@ 00523b08     libsrtp-i386-win32-vc8-debug-dynamic:cipher.obj
 0003:00025b24       ??_C@_0BG@IGPMAAHP@?$CFs?3?5plaintext?3?5?5?5?5?$CFs?6@ 00523b24     libsrtp-i386-win32-vc8-debug-dynamic:cipher.obj
 0003:00025b40       ??_C@_0P@EJHFDBDM@?$CFs?3?5IV?3?5?5?5?5?$CFs?6@ 00523b40     libsrtp-i386-win32-vc8-debug-dynamic:cipher.obj
 0003:00025b54       ??_C@_0BA@PIMALHJP@?$CFs?3?5AAD?3?5?5?5?5?$CFs?6@ 00523b54     libsrtp-i386-win32-vc8-debug-dynamic:cipher.obj
 0003:00025b68       ??_C@_0BG@LLNGMAPJ@?$CFs?3?5ciphertext?3?5?5?5?$CFs?6@ 00523b68     libsrtp-i386-win32-vc8-debug-dynamic:cipher.obj
 0003:00025b84       ??_C@_0BJ@ECBNBHJB@?$CFs?3?5test?5case?5?$CFd?5failed?6@ 00523b84     libsrtp-i386-win32-vc8-debug-dynamic:cipher.obj
 0003:00025ba4       ??_C@_0BK@FFAGFACF@?$CFs?3?5?$CIfailure?5at?5byte?5?$CFd?$CJ?6@ 00523ba4     libsrtp-i386-win32-vc8-debug-dynamic:cipher.obj
 0003:00025bc4       ??_C@_0BE@FJOCDNKP@?$CFs?3?5c?5computed?3?5?$CFs?6@ 00523bc4     libsrtp-i386-win32-vc8-debug-dynamic:cipher.obj
 0003:00025bdc       ??_C@_0BE@PPCKDKP@?$CFs?3?5c?5expected?3?5?$CFs?6@ 00523bdc     libsrtp-i386-win32-vc8-debug-dynamic:cipher.obj
 0003:00025bf4       ??_C@_0BI@IEPFOPNP@?$CFs?3?5testing?5decryption?6@ 00523bf4     libsrtp-i386-win32-vc8-debug-dynamic:cipher.obj
 0003:00025c10       ??_C@_0BH@EDJDPICD@?$CFs?3?5ciphertext?3?5?5?5?5?$CFs?6@ 00523c10     libsrtp-i386-win32-vc8-debug-dynamic:cipher.obj
 0003:00025c2c       ??_C@_0BF@GOBFCCEB@?$CFs?3?5plaintext?3?5?5?5?$CFs?6@ 00523c2c     libsrtp-i386-win32-vc8-debug-dynamic:cipher.obj
 0003:00025c48       ??_C@_0BE@JGANLHMD@?$CFs?3?5p?5computed?3?5?$CFs?6@ 00523c48     libsrtp-i386-win32-vc8-debug-dynamic:cipher.obj
 0003:00025c60       ??_C@_0BE@MABNCJMD@?$CFs?3?5p?5expected?3?5?$CFs?6@ 00523c60     libsrtp-i386-win32-vc8-debug-dynamic:cipher.obj
 0003:00025c78       ??_C@_0CB@OOAIJLO@?$CFs?3?5random?5plaintext?5length?5?$CFd?6@ 00523c78     libsrtp-i386-win32-vc8-debug-dynamic:cipher.obj
 0003:00025ca0       ??_C@_0BG@NMIIDDNI@?$CFs?3?5plaintext?$FL2?$FN?3?5?$CFs?6@ 00523ca0     libsrtp-i386-win32-vc8-debug-dynamic:cipher.obj
 0003:00025cbc       ??_C@_0CA@EAJGEBOP@?$CFs?3?5random?5test?5case?5?$CFd?5failed?6@ 00523cbc     libsrtp-i386-win32-vc8-debug-dynamic:cipher.obj
 0003:00025ce4       ??_C@_09EJIBOKIO@auth?5func@ 00523ce4     libsrtp-i386-win32-vc8-debug-dynamic:auth.obj
 0003:00025cf0       ??_C@_0CM@DFOPKAOA@?$CFs?3?5running?5self?9test?5for?5auth?5@ 00523cf0     libsrtp-i386-win32-vc8-debug-dynamic:auth.obj
 0003:00025d24       ??_C@_0N@OIMPEMMJ@?$CFs?3?5key?3?5?$CFs?6@ 00523d24     libsrtp-i386-win32-vc8-debug-dynamic:auth.obj
 0003:00025d34       ??_C@_0O@NBGEFCOD@?$CFs?3?5data?3?5?$CFs?6@ 00523d34     libsrtp-i386-win32-vc8-debug-dynamic:auth.obj
 0003:00025d44       ??_C@_0BG@KCOPIALB@?$CFs?3?5tag?5computed?3?5?$CFs?6@ 00523d44     libsrtp-i386-win32-vc8-debug-dynamic:auth.obj
 0003:00025d60       ??_C@_0BG@PEPPBOLB@?$CFs?3?5tag?5expected?3?5?$CFs?6@ 00523d60     libsrtp-i386-win32-vc8-debug-dynamic:auth.obj
 0003:00025d7c       ??_C@_0BO@CKPEGHKK@?$CFs?3?5?5?5?$CImismatch?5at?5octet?5?$CFd?$CJ?6@ 00523d7c     libsrtp-i386-win32-vc8-debug-dynamic:auth.obj
 0003:00025da0       ??_C@_0O@MIKIJNFL@crypto?5kernel@ 00523da0     libsrtp-i386-win32-vc8-debug-dynamic:crypto_kernel.obj
 0003:00025db0       ??_C@_0M@FNOFIMGM@cipher?3?5?$CFs?6@ 00523db0     libsrtp-i386-win32-vc8-debug-dynamic:crypto_kernel.obj
 0003:00025dc0       ??_C@_0O@CJBDENN@?5?5self?9test?3?5@ 00523dc0     libsrtp-i386-win32-vc8-debug-dynamic:crypto_kernel.obj
 0003:00025dd0       ??_C@_0BL@HPMBNDJK@failed?5with?5error?5code?5?$CFd?6@ 00523dd0     libsrtp-i386-win32-vc8-debug-dynamic:crypto_kernel.obj
 0003:00025df0       ??_C@_07JBEBJPGA@passed?6@ 00523df0     libsrtp-i386-win32-vc8-debug-dynamic:crypto_kernel.obj
 0003:00025dfc       ??_C@_0P@CJMMEABE@auth?5func?3?5?$CFs?6@ 00523dfc     libsrtp-i386-win32-vc8-debug-dynamic:crypto_kernel.obj
 0003:00025e10       ??_C@_0BH@NLMDBEPJ@debug?5modules?5loaded?3?6@ 00523e10     libsrtp-i386-win32-vc8-debug-dynamic:crypto_kernel.obj
 0003:00025e2c       ??_C@_05NMIPNJMJ@?5?5?$CFs?5@ 00523e2c     libsrtp-i386-win32-vc8-debug-dynamic:crypto_kernel.obj
 0003:00025e34       ??_C@_05KICKCMEO@?$CIon?$CJ?6@ 00523e34     libsrtp-i386-win32-vc8-debug-dynamic:crypto_kernel.obj
 0003:00025e3c       ??_C@_06KCCPFFCC@?$CIoff?$CJ?6@ 00523e3c     libsrtp-i386-win32-vc8-debug-dynamic:crypto_kernel.obj
 0003:00025e44       ??_C@_0CC@DLGHEHKN@?$CFs?3?5freeing?5memory?5for?5cipher?5?$CF@ 00523e44     libsrtp-i386-win32-vc8-debug-dynamic:crypto_kernel.obj
 0003:00025e6c       ??_C@_0CK@KGHAAPIM@?$CFs?3?5freeing?5memory?5for?5authenti@ 00523e6c     libsrtp-i386-win32-vc8-debug-dynamic:crypto_kernel.obj
 0003:00025ea0       ??_C@_0CI@MFBGGOG@?$CFs?3?5freeing?5memory?5for?5debug?5mo@ 00523ea0     libsrtp-i386-win32-vc8-debug-dynamic:crypto_kernel.obj
 0003:00025ed0       ??_C@_0BE@ICAFLID@?$CFs?3?5EKT?5not?5in?5use?6@ 00523ed0     libsrtp-i386-win32-vc8-debug-dynamic:ekt.obj
 0003:00025ee8       ??_C@_0BK@CMOOGLJH@?$CFs?3?5writing?5EKT?5EMK?3?5?$CFs?0?6@ 00523ee8     libsrtp-i386-win32-vc8-debug-dynamic:ekt.obj
 0003:00025f08       ??_C@_0BK@BEIPMCDF@?$CFs?3?5writing?5EKT?5ROC?3?5?$CFs?0?6@ 00523f08     libsrtp-i386-win32-vc8-debug-dynamic:ekt.obj
 0003:00025f28       ??_C@_0BK@BKDABMJO@?$CFs?3?5writing?5EKT?5ISN?3?5?$CFs?0?6@ 00523f28     libsrtp-i386-win32-vc8-debug-dynamic:ekt.obj
 0003:00025f48       ??_C@_0BK@BJPEDIGD@?$CFs?3?5writing?5EKT?5SPI?3?5?$CFs?0?6@ 00523f48     libsrtp-i386-win32-vc8-debug-dynamic:ekt.obj
 0003:00025f68       ??_C@_09LCMAEBCF@stat?5test@ 00523f68     libsrtp-i386-win32-vc8-debug-dynamic:stat.obj
 0003:00025f74       ??_C@_0BD@GAOMHCBM@?$CFs?3?5bit?5count?3?5?$CFd?6@ 00523f74     libsrtp-i386-win32-vc8-debug-dynamic:stat.obj
 0003:00025f8c       ??_C@_0BF@CHHGEAGD@?$CFs?3?5poker?5test?3?5?$CFf?6?6@ 00523f8c     libsrtp-i386-win32-vc8-debug-dynamic:stat.obj
 0003:00025fa8       ??_C@_0BC@IAPCEOOF@?$CFs?3?5?$DO25?5runs?3?5?$CFd?6@ 00523fa8     libsrtp-i386-win32-vc8-debug-dynamic:stat.obj
 0003:00025fc0       ??_C@_0BC@NJGIDECN@?$CFs?3?5?$DO25?5gaps?3?5?$CFd?6@ 00523fc0     libsrtp-i386-win32-vc8-debug-dynamic:stat.obj
 0003:00025fd8       ??_C@_0BG@GPAHHCLO@?$CFs?3?5?$DO25?5runs?5?$CI2?$CJ?3?5?$CFd?6@ 00523fd8     libsrtp-i386-win32-vc8-debug-dynamic:stat.obj
 0003:00025ff4       ??_C@_0BG@BMIBNCBB@?$CFs?3?5?$DO25?5gaps?5?$CI2?$CJ?3?5?$CFd?6@ 00523ff4     libsrtp-i386-win32-vc8-debug-dynamic:stat.obj
 0003:00026010       ??_C@_0P@POGGHKML@?$CFs?3?5runs?5test?6@ 00524010     libsrtp-i386-win32-vc8-debug-dynamic:stat.obj
 0003:00026024       ??_C@_0BC@KILFBMLF@?$CFs?3?5?5?5runs?$FL?$FN?3?5?$CFd?6@ 00524024     libsrtp-i386-win32-vc8-debug-dynamic:stat.obj
 0003:0002603c       ??_C@_0BC@BLEGIAEL@?$CFs?3?5?5?5gaps?$FL?$FN?3?5?$CFd?6@ 0052403c     libsrtp-i386-win32-vc8-debug-dynamic:stat.obj
 0003:00026058       __real@3f6a36e2eb1c432d    00524058     libsrtp-i386-win32-vc8-debug-dynamic:stat.obj
 0003:00026068       __real@400147ae147ae148    00524068     libsrtp-i386-win32-vc8-debug-dynamic:stat.obj
 0003:00026078       __real@404715c28f5c28f6    00524078     libsrtp-i386-win32-vc8-debug-dynamic:stat.obj
 0003:00026088       __real@40b3880000000000    00524088     libsrtp-i386-win32-vc8-debug-dynamic:stat.obj
 0003:000260cc       _srtp_null_cipher          005240cc     libsrtp-i386-win32-vc8-debug-dynamic:null_cipher.obj
 0003:0002610c       ??_C@_0CK@DAFEFAPH@?$CFs?3?5allocating?5cipher?5with?5key?5@ 0052410c     libsrtp-i386-win32-vc8-debug-dynamic:null_cipher.obj
 0003:00026140       ??_C@_0BO@HCJFKKEE@?$CFs?3?5initializing?5null?5cipher?6@ 00524140     libsrtp-i386-win32-vc8-debug-dynamic:null_cipher.obj
 0003:00026164       ??_C@_07MPIJGLIA@aes?5icm@ 00524164     libsrtp-i386-win32-vc8-debug-dynamic:aes_icm.obj
 0003:00026170       _srtp_aes_icm_128          00524170     libsrtp-i386-win32-vc8-debug-dynamic:aes_icm.obj
 0003:0002619c       _srtp_aes_icm_256          0052419c     libsrtp-i386-win32-vc8-debug-dynamic:aes_icm.obj
 0003:0002638c       ??_C@_0O@GFBJNBAD@?$CFs?3?5key?3?5?5?$CFs?6@ 0052438c     libsrtp-i386-win32-vc8-debug-dynamic:aes_icm.obj
 0003:0002639c       ??_C@_0BA@ILFEGDEM@?$CFs?3?5offset?3?5?$CFs?6@ 0052439c     libsrtp-i386-win32-vc8-debug-dynamic:aes_icm.obj
 0003:000263b0       ??_C@_0BE@ECIFEEKH@?$CFs?3?5setting?5iv?3?5?$CFs?6@ 005243b0     libsrtp-i386-win32-vc8-debug-dynamic:aes_icm.obj
 0003:000263c8       ??_C@_0BF@OAOEHNDM@?$CFs?3?5set_counter?3?5?$CFs?6@ 005243c8     libsrtp-i386-win32-vc8-debug-dynamic:aes_icm.obj
 0003:000263e4       ??_C@_0BE@ENJPOLAG@?$CFs?3?5counter?3?5?5?5?5?$CFs?6@ 005243e4     libsrtp-i386-win32-vc8-debug-dynamic:aes_icm.obj
 0003:000263fc       ??_C@_0BE@ILCAEFF@?$CFs?3?5ciphertext?3?5?$CFs?6@ 005243fc     libsrtp-i386-win32-vc8-debug-dynamic:aes_icm.obj
 0003:00026414       ??_C@_0BF@BLBMMINO@?$CFs?3?5block?5index?3?5?$CFd?6@ 00524414     libsrtp-i386-win32-vc8-debug-dynamic:aes_icm.obj
 0003:0002646c       _srtp_null_auth            0052446c     libsrtp-i386-win32-vc8-debug-dynamic:null_auth.obj
 0003:000264a4       ??_C@_0CN@KBEHBKDH@?$CFs?3?5allocating?5auth?5func?5with?5k@ 005244a4     libsrtp-i386-win32-vc8-debug-dynamic:null_auth.obj
 0003:000264dc       ??_C@_0CN@FDNDBNFI@?$CFs?3?5?5?5?5?5?5?5?5?5?5?5?5?5?5?5?5?5?5?5?5?5?5?5?5?5?5?5t@ 005244dc     libsrtp-i386-win32-vc8-debug-dynamic:null_auth.obj
 0003:00026514       ??_C@_0L@NBBBLMAJ@hmac?5sha?91@ 00524514     libsrtp-i386-win32-vc8-debug-dynamic:hmac.obj
 0003:00026594       _srtp_hmac                 00524594     libsrtp-i386-win32-vc8-debug-dynamic:hmac.obj
 0003:000265d8       ??_C@_0O@PJECJPIJ@?$CFs?3?5ipad?3?5?$CFs?6@ 005245d8     libsrtp-i386-win32-vc8-debug-dynamic:hmac.obj
 0003:000265e8       ??_C@_0P@JHGAOEEF@?$CFs?3?5input?3?5?$CFs?6@ 005245e8     libsrtp-i386-win32-vc8-debug-dynamic:hmac.obj
 0003:000265fc       ??_C@_0BM@JABNBLDM@?$CFs?3?5intermediate?5state?3?5?$CFs?6@ 005245fc     libsrtp-i386-win32-vc8-debug-dynamic:hmac.obj
 0003:00026620       ??_C@_0BA@NKCNJNLN@?$CFs?3?5output?3?5?$CFs?6@ 00524620     libsrtp-i386-win32-vc8-debug-dynamic:hmac.obj
 0003:00028f04       ??_C@_05BPJLFPNI@sha?91@   00526f04     libsrtp-i386-win32-vc8-debug-dynamic:sha1.obj
 0003:00028f0c       ??_C@_0CH@CIFCCFOE@?$CFs?3?5?$CIupdate?$CJ?5running?5srtp_sha1_@ 00526f0c     libsrtp-i386-win32-vc8-debug-dynamic:sha1.obj
 0003:00028f3c       ??_C@_0CL@FECLBICF@?$CFs?3?5?$CIupdate?$CJ?5not?5running?5srtp_s@ 00526f3c     libsrtp-i386-win32-vc8-debug-dynamic:sha1.obj
 0003:00028f70       ??_C@_0CG@BBEKCMGE@?$CFs?3?5?$CIfinal?$CJ?5running?5srtp_sha1_c@ 00526f70     libsrtp-i386-win32-vc8-debug-dynamic:sha1.obj
 0003:00028fa0       ??_C@_0CM@HEEFBAKO@?$CFs?3?5?$CIfinal?$CJ?5running?5srtp_sha1_c@ 00526fa0     libsrtp-i386-win32-vc8-debug-dynamic:sha1.obj
 0003:000290b8       __load_config_used         005270b8     MSVCRTD:loadcfg.obj
 0003:00029ab8       ___rtc_iaa                 00527ab8     MSVCRTD:initsect.obj
 0003:00029bbc       ___rtc_izz                 00527bbc     MSVCRTD:initsect.obj
 0003:00029cc0       ___rtc_taa                 00527cc0     MSVCRTD:initsect.obj
 0003:00029dc4       ___rtc_tzz                 00527dc4     MSVCRTD:initsect.obj
 0004:00000600       _audio_codecs              00529600     siprtp.obj
 0004:000020ac       ?__LINE__Var@?0??pjsip_inv_add_ref@@9@9 0052b0ac     pjsip-ua-i386-win32-vc8-debug-dynamic:sip_inv.obj
 0004:000020b0       ?__LINE__Var@?0??pjsip_inv_dec_ref@@9@9 0052b0b0     pjsip-ua-i386-win32-vc8-debug-dynamic:sip_inv.obj
 0004:000020b4       ?__LINE__Var@?0??inv_set_state@@9@9 0052b0b4     pjsip-ua-i386-win32-vc8-debug-dynamic:sip_inv.obj
 0004:000020b8       ?__LINE__Var@?0??inv_send_ack@@9@9 0052b0b8     pjsip-ua-i386-win32-vc8-debug-dynamic:sip_inv.obj
 0004:000020bc       ?__LINE__Var@?0??mod_inv_on_rx_request@@9@9 0052b0bc     pjsip-ua-i386-win32-vc8-debug-dynamic:sip_inv.obj
 0004:000020c0       ?__LINE__Var@?0??tx_data_has_sdp@@9@9 0052b0c0     pjsip-ua-i386-win32-vc8-debug-dynamic:sip_inv.obj
 0004:000020c4       ?__LINE__Var@?0??pjsip_inv_usage_init@@9@9 0052b0c4     pjsip-ua-i386-win32-vc8-debug-dynamic:sip_inv.obj
 0004:000020c8       ?__LINE__Var@?0??pjsip_inv_state_name@@9@9 0052b0c8     pjsip-ua-i386-win32-vc8-debug-dynamic:sip_inv.obj
 0004:000020cc       ?__LINE__Var@?0??pjsip_inv_create_uac@@9@9 0052b0cc     pjsip-ua-i386-win32-vc8-debug-dynamic:sip_inv.obj
 0004:000020d0       ?__LINE__Var@?0??pjsip_rdata_get_sdp_info@@9@9 0052b0d0     pjsip-ua-i386-win32-vc8-debug-dynamic:sip_inv.obj
 0004:000020d4       ?__LINE__Var@?0??pjsip_inv_verify_request3@@9@9 0052b0d4     pjsip-ua-i386-win32-vc8-debug-dynamic:sip_inv.obj
 0004:000020d8       ?__LINE__Var@?0??pjsip_inv_create_uas@@9@9 0052b0d8     pjsip-ua-i386-win32-vc8-debug-dynamic:sip_inv.obj
 0004:000020dc       ?__LINE__Var@?0??pjsip_inv_terminate@@9@9 0052b0dc     pjsip-ua-i386-win32-vc8-debug-dynamic:sip_inv.obj
 0004:000020e0       ?__LINE__Var@?0??pjsip_inv_uac_restart@@9@9 0052b0e0     pjsip-ua-i386-win32-vc8-debug-dynamic:sip_inv.obj
 0004:000020e4       ?__LINE__Var@?0??pjsip_create_sdp_body@@9@9 0052b0e4     pjsip-ua-i386-win32-vc8-debug-dynamic:sip_inv.obj
 0004:000020e8       ?__LINE__Var@?0??pjsip_inv_invite@@9@9 0052b0e8     pjsip-ua-i386-win32-vc8-debug-dynamic:sip_inv.obj
 0004:000020ec       ?__LINE__Var@?0??inv_negotiate_sdp@@9@9 0052b0ec     pjsip-ua-i386-win32-vc8-debug-dynamic:sip_inv.obj
 0004:000020f0       ?__LINE__Var@?0??inv_check_sdp_in_incoming_msg@@9@9 0052b0f0     pjsip-ua-i386-win32-vc8-debug-dynamic:sip_inv.obj
 0004:000020f4       ?__LINE__Var@?0??process_answer@@9@9 0052b0f4     pjsip-ua-i386-win32-vc8-debug-dynamic:sip_inv.obj
 0004:000020f8       ?__LINE__Var@?0??pjsip_inv_initial_answer@@9@9 0052b0f8     pjsip-ua-i386-win32-vc8-debug-dynamic:sip_inv.obj
 0004:000020fc       ?__LINE__Var@?0??pjsip_inv_answer@@9@9 0052b0fc     pjsip-ua-i386-win32-vc8-debug-dynamic:sip_inv.obj
 0004:00002100       ?__LINE__Var@?0??pjsip_inv_set_local_sdp@@9@9 0052b100     pjsip-ua-i386-win32-vc8-debug-dynamic:sip_inv.obj
 0004:00002104       ?__LINE__Var@?0??pjsip_inv_set_sdp_answer@@9@9 0052b104     pjsip-ua-i386-win32-vc8-debug-dynamic:sip_inv.obj
 0004:00002108       ?__LINE__Var@?0??pjsip_inv_end_session@@9@9 0052b108     pjsip-ua-i386-win32-vc8-debug-dynamic:sip_inv.obj
 0004:0000210c       ?__LINE__Var@?0??pjsip_inv_cancel_reinvite@@9@9 0052b10c     pjsip-ua-i386-win32-vc8-debug-dynamic:sip_inv.obj
 0004:00002110       ?__LINE__Var@?0??inv_uac_recurse@@9@9 0052b110     pjsip-ua-i386-win32-vc8-debug-dynamic:sip_inv.obj
 0004:00002114       ?__LINE__Var@?0??pjsip_inv_process_redirect@@9@9 0052b114     pjsip-ua-i386-win32-vc8-debug-dynamic:sip_inv.obj
 0004:00002118       ?__LINE__Var@?0??pjsip_inv_reinvite@@9@9 0052b118     pjsip-ua-i386-win32-vc8-debug-dynamic:sip_inv.obj
 0004:0000211c       ?__LINE__Var@?0??pjsip_inv_update@@9@9 0052b11c     pjsip-ua-i386-win32-vc8-debug-dynamic:sip_inv.obj
 0004:00002120       ?__LINE__Var@?0??pjsip_inv_create_ack@@9@9 0052b120     pjsip-ua-i386-win32-vc8-debug-dynamic:sip_inv.obj
 0004:00002124       ?__LINE__Var@?0??pjsip_inv_send_msg@@9@9 0052b124     pjsip-ua-i386-win32-vc8-debug-dynamic:sip_inv.obj
 0004:00002128       ?__LINE__Var@?0??inv_respond_incoming_cancel@@9@9 0052b128     pjsip-ua-i386-win32-vc8-debug-dynamic:sip_inv.obj
 0004:0000212c       ?__LINE__Var@?0??inv_respond_incoming_update@@9@9 0052b12c     pjsip-ua-i386-win32-vc8-debug-dynamic:sip_inv.obj
 0004:00002130       ?__LINE__Var@?0??inv_handle_update_response@@9@9 0052b130     pjsip-ua-i386-win32-vc8-debug-dynamic:sip_inv.obj
 0004:00002134       ?__LINE__Var@?0??inv_on_state_null@@9@9 0052b134     pjsip-ua-i386-win32-vc8-debug-dynamic:sip_inv.obj
 0004:00002138       ?__LINE__Var@?0??handle_uac_tsx_response@@9@9 0052b138     pjsip-ua-i386-win32-vc8-debug-dynamic:sip_inv.obj
 0004:0000213c       ?__LINE__Var@?0??inv_on_state_calling@@9@9 0052b13c     pjsip-ua-i386-win32-vc8-debug-dynamic:sip_inv.obj
 0004:00002140       ?__LINE__Var@?0??inv_on_state_incoming@@9@9 0052b140     pjsip-ua-i386-win32-vc8-debug-dynamic:sip_inv.obj
 0004:00002144       ?__LINE__Var@?0??inv_on_state_early@@9@9 0052b144     pjsip-ua-i386-win32-vc8-debug-dynamic:sip_inv.obj
 0004:00002148       ?__LINE__Var@?0??inv_on_state_connecting@@9@9 0052b148     pjsip-ua-i386-win32-vc8-debug-dynamic:sip_inv.obj
 0004:0000214c       ?__LINE__Var@?0??inv_on_state_confirmed@@9@9 0052b14c     pjsip-ua-i386-win32-vc8-debug-dynamic:sip_inv.obj
 0004:00002150       ?__LINE__Var@?0??inv_on_state_disconnected@@9@9 0052b150     pjsip-ua-i386-win32-vc8-debug-dynamic:sip_inv.obj
 0004:000021a4       ?__LINE__Var@?0??pjsip_100rel_attach@@9@9 0052b1a4     pjsip-ua-i386-win32-vc8-debug-dynamic:sip_100rel.obj
 0004:000021a8       ?__LINE__Var@?0??pjsip_100rel_is_reliable@@9@9 0052b1a8     pjsip-ua-i386-win32-vc8-debug-dynamic:sip_100rel.obj
 0004:000021ac       ?__LINE__Var@?0??pjsip_100rel_create_prack@@9@9 0052b1ac     pjsip-ua-i386-win32-vc8-debug-dynamic:sip_100rel.obj
 0004:000021b0       ?__LINE__Var@?0??pjsip_100rel_send_prack@@9@9 0052b1b0     pjsip-ua-i386-win32-vc8-debug-dynamic:sip_100rel.obj
 0004:000021b4       ?__LINE__Var@?0??pjsip_100rel_on_rx_prack@@9@9 0052b1b4     pjsip-ua-i386-win32-vc8-debug-dynamic:sip_100rel.obj
 0004:000021b8       ?__LINE__Var@?0??on_retransmit@@9@9 0052b1b8     pjsip-ua-i386-win32-vc8-debug-dynamic:sip_100rel.obj
 0004:000021bc       ?__LINE__Var@?0??pjsip_100rel_tx_response@@9@9 0052b1bc     pjsip-ua-i386-win32-vc8-debug-dynamic:sip_100rel.obj
 0004:000021dc       ?__LINE__Var@?0??timer_cb@@9@9 0052b1dc     pjsip-ua-i386-win32-vc8-debug-dynamic:sip_timer.obj
 0004:000021e0       ?__LINE__Var@?0??start_timer@@9@9 0052b1e0     pjsip-ua-i386-win32-vc8-debug-dynamic:sip_timer.obj
 0004:000021e4       ?__LINE__Var@?0??pjsip_timer_init_module@@9@9 0052b1e4     pjsip-ua-i386-win32-vc8-debug-dynamic:sip_timer.obj
 0004:000021e8       ?__LINE__Var@?0??pjsip_timer_init_session@@9@9 0052b1e8     pjsip-ua-i386-win32-vc8-debug-dynamic:sip_timer.obj
 0004:000021ec       ?__LINE__Var@?0??pjsip_sess_expires_hdr_create@@9@9 0052b1ec     pjsip-ua-i386-win32-vc8-debug-dynamic:sip_timer.obj
 0004:000021f0       ?__LINE__Var@?0??pjsip_min_se_hdr_create@@9@9 0052b1f0     pjsip-ua-i386-win32-vc8-debug-dynamic:sip_timer.obj
 0004:000021f4       ?__LINE__Var@?0??pjsip_timer_update_req@@9@9 0052b1f4     pjsip-ua-i386-win32-vc8-debug-dynamic:sip_timer.obj
 0004:000021f8       ?__LINE__Var@?0??pjsip_timer_process_resp@@9@9 0052b1f8     pjsip-ua-i386-win32-vc8-debug-dynamic:sip_timer.obj
 0004:000021fc       ?__LINE__Var@?0??pjsip_timer_handle_refresh_error@@9@9 0052b1fc     pjsip-ua-i386-win32-vc8-debug-dynamic:sip_timer.obj
 0004:00002200       ?__LINE__Var@?0??pjsip_timer_process_req@@9@9 0052b200     pjsip-ua-i386-win32-vc8-debug-dynamic:sip_timer.obj
 0004:00002204       ?__LINE__Var@?0??pjsip_timer_update_resp@@9@9 0052b204     pjsip-ua-i386-win32-vc8-debug-dynamic:sip_timer.obj
 0004:00002208       ?__LINE__Var@?0??pjsip_timer_end_session@@9@9 0052b208     pjsip-ua-i386-win32-vc8-debug-dynamic:sip_timer.obj
 0004:000022c8       ?__LINE__Var@?0??pjsip_method_set@@9@9 0052b2c8     pjsip-core-i386-win32-vc8-debug-dynamic:sip_msg.obj
 0004:000022cc       ?__LINE__Var@?0??pjsip_hdr_print_on@@9@9 0052b2cc     pjsip-core-i386-win32-vc8-debug-dynamic:sip_msg.obj
 0004:000022d0       ?__LINE__Var@?0??pjsip_media_type_cmp@@9@9 0052b2d0     pjsip-core-i386-win32-vc8-debug-dynamic:sip_msg.obj
 0004:000022d4       ?__LINE__Var@?0??pjsip_media_type_cp@@9@9 0052b2d4     pjsip-core-i386-win32-vc8-debug-dynamic:sip_msg.obj
 0004:000022d8       ?__LINE__Var@?0??pjsip_routing_hdr_print@@9@9 0052b2d8     pjsip-core-i386-win32-vc8-debug-dynamic:sip_msg.obj
 0004:000022dc       ?__LINE__Var@?0??pjsip_msg_body_copy@@9@9 0052b2dc     pjsip-core-i386-win32-vc8-debug-dynamic:sip_msg.obj
 0004:000022e0       ?__LINE__Var@?0??pjsip_msg_body_clone@@9@9 0052b2e0     pjsip-core-i386-win32-vc8-debug-dynamic:sip_msg.obj
 0004:000022e4       ?__LINE__Var@?0??pjsip_msg_body_create@@9@9 0052b2e4     pjsip-core-i386-win32-vc8-debug-dynamic:sip_msg.obj
 0004:00002634       ?__LINE__Var@?0??get_tpname@@9@9 0052b634     pjsip-core-i386-win32-vc8-debug-dynamic:sip_transport.obj
 0004:00002638       ?__LINE__Var@?0??pjsip_transport_register_type@@9@9 0052b638     pjsip-core-i386-win32-vc8-debug-dynamic:sip_transport.obj
 0004:0000263c       ?__LINE__Var@?0??pjsip_transport_get_type_from_name@@9@9 0052b63c     pjsip-core-i386-win32-vc8-debug-dynamic:sip_transport.obj
 0004:00002640       ?__LINE__Var@?0??pjsip_transport_get_type_from_flag@@9@9 0052b640     pjsip-core-i386-win32-vc8-debug-dynamic:sip_transport.obj
 0004:00002644       ?__LINE__Var@?0??pjsip_tx_data_create@@9@9 0052b644     pjsip-core-i386-win32-vc8-debug-dynamic:sip_transport.obj
 0004:00002648       ?__LINE__Var@?0??pjsip_tx_data_dec_ref@@9@9 0052b648     pjsip-core-i386-win32-vc8-debug-dynamic:sip_transport.obj
 0004:0000264c       ?__LINE__Var@?0??pjsip_tx_data_encode@@9@9 0052b64c     pjsip-core-i386-win32-vc8-debug-dynamic:sip_transport.obj
 0004:00002650       ?__LINE__Var@?0??get_msg_info@@9@9 0052b650     pjsip-core-i386-win32-vc8-debug-dynamic:sip_transport.obj
 0004:00002654       ?__LINE__Var@?0??pjsip_tx_data_get_info@@9@9 0052b654     pjsip-core-i386-win32-vc8-debug-dynamic:sip_transport.obj
 0004:00002658       ?__LINE__Var@?0??pjsip_tx_data_set_transport@@9@9 0052b658     pjsip-core-i386-win32-vc8-debug-dynamic:sip_transport.obj
 0004:0000265c       ?__LINE__Var@?0??pjsip_rx_data_get_info@@9@9 0052b65c     pjsip-core-i386-win32-vc8-debug-dynamic:sip_transport.obj
 0004:00002660       ?__LINE__Var@?0??pjsip_rx_data_clone@@9@9 0052b660     pjsip-core-i386-win32-vc8-debug-dynamic:sip_transport.obj
 0004:00002664       ?__LINE__Var@?0??pjsip_rx_data_free_cloned@@9@9 0052b664     pjsip-core-i386-win32-vc8-debug-dynamic:sip_transport.obj
 0004:00002668       ?__LINE__Var@?0??pjsip_transport_send@@9@9 0052b668     pjsip-core-i386-win32-vc8-debug-dynamic:sip_transport.obj
 0004:0000266c       ?__LINE__Var@?0??transport_idle_callback@@9@9 0052b66c     pjsip-core-i386-win32-vc8-debug-dynamic:sip_transport.obj
 0004:00002670       ?__LINE__Var@?0??pjsip_transport_add_ref@@9@9 0052b670     pjsip-core-i386-win32-vc8-debug-dynamic:sip_transport.obj
 0004:00002674       ?__LINE__Var@?0??pjsip_transport_dec_ref@@9@9 0052b674     pjsip-core-i386-win32-vc8-debug-dynamic:sip_transport.obj
 0004:00002678       ?__LINE__Var@?0??pjsip_transport_destroy@@9@9 0052b678     pjsip-core-i386-win32-vc8-debug-dynamic:sip_transport.obj
 0004:0000267c       ?__LINE__Var@?0??pjsip_tpmgr_unregister_tpfactory@@9@9 0052b67c     pjsip-core-i386-win32-vc8-debug-dynamic:sip_transport.obj
 0004:00002680       ?__LINE__Var@?0??pjsip_tpmgr_create@@9@9 0052b680     pjsip-core-i386-win32-vc8-debug-dynamic:sip_transport.obj
 0004:00002684       ?__LINE__Var@?0??pjsip_tpmgr_find_local_addr2@@9@9 0052b684     pjsip-core-i386-win32-vc8-debug-dynamic:sip_transport.obj
 0004:00002688       ?__LINE__Var@?0??pjsip_tpmgr_receive_packet@@9@9 0052b688     pjsip-core-i386-win32-vc8-debug-dynamic:sip_transport.obj
 0004:0000268c       ?__LINE__Var@?0??pjsip_tpmgr_acquire_transport2@@9@9 0052b68c     pjsip-core-i386-win32-vc8-debug-dynamic:sip_transport.obj
 0004:00002690       ?__LINE__Var@?0??pjsip_tpmgr_set_state_cb@@9@9 0052b690     pjsip-core-i386-win32-vc8-debug-dynamic:sip_transport.obj
 0004:00002694       ?__LINE__Var@?0??pjsip_tpmgr_get_state_cb@@9@9 0052b694     pjsip-core-i386-win32-vc8-debug-dynamic:sip_transport.obj
 0004:00002698       ?__LINE__Var@?0??init_tp_data@@9@9 0052b698     pjsip-core-i386-win32-vc8-debug-dynamic:sip_transport.obj
 0004:0000269c       ?__LINE__Var@?0??pjsip_transport_add_state_listener@@9@9 0052b69c     pjsip-core-i386-win32-vc8-debug-dynamic:sip_transport.obj
 0004:000026a0       ?__LINE__Var@?0??pjsip_transport_remove_state_listener@@9@9 0052b6a0     pjsip-core-i386-win32-vc8-debug-dynamic:sip_transport.obj
 0004:000026a4       ?__LINE__Var@?0??pjsip_tpmgr_set_drop_data_cb@@9@9 0052b6a4     pjsip-core-i386-win32-vc8-debug-dynamic:sip_transport.obj
 0004:000026a8       ?__LINE__Var@?0??pjsip_endpt_register_module@@9@9 0052b6a8     pjsip-core-i386-win32-vc8-debug-dynamic:sip_endpoint.obj
 0004:000026ac       ?__LINE__Var@?0??pjsip_endpt_unregister_module@@9@9 0052b6ac     pjsip-core-i386-win32-vc8-debug-dynamic:sip_endpoint.obj
 0004:000026b0       ?__LINE__Var@?0??unload_module@@9@9 0052b6b0     pjsip-core-i386-win32-vc8-debug-dynamic:sip_endpoint.obj
 0004:000026b4       ?__LINE__Var@?0??pjsip_endpt_get_capability@@9@9 0052b6b4     pjsip-core-i386-win32-vc8-debug-dynamic:sip_endpoint.obj
 0004:000026b8       ?__LINE__Var@?0??pjsip_endpt_has_capability@@9@9 0052b6b8     pjsip-core-i386-win32-vc8-debug-dynamic:sip_endpoint.obj
 0004:000026bc       ?__LINE__Var@?0??pjsip_endpt_add_capability@@9@9 0052b6bc     pjsip-core-i386-win32-vc8-debug-dynamic:sip_endpoint.obj
 0004:000026c0       ?__LINE__Var@?0??pjsip_endpt_create@@9@9 0052b6c0     pjsip-core-i386-win32-vc8-debug-dynamic:sip_endpoint.obj
 0004:000026c4       ?__LINE__Var@?0??pjsip_endpt_handle_events2@@9@9 0052b6c4     pjsip-core-i386-win32-vc8-debug-dynamic:sip_endpoint.obj
 0004:000026c8       ?__LINE__Var@?0??pjsip_endpt_process_rx_data@@9@9 0052b6c8     pjsip-core-i386-win32-vc8-debug-dynamic:sip_endpoint.obj
 0004:000026cc       ?__LINE__Var@?0??pjsip_endpt_create_resolver@@9@9 0052b6cc     pjsip-core-i386-win32-vc8-debug-dynamic:sip_endpoint.obj
 0004:000026d0       ?__LINE__Var@?0??pjsip_endpt_get_resolver@@9@9 0052b6d0     pjsip-core-i386-win32-vc8-debug-dynamic:sip_endpoint.obj
 0004:000026d4       ?__LINE__Var@?0??pjsip_endpt_atexit@@9@9 0052b6d4     pjsip-core-i386-win32-vc8-debug-dynamic:sip_endpoint.obj
 0004:0000270c       ?__LINE__Var@?0??pjsip_target_set_add_uri@@9@9 0052b70c     pjsip-core-i386-win32-vc8-debug-dynamic:sip_util.obj
 0004:00002710       ?__LINE__Var@?0??pjsip_target_set_add_from_msg@@9@9 0052b710     pjsip-core-i386-win32-vc8-debug-dynamic:sip_util.obj
 0004:00002714       ?__LINE__Var@?0??pjsip_target_set_set_current@@9@9 0052b714     pjsip-core-i386-win32-vc8-debug-dynamic:sip_util.obj
 0004:00002718       ?__LINE__Var@?0??pjsip_target_assign_status@@9@9 0052b718     pjsip-core-i386-win32-vc8-debug-dynamic:sip_util.obj
 0004:0000271c       ?__LINE__Var@?0??pjsip_endpt_create_request_from_hdr@@9@9 0052b71c     pjsip-core-i386-win32-vc8-debug-dynamic:sip_util.obj
 0004:00002720       ?__LINE__Var@?0??pjsip_endpt_create_response@@9@9 0052b720     pjsip-core-i386-win32-vc8-debug-dynamic:sip_util.obj
 0004:00002724       ?__LINE__Var@?0??pjsip_endpt_create_ack@@9@9 0052b724     pjsip-core-i386-win32-vc8-debug-dynamic:sip_util.obj
 0004:00002728       ?__LINE__Var@?0??pjsip_endpt_create_cancel@@9@9 0052b728     pjsip-core-i386-win32-vc8-debug-dynamic:sip_util.obj
 0004:0000272c       ?__LINE__Var@?0??pjsip_get_request_dest@@9@9 0052b72c     pjsip-core-i386-win32-vc8-debug-dynamic:sip_util.obj
 0004:00002730       ?__LINE__Var@?0??pjsip_process_route_set@@9@9 0052b730     pjsip-core-i386-win32-vc8-debug-dynamic:sip_util.obj
 0004:00002734       ?__LINE__Var@?0??pjsip_restore_strict_route_set@@9@9 0052b734     pjsip-core-i386-win32-vc8-debug-dynamic:sip_util.obj
 0004:00002738       ?__LINE__Var@?0??stateless_send_transport_cb@@9@9 0052b738     pjsip-core-i386-win32-vc8-debug-dynamic:sip_util.obj
 0004:0000273c       ?__LINE__Var@?0??stateless_send_resolver_callback@@9@9 0052b73c     pjsip-core-i386-win32-vc8-debug-dynamic:sip_util.obj
 0004:00002740       ?__LINE__Var@?0??pjsip_endpt_send_request_stateless@@9@9 0052b740     pjsip-core-i386-win32-vc8-debug-dynamic:sip_util.obj
 0004:00002744       ?__LINE__Var@?0??send_raw_resolver_callback@@9@9 0052b744     pjsip-core-i386-win32-vc8-debug-dynamic:sip_util.obj
 0004:00002748       ?__LINE__Var@?0??pjsip_get_response_addr@@9@9 0052b748     pjsip-core-i386-win32-vc8-debug-dynamic:sip_util.obj
 0004:0000274c       ?__LINE__Var@?0??pjsip_endpt_respond_stateless@@9@9 0052b74c     pjsip-core-i386-win32-vc8-debug-dynamic:sip_util.obj
 0004:00002750       ?__LINE__Var@?0??udp_on_read_complete@@9@9 0052b750     pjsip-core-i386-win32-vc8-debug-dynamic:sip_transport_udp.obj
 0004:00002754       ?__LINE__Var@?0??udp_send_msg@@9@9 0052b754     pjsip-core-i386-win32-vc8-debug-dynamic:sip_transport_udp.obj
 0004:00002758       ?__LINE__Var@?0??udp_set_pub_name@@9@9 0052b758     pjsip-core-i386-win32-vc8-debug-dynamic:sip_transport_udp.obj
 0004:0000275c       ?__LINE__Var@?0??start_async_read@@9@9 0052b75c     pjsip-core-i386-win32-vc8-debug-dynamic:sip_transport_udp.obj
 0004:00002760       ?__LINE__Var@?0??transport_attach@@9@9 0052b760     pjsip-core-i386-win32-vc8-debug-dynamic:sip_transport_udp.obj
 0004:00002764       ?__LINE__Var@?0??pjsip_udp_transport_start2@@9@9 0052b764     pjsip-core-i386-win32-vc8-debug-dynamic:sip_transport_udp.obj
 0004:00002768       ?__LINE__Var@?0??pjsip_udp_transport_get_socket@@9@9 0052b768     pjsip-core-i386-win32-vc8-debug-dynamic:sip_transport_udp.obj
 0004:0000276c       ?__LINE__Var@?0??pjsip_udp_transport_pause@@9@9 0052b76c     pjsip-core-i386-win32-vc8-debug-dynamic:sip_transport_udp.obj
 0004:00002770       ?__LINE__Var@?0??pjsip_udp_transport_restart2@@9@9 0052b770     pjsip-core-i386-win32-vc8-debug-dynamic:sip_transport_udp.obj
 0004:00002880       ?__LINE__Var@?0??create_tsx_key_2543@@9@9 0052b880     pjsip-core-i386-win32-vc8-debug-dynamic:sip_transaction.obj
 0004:00002884       ?__LINE__Var@?0??create_tsx_key_3261@@9@9 0052b884     pjsip-core-i386-win32-vc8-debug-dynamic:sip_transaction.obj
 0004:00002888       ?__LINE__Var@?0??pjsip_tsx_layer_init_module@@9@9 0052b888     pjsip-core-i386-win32-vc8-debug-dynamic:sip_transaction.obj
 0004:0000288c       ?__LINE__Var@?0??pjsip_tsx_layer_destroy@@9@9 0052b88c     pjsip-core-i386-win32-vc8-debug-dynamic:sip_transaction.obj
 0004:00002890       ?__LINE__Var@?0??mod_tsx_layer_register_tsx@@9@9 0052b890     pjsip-core-i386-win32-vc8-debug-dynamic:sip_transaction.obj
 0004:00002894       ?__LINE__Var@?0??mod_tsx_layer_unregister_tsx@@9@9 0052b894     pjsip-core-i386-win32-vc8-debug-dynamic:sip_transaction.obj
 0004:00002898       ?__LINE__Var@?0??pjsip_tsx_layer_get_tsx_count@@9@9 0052b898     pjsip-core-i386-win32-vc8-debug-dynamic:sip_transaction.obj
 0004:0000289c       ?__LINE__Var@?0??tsx_schedule_timer@@9@9 0052b89c     pjsip-core-i386-win32-vc8-debug-dynamic:sip_transaction.obj
 0004:000028a0       ?__LINE__Var@?0??tsx_set_state@@9@9 0052b8a0     pjsip-core-i386-win32-vc8-debug-dynamic:sip_transaction.obj
 0004:000028a4       ?__LINE__Var@?0??pjsip_tsx_create_uac2@@9@9 0052b8a4     pjsip-core-i386-win32-vc8-debug-dynamic:sip_transaction.obj
 0004:000028a8       ?__LINE__Var@?0??pjsip_tsx_create_uas2@@9@9 0052b8a8     pjsip-core-i386-win32-vc8-debug-dynamic:sip_transaction.obj
 0004:000028ac       ?__LINE__Var@?0??pjsip_tsx_set_transport@@9@9 0052b8ac     pjsip-core-i386-win32-vc8-debug-dynamic:sip_transaction.obj
 0004:000028b0       ?__LINE__Var@?0??pjsip_tsx_terminate@@9@9 0052b8b0     pjsip-core-i386-win32-vc8-debug-dynamic:sip_transaction.obj
 0004:000028b4       ?__LINE__Var@?0??pjsip_tsx_stop_retransmit@@9@9 0052b8b4     pjsip-core-i386-win32-vc8-debug-dynamic:sip_transaction.obj
 0004:000028b8       ?__LINE__Var@?0??pjsip_tsx_set_timeout@@9@9 0052b8b8     pjsip-core-i386-win32-vc8-debug-dynamic:sip_transaction.obj
 0004:000028bc       ?__LINE__Var@?0??pjsip_tsx_send_msg@@9@9 0052b8bc     pjsip-core-i386-win32-vc8-debug-dynamic:sip_transaction.obj
 0004:000028c0       ?__LINE__Var@?0??send_msg_callback@@9@9 0052b8c0     pjsip-core-i386-win32-vc8-debug-dynamic:sip_transaction.obj
 0004:000028c4       ?__LINE__Var@?0??tsx_tp_state_callback@@9@9 0052b8c4     pjsip-core-i386-win32-vc8-debug-dynamic:sip_transaction.obj
 0004:000028c8       ?__LINE__Var@?0??tsx_send_msg@@9@9 0052b8c8     pjsip-core-i386-win32-vc8-debug-dynamic:sip_transaction.obj
 0004:000028cc       ?__LINE__Var@?0??tsx_resched_retransmission@@9@9 0052b8cc     pjsip-core-i386-win32-vc8-debug-dynamic:sip_transaction.obj
 0004:000028d0       ?__LINE__Var@?0??tsx_retransmit@@9@9 0052b8d0     pjsip-core-i386-win32-vc8-debug-dynamic:sip_transaction.obj
 0004:000028d4       ?__LINE__Var@?0??tsx_update_transport@@9@9 0052b8d4     pjsip-core-i386-win32-vc8-debug-dynamic:sip_transaction.obj
 0004:000028d8       ?__LINE__Var@?0??tsx_on_state_null@@9@9 0052b8d8     pjsip-core-i386-win32-vc8-debug-dynamic:sip_transaction.obj
 0004:000028dc       ?__LINE__Var@?0??tsx_on_state_calling@@9@9 0052b8dc     pjsip-core-i386-win32-vc8-debug-dynamic:sip_transaction.obj
 0004:000028e0       ?__LINE__Var@?0??tsx_on_state_trying@@9@9 0052b8e0     pjsip-core-i386-win32-vc8-debug-dynamic:sip_transaction.obj
 0004:000028e4       ?__LINE__Var@?0??tsx_on_state_proceeding_uas@@9@9 0052b8e4     pjsip-core-i386-win32-vc8-debug-dynamic:sip_transaction.obj
 0004:000028e8       ?__LINE__Var@?0??tsx_on_state_proceeding_uac@@9@9 0052b8e8     pjsip-core-i386-win32-vc8-debug-dynamic:sip_transaction.obj
 0004:000028ec       ?__LINE__Var@?0??tsx_on_state_completed_uas@@9@9 0052b8ec     pjsip-core-i386-win32-vc8-debug-dynamic:sip_transaction.obj
 0004:000028f0       ?__LINE__Var@?0??tsx_on_state_completed_uac@@9@9 0052b8f0     pjsip-core-i386-win32-vc8-debug-dynamic:sip_transaction.obj
 0004:000028f4       ?__LINE__Var@?0??tsx_on_state_confirmed@@9@9 0052b8f4     pjsip-core-i386-win32-vc8-debug-dynamic:sip_transaction.obj
 0004:000028f8       ?__LINE__Var@?0??tsx_on_state_terminated@@9@9 0052b8f8     pjsip-core-i386-win32-vc8-debug-dynamic:sip_transaction.obj
 0004:0000298c       ?__LINE__Var@?0??pjsip_ua_init_module@@9@9 0052b98c     pjsip-core-i386-win32-vc8-debug-dynamic:sip_ua_layer.obj
 0004:00002990       ?__LINE__Var@?0??pjsip_ua_get_endpt@@9@9 0052b990     pjsip-core-i386-win32-vc8-debug-dynamic:sip_ua_layer.obj
 0004:00002994       ?__LINE__Var@?0??pjsip_ua_destroy@@9@9 0052b994     pjsip-core-i386-win32-vc8-debug-dynamic:sip_ua_layer.obj
 0004:00002998       ?__LINE__Var@?0??pjsip_ua_register_dlg@@9@9 0052b998     pjsip-core-i386-win32-vc8-debug-dynamic:sip_ua_layer.obj
 0004:0000299c       ?__LINE__Var@?0??pjsip_ua_unregister_dlg@@9@9 0052b99c     pjsip-core-i386-win32-vc8-debug-dynamic:sip_ua_layer.obj
 0004:000029a0       ?__LINE__Var@?0??pjsip_ua_get_dlg_set_count@@9@9 0052b9a0     pjsip-core-i386-win32-vc8-debug-dynamic:sip_ua_layer.obj
 0004:000029a4       ?__LINE__Var@?0??pjsip_ua_find_dialog@@9@9 0052b9a4     pjsip-core-i386-win32-vc8-debug-dynamic:sip_ua_layer.obj
 0004:000029a8       ?__LINE__Var@?0??mod_ua_on_rx_response@@9@9 0052b9a8     pjsip-core-i386-win32-vc8-debug-dynamic:sip_ua_layer.obj
 0004:000029ac       _pjsip_include_allow_hdr_in_dlg 0052b9ac     pjsip-core-i386-win32-vc8-debug-dynamic:sip_dialog.obj
 0004:000029b0       ?__LINE__Var@?0??create_dialog@@9@9 0052b9b0     pjsip-core-i386-win32-vc8-debug-dynamic:sip_dialog.obj
 0004:000029b4       ?__LINE__Var@?0??pjsip_dlg_create_uac@@9@9 0052b9b4     pjsip-core-i386-win32-vc8-debug-dynamic:sip_dialog.obj
 0004:000029b8       ?__LINE__Var@?0??create_uas_dialog@@9@9 0052b9b8     pjsip-core-i386-win32-vc8-debug-dynamic:sip_dialog.obj
 0004:000029bc       ?__LINE__Var@?0??pjsip_dlg_set_transport@@9@9 0052b9bc     pjsip-core-i386-win32-vc8-debug-dynamic:sip_dialog.obj
 0004:000029c0       ?__LINE__Var@?0??pjsip_dlg_set_via_sent_by@@9@9 0052b9c0     pjsip-core-i386-win32-vc8-debug-dynamic:sip_dialog.obj
 0004:000029c4       ?__LINE__Var@?0??pjsip_dlg_fork@@9@9 0052b9c4     pjsip-core-i386-win32-vc8-debug-dynamic:sip_dialog.obj
 0004:000029c8       ?__LINE__Var@?0??unregister_and_destroy_dialog@@9@9 0052b9c8     pjsip-core-i386-win32-vc8-debug-dynamic:sip_dialog.obj
 0004:000029cc       ?__LINE__Var@?0??pjsip_dlg_terminate@@9@9 0052b9cc     pjsip-core-i386-win32-vc8-debug-dynamic:sip_dialog.obj
 0004:000029d0       ?__LINE__Var@?0??pjsip_dlg_set_route_set@@9@9 0052b9d0     pjsip-core-i386-win32-vc8-debug-dynamic:sip_dialog.obj
 0004:000029d4       ?__LINE__Var@?0??pjsip_dlg_inc_session@@9@9 0052b9d4     pjsip-core-i386-win32-vc8-debug-dynamic:sip_dialog.obj
 0004:000029d8       ?__LINE__Var@?0??pjsip_dlg_dec_lock@@9@9 0052b9d8     pjsip-core-i386-win32-vc8-debug-dynamic:sip_dialog.obj
 0004:000029dc       ?__LINE__Var@?0??pjsip_dlg_dec_session@@9@9 0052b9dc     pjsip-core-i386-win32-vc8-debug-dynamic:sip_dialog.obj
 0004:000029e0       ?__LINE__Var@?0??pjsip_dlg_add_usage@@9@9 0052b9e0     pjsip-core-i386-win32-vc8-debug-dynamic:sip_dialog.obj
 0004:000029e4       ?__LINE__Var@?0??pjsip_dlg_set_mod_data@@9@9 0052b9e4     pjsip-core-i386-win32-vc8-debug-dynamic:sip_dialog.obj
 0004:000029e8       ?__LINE__Var@?0??pjsip_dlg_get_mod_data@@9@9 0052b9e8     pjsip-core-i386-win32-vc8-debug-dynamic:sip_dialog.obj
 0004:000029ec       ?__LINE__Var@?0??pjsip_dlg_create_request@@9@9 0052b9ec     pjsip-core-i386-win32-vc8-debug-dynamic:sip_dialog.obj
 0004:000029f0       ?__LINE__Var@?0??pjsip_dlg_send_request@@9@9 0052b9f0     pjsip-core-i386-win32-vc8-debug-dynamic:sip_dialog.obj
 0004:000029f4       ?__LINE__Var@?0??dlg_beautify_response@@9@9 0052b9f4     pjsip-core-i386-win32-vc8-debug-dynamic:sip_dialog.obj
 0004:000029f8       ?__LINE__Var@?0??pjsip_dlg_modify_response@@9@9 0052b9f8     pjsip-core-i386-win32-vc8-debug-dynamic:sip_dialog.obj
 0004:000029fc       ?__LINE__Var@?0??pjsip_dlg_send_response@@9@9 0052b9fc     pjsip-core-i386-win32-vc8-debug-dynamic:sip_dialog.obj
 0004:00002a00       ?__LINE__Var@?0??pjsip_dlg_respond@@9@9 0052ba00     pjsip-core-i386-win32-vc8-debug-dynamic:sip_dialog.obj
 0004:00002a04       ?__LINE__Var@?0??pjsip_dlg_on_rx_request@@9@9 0052ba04     pjsip-core-i386-win32-vc8-debug-dynamic:sip_dialog.obj
 0004:00002a08       ?__LINE__Var@?0??dlg_update_routeset@@9@9 0052ba08     pjsip-core-i386-win32-vc8-debug-dynamic:sip_dialog.obj
 0004:00002a0c       ?__LINE__Var@?0??pjsip_dlg_on_rx_response@@9@9 0052ba0c     pjsip-core-i386-win32-vc8-debug-dynamic:sip_dialog.obj
 0004:00002a10       ?__LINE__Var@?0??pjsip_dlg_on_tsx_state@@9@9 0052ba10     pjsip-core-i386-win32-vc8-debug-dynamic:sip_dialog.obj
 0004:00002a14       ?__LINE__Var@?0??pjsip_dlg_remote_has_cap@@9@9 0052ba14     pjsip-core-i386-win32-vc8-debug-dynamic:sip_dialog.obj
 0004:00002a18       ?__LINE__Var@?0??pjsip_dlg_update_remote_cap@@9@9 0052ba18     pjsip-core-i386-win32-vc8-debug-dynamic:sip_dialog.obj
 0004:00002a1c       ?__LINE__Var@?0??pjsip_dlg_get_remote_cap_hdr@@9@9 0052ba1c     pjsip-core-i386-win32-vc8-debug-dynamic:sip_dialog.obj
 0004:00002a20       ?__LINE__Var@?0??pjsip_dlg_set_remote_cap_hdr@@9@9 0052ba20     pjsip-core-i386-win32-vc8-debug-dynamic:sip_dialog.obj
 0004:00002a24       ?__LINE__Var@?0??pjsip_dlg_remove_remote_cap_hdr@@9@9 0052ba24     pjsip-core-i386-win32-vc8-debug-dynamic:sip_dialog.obj
 0004:00002a28       ?__LINE__Var@?0??pjsip_auth_create_digest@@9@9 0052ba28     pjsip-core-i386-win32-vc8-debug-dynamic:sip_auth_client.obj
 0004:00002a2c       ?__LINE__Var@?0??pjsip_auth_clt_init@@9@9 0052ba2c     pjsip-core-i386-win32-vc8-debug-dynamic:sip_auth_client.obj
 0004:00002a30       ?__LINE__Var@?0??pjsip_auth_clt_deinit@@9@9 0052ba30     pjsip-core-i386-win32-vc8-debug-dynamic:sip_auth_client.obj
 0004:00002a34       ?__LINE__Var@?0??pjsip_auth_clt_clone@@9@9 0052ba34     pjsip-core-i386-win32-vc8-debug-dynamic:sip_auth_client.obj
 0004:00002a38       ?__LINE__Var@?0??pjsip_auth_clt_set_credentials@@9@9 0052ba38     pjsip-core-i386-win32-vc8-debug-dynamic:sip_auth_client.obj
 0004:00002a3c       ?__LINE__Var@?0??pjsip_auth_clt_set_prefs@@9@9 0052ba3c     pjsip-core-i386-win32-vc8-debug-dynamic:sip_auth_client.obj
 0004:00002a40       ?__LINE__Var@?0??pjsip_auth_clt_get_prefs@@9@9 0052ba40     pjsip-core-i386-win32-vc8-debug-dynamic:sip_auth_client.obj
 0004:00002a44       ?__LINE__Var@?0??auth_respond@@9@9 0052ba44     pjsip-core-i386-win32-vc8-debug-dynamic:sip_auth_client.obj
 0004:00002a48       ?__LINE__Var@?0??pjsip_auth_clt_init_req@@9@9 0052ba48     pjsip-core-i386-win32-vc8-debug-dynamic:sip_auth_client.obj
 0004:00002a4c       ?__LINE__Var@?0??pjsip_auth_clt_reinit_req@@9@9 0052ba4c     pjsip-core-i386-win32-vc8-debug-dynamic:sip_auth_client.obj
 0004:00002a50       _PJSIP_SYN_ERR_EXCEPTION   0052ba50     pjsip-core-i386-win32-vc8-debug-dynamic:sip_parser.obj
 0004:00002a54       _PJSIP_EINVAL_ERR_EXCEPTION 0052ba54     pjsip-core-i386-win32-vc8-debug-dynamic:sip_parser.obj
 0004:00002bd0       ?__LINE__Var@?0??init_parser@@9@9 0052bbd0     pjsip-core-i386-win32-vc8-debug-dynamic:sip_parser.obj
 0004:00002bd4       ?__LINE__Var@?0??int_register_parser@@9@9 0052bbd4     pjsip-core-i386-win32-vc8-debug-dynamic:sip_parser.obj
 0004:00002bd8       ?__LINE__Var@?0??pjsip_register_hdr_parser@@9@9 0052bbd8     pjsip-core-i386-win32-vc8-debug-dynamic:sip_parser.obj
 0004:00002bdc       ?__LINE__Var@?0??multipart_print_body@@9@9 0052bbdc     pjsip-core-i386-win32-vc8-debug-dynamic:sip_multipart.obj
 0004:00002be0       ?__LINE__Var@?0??pjsip_multipart_create@@9@9 0052bbe0     pjsip-core-i386-win32-vc8-debug-dynamic:sip_multipart.obj
 0004:00002be4       ?__LINE__Var@?0??pjsip_multipart_add_part@@9@9 0052bbe4     pjsip-core-i386-win32-vc8-debug-dynamic:sip_multipart.obj
 0004:00002be8       ?__LINE__Var@?0??pjsip_multipart_get_first_part@@9@9 0052bbe8     pjsip-core-i386-win32-vc8-debug-dynamic:sip_multipart.obj
 0004:00002bec       ?__LINE__Var@?0??pjsip_multipart_get_next_part@@9@9 0052bbec     pjsip-core-i386-win32-vc8-debug-dynamic:sip_multipart.obj
 0004:00002bf0       ?__LINE__Var@?0??pjsip_multipart_find_part@@9@9 0052bbf0     pjsip-core-i386-win32-vc8-debug-dynamic:sip_multipart.obj
 0004:00002bf4       ?__LINE__Var@?0??pjsip_multipart_parse@@9@9 0052bbf4     pjsip-core-i386-win32-vc8-debug-dynamic:sip_multipart.obj
 0004:00002bf8       ?__LINE__Var@?0??pjsip_multipart_get_raw@@9@9 0052bbf8     pjsip-core-i386-win32-vc8-debug-dynamic:sip_multipart.obj
 0004:00002c00       _pjsip_sip_cfg_var         0052bc00     pjsip-core-i386-win32-vc8-debug-dynamic:sip_config.obj
 0004:00002cd8       ?__LINE__Var@?0??pjsip_url_print@@9@9 0052bcd8     pjsip-core-i386-win32-vc8-debug-dynamic:sip_uri.obj
 0004:00002cdc       ?__LINE__Var@?0??pjsip_name_addr_get_scheme@@9@9 0052bcdc     pjsip-core-i386-win32-vc8-debug-dynamic:sip_uri.obj
 0004:00002ce0       ?__LINE__Var@?0??pjsip_name_addr_print@@9@9 0052bce0     pjsip-core-i386-win32-vc8-debug-dynamic:sip_uri.obj
 0004:00002ce4       ?__LINE__Var@?0??pjsip_name_addr_compare@@9@9 0052bce4     pjsip-core-i386-win32-vc8-debug-dynamic:sip_uri.obj
 0004:00002ce8       ?__LINE__Var@?0??pjsip_resolver_create@@9@9 0052bce8     pjsip-core-i386-win32-vc8-debug-dynamic:sip_resolve.obj
 0004:00002cec       ?__LINE__Var@?0??pjsip_resolve@@9@9 0052bcec     pjsip-core-i386-win32-vc8-debug-dynamic:sip_resolve.obj
 0004:00002d24       ?__LINE__Var@?0??pjsip_tel_uri_subsys_init@@9@9 0052bd24     pjsip-core-i386-win32-vc8-debug-dynamic:sip_tel_uri.obj
 0004:00002d28       _mod_stateful_util         0052bd28     pjsip-core-i386-win32-vc8-debug-dynamic:sip_util_statefull.obj
 0004:00002d70       ?__LINE__Var@?0??pjsip_endpt_send_request@@9@9 0052bd70     pjsip-core-i386-win32-vc8-debug-dynamic:sip_util_statefull.obj
 0004:00002d74       ?__LINE__Var@?0??pjsip_endpt_respond@@9@9 0052bd74     pjsip-core-i386-win32-vc8-debug-dynamic:sip_util_statefull.obj
 0004:00002d94       ?__LINE__Var@?0??pjsip_authorization_hdr_print@@9@9 0052bd94     pjsip-core-i386-win32-vc8-debug-dynamic:sip_auth_msg.obj
 0004:00002d98       ?__LINE__Var@?0??pjsip_authorization_hdr_clone@@9@9 0052bd98     pjsip-core-i386-win32-vc8-debug-dynamic:sip_auth_msg.obj
 0004:00002d9c       ?__LINE__Var@?0??pjsip_www_authenticate_hdr_print@@9@9 0052bd9c     pjsip-core-i386-win32-vc8-debug-dynamic:sip_auth_msg.obj
 0004:00002da0       ?__LINE__Var@?0??pjsip_www_authenticate_hdr_clone@@9@9 0052bda0     pjsip-core-i386-win32-vc8-debug-dynamic:sip_auth_msg.obj
 0004:00002da4       ?__LINE__Var@?0??pjsip_auth_init_parser@@9@9 0052bda4     pjsip-core-i386-win32-vc8-debug-dynamic:sip_auth_parser.obj
 0004:00002da8       ?__LINE__Var@?0??pjmedia_aud_subsys_init@@9@9 0052bda8     pjmedia-audiodev-i386-win32-vc8-debug-dynamic:audiodev.obj
 0004:00002dec       ?__LINE__Var@?0??factory_get_dev_info@@9@9 0052bdec     pjmedia-audiodev-i386-win32-vc8-debug-dynamic:wmme_dev.obj
 0004:00002df0       ?__LINE__Var@?0??factory_default_param@@9@9 0052bdf0     pjmedia-audiodev-i386-win32-vc8-debug-dynamic:wmme_dev.obj
 0004:00002df4       ?__LINE__Var@?0??init_player_stream@@9@9 0052bdf4     pjmedia-audiodev-i386-win32-vc8-debug-dynamic:wmme_dev.obj
 0004:00002df8       ?__LINE__Var@?0??init_capture_stream@@9@9 0052bdf8     pjmedia-audiodev-i386-win32-vc8-debug-dynamic:wmme_dev.obj
 0004:00002dfc       ?__LINE__Var@?0??wmme_dev_thread@@9@9 0052bdfc     pjmedia-audiodev-i386-win32-vc8-debug-dynamic:wmme_dev.obj
 0004:00002e00       ?__LINE__Var@?0??factory_create_stream@@9@9 0052be00     pjmedia-audiodev-i386-win32-vc8-debug-dynamic:wmme_dev.obj
 0004:00002e04       ?__LINE__Var@?0??stream_get_param@@9@9 0052be04     pjmedia-audiodev-i386-win32-vc8-debug-dynamic:wmme_dev.obj
 0004:00002e08       ?__LINE__Var@?0??stream_get_cap@@9@9 0052be08     pjmedia-audiodev-i386-win32-vc8-debug-dynamic:wmme_dev.obj
 0004:00002e0c       ?__LINE__Var@?0??stream_set_cap@@9@9 0052be0c     pjmedia-audiodev-i386-win32-vc8-debug-dynamic:wmme_dev.obj
 0004:00002e10       ?__LINE__Var@?0??stream_stop@@9@9 0052be10     pjmedia-audiodev-i386-win32-vc8-debug-dynamic:wmme_dev.obj
 0004:00002e14       ?__LINE__Var@?0??stream_destroy@@9@9 0052be14     pjmedia-audiodev-i386-win32-vc8-debug-dynamic:wmme_dev.obj
 0004:00002e18       ?__LINE__Var@?0??pjmedia_sdp_attr_create@@9@9 0052be18     pjmedia-i386-win32-vc8-debug-dynamic:sdp.obj
 0004:00002e1c       ?__LINE__Var@?0??pjmedia_sdp_attr_clone@@9@9 0052be1c     pjmedia-i386-win32-vc8-debug-dynamic:sdp.obj
 0004:00002e20       ?__LINE__Var@?0??pjmedia_sdp_attr_find@@9@9 0052be20     pjmedia-i386-win32-vc8-debug-dynamic:sdp.obj
 0004:00002e24       ?__LINE__Var@?0??pjmedia_sdp_attr_add@@9@9 0052be24     pjmedia-i386-win32-vc8-debug-dynamic:sdp.obj
 0004:00002e28       ?__LINE__Var@?0??pjmedia_sdp_attr_remove_all@@9@9 0052be28     pjmedia-i386-win32-vc8-debug-dynamic:sdp.obj
 0004:00002e2c       ?__LINE__Var@?0??pjmedia_sdp_attr_remove@@9@9 0052be2c     pjmedia-i386-win32-vc8-debug-dynamic:sdp.obj
 0004:00002e30       ?__LINE__Var@?0??pjmedia_sdp_attr_get_rtpmap@@9@9 0052be30     pjmedia-i386-win32-vc8-debug-dynamic:sdp.obj
 0004:00002e34       ?__LINE__Var@?0??pjmedia_sdp_attr_get_fmtp@@9@9 0052be34     pjmedia-i386-win32-vc8-debug-dynamic:sdp.obj
 0004:00002e38       ?__LINE__Var@?0??pjmedia_sdp_attr_get_rtcp@@9@9 0052be38     pjmedia-i386-win32-vc8-debug-dynamic:sdp.obj
 0004:00002e3c       ?__LINE__Var@?0??pjmedia_sdp_attr_create_rtcp@@9@9 0052be3c     pjmedia-i386-win32-vc8-debug-dynamic:sdp.obj
 0004:00002e40       ?__LINE__Var@?0??pjmedia_sdp_attr_get_ssrc@@9@9 0052be40     pjmedia-i386-win32-vc8-debug-dynamic:sdp.obj
 0004:00002e44       ?__LINE__Var@?0??pjmedia_sdp_attr_to_rtpmap@@9@9 0052be44     pjmedia-i386-win32-vc8-debug-dynamic:sdp.obj
 0004:00002e48       ?__LINE__Var@?0??pjmedia_sdp_rtpmap_to_attr@@9@9 0052be48     pjmedia-i386-win32-vc8-debug-dynamic:sdp.obj
 0004:00002e4c       ?__LINE__Var@?0??pjmedia_sdp_media_clone@@9@9 0052be4c     pjmedia-i386-win32-vc8-debug-dynamic:sdp.obj
 0004:00002e50       ?__LINE__Var@?0??pjmedia_sdp_media_find_attr@@9@9 0052be50     pjmedia-i386-win32-vc8-debug-dynamic:sdp.obj
 0004:00002e54       ?__LINE__Var@?0??pjmedia_sdp_media_find_attr2@@9@9 0052be54     pjmedia-i386-win32-vc8-debug-dynamic:sdp.obj
 0004:00002e58       ?__LINE__Var@?0??pjmedia_sdp_parse@@9@9 0052be58     pjmedia-i386-win32-vc8-debug-dynamic:sdp.obj
 0004:00002e5c       ?__LINE__Var@?0??pjmedia_sdp_session_clone@@9@9 0052be5c     pjmedia-i386-win32-vc8-debug-dynamic:sdp.obj
 0004:00002e60       ?__LINE__Var@?0??pjmedia_sdp_transport_get_proto@@9@9 0052be60     pjmedia-i386-win32-vc8-debug-dynamic:sdp.obj
 0004:00002e64       ?__LINE__Var@?0??pjmedia_sdp_media_deactivate@@9@9 0052be64     pjmedia-i386-win32-vc8-debug-dynamic:sdp.obj
 0004:00002e68       ?__LINE__Var@?0??pjmedia_sdp_media_clone_deactivate@@9@9 0052be68     pjmedia-i386-win32-vc8-debug-dynamic:sdp.obj
 0004:00002e6c       _pjmedia_add_rtpmap_for_static_pt 0052be6c     pjmedia-i386-win32-vc8-debug-dynamic:endpoint.obj
 0004:00002e70       _pjmedia_add_bandwidth_tias_in_sdp 0052be70     pjmedia-i386-win32-vc8-debug-dynamic:endpoint.obj
 0004:00002e78       ?__LINE__Var@?0??pjmedia_endpt_create2@@9@9 0052be78     pjmedia-i386-win32-vc8-debug-dynamic:endpoint.obj
 0004:00002e7c       ?__LINE__Var@?0??pjmedia_endpt_set_flag@@9@9 0052be7c     pjmedia-i386-win32-vc8-debug-dynamic:endpoint.obj
 0004:00002e80       ?__LINE__Var@?0??pjmedia_endpt_get_flag@@9@9 0052be80     pjmedia-i386-win32-vc8-debug-dynamic:endpoint.obj
 0004:00002e84       ?__LINE__Var@?0??pjmedia_endpt_get_ioqueue@@9@9 0052be84     pjmedia-i386-win32-vc8-debug-dynamic:endpoint.obj
 0004:00002e88       ?__LINE__Var@?0??pjmedia_endpt_get_thread_count@@9@9 0052be88     pjmedia-i386-win32-vc8-debug-dynamic:endpoint.obj
 0004:00002e8c       ?__LINE__Var@?0??pjmedia_endpt_get_thread@@9@9 0052be8c     pjmedia-i386-win32-vc8-debug-dynamic:endpoint.obj
 0004:00002e90       ?__LINE__Var@?0??pjmedia_endpt_stop_threads@@9@9 0052be90     pjmedia-i386-win32-vc8-debug-dynamic:endpoint.obj
 0004:00002e94       ?__LINE__Var@?0??pjmedia_endpt_create_pool@@9@9 0052be94     pjmedia-i386-win32-vc8-debug-dynamic:endpoint.obj
 0004:00002e98       ?__LINE__Var@?0??init_sdp_media@@9@9 0052be98     pjmedia-i386-win32-vc8-debug-dynamic:endpoint.obj
 0004:00002e9c       ?__LINE__Var@?0??pjmedia_endpt_create_audio_sdp@@9@9 0052be9c     pjmedia-i386-win32-vc8-debug-dynamic:endpoint.obj
 0004:00002ea0       ?__LINE__Var@?0??pjmedia_endpt_create_base_sdp@@9@9 0052bea0     pjmedia-i386-win32-vc8-debug-dynamic:endpoint.obj
 0004:00002ea4       ?__LINE__Var@?0??pjmedia_endpt_create_sdp@@9@9 0052bea4     pjmedia-i386-win32-vc8-debug-dynamic:endpoint.obj
 0004:00002ea8       ?__LINE__Var@?0??pjmedia_endpt_atexit@@9@9 0052bea8     pjmedia-i386-win32-vc8-debug-dynamic:endpoint.obj
 0004:00002ef0       ?__LINE__Var@?0??g711_alloc_codec@@9@9 0052bef0     pjmedia-i386-win32-vc8-debug-dynamic:g711.obj
 0004:00002ef4       ?__LINE__Var@?0??g711_dealloc_codec@@9@9 0052bef4     pjmedia-i386-win32-vc8-debug-dynamic:g711.obj
 0004:00002ef8       ?__LINE__Var@?0??g711_parse@@9@9 0052bef8     pjmedia-i386-win32-vc8-debug-dynamic:g711.obj
 0004:00002efc       ?__LINE__Var@?0??g711_decode@@9@9 0052befc     pjmedia-i386-win32-vc8-debug-dynamic:g711.obj
 0004:00002f00       ?__LINE__Var@?0??g711_recover@@9@9 0052bf00     pjmedia-i386-win32-vc8-debug-dynamic:g711.obj
 0004:00002f04       ?__LINE__Var@?0??pjmedia_rtp_session_init@@9@9 0052bf04     pjmedia-i386-win32-vc8-debug-dynamic:rtp.obj
 0004:00002f08       ?__LINE__Var@?0??pjmedia_rtp_session_update2@@9@9 0052bf08     pjmedia-i386-win32-vc8-debug-dynamic:rtp.obj
 0004:00002f0c       ?__LINE__Var@?0??pjmedia_rtcp_get_ntp_time@@9@9 0052bf0c     pjmedia-i386-win32-vc8-debug-dynamic:rtcp.obj
 0004:00002f10       ?__LINE__Var@?0??pjmedia_rtcp_init_stat@@9@9 0052bf10     pjmedia-i386-win32-vc8-debug-dynamic:rtcp.obj
 0004:00002f14       ?__LINE__Var@?0??pjmedia_rtcp_build_rtcp_sdes@@9@9 0052bf14     pjmedia-i386-win32-vc8-debug-dynamic:rtcp.obj
 0004:00002f18       ?__LINE__Var@?0??pjmedia_rtcp_build_rtcp_bye@@9@9 0052bf18     pjmedia-i386-win32-vc8-debug-dynamic:rtcp.obj
 0004:00002f34       ?__LINE__Var@?0??pjmedia_sdp_neg_create_w_local_offer@@9@9 0052bf34     pjmedia-i386-win32-vc8-debug-dynamic:sdp_neg.obj
 0004:00002f38       ?__LINE__Var@?0??pjmedia_sdp_neg_create_w_remote_offer@@9@9 0052bf38     pjmedia-i386-win32-vc8-debug-dynamic:sdp_neg.obj
 0004:00002f3c       ?__LINE__Var@?0??pjmedia_sdp_neg_set_prefer_remote_codec_order@@9@9 0052bf3c     pjmedia-i386-win32-vc8-debug-dynamic:sdp_neg.obj
 0004:00002f40       ?__LINE__Var@?0??pjmedia_sdp_neg_set_answer_multiple_codecs@@9@9 0052bf40     pjmedia-i386-win32-vc8-debug-dynamic:sdp_neg.obj
 0004:00002f44       ?__LINE__Var@?0??pjmedia_sdp_neg_get_state@@9@9 0052bf44     pjmedia-i386-win32-vc8-debug-dynamic:sdp_neg.obj
 0004:00002f48       ?__LINE__Var@?0??pjmedia_sdp_neg_get_active_local@@9@9 0052bf48     pjmedia-i386-win32-vc8-debug-dynamic:sdp_neg.obj
 0004:00002f4c       ?__LINE__Var@?0??pjmedia_sdp_neg_get_active_remote@@9@9 0052bf4c     pjmedia-i386-win32-vc8-debug-dynamic:sdp_neg.obj
 0004:00002f50       ?__LINE__Var@?0??pjmedia_sdp_neg_was_answer_remote@@9@9 0052bf50     pjmedia-i386-win32-vc8-debug-dynamic:sdp_neg.obj
 0004:00002f54       ?__LINE__Var@?0??pjmedia_sdp_neg_get_neg_remote@@9@9 0052bf54     pjmedia-i386-win32-vc8-debug-dynamic:sdp_neg.obj
 0004:00002f58       ?__LINE__Var@?0??pjmedia_sdp_neg_get_neg_local@@9@9 0052bf58     pjmedia-i386-win32-vc8-debug-dynamic:sdp_neg.obj
 0004:00002f5c       ?__LINE__Var@?0??pjmedia_sdp_neg_modify_local_offer2@@9@9 0052bf5c     pjmedia-i386-win32-vc8-debug-dynamic:sdp_neg.obj
 0004:00002f60       ?__LINE__Var@?0??pjmedia_sdp_neg_send_local_offer@@9@9 0052bf60     pjmedia-i386-win32-vc8-debug-dynamic:sdp_neg.obj
 0004:00002f64       ?__LINE__Var@?0??pjmedia_sdp_neg_set_remote_answer@@9@9 0052bf64     pjmedia-i386-win32-vc8-debug-dynamic:sdp_neg.obj
 0004:00002f68       ?__LINE__Var@?0??pjmedia_sdp_neg_set_remote_offer@@9@9 0052bf68     pjmedia-i386-win32-vc8-debug-dynamic:sdp_neg.obj
 0004:00002f6c       ?__LINE__Var@?0??pjmedia_sdp_neg_set_local_answer@@9@9 0052bf6c     pjmedia-i386-win32-vc8-debug-dynamic:sdp_neg.obj
 0004:00002f70       ?__LINE__Var@?0??pjmedia_sdp_neg_has_local_answer@@9@9 0052bf70     pjmedia-i386-win32-vc8-debug-dynamic:sdp_neg.obj
 0004:00002f74       ?__LINE__Var@?0??process_m_answer@@9@9 0052bf74     pjmedia-i386-win32-vc8-debug-dynamic:sdp_neg.obj
 0004:00002f78       ?__LINE__Var@?0??match_offer@@9@9 0052bf78     pjmedia-i386-win32-vc8-debug-dynamic:sdp_neg.obj
 0004:00002f7c       ?__LINE__Var@?0??create_answer@@9@9 0052bf7c     pjmedia-i386-win32-vc8-debug-dynamic:sdp_neg.obj
 0004:00002f80       ?__LINE__Var@?0??pjmedia_sdp_neg_cancel_offer@@9@9 0052bf80     pjmedia-i386-win32-vc8-debug-dynamic:sdp_neg.obj
 0004:00002f84       ?__LINE__Var@?0??pjmedia_sdp_neg_negotiate@@9@9 0052bf84     pjmedia-i386-win32-vc8-debug-dynamic:sdp_neg.obj
 0004:00002f88       ?__LINE__Var@?0??custom_fmt_match@@9@9 0052bf88     pjmedia-i386-win32-vc8-debug-dynamic:sdp_neg.obj
 0004:00002f8c       ?__LINE__Var@?0??pjmedia_sdp_neg_register_fmt_match_cb@@9@9 0052bf8c     pjmedia-i386-win32-vc8-debug-dynamic:sdp_neg.obj
 0004:00002f90       ?__LINE__Var@?0??pjmedia_sdp_neg_fmt_match@@9@9 0052bf90     pjmedia-i386-win32-vc8-debug-dynamic:sdp_neg.obj
 0004:00002f94       ?__LINE__Var@?0??pjmedia_stream_info_from_sdp@@9@9 0052bf94     pjmedia-i386-win32-vc8-debug-dynamic:stream_info.obj
 0004:00002fd8       ?__LINE__Var@?0??pjmedia_transport_udp_create3@@9@9 0052bfd8     pjmedia-i386-win32-vc8-debug-dynamic:transport_udp.obj
 0004:00002fdc       ?__LINE__Var@?0??pjmedia_transport_udp_attach@@9@9 0052bfdc     pjmedia-i386-win32-vc8-debug-dynamic:transport_udp.obj
 0004:00002fe0       ?__LINE__Var@?0??transport_destroy@@9@9 0052bfe0     pjmedia-i386-win32-vc8-debug-dynamic:transport_udp.obj
 0004:00002fe4       ?__LINE__Var@?0??transport_get_info@@9@9 0052bfe4     pjmedia-i386-win32-vc8-debug-dynamic:transport_udp.obj
 0004:00002fe8       ?__LINE__Var@?0??tp_attach@@9@9 0052bfe8     pjmedia-i386-win32-vc8-debug-dynamic:transport_udp.obj
 0004:00002fec       ?__LINE__Var@?0??transport_detach@@9@9 0052bfec     pjmedia-i386-win32-vc8-debug-dynamic:transport_udp.obj
 0004:00002ff0       ?__LINE__Var@?0??transport_send_rtp@@9@9 0052bff0     pjmedia-i386-win32-vc8-debug-dynamic:transport_udp.obj
 0004:00002ff4       ?__LINE__Var@?0??transport_media_create@@9@9 0052bff4     pjmedia-i386-win32-vc8-debug-dynamic:transport_udp.obj
 0004:00002ff8       ?__LINE__Var@?0??transport_media_start@@9@9 0052bff8     pjmedia-i386-win32-vc8-debug-dynamic:transport_udp.obj
 0004:00002ffc       ?__LINE__Var@?0??transport_media_stop@@9@9 0052bffc     pjmedia-i386-win32-vc8-debug-dynamic:transport_udp.obj
 0004:00003000       ?__LINE__Var@?0??transport_simulate_lost@@9@9 0052c000     pjmedia-i386-win32-vc8-debug-dynamic:transport_udp.obj
 0004:00003090       ?__LINE__Var@?0??make_global_index@@9@9 0052c090     pjmedia-i386-win32-vc8-debug-dynamic:audiodev.obj
 0004:00003094       ?__LINE__Var@?0??pjmedia_aud_dev_get_info@@9@9 0052c094     pjmedia-i386-win32-vc8-debug-dynamic:audiodev.obj
 0004:00003098       ?__LINE__Var@?0??pjmedia_aud_dev_lookup@@9@9 0052c098     pjmedia-i386-win32-vc8-debug-dynamic:audiodev.obj
 0004:0000309c       ?__LINE__Var@?0??pjmedia_aud_dev_default_param@@9@9 0052c09c     pjmedia-i386-win32-vc8-debug-dynamic:audiodev.obj
 0004:000030a0       ?__LINE__Var@?0??pjmedia_aud_stream_create@@9@9 0052c0a0     pjmedia-i386-win32-vc8-debug-dynamic:audiodev.obj
 0004:000030a4       ?__LINE__Var@?0??pjmedia_aud_stream_get_param@@9@9 0052c0a4     pjmedia-i386-win32-vc8-debug-dynamic:audiodev.obj
 0004:000030a8       ?__LINE__Var@?0??pjmedia_codec_param_clone@@9@9 0052c0a8     pjmedia-i386-win32-vc8-debug-dynamic:codec.obj
 0004:000030ac       ?__LINE__Var@?0??pjmedia_codec_mgr_init@@9@9 0052c0ac     pjmedia-i386-win32-vc8-debug-dynamic:codec.obj
 0004:000030b0       ?__LINE__Var@?0??pjmedia_codec_mgr_destroy@@9@9 0052c0b0     pjmedia-i386-win32-vc8-debug-dynamic:codec.obj
 0004:000030b4       ?__LINE__Var@?0??pjmedia_codec_mgr_register_factory@@9@9 0052c0b4     pjmedia-i386-win32-vc8-debug-dynamic:codec.obj
 0004:000030b8       ?__LINE__Var@?0??pjmedia_codec_mgr_unregister_factory@@9@9 0052c0b8     pjmedia-i386-win32-vc8-debug-dynamic:codec.obj
 0004:000030bc       ?__LINE__Var@?0??pjmedia_codec_mgr_enum_codecs@@9@9 0052c0bc     pjmedia-i386-win32-vc8-debug-dynamic:codec.obj
 0004:000030c0       ?__LINE__Var@?0??pjmedia_codec_mgr_get_codec_info@@9@9 0052c0c0     pjmedia-i386-win32-vc8-debug-dynamic:codec.obj
 0004:000030c4       ?__LINE__Var@?0??pjmedia_codec_info_to_id@@9@9 0052c0c4     pjmedia-i386-win32-vc8-debug-dynamic:codec.obj
 0004:000030c8       ?__LINE__Var@?0??pjmedia_codec_mgr_find_codecs_by_id@@9@9 0052c0c8     pjmedia-i386-win32-vc8-debug-dynamic:codec.obj
 0004:000030cc       ?__LINE__Var@?0??pjmedia_codec_mgr_set_codec_priority@@9@9 0052c0cc     pjmedia-i386-win32-vc8-debug-dynamic:codec.obj
 0004:000030d0       ?__LINE__Var@?0??pjmedia_codec_mgr_alloc_codec@@9@9 0052c0d0     pjmedia-i386-win32-vc8-debug-dynamic:codec.obj
 0004:000030d4       ?__LINE__Var@?0??pjmedia_codec_mgr_get_default_param@@9@9 0052c0d4     pjmedia-i386-win32-vc8-debug-dynamic:codec.obj
 0004:000030d8       ?__LINE__Var@?0??pjmedia_codec_mgr_set_default_param@@9@9 0052c0d8     pjmedia-i386-win32-vc8-debug-dynamic:codec.obj
 0004:000030dc       ?__LINE__Var@?0??pjmedia_codec_mgr_dealloc_codec@@9@9 0052c0dc     pjmedia-i386-win32-vc8-debug-dynamic:codec.obj
 0004:000030f0       ?__LINE__Var@?0??pjmedia_plc_create@@9@9 0052c0f0     pjmedia-i386-win32-vc8-debug-dynamic:plc_common.obj
 0004:000030f4       ?__LINE__Var@?0??pjmedia_plc_save@@9@9 0052c0f4     pjmedia-i386-win32-vc8-debug-dynamic:plc_common.obj
 0004:000030f8       ?__LINE__Var@?0??pjmedia_plc_generate@@9@9 0052c0f8     pjmedia-i386-win32-vc8-debug-dynamic:plc_common.obj
 0004:000030fc       ?__LINE__Var@?0??pjmedia_silence_det_create@@9@9 0052c0fc     pjmedia-i386-win32-vc8-debug-dynamic:silencedet.obj
 0004:00003100       ?__LINE__Var@?0??pjmedia_silence_det_set_name@@9@9 0052c100     pjmedia-i386-win32-vc8-debug-dynamic:silencedet.obj
 0004:00003104       ?__LINE__Var@?0??pjmedia_silence_det_set_adaptive@@9@9 0052c104     pjmedia-i386-win32-vc8-debug-dynamic:silencedet.obj
 0004:00003108       ?__LINE__Var@?0??pjmedia_silence_det_set_fixed@@9@9 0052c108     pjmedia-i386-win32-vc8-debug-dynamic:silencedet.obj
 0004:0000310c       ?__LINE__Var@?0??pjmedia_silence_det_set_params@@9@9 0052c10c     pjmedia-i386-win32-vc8-debug-dynamic:silencedet.obj
 0004:00003110       ?__LINE__Var@?0??pjmedia_silence_det_disable@@9@9 0052c110     pjmedia-i386-win32-vc8-debug-dynamic:silencedet.obj
 0004:00003114       ?__LINE__Var@?0??pjmedia_silence_det_apply@@9@9 0052c114     pjmedia-i386-win32-vc8-debug-dynamic:silencedet.obj
 0004:00003118       ?__LINE__Var@?0??pjmedia_event_mgr_destroy@@9@9 0052c118     pjmedia-i386-win32-vc8-debug-dynamic:event.obj
 0004:0000311c       ?__LINE__Var@?0??pjmedia_event_subscribe@@9@9 0052c11c     pjmedia-i386-win32-vc8-debug-dynamic:event.obj
 0004:00003120       ?__LINE__Var@?0??pjmedia_event_unsubscribe@@9@9 0052c120     pjmedia-i386-win32-vc8-debug-dynamic:event.obj
 0004:00003124       ?__LINE__Var@?0??pjmedia_event_publish@@9@9 0052c124     pjmedia-i386-win32-vc8-debug-dynamic:event.obj
 0004:00003128       _rtcp_fb_type_name         0052c128     pjmedia-i386-win32-vc8-debug-dynamic:rtcp_fb.obj
 0004:00003144       ?__LINE__Var@?0??pjmedia_rtcp_fb_build_nack@@9@9 0052c144     pjmedia-i386-win32-vc8-debug-dynamic:rtcp_fb.obj
 0004:00003148       ?__LINE__Var@?0??pjmedia_rtcp_fb_build_pli@@9@9 0052c148     pjmedia-i386-win32-vc8-debug-dynamic:rtcp_fb.obj
 0004:0000314c       ?__LINE__Var@?0??pjmedia_rtcp_fb_build_sli@@9@9 0052c14c     pjmedia-i386-win32-vc8-debug-dynamic:rtcp_fb.obj
 0004:00003150       ?__LINE__Var@?0??pjmedia_rtcp_fb_build_rpsi@@9@9 0052c150     pjmedia-i386-win32-vc8-debug-dynamic:rtcp_fb.obj
 0004:00003154       ?__LINE__Var@?0??pjmedia_rtcp_fb_setting_dup@@9@9 0052c154     pjmedia-i386-win32-vc8-debug-dynamic:rtcp_fb.obj
 0004:00003158       ?__LINE__Var@?0??pjmedia_rtcp_fb_info_dup@@9@9 0052c158     pjmedia-i386-win32-vc8-debug-dynamic:rtcp_fb.obj
 0004:0000315c       ?__LINE__Var@?0??pjmedia_rtcp_fb_encode_sdp@@9@9 0052c15c     pjmedia-i386-win32-vc8-debug-dynamic:rtcp_fb.obj
 0004:00003160       ?__LINE__Var@?0??pjmedia_rtcp_fb_decode_sdp@@9@9 0052c160     pjmedia-i386-win32-vc8-debug-dynamic:rtcp_fb.obj
 0004:00003164       ?__LINE__Var@?0??pjmedia_rtcp_fb_parse_nack@@9@9 0052c164     pjmedia-i386-win32-vc8-debug-dynamic:rtcp_fb.obj
 0004:00003168       ?__LINE__Var@?0??pjmedia_rtcp_fb_parse_pli@@9@9 0052c168     pjmedia-i386-win32-vc8-debug-dynamic:rtcp_fb.obj
 0004:0000316c       ?__LINE__Var@?0??pjmedia_rtcp_fb_parse_sli@@9@9 0052c16c     pjmedia-i386-win32-vc8-debug-dynamic:rtcp_fb.obj
 0004:00003170       ?__LINE__Var@?0??pjmedia_rtcp_fb_parse_rpsi@@9@9 0052c170     pjmedia-i386-win32-vc8-debug-dynamic:rtcp_fb.obj
 0004:00003174       ?__LINE__Var@?0??pjmedia_stream_info_parse_fmtp@@9@9 0052c174     pjmedia-i386-win32-vc8-debug-dynamic:stream_common.obj
 0004:00003374       ?__LINE__Var@?0??generate_crypto_attr_value@@9@9 0052c374     pjmedia-i386-win32-vc8-debug-dynamic:transport_srtp.obj
 0004:00003378       ?__LINE__Var@?0??sdes_encode_sdp@@9@9 0052c378     pjmedia-i386-win32-vc8-debug-dynamic:transport_srtp.obj
 0004:0000337c       ?__LINE__Var@?0??pjmedia_srtp_setting_default@@9@9 0052c37c     pjmedia-i386-win32-vc8-debug-dynamic:transport_srtp.obj
 0004:00003380       ?__LINE__Var@?0??pjmedia_srtp_enum_crypto@@9@9 0052c380     pjmedia-i386-win32-vc8-debug-dynamic:transport_srtp.obj
 0004:00003384       ?__LINE__Var@?0??pjmedia_srtp_enum_keying@@9@9 0052c384     pjmedia-i386-win32-vc8-debug-dynamic:transport_srtp.obj
 0004:00003388       ?__LINE__Var@?0??pjmedia_transport_srtp_create@@9@9 0052c388     pjmedia-i386-win32-vc8-debug-dynamic:transport_srtp.obj
 0004:0000338c       ?__LINE__Var@?0??pjmedia_transport_srtp_start@@9@9 0052c38c     pjmedia-i386-win32-vc8-debug-dynamic:transport_srtp.obj
 0004:00003390       ?__LINE__Var@?0??pjmedia_transport_srtp_stop@@9@9 0052c390     pjmedia-i386-win32-vc8-debug-dynamic:transport_srtp.obj
 0004:00003394       ?__LINE__Var@?0??pjmedia_transport_srtp_get_member@@9@9 0052c394     pjmedia-i386-win32-vc8-debug-dynamic:transport_srtp.obj
 0004:00003398       ?__LINE__Var@?0??transport_attach2@@9@9 0052c398     pjmedia-i386-win32-vc8-debug-dynamic:transport_srtp.obj
 0004:0000339c       ?__LINE__Var@?0??srtp_rtp_cb@@9@9 0052c39c     pjmedia-i386-win32-vc8-debug-dynamic:transport_srtp.obj
 0004:000033a0       ?__LINE__Var@?0??srtp_rtcp_cb@@9@9 0052c3a0     pjmedia-i386-win32-vc8-debug-dynamic:transport_srtp.obj
 0004:000033a4       ?__LINE__Var@?0??transport_encode_sdp@@9@9 0052c3a4     pjmedia-i386-win32-vc8-debug-dynamic:transport_srtp.obj
 0004:000033a8       ?__LINE__Var@?0??pjmedia_transport_srtp_decrypt_pkt@@9@9 0052c3a8     pjmedia-i386-win32-vc8-debug-dynamic:transport_srtp.obj
 0004:000033ac       ?__LINE__Var@?0??pjmedia_wsola_create@@9@9 0052c3ac     pjmedia-i386-win32-vc8-debug-dynamic:wsola.obj
 0004:000033b0       ?__LINE__Var@?0??pjmedia_wsola_set_max_expand@@9@9 0052c3b0     pjmedia-i386-win32-vc8-debug-dynamic:wsola.obj
 0004:000033b4       ?__LINE__Var@?0??pjmedia_wsola_reset@@9@9 0052c3b4     pjmedia-i386-win32-vc8-debug-dynamic:wsola.obj
 0004:000033b8       ?__LINE__Var@?0??expand@@9@9 0052c3b8     pjmedia-i386-win32-vc8-debug-dynamic:wsola.obj
 0004:000033bc       ?__LINE__Var@?0??pjmedia_wsola_discard@@9@9 0052c3bc     pjmedia-i386-win32-vc8-debug-dynamic:wsola.obj
 0004:000033c0       ?__LINE__Var@?0??pjlib_util_init@@9@9 0052c3c0     pjlib-util-i386-win32-vc8-debug-dynamic:errno.obj
 0004:000033c4       _pj_optind                 0052c3c4     pjlib-util-i386-win32-vc8-debug-dynamic:getopt.obj
 0004:000033c8       _pj_optopt                 0052c3c8     pjlib-util-i386-win32-vc8-debug-dynamic:getopt.obj
 0004:000033d0       ?__LINE__Var@?0??pj_cis_add_range@@9@9 0052c3d0     pjlib-util-i386-win32-vc8-debug-dynamic:scanner.obj
 0004:000033d4       ?__LINE__Var@?0??pj_scan_init@@9@9 0052c3d4     pjlib-util-i386-win32-vc8-debug-dynamic:scanner.obj
 0004:000033d8       ?__LINE__Var@?0??pj_scan_fini@@9@9 0052c3d8     pjlib-util-i386-win32-vc8-debug-dynamic:scanner.obj
 0004:000033dc       ?__LINE__Var@?0??pj_scan_get@@9@9 0052c3dc     pjlib-util-i386-win32-vc8-debug-dynamic:scanner.obj
 0004:000033e0       ?__LINE__Var@?0??pj_scan_get_unescape@@9@9 0052c3e0     pjlib-util-i386-win32-vc8-debug-dynamic:scanner.obj
 0004:000033e4       ?__LINE__Var@?0??pj_scan_get_quotes@@9@9 0052c3e4     pjlib-util-i386-win32-vc8-debug-dynamic:scanner.obj
 0004:000033f8       ?__LINE__Var@?0??pj_dns_resolver_create@@9@9 0052c3f8     pjlib-util-i386-win32-vc8-debug-dynamic:resolver.obj
 0004:000033fc       ?__LINE__Var@?0??pj_dns_resolver_destroy@@9@9 0052c3fc     pjlib-util-i386-win32-vc8-debug-dynamic:resolver.obj
 0004:00003400       ?__LINE__Var@?0??pj_dns_resolver_set_ns@@9@9 0052c400     pjlib-util-i386-win32-vc8-debug-dynamic:resolver.obj
 0004:00003404       ?__LINE__Var@?0??pj_dns_resolver_set_settings@@9@9 0052c404     pjlib-util-i386-win32-vc8-debug-dynamic:resolver.obj
 0004:00003408       ?__LINE__Var@?0??pj_dns_resolver_get_settings@@9@9 0052c408     pjlib-util-i386-win32-vc8-debug-dynamic:resolver.obj
 0004:0000340c       ?__LINE__Var@?0??pj_dns_resolver_handle_events@@9@9 0052c40c     pjlib-util-i386-win32-vc8-debug-dynamic:resolver.obj
 0004:00003410       ?__LINE__Var@?0??transmit_query@@9@9 0052c410     pjlib-util-i386-win32-vc8-debug-dynamic:resolver.obj
 0004:00003414       ?__LINE__Var@?0??pj_dns_resolver_start_query@@9@9 0052c414     pjlib-util-i386-win32-vc8-debug-dynamic:resolver.obj
 0004:00003418       ?__LINE__Var@?0??pj_dns_resolver_cancel_query@@9@9 0052c418     pjlib-util-i386-win32-vc8-debug-dynamic:resolver.obj
 0004:0000341c       ?__LINE__Var@?0??pj_dns_parse_a_response@@9@9 0052c41c     pjlib-util-i386-win32-vc8-debug-dynamic:resolver.obj
 0004:00003420       ?__LINE__Var@?0??pj_dns_parse_addr_response@@9@9 0052c420     pjlib-util-i386-win32-vc8-debug-dynamic:resolver.obj
 0004:00003424       ?__LINE__Var@?0??select_nameservers@@9@9 0052c424     pjlib-util-i386-win32-vc8-debug-dynamic:resolver.obj
 0004:00003428       ?__LINE__Var@?0??on_read_complete@@9@9 0052c428     pjlib-util-i386-win32-vc8-debug-dynamic:resolver.obj
 0004:0000342c       ?__LINE__Var@?0??pj_dns_resolver_add_entry@@9@9 0052c42c     pjlib-util-i386-win32-vc8-debug-dynamic:resolver.obj
 0004:00003430       ?__LINE__Var@?0??pj_dns_resolver_get_cached_count@@9@9 0052c430     pjlib-util-i386-win32-vc8-debug-dynamic:resolver.obj
 0004:00003434       ?__LINE__Var@?0??pj_dns_make_query@@9@9 0052c434     pjlib-util-i386-win32-vc8-debug-dynamic:dns.obj
 0004:00003438       ?__LINE__Var@?0??pj_dns_parse_packet@@9@9 0052c438     pjlib-util-i386-win32-vc8-debug-dynamic:dns.obj
 0004:0000343c       ?__LINE__Var@?0??pj_dns_packet_dup@@9@9 0052c43c     pjlib-util-i386-win32-vc8-debug-dynamic:dns.obj
 0004:00003440       ?__LINE__Var@?0??pj_dns_srv_resolve@@9@9 0052c440     pjlib-util-i386-win32-vc8-debug-dynamic:srv_resolver.obj
 0004:00003444       ?__LINE__Var@?0??build_server_entries@@9@9 0052c444     pjlib-util-i386-win32-vc8-debug-dynamic:srv_resolver.obj
 0004:00003448       ?__LINE__Var@?0??dns_callback@@9@9 0052c448     pjlib-util-i386-win32-vc8-debug-dynamic:srv_resolver.obj
 0004:0000344c       ?__LINE__Var@?0??pj_base64_encode@@9@9 0052c44c     pjlib-util-i386-win32-vc8-debug-dynamic:base64.obj
 0004:00003450       ?__LINE__Var@?0??pj_base64_decode@@9@9 0052c450     pjlib-util-i386-win32-vc8-debug-dynamic:base64.obj
 0004:00003458       ?__LINE__Var@?0??pj_init@@9@9 0052c458     pjlib-i386-win32-vc8-debug-dynamic:os_core_win32.obj
 0004:0000345c       ?__LINE__Var@?0??pj_shutdown@@9@9 0052c45c     pjlib-i386-win32-vc8-debug-dynamic:os_core_win32.obj
 0004:00003460       ?__LINE__Var@?0??pj_getpid@@9@9 0052c460     pjlib-i386-win32-vc8-debug-dynamic:os_core_win32.obj
 0004:00003464       ?__LINE__Var@?0??pj_thread_set_prio@@9@9 0052c464     pjlib-i386-win32-vc8-debug-dynamic:os_core_win32.obj
 0004:00003468       ?__LINE__Var@?0??pj_thread_get_os_handle@@9@9 0052c468     pjlib-i386-win32-vc8-debug-dynamic:os_core_win32.obj
 0004:0000346c       ?__LINE__Var@?0??pj_thread_register@@9@9 0052c46c     pjlib-i386-win32-vc8-debug-dynamic:os_core_win32.obj
 0004:00003470       ?__LINE__Var@?0??thread_main@@9@9 0052c470     pjlib-i386-win32-vc8-debug-dynamic:os_core_win32.obj
 0004:00003474       ?__LINE__Var@?0??pj_thread_create@@9@9 0052c474     pjlib-i386-win32-vc8-debug-dynamic:os_core_win32.obj
 0004:00003478       ?__LINE__Var@?0??pj_thread_get_name@@9@9 0052c478     pjlib-i386-win32-vc8-debug-dynamic:os_core_win32.obj
 0004:0000347c       ?__LINE__Var@?0??pj_thread_resume@@9@9 0052c47c     pjlib-i386-win32-vc8-debug-dynamic:os_core_win32.obj
 0004:00003480       ?__LINE__Var@?0??pj_thread_this@@9@9 0052c480     pjlib-i386-win32-vc8-debug-dynamic:os_core_win32.obj
 0004:00003484       ?__LINE__Var@?0??pj_thread_join@@9@9 0052c484     pjlib-i386-win32-vc8-debug-dynamic:os_core_win32.obj
 0004:00003488       ?__LINE__Var@?0??pj_thread_destroy@@9@9 0052c488     pjlib-i386-win32-vc8-debug-dynamic:os_core_win32.obj
 0004:0000348c       ?__LINE__Var@?0??pj_thread_sleep@@9@9 0052c48c     pjlib-i386-win32-vc8-debug-dynamic:os_core_win32.obj
 0004:00003490       ?__LINE__Var@?0??pj_thread_check_stack@@9@9 0052c490     pjlib-i386-win32-vc8-debug-dynamic:os_core_win32.obj
 0004:00003494       ?__LINE__Var@?0??pj_thread_get_stack_info@@9@9 0052c494     pjlib-i386-win32-vc8-debug-dynamic:os_core_win32.obj
 0004:00003498       ?__LINE__Var@?0??pj_atomic_destroy@@9@9 0052c498     pjlib-i386-win32-vc8-debug-dynamic:os_core_win32.obj
 0004:0000349c       ?__LINE__Var@?0??pj_atomic_set@@9@9 0052c49c     pjlib-i386-win32-vc8-debug-dynamic:os_core_win32.obj
 0004:000034a0       ?__LINE__Var@?0??pj_atomic_get@@9@9 0052c4a0     pjlib-i386-win32-vc8-debug-dynamic:os_core_win32.obj
 0004:000034a4       ?__LINE__Var@?0??pj_atomic_inc_and_get@@9@9 0052c4a4     pjlib-i386-win32-vc8-debug-dynamic:os_core_win32.obj
 0004:000034a8       ?__LINE__Var@?0??pj_atomic_inc@@9@9 0052c4a8     pjlib-i386-win32-vc8-debug-dynamic:os_core_win32.obj
 0004:000034ac       ?__LINE__Var@?0??pj_atomic_dec_and_get@@9@9 0052c4ac     pjlib-i386-win32-vc8-debug-dynamic:os_core_win32.obj
 0004:000034b0       ?__LINE__Var@?0??pj_atomic_dec@@9@9 0052c4b0     pjlib-i386-win32-vc8-debug-dynamic:os_core_win32.obj
 0004:000034b4       ?__LINE__Var@?0??pj_atomic_add@@9@9 0052c4b4     pjlib-i386-win32-vc8-debug-dynamic:os_core_win32.obj
 0004:000034b8       ?__LINE__Var@?0??pj_thread_local_alloc@@9@9 0052c4b8     pjlib-i386-win32-vc8-debug-dynamic:os_core_win32.obj
 0004:000034bc       ?__LINE__Var@?0??pj_thread_local_free@@9@9 0052c4bc     pjlib-i386-win32-vc8-debug-dynamic:os_core_win32.obj
 0004:000034c0       ?__LINE__Var@?0??init_mutex@@9@9 0052c4c0     pjlib-i386-win32-vc8-debug-dynamic:os_core_win32.obj
 0004:000034c4       ?__LINE__Var@?0??pj_mutex_create@@9@9 0052c4c4     pjlib-i386-win32-vc8-debug-dynamic:os_core_win32.obj
 0004:000034c8       ?__LINE__Var@?0??pj_mutex_lock@@9@9 0052c4c8     pjlib-i386-win32-vc8-debug-dynamic:os_core_win32.obj
 0004:000034cc       ?__LINE__Var@?0??pj_mutex_unlock@@9@9 0052c4cc     pjlib-i386-win32-vc8-debug-dynamic:os_core_win32.obj
 0004:000034d0       ?__LINE__Var@?0??pj_mutex_trylock@@9@9 0052c4d0     pjlib-i386-win32-vc8-debug-dynamic:os_core_win32.obj
 0004:000034d4       ?__LINE__Var@?0??pj_mutex_destroy@@9@9 0052c4d4     pjlib-i386-win32-vc8-debug-dynamic:os_core_win32.obj
 0004:000034d8       ?__LINE__Var@?0??pj_rwmutex_create@@9@9 0052c4d8     pjlib-i386-win32-vc8-debug-dynamic:os_core_win32.obj
 0004:000034dc       ?__LINE__Var@?0??pj_rwmutex_lock_read@@9@9 0052c4dc     pjlib-i386-win32-vc8-debug-dynamic:os_core_win32.obj
 0004:000034e0       ?__LINE__Var@?0??pj_rwmutex_lock_write@@9@9 0052c4e0     pjlib-i386-win32-vc8-debug-dynamic:os_core_win32.obj
 0004:000034e4       ?__LINE__Var@?0??pj_rwmutex_unlock_read@@9@9 0052c4e4     pjlib-i386-win32-vc8-debug-dynamic:os_core_win32.obj
 0004:000034e8       ?__LINE__Var@?0??pj_rwmutex_unlock_write@@9@9 0052c4e8     pjlib-i386-win32-vc8-debug-dynamic:os_core_win32.obj
 0004:000034ec       ?__LINE__Var@?0??pj_rwmutex_destroy@@9@9 0052c4ec     pjlib-i386-win32-vc8-debug-dynamic:os_core_win32.obj
 0004:000034f0       ?__LINE__Var@?0??pj_sem_create@@9@9 0052c4f0     pjlib-i386-win32-vc8-debug-dynamic:os_core_win32.obj
 0004:000034f4       ?__LINE__Var@?0??pj_sem_wait_for@@9@9 0052c4f4     pjlib-i386-win32-vc8-debug-dynamic:os_core_win32.obj
 0004:000034f8       ?__LINE__Var@?0??pj_sem_wait@@9@9 0052c4f8     pjlib-i386-win32-vc8-debug-dynamic:os_core_win32.obj
 0004:000034fc       ?__LINE__Var@?0??pj_sem_trywait@@9@9 0052c4fc     pjlib-i386-win32-vc8-debug-dynamic:os_core_win32.obj
 0004:00003500       ?__LINE__Var@?0??pj_sem_post@@9@9 0052c500     pjlib-i386-win32-vc8-debug-dynamic:os_core_win32.obj
 0004:00003504       ?__LINE__Var@?0??pj_sem_destroy@@9@9 0052c504     pjlib-i386-win32-vc8-debug-dynamic:os_core_win32.obj
 0004:00003508       ?__LINE__Var@?0??pj_event_create@@9@9 0052c508     pjlib-i386-win32-vc8-debug-dynamic:os_core_win32.obj
 0004:0000350c       ?__LINE__Var@?0??pj_event_wait_for@@9@9 0052c50c     pjlib-i386-win32-vc8-debug-dynamic:os_core_win32.obj
 0004:00003510       ?__LINE__Var@?0??pj_event_wait@@9@9 0052c510     pjlib-i386-win32-vc8-debug-dynamic:os_core_win32.obj
 0004:00003514       ?__LINE__Var@?0??pj_event_trywait@@9@9 0052c514     pjlib-i386-win32-vc8-debug-dynamic:os_core_win32.obj
 0004:00003518       ?__LINE__Var@?0??pj_event_set@@9@9 0052c518     pjlib-i386-win32-vc8-debug-dynamic:os_core_win32.obj
 0004:0000351c       ?__LINE__Var@?0??pj_event_pulse@@9@9 0052c51c     pjlib-i386-win32-vc8-debug-dynamic:os_core_win32.obj
 0004:00003520       ?__LINE__Var@?0??pj_event_reset@@9@9 0052c520     pjlib-i386-win32-vc8-debug-dynamic:os_core_win32.obj
 0004:00003524       ?__LINE__Var@?0??pj_event_destroy@@9@9 0052c524     pjlib-i386-win32-vc8-debug-dynamic:os_core_win32.obj
 0004:00003528       ?__LINE__Var@?0??pj_term_set_color@@9@9 0052c528     pjlib-i386-win32-vc8-debug-dynamic:os_core_win32.obj
 0004:0000352c       ?__LINE__Var@?0??pj_term_get_color@@9@9 0052c52c     pjlib-i386-win32-vc8-debug-dynamic:os_core_win32.obj
 0004:00003530       ?__LINE__Var@?0??pj_time_val_normalize@@9@9 0052c530     pjlib-i386-win32-vc8-debug-dynamic:types.obj
 0004:00003534       ?__LINE__Var@?0??pj_register_strerror@@9@9 0052c534     pjlib-i386-win32-vc8-debug-dynamic:errno.obj
 0004:00003538       ?__LINE__Var@?0??pj_strerror@@9@9 0052c538     pjlib-i386-win32-vc8-debug-dynamic:errno.obj
 0004:0000353c       ?__LINE__Var@?0??pj_inet_aton@@9@9 0052c53c     pjlib-i386-win32-vc8-debug-dynamic:sock_bsd.obj
 0004:00003540       ?__LINE__Var@?0??pj_inet_pton@@9@9 0052c540     pjlib-i386-win32-vc8-debug-dynamic:sock_bsd.obj
 0004:00003544       ?__LINE__Var@?0??pj_inet_ntop@@9@9 0052c544     pjlib-i386-win32-vc8-debug-dynamic:sock_bsd.obj
 0004:00003548       ?__LINE__Var@?0??pj_gethostname@@9@9 0052c548     pjlib-i386-win32-vc8-debug-dynamic:sock_bsd.obj
 0004:0000354c       ?__LINE__Var@?0??pj_sock_socket@@9@9 0052c54c     pjlib-i386-win32-vc8-debug-dynamic:sock_bsd.obj
 0004:00003550       ?__LINE__Var@?0??pj_sock_bind@@9@9 0052c550     pjlib-i386-win32-vc8-debug-dynamic:sock_bsd.obj
 0004:00003554       ?__LINE__Var@?0??pj_sock_bind_in@@9@9 0052c554     pjlib-i386-win32-vc8-debug-dynamic:sock_bsd.obj
 0004:00003558       ?__LINE__Var@?0??pj_sock_close@@9@9 0052c558     pjlib-i386-win32-vc8-debug-dynamic:sock_bsd.obj
 0004:0000355c       ?__LINE__Var@?0??pj_sock_getpeername@@9@9 0052c55c     pjlib-i386-win32-vc8-debug-dynamic:sock_bsd.obj
 0004:00003560       ?__LINE__Var@?0??pj_sock_getsockname@@9@9 0052c560     pjlib-i386-win32-vc8-debug-dynamic:sock_bsd.obj
 0004:00003564       ?__LINE__Var@?0??pj_sock_send@@9@9 0052c564     pjlib-i386-win32-vc8-debug-dynamic:sock_bsd.obj
 0004:00003568       ?__LINE__Var@?0??pj_sock_sendto@@9@9 0052c568     pjlib-i386-win32-vc8-debug-dynamic:sock_bsd.obj
 0004:0000356c       ?__LINE__Var@?0??pj_sock_recv@@9@9 0052c56c     pjlib-i386-win32-vc8-debug-dynamic:sock_bsd.obj
 0004:00003570       ?__LINE__Var@?0??pj_sock_recvfrom@@9@9 0052c570     pjlib-i386-win32-vc8-debug-dynamic:sock_bsd.obj
 0004:00003574       ?__LINE__Var@?0??pj_sock_getsockopt@@9@9 0052c574     pjlib-i386-win32-vc8-debug-dynamic:sock_bsd.obj
 0004:00003578       ?__LINE__Var@?0??pj_sock_setsockopt@@9@9 0052c578     pjlib-i386-win32-vc8-debug-dynamic:sock_bsd.obj
 0004:0000357c       ?__LINE__Var@?0??pj_sock_setsockopt_params@@9@9 0052c57c     pjlib-i386-win32-vc8-debug-dynamic:sock_bsd.obj
 0004:00003580       ?__LINE__Var@?0??pj_sock_connect@@9@9 0052c580     pjlib-i386-win32-vc8-debug-dynamic:sock_bsd.obj
 0004:00003584       ?__LINE__Var@?0??pj_sock_shutdown@@9@9 0052c584     pjlib-i386-win32-vc8-debug-dynamic:sock_bsd.obj
 0004:00003588       ?__LINE__Var@?0??pj_sock_listen@@9@9 0052c588     pjlib-i386-win32-vc8-debug-dynamic:sock_bsd.obj
 0004:0000358c       ?__LINE__Var@?0??pj_sock_accept@@9@9 0052c58c     pjlib-i386-win32-vc8-debug-dynamic:sock_bsd.obj
 0004:00003590       ?__LINE__Var@?0??pj_sockaddr_in_set_str_addr@@9@9 0052c590     pjlib-i386-win32-vc8-debug-dynamic:sock_common.obj
 0004:00003594       ?__LINE__Var@?0??pj_sockaddr_set_str_addr@@9@9 0052c594     pjlib-i386-win32-vc8-debug-dynamic:sock_common.obj
 0004:00003598       ?__LINE__Var@?0??pj_sockaddr_in_init@@9@9 0052c598     pjlib-i386-win32-vc8-debug-dynamic:sock_common.obj
 0004:0000359c       ?__LINE__Var@?0??pj_sockaddr_init@@9@9 0052c59c     pjlib-i386-win32-vc8-debug-dynamic:sock_common.obj
 0004:000035a0       ?__LINE__Var@?0??pj_sockaddr_get_addr@@9@9 0052c5a0     pjlib-i386-win32-vc8-debug-dynamic:sock_common.obj
 0004:000035a4       ?__LINE__Var@?0??pj_sockaddr_get_port@@9@9 0052c5a4     pjlib-i386-win32-vc8-debug-dynamic:sock_common.obj
 0004:000035a8       ?__LINE__Var@?0??pj_sockaddr_get_addr_len@@9@9 0052c5a8     pjlib-i386-win32-vc8-debug-dynamic:sock_common.obj
 0004:000035ac       ?__LINE__Var@?0??pj_sockaddr_get_len@@9@9 0052c5ac     pjlib-i386-win32-vc8-debug-dynamic:sock_common.obj
 0004:000035b0       ?__LINE__Var@?0??pj_sockaddr_synthesize@@9@9 0052c5b0     pjlib-i386-win32-vc8-debug-dynamic:sock_common.obj
 0004:000035b4       ?__LINE__Var@?0??pj_sockaddr_set_port@@9@9 0052c5b4     pjlib-i386-win32-vc8-debug-dynamic:sock_common.obj
 0004:000035b8       ?__LINE__Var@?0??pj_sockaddr_parse2@@9@9 0052c5b8     pjlib-i386-win32-vc8-debug-dynamic:sock_common.obj
 0004:000035bc       ?__LINE__Var@?0??pj_sockaddr_parse@@9@9 0052c5bc     pjlib-i386-win32-vc8-debug-dynamic:sock_common.obj
 0004:000035c0       ?__LINE__Var@?0??pj_gethostip@@9@9 0052c5c0     pjlib-i386-win32-vc8-debug-dynamic:sock_common.obj
 0004:000035c4       ?__LINE__Var@?0??pj_sock_bind_random@@9@9 0052c5c4     pjlib-i386-win32-vc8-debug-dynamic:sock_common.obj
 0004:000035c8       ?__LINE__Var@?0??pj_sock_setsockopt_sobuf@@9@9 0052c5c8     pjlib-i386-win32-vc8-debug-dynamic:sock_common.obj
 0004:000035cc       ?__LINE__Var@?0??pj_pool_create_block@@9@9 0052c5cc     pjlib-i386-win32-vc8-debug-dynamic:pool.obj
 0004:000035d0       ?__LINE__Var@?0??pj_pool_allocate_find@@9@9 0052c5d0     pjlib-i386-win32-vc8-debug-dynamic:pool.obj
 0004:000035d4       ?__LINE__Var@?0??pj_pool_init_int@@9@9 0052c5d4     pjlib-i386-win32-vc8-debug-dynamic:pool.obj
 0004:000035d8       ?__LINE__Var@?0??pj_pool_create_int@@9@9 0052c5d8     pjlib-i386-win32-vc8-debug-dynamic:pool.obj
 0004:000035dc       ?__LINE__Var@?0??reset_pool@@9@9 0052c5dc     pjlib-i386-win32-vc8-debug-dynamic:pool.obj
 0004:0000362c       ?__LINE__Var@?0??pj_caching_pool_init@@9@9 0052c62c     pjlib-i386-win32-vc8-debug-dynamic:pool_caching.obj
 0004:00003630       ?__LINE__Var@?0??pj_caching_pool_destroy@@9@9 0052c630     pjlib-i386-win32-vc8-debug-dynamic:pool_caching.obj
 0004:00003634       ?__LINE__Var@?0??cpool_create_pool@@9@9 0052c634     pjlib-i386-win32-vc8-debug-dynamic:pool_caching.obj
 0004:00003638       ?__LINE__Var@?0??cpool_release_pool@@9@9 0052c638     pjlib-i386-win32-vc8-debug-dynamic:pool_caching.obj
 0004:0000363c       ?__LINE__Var@?0??pj_strncpy@@9@9 0052c63c     pjlib-i386-win32-vc8-debug-dynamic:string.obj
 0004:00003640       ?__LINE__Var@?0??pj_strncpy_with_null@@9@9 0052c640     pjlib-i386-win32-vc8-debug-dynamic:string.obj
 0004:00003644       ?__LINE__Var@?0??pj_create_random_string@@9@9 0052c644     pjlib-i386-win32-vc8-debug-dynamic:string.obj
 0004:00003648       ?__LINE__Var@?0??pj_strtol@@9@9 0052c648     pjlib-i386-win32-vc8-debug-dynamic:string.obj
 0004:0000364c       ?__LINE__Var@?0??pj_strtol2@@9@9 0052c64c     pjlib-i386-win32-vc8-debug-dynamic:string.obj
 0004:00003650       ?__LINE__Var@?0??pj_strtoul@@9@9 0052c650     pjlib-i386-win32-vc8-debug-dynamic:string.obj
 0004:00003654       ?__LINE__Var@?0??pj_strtoul2@@9@9 0052c654     pjlib-i386-win32-vc8-debug-dynamic:string.obj
 0004:00003658       ?__LINE__Var@?0??pj_strtoul3@@9@9 0052c658     pjlib-i386-win32-vc8-debug-dynamic:string.obj
 0004:0000365c       ?__LINE__Var@?0??pj_utoa_pad@@9@9 0052c65c     pjlib-i386-win32-vc8-debug-dynamic:string.obj
 0004:00003660       ?__LINE__Var@?0??pj_log_write@@9@9 0052c660     pjlib-i386-win32-vc8-debug-dynamic:log_writer_stdout.obj
 0004:000036e8       ?__LINE__Var@?0??pj_log@@9@9 0052c6e8     pjlib-i386-win32-vc8-debug-dynamic:log.obj
 0004:000036ec       ?__LINE__Var@?0??pj_srand@@9@9 0052c6ec     pjlib-i386-win32-vc8-debug-dynamic:rand.obj
 0004:000036f0       ?__LINE__Var@?0??pj_rand@@9@9 0052c6f0     pjlib-i386-win32-vc8-debug-dynamic:rand.obj
 0004:000036f4       _pj_pool_factory_default_policy 0052c6f4     pjlib-i386-win32-vc8-debug-dynamic:pool_policy_malloc.obj
 0004:00003708       ?__LINE__Var@?0??default_block_alloc@@9@9 0052c708     pjlib-i386-win32-vc8-debug-dynamic:pool_policy_malloc.obj
 0004:0000370c       ?__LINE__Var@?0??default_block_free@@9@9 0052c70c     pjlib-i386-win32-vc8-debug-dynamic:pool_policy_malloc.obj
 0004:00003710       ?__LINE__Var@?0??default_pool_callback@@9@9 0052c710     pjlib-i386-win32-vc8-debug-dynamic:pool_policy_malloc.obj
 0004:0000375c       ?__LINE__Var@?0??create_mutex_lock@@9@9 0052c75c     pjlib-i386-win32-vc8-debug-dynamic:lock.obj
 0004:00003760       ?__LINE__Var@?0??pj_lock_create_null_mutex@@9@9 0052c760     pjlib-i386-win32-vc8-debug-dynamic:lock.obj
 0004:00003764       ?__LINE__Var@?0??pj_lock_create_semaphore@@9@9 0052c764     pjlib-i386-win32-vc8-debug-dynamic:lock.obj
 0004:00003768       ?__LINE__Var@?0??pj_lock_acquire@@9@9 0052c768     pjlib-i386-win32-vc8-debug-dynamic:lock.obj
 0004:0000376c       ?__LINE__Var@?0??pj_lock_tryacquire@@9@9 0052c76c     pjlib-i386-win32-vc8-debug-dynamic:lock.obj
 0004:00003770       ?__LINE__Var@?0??pj_lock_release@@9@9 0052c770     pjlib-i386-win32-vc8-debug-dynamic:lock.obj
 0004:00003774       ?__LINE__Var@?0??pj_lock_destroy@@9@9 0052c774     pjlib-i386-win32-vc8-debug-dynamic:lock.obj
 0004:00003778       ?__LINE__Var@?0??grp_lock_set_owner_thread@@9@9 0052c778     pjlib-i386-win32-vc8-debug-dynamic:lock.obj
 0004:0000377c       ?__LINE__Var@?0??grp_lock_unset_owner_thread@@9@9 0052c77c     pjlib-i386-win32-vc8-debug-dynamic:lock.obj
 0004:00003780       ?__LINE__Var@?0??grp_lock_acquire@@9@9 0052c780     pjlib-i386-win32-vc8-debug-dynamic:lock.obj
 0004:00003784       ?__LINE__Var@?0??grp_lock_tryacquire@@9@9 0052c784     pjlib-i386-win32-vc8-debug-dynamic:lock.obj
 0004:00003788       ?__LINE__Var@?0??pj_grp_lock_create@@9@9 0052c788     pjlib-i386-win32-vc8-debug-dynamic:lock.obj
 0004:0000378c       ?__LINE__Var@?0??grp_lock_dec_ref@@9@9 0052c78c     pjlib-i386-win32-vc8-debug-dynamic:lock.obj
 0004:00003790       ?__LINE__Var@?0??pj_array_erase@@9@9 0052c790     pjlib-i386-win32-vc8-debug-dynamic:array.obj
 0004:00003794       ?__LINE__Var@?0??copy_node@@9@9 0052c794     pjlib-i386-win32-vc8-debug-dynamic:timer.obj
 0004:00003798       ?__LINE__Var@?0??pop_freelist@@9@9 0052c798     pjlib-i386-win32-vc8-debug-dynamic:timer.obj
 0004:0000379c       ?__LINE__Var@?0??push_freelist@@9@9 0052c79c     pjlib-i386-win32-vc8-debug-dynamic:timer.obj
 0004:000037a0       ?__LINE__Var@?0??reheap_down@@9@9 0052c7a0     pjlib-i386-win32-vc8-debug-dynamic:timer.obj
 0004:000037a4       ?__LINE__Var@?0??cancel@@9@9 0052c7a4     pjlib-i386-win32-vc8-debug-dynamic:timer.obj
 0004:000037a8       ?__LINE__Var@?0??pj_timer_heap_create@@9@9 0052c7a8     pjlib-i386-win32-vc8-debug-dynamic:timer.obj
 0004:000037ac       ?__LINE__Var@?0??pj_timer_entry_init@@9@9 0052c7ac     pjlib-i386-win32-vc8-debug-dynamic:timer.obj
 0004:000037b0       ?__LINE__Var@?0??schedule_w_grp_lock@@9@9 0052c7b0     pjlib-i386-win32-vc8-debug-dynamic:timer.obj
 0004:000037b4       ?__LINE__Var@?0??cancel_timer@@9@9 0052c7b4     pjlib-i386-win32-vc8-debug-dynamic:timer.obj
 0004:000037b8       ?__LINE__Var@?0??pj_timer_heap_poll@@9@9 0052c7b8     pjlib-i386-win32-vc8-debug-dynamic:timer.obj
 0004:000037bc       ?__LINE__Var@?0??pj_timer_heap_count@@9@9 0052c7bc     pjlib-i386-win32-vc8-debug-dynamic:timer.obj
 0004:000037c0       ?__LINE__Var@?0??pj_timer_heap_earliest_time@@9@9 0052c7c0     pjlib-i386-win32-vc8-debug-dynamic:timer.obj
 0004:000037c4       ?__LINE__Var@?0??pj_ioqueue_set_lock@@9@9 0052c7c4     pjlib-i386-win32-vc8-debug-dynamic:ioqueue_select.obj
 0004:000037c8       ?__LINE__Var@?0??ioqueue_init_key@@9@9 0052c7c8     pjlib-i386-win32-vc8-debug-dynamic:ioqueue_select.obj
 0004:000037cc       ?__LINE__Var@?0??pj_ioqueue_get_user_data@@9@9 0052c7cc     pjlib-i386-win32-vc8-debug-dynamic:ioqueue_select.obj
 0004:000037d0       ?__LINE__Var@?0??pj_ioqueue_set_user_data@@9@9 0052c7d0     pjlib-i386-win32-vc8-debug-dynamic:ioqueue_select.obj
 0004:000037d4       ?__LINE__Var@?0??ioqueue_dispatch_write_event@@9@9 0052c7d4     pjlib-i386-win32-vc8-debug-dynamic:ioqueue_select.obj
 0004:000037d8       ?__LINE__Var@?0??ioqueue_dispatch_read_event@@9@9 0052c7d8     pjlib-i386-win32-vc8-debug-dynamic:ioqueue_select.obj
 0004:000037dc       ?__LINE__Var@?0??pj_ioqueue_recv@@9@9 0052c7dc     pjlib-i386-win32-vc8-debug-dynamic:ioqueue_select.obj
 0004:000037e0       ?__LINE__Var@?0??pj_ioqueue_recvfrom@@9@9 0052c7e0     pjlib-i386-win32-vc8-debug-dynamic:ioqueue_select.obj
 0004:000037e4       ?__LINE__Var@?0??pj_ioqueue_send@@9@9 0052c7e4     pjlib-i386-win32-vc8-debug-dynamic:ioqueue_select.obj
 0004:000037e8       ?__LINE__Var@?0??pj_ioqueue_sendto@@9@9 0052c7e8     pjlib-i386-win32-vc8-debug-dynamic:ioqueue_select.obj
 0004:000037ec       ?__LINE__Var@?0??pj_ioqueue_accept@@9@9 0052c7ec     pjlib-i386-win32-vc8-debug-dynamic:ioqueue_select.obj
 0004:000037f0       ?__LINE__Var@?0??pj_ioqueue_connect@@9@9 0052c7f0     pjlib-i386-win32-vc8-debug-dynamic:ioqueue_select.obj
 0004:000037f4       ?__LINE__Var@?0??pj_ioqueue_set_default_concurrency@@9@9 0052c7f4     pjlib-i386-win32-vc8-debug-dynamic:ioqueue_select.obj
 0004:000037f8       ?__LINE__Var@?0??pj_ioqueue_set_concurrency@@9@9 0052c7f8     pjlib-i386-win32-vc8-debug-dynamic:ioqueue_select.obj
 0004:000037fc       ?__LINE__Var@?0??pj_ioqueue_create@@9@9 0052c7fc     pjlib-i386-win32-vc8-debug-dynamic:ioqueue_select.obj
 0004:00003800       ?__LINE__Var@?0??pj_ioqueue_destroy@@9@9 0052c800     pjlib-i386-win32-vc8-debug-dynamic:ioqueue_select.obj
 0004:00003804       ?__LINE__Var@?0??pj_ioqueue_register_sock2@@9@9 0052c804     pjlib-i386-win32-vc8-debug-dynamic:ioqueue_select.obj
 0004:00003808       ?__LINE__Var@?0??decrement_counter@@9@9 0052c808     pjlib-i386-win32-vc8-debug-dynamic:ioqueue_select.obj
 0004:0000380c       ?__LINE__Var@?0??pj_ioqueue_unregister@@9@9 0052c80c     pjlib-i386-win32-vc8-debug-dynamic:ioqueue_select.obj
 0004:00003810       ?__LINE__Var@?0??ioqueue_remove_from_set@@9@9 0052c810     pjlib-i386-win32-vc8-debug-dynamic:ioqueue_select.obj
 0004:00003814       ?__LINE__Var@?0??ioqueue_add_to_set@@9@9 0052c814     pjlib-i386-win32-vc8-debug-dynamic:ioqueue_select.obj
 0004:00003818       ?__LINE__Var@?0??scan_closing_keys@@9@9 0052c818     pjlib-i386-win32-vc8-debug-dynamic:ioqueue_select.obj
 0004:0000381c       ?__LINE__Var@?0??pj_ioqueue_poll@@9@9 0052c81c     pjlib-i386-win32-vc8-debug-dynamic:ioqueue_select.obj
 0004:00003824       ?__LINE__Var@?0??pj_throw_exception_@@9@9 0052c824     pjlib-i386-win32-vc8-debug-dynamic:except.obj
 0004:00003828       ?__LINE__Var@?0??pj_push_exception_handler_@@9@9 0052c828     pjlib-i386-win32-vc8-debug-dynamic:except.obj
 0004:0000382c       ?__LINE__Var@?0??pj_exception_id_free@@9@9 0052c82c     pjlib-i386-win32-vc8-debug-dynamic:except.obj
 0004:00003830       ?__LINE__Var@?0??pj_exception_id_name@@9@9 0052c830     pjlib-i386-win32-vc8-debug-dynamic:except.obj
 0004:00003834       ?__LINE__Var@?0??pj_hash_calc@@9@9 0052c834     pjlib-i386-win32-vc8-debug-dynamic:hash.obj
 0004:00003838       ?__LINE__Var@?0??find_entry@@9@9 0052c838     pjlib-i386-win32-vc8-debug-dynamic:hash.obj
 0004:0000383c       ?__LINE__Var@?0??pj_hash_this@@9@9 0052c83c     pjlib-i386-win32-vc8-debug-dynamic:hash.obj
 0004:00003840       ?__LINE__Var@?0??platform_strerror@@9@9 0052c840     pjlib-i386-win32-vc8-debug-dynamic:os_error_win32.obj
 0004:00003858       ?__LINE__Var@?0??pj_generate_unique_string@@9@9 0052c858     pjlib-i386-win32-vc8-debug-dynamic:guid_win32.obj
 0004:0000385c       ?__LINE__Var@?0??pj_qos_get_params@@9@9 0052c85c     pjlib-i386-win32-vc8-debug-dynamic:sock_qos_common.obj
 0004:00003860       ?__LINE__Var@?0??pj_qos_get_type@@9@9 0052c860     pjlib-i386-win32-vc8-debug-dynamic:sock_qos_common.obj
 0004:00003864       ?__LINE__Var@?0??pj_gethostbyname@@9@9 0052c864     pjlib-i386-win32-vc8-debug-dynamic:addr_resolv_sock.obj
 0004:00003868       ?__LINE__Var@?0??pj_getaddrinfo@@9@9 0052c868     pjlib-i386-win32-vc8-debug-dynamic:addr_resolv_sock.obj
 0004:00003870       ?__LINE__Var@?0??stack_alloc@@9@9 0052c870     pjlib-i386-win32-vc8-debug-dynamic:pool_buf.obj
 0004:00003874       ?__LINE__Var@?0??pj_pool_create_on_buf@@9@9 0052c874     pjlib-i386-win32-vc8-debug-dynamic:pool_buf.obj
 0004:00003878       _PJ_VERSION                0052c878     pjlib-i386-win32-vc8-debug-dynamic:config.obj
 0004:00003884       ?__LINE__Var@?0??enum_ipv4_interface@@9@9 0052c884     pjlib-i386-win32-vc8-debug-dynamic:ip_helper_win32.obj
 0004:00003888       ?__LINE__Var@?0??pj_enum_ip_interface@@9@9 0052c888     pjlib-i386-win32-vc8-debug-dynamic:ip_helper_win32.obj
 0004:0000388c       ?__LINE__Var@?0??pj_enum_ip_route@@9@9 0052c88c     pjlib-i386-win32-vc8-debug-dynamic:ip_helper_win32.obj
 0004:00003890       ?__LINE__Var@?0??PJ_FD_ZERO@@9@9 0052c890     pjlib-i386-win32-vc8-debug-dynamic:sock_select.obj
 0004:00003894       ?__LINE__Var@?0??PJ_FD_SET@@9@9 0052c894     pjlib-i386-win32-vc8-debug-dynamic:sock_select.obj
 0004:00003898       ?__LINE__Var@?0??PJ_FD_CLR@@9@9 0052c898     pjlib-i386-win32-vc8-debug-dynamic:sock_select.obj
 0004:0000389c       ?__LINE__Var@?0??PJ_FD_ISSET@@9@9 0052c89c     pjlib-i386-win32-vc8-debug-dynamic:sock_select.obj
 0004:000038a0       ?__LINE__Var@?0??pj_sock_select@@9@9 0052c8a0     pjlib-i386-win32-vc8-debug-dynamic:sock_select.obj
 0004:000038a4       _mod_srtp                  0052c8a4     libsrtp-i386-win32-vc8-debug-dynamic:srtp.obj
 0004:000038b4       _mod_alloc                 0052c8b4     libsrtp-i386-win32-vc8-debug-dynamic:alloc.obj
 0004:000038c0       _octet_weight              0052c8c0     libsrtp-i386-win32-vc8-debug-dynamic:datatypes.obj
 0004:00003d8c       _srtp_mod_cipher           0052cd8c     libsrtp-i386-win32-vc8-debug-dynamic:cipher.obj
 0004:00003d98       _srtp_mod_auth             0052cd98     libsrtp-i386-win32-vc8-debug-dynamic:auth.obj
 0004:00003da4       _srtp_mod_crypto_kernel    0052cda4     libsrtp-i386-win32-vc8-debug-dynamic:crypto_kernel.obj
 0004:00003db0       _mod_stat                  0052cdb0     libsrtp-i386-win32-vc8-debug-dynamic:stat.obj
 0004:00003dbc       _srtp_mod_aes_icm          0052cdbc     libsrtp-i386-win32-vc8-debug-dynamic:aes_icm.obj
 0004:00003dc8       _srtp_mod_hmac             0052cdc8     libsrtp-i386-win32-vc8-debug-dynamic:hmac.obj
 0004:00003dd4       _srtp_mod_sha1             0052cdd4     libsrtp-i386-win32-vc8-debug-dynamic:sha1.obj
 0004:00003ddc       _SHA_K0                    0052cddc     libsrtp-i386-win32-vc8-debug-dynamic:sha1.obj
 0004:00003de0       _SHA_K1                    0052cde0     libsrtp-i386-win32-vc8-debug-dynamic:sha1.obj
 0004:00003de4       _SHA_K2                    0052cde4     libsrtp-i386-win32-vc8-debug-dynamic:sha1.obj
 0004:00003de8       _SHA_K3                    0052cde8     libsrtp-i386-win32-vc8-debug-dynamic:sha1.obj
 0004:00003df0       ___security_cookie_complement 0052cdf0     MSVCRTD:gs_cookie.obj
 0004:00003df4       ___security_cookie         0052cdf4     MSVCRTD:gs_cookie.obj
 0004:00003dfc       __fltused                  0052cdfc     MSVCRTD:fltused.obj
 0004:00003e00       ___scrt_native_dllmain_reason 0052ce00     MSVCRTD:utility.obj
 0004:00003e04       ___scrt_default_matherr    0052ce04     MSVCRTD:matherr.obj
 0004:00003e08       ___isa_enabled             0052ce08     MSVCRTD:cpu_disp.obj
 0004:00003e0c       ___scrt_ucrt_dll_is_in_use 0052ce0c     MSVCRTD:ucrt_stubs.obj
 0004:0023d518       _pj_optarg                 00766518     pjlib-util-i386-win32-vc8-debug-dynamic:getopt.obj
 0004:0023d988       _err_level                 00766988     libsrtp-i386-win32-vc8-debug-dynamic:srtp_err.obj
 0004:0023d98c       _crypto_kernel             0076698c     libsrtp-i386-win32-vc8-debug-dynamic:crypto_kernel.obj
 0004:0023dd84       ___scrt_current_native_startup_state 00766d84     MSVCRTD:utility.obj
 0004:0023dd88       ___scrt_native_startup_lock 00766d88     MSVCRTD:utility.obj
 0004:0023ddb0       ?__type_info_root_node@@3U__type_info_node@@A 00766db0     MSVCRTD:tncleanup.obj
 0004:0023ddc0       ?_OptionsStorage@?1??__local_stdio_printf_options@@9@4_KA 00766dc0     MSVCRTD:default_local_stdio_options.obj
 0004:0023ddd0       ?_OptionsStorage@?1??__local_stdio_scanf_options@@9@4_KA 00766dd0     MSVCRTD:default_local_stdio_options.obj
 0004:0023dddc       ___scrt_debugger_hook_flag 00766ddc     MSVCRTD:utility_desktop.obj
 0004:0023dde0       ___isa_available           00766de0     MSVCRTD:cpu_disp.obj
 0004:0023dde4       ___favor                   00766de4     MSVCRTD:cpu_disp.obj
 0004:0023ddf0       ?_OptionsStorage@?1??__local_stdio_printf_options@@9@9 00766df0     <common>
 0004:0023de04       _pjsip_dlg_lock_tls_id     00766e04     <common>
 0004:0023de10       _PJ_NO_MEMORY_EXCEPTION    00766e10     <common>
 0004:0023de20       _bit_string                00766e20     <common>
 0004:0023e2f8       ?_OptionsStorage@?1??__local_stdio_scanf_options@@9@9 007672f8     <common>
 0004:0023e30c       ___dyn_tls_dtor_callback   0076730c     <common>
 0004:0023e318       ___dyn_tls_init_callback   00767318     <common>
 0005:00000000       __imp__SetConsoleTextAttribute@8 00768000     kernel32:KERNEL32.dll
 0005:00000004       __imp__GetModuleHandleW@4  00768004     kernel32:KERNEL32.dll
 0005:00000008       __imp__GetStartupInfoW@4   00768008     kernel32:KERNEL32.dll
 0005:0000000c       __imp__IsDebuggerPresent@0 0076800c     kernel32:KERNEL32.dll
 0005:00000010       __imp__InitializeSListHead@4 00768010     kernel32:KERNEL32.dll
 0005:00000014       __imp__GetSystemTimeAsFileTime@4 00768014     kernel32:KERNEL32.dll
 0005:00000018       __imp__IsProcessorFeaturePresent@4 00768018     kernel32:KERNEL32.dll
 0005:0000001c       __imp__TerminateProcess@8  0076801c     kernel32:KERNEL32.dll
 0005:00000020       __imp__SetUnhandledExceptionFilter@4 00768020     kernel32:KERNEL32.dll
 0005:00000024       __imp__UnhandledExceptionFilter@4 00768024     kernel32:KERNEL32.dll
 0005:00000028       __imp__LoadLibraryA@4      00768028     kernel32:KERNEL32.dll
 0005:0000002c       __imp__GetProcAddress@8    0076802c     kernel32:KERNEL32.dll
 0005:00000030       __imp__FreeLibrary@4       00768030     kernel32:KERNEL32.dll
 0005:00000034       __imp__FormatMessageA@28   00768034     kernel32:KERNEL32.dll
 0005:00000038       __imp__SetLastError@4      00768038     kernel32:KERNEL32.dll
 0005:0000003c       __imp__QueryPerformanceFrequency@4 0076803c     kernel32:KERNEL32.dll
 0005:00000040       __imp__QueryPerformanceCounter@4 00768040     kernel32:KERNEL32.dll
 0005:00000044       __imp__SystemTimeToFileTime@8 00768044     kernel32:KERNEL32.dll
 0005:00000048       __imp__FileTimeToSystemTime@8 00768048     kernel32:KERNEL32.dll
 0005:0000004c       __imp__GetLocalTime@4      0076804c     kernel32:KERNEL32.dll
 0005:00000050       __imp__GetConsoleScreenBufferInfo@8 00768050     kernel32:KERNEL32.dll
 0005:00000054       __imp__CreateSemaphoreA@16 00768054     kernel32:KERNEL32.dll
 0005:00000058       __imp__PulseEvent@4        00768058     kernel32:KERNEL32.dll
 0005:0000005c       __imp__TlsFree@4           0076805c     kernel32:KERNEL32.dll
 0005:00000060       __imp__TlsSetValue@8       00768060     kernel32:KERNEL32.dll
 0005:00000064       __imp__TlsGetValue@4       00768064     kernel32:KERNEL32.dll
 0005:00000068       __imp__TlsAlloc@0          00768068     kernel32:KERNEL32.dll
 0005:0000006c       __imp__ResumeThread@4      0076806c     kernel32:KERNEL32.dll
 0005:00000070       __imp__GetThreadPriority@4 00768070     kernel32:KERNEL32.dll
 0005:00000074       __imp__GetCurrentThreadId@0 00768074     kernel32:KERNEL32.dll
 0005:00000078       __imp__CreateThread@24     00768078     kernel32:KERNEL32.dll
 0005:0000007c       __imp__GetCurrentProcessId@0 0076807c     kernel32:KERNEL32.dll
 0005:00000080       __imp__Sleep@4             00768080     kernel32:KERNEL32.dll
 0005:00000084       __imp__WaitForSingleObject@8 00768084     kernel32:KERNEL32.dll
 0005:00000088       __imp__ReleaseSemaphore@12 00768088     kernel32:KERNEL32.dll
 0005:0000008c       __imp__ResetEvent@4        0076808c     kernel32:KERNEL32.dll
 0005:00000090       __imp__DeleteCriticalSection@4 00768090     kernel32:KERNEL32.dll
 0005:00000094       __imp__TryEnterCriticalSection@4 00768094     kernel32:KERNEL32.dll
 0005:00000098       __imp__LeaveCriticalSection@4 00768098     kernel32:KERNEL32.dll
 0005:0000009c       __imp__EnterCriticalSection@4 0076809c     kernel32:KERNEL32.dll
 0005:000000a0       __imp__InitializeCriticalSection@4 007680a0     kernel32:KERNEL32.dll
 0005:000000a4       __imp__GetLastError@0      007680a4     kernel32:KERNEL32.dll
 0005:000000a8       __imp__GetStdHandle@4      007680a8     kernel32:KERNEL32.dll
 0005:000000ac       __imp__WaitForMultipleObjects@16 007680ac     kernel32:KERNEL32.dll
 0005:000000b0       __imp__CreateEventA@16     007680b0     kernel32:KERNEL32.dll
 0005:000000b4       __imp__SetEvent@4          007680b4     kernel32:KERNEL32.dll
 0005:000000b8       __imp__CloseHandle@4       007680b8     kernel32:KERNEL32.dll
 0005:000000bc       __imp__SetPriorityClass@8  007680bc     kernel32:KERNEL32.dll
 0005:000000c0       __imp__SetThreadPriority@8 007680c0     kernel32:KERNEL32.dll
 0005:000000c4       __imp__GetCurrentThread@0  007680c4     kernel32:KERNEL32.dll
 0005:000000c8       __imp__GetCurrentProcess@0 007680c8     kernel32:KERNEL32.dll
 0005:000000cc       \177KERNEL32_NULL_THUNK_DATA 007680cc     kernel32:KERNEL32.dll
 0005:00000120       __imp___except_handler4_common 00768120     vcruntimed:VCRUNTIME140D.dll
 0005:00000124       __imp__memcpy              00768124     vcruntimed:VCRUNTIME140D.dll
 0005:00000128       __imp__memset              00768128     vcruntimed:VCRUNTIME140D.dll
 0005:0000012c       __imp__memchr              0076812c     vcruntimed:VCRUNTIME140D.dll
 0005:00000130       __imp__memcmp              00768130     vcruntimed:VCRUNTIME140D.dll
 0005:00000134       __imp___setjmp3            00768134     vcruntimed:VCRUNTIME140D.dll
 0005:00000138       __imp__memmove             00768138     vcruntimed:VCRUNTIME140D.dll
 0005:0000013c       __imp__strchr              0076813c     vcruntimed:VCRUNTIME140D.dll
 0005:00000140       __imp____std_type_info_destroy_list 00768140     vcruntimed:VCRUNTIME140D.dll
 0005:00000144       __imp__longjmp             00768144     vcruntimed:VCRUNTIME140D.dll
 0005:00000148       \177VCRUNTIME140D_NULL_THUNK_DATA 00768148     vcruntimed:VCRUNTIME140D.dll
 0005:0000017c       __imp__waveOutRestart@4    0076817c     winmm:WINMM.dll
 0005:00000180       __imp__waveOutPause@4      00768180     winmm:WINMM.dll
 0005:00000184       __imp__waveOutWrite@12     00768184     winmm:WINMM.dll
 0005:00000188       __imp__waveOutUnprepareHeader@12 00768188     winmm:WINMM.dll
 0005:0000018c       __imp__waveOutPrepareHeader@12 0076818c     winmm:WINMM.dll
 0005:00000190       __imp__waveOutReset@4      00768190     winmm:WINMM.dll
 0005:00000194       __imp__waveOutOpen@24      00768194     winmm:WINMM.dll
 0005:00000198       __imp__waveOutSetVolume@8  00768198     winmm:WINMM.dll
 0005:0000019c       __imp__waveOutGetVolume@8  0076819c     winmm:WINMM.dll
 0005:000001a0       __imp__waveOutGetDevCapsA@12 007681a0     winmm:WINMM.dll
 0005:000001a4       __imp__waveOutGetNumDevs@0 007681a4     winmm:WINMM.dll
 0005:000001a8       __imp__waveInGetErrorTextA@12 007681a8     winmm:WINMM.dll
 0005:000001ac       __imp__waveOutGetErrorTextA@12 007681ac     winmm:WINMM.dll
 0005:000001b0       __imp__waveInGetNumDevs@0  007681b0     winmm:WINMM.dll
 0005:000001b4       __imp__waveInReset@4       007681b4     winmm:WINMM.dll
 0005:000001b8       __imp__waveInStop@4        007681b8     winmm:WINMM.dll
 0005:000001bc       __imp__waveInStart@4       007681bc     winmm:WINMM.dll
 0005:000001c0       __imp__waveInAddBuffer@12  007681c0     winmm:WINMM.dll
 0005:000001c4       __imp__waveInUnprepareHeader@12 007681c4     winmm:WINMM.dll
 0005:000001c8       __imp__waveInPrepareHeader@12 007681c8     winmm:WINMM.dll
 0005:000001cc       __imp__waveInClose@4       007681cc     winmm:WINMM.dll
 0005:000001d0       __imp__waveInOpen@24       007681d0     winmm:WINMM.dll
 0005:000001d4       __imp__waveOutClose@4      007681d4     winmm:WINMM.dll
 0005:000001d8       __imp__waveInGetDevCapsA@12 007681d8     winmm:WINMM.dll
 0005:000001dc       \177WINMM_NULL_THUNK_DATA  007681dc     winmm:WINMM.dll
 0005:00000218       __imp__sendto@24           00768218     ws2_32:WS2_32.dll
 0005:0000021c       __imp__send@16             0076821c     ws2_32:WS2_32.dll
 0005:00000220       __imp__recvfrom@24         00768220     ws2_32:WS2_32.dll
 0005:00000224       __imp__setsockopt@20       00768224     ws2_32:WS2_32.dll
 0005:00000228       __imp__gethostname@8       00768228     ws2_32:WS2_32.dll
 0005:0000022c       __imp__recv@16             0076822c     ws2_32:WS2_32.dll
 0005:00000230       __imp__ntohs@4             00768230     ws2_32:WS2_32.dll
 0005:00000234       __imp__ntohl@4             00768234     ws2_32:WS2_32.dll
 0005:00000238       __imp__listen@8            00768238     ws2_32:WS2_32.dll
 0005:0000023c       __imp__inet_ntoa@4         0076823c     ws2_32:WS2_32.dll
 0005:00000240       __imp__inet_addr@4         00768240     ws2_32:WS2_32.dll
 0005:00000244       __imp__htons@4             00768244     ws2_32:WS2_32.dll
 0005:00000248       __imp__htonl@4             00768248     ws2_32:WS2_32.dll
 0005:0000024c       __imp__getsockopt@20       0076824c     ws2_32:WS2_32.dll
 0005:00000250       __imp__getsockname@12      00768250     ws2_32:WS2_32.dll
 0005:00000254       __imp__getpeername@12      00768254     ws2_32:WS2_32.dll
 0005:00000258       __imp__connect@12          00768258     ws2_32:WS2_32.dll
 0005:0000025c       __imp__closesocket@4       0076825c     ws2_32:WS2_32.dll
 0005:00000260       __imp__bind@12             00768260     ws2_32:WS2_32.dll
 0005:00000264       __imp__accept@12           00768264     ws2_32:WS2_32.dll
 0005:00000268       __imp__WSAGetLastError@0   00768268     ws2_32:WS2_32.dll
 0005:0000026c       __imp__WSACleanup@0        0076826c     ws2_32:WS2_32.dll
 0005:00000270       __imp__WSAStartup@8        00768270     ws2_32:WS2_32.dll
 0005:00000274       __imp__WSAIoctl@36         00768274     ws2_32:WS2_32.dll
 0005:00000278       __imp__WSASocketA@24       00768278     ws2_32:WS2_32.dll
 0005:0000027c       __imp__WSAAddressToStringA@20 0076827c     ws2_32:WS2_32.dll
 0005:00000280       __imp__WSAStringToAddressA@20 00768280     ws2_32:WS2_32.dll
 0005:00000284       __imp__ioctlsocket@12      00768284     ws2_32:WS2_32.dll
 0005:00000288       __imp__WSASetLastError@4   00768288     ws2_32:WS2_32.dll
 0005:0000028c       __imp__gethostbyname@4     0076828c     ws2_32:WS2_32.dll
 0005:00000290       __imp____WSAFDIsSet@8      00768290     ws2_32:WS2_32.dll
 0005:00000294       __imp__select@20           00768294     ws2_32:WS2_32.dll
 0005:00000298       __imp__shutdown@8          00768298     ws2_32:WS2_32.dll
 0005:0000029c       \177WS2_32_NULL_THUNK_DATA 0076829c     ws2_32:WS2_32.dll
 0005:000002e0       __imp__CoCreateGuid@4      007682e0     ole32:ole32.dll
 0005:000002e4       \177ole32_NULL_THUNK_DATA  007682e4     ole32:ole32.dll
 0005:00000310       __imp__strcpy              00768310     ucrtd:ucrtbased.dll
 0005:00000314       __imp____acrt_iob_func     00768314     ucrtd:ucrtbased.dll
 0005:00000318       __imp__fclose              00768318     ucrtd:ucrtbased.dll
 0005:0000031c       __imp__fflush              0076831c     ucrtd:ucrtbased.dll
 0005:00000320       __imp__fgets               00768320     ucrtd:ucrtbased.dll
 0005:00000324       __imp__fopen               00768324     ucrtd:ucrtbased.dll
 0005:00000328       __imp__fwrite              00768328     ucrtd:ucrtbased.dll
 0005:0000032c       __imp__puts                0076832c     ucrtd:ucrtbased.dll
 0005:00000330       __imp____stdio_common_vfprintf 00768330     ucrtd:ucrtbased.dll
 0005:00000334       __imp____stdio_common_vsprintf 00768334     ucrtd:ucrtbased.dll
 0005:00000338       __imp__atoi                00768338     ucrtd:ucrtbased.dll
 0005:0000033c       __imp___wassert            0076833c     ucrtd:ucrtbased.dll
 0005:00000340       __imp__strlen              00768340     ucrtd:ucrtbased.dll
 0005:00000344       __imp__isdigit             00768344     ucrtd:ucrtbased.dll
 0005:00000348       __imp__strncpy             00768348     ucrtd:ucrtbased.dll
 0005:0000034c       __imp__toupper             0076834c     ucrtd:ucrtbased.dll
 0005:00000350       __imp__tolower             00768350     ucrtd:ucrtbased.dll
 0005:00000354       __imp___strnicmp           00768354     ucrtd:ucrtbased.dll
 0005:00000358       __imp__isspace             00768358     ucrtd:ucrtbased.dll
 0005:0000035c       __imp___stricmp            0076835c     ucrtd:ucrtbased.dll
 0005:00000360       __imp__strcat              00768360     ucrtd:ucrtbased.dll
 0005:00000364       __imp__cos                 00768364     ucrtd:ucrtbased.dll
 0005:00000368       __imp__strcmp              00768368     ucrtd:ucrtbased.dll
 0005:0000036c       __imp__strncmp             0076836c     ucrtd:ucrtbased.dll
 0005:00000370       __imp__isxdigit            00768370     ucrtd:ucrtbased.dll
 0005:00000374       __imp__srand               00768374     ucrtd:ucrtbased.dll
 0005:00000378       __imp__rand                00768378     ucrtd:ucrtbased.dll
 0005:0000037c       __imp__free                0076837c     ucrtd:ucrtbased.dll
 0005:00000380       __imp__malloc              00768380     ucrtd:ucrtbased.dll
 0005:00000384       __imp__fmod                00768384     ucrtd:ucrtbased.dll
 0005:00000388       __imp____stdio_common_vsscanf 00768388     ucrtd:ucrtbased.dll
 0005:0000038c       __imp__clock               0076838c     ucrtd:ucrtbased.dll
 0005:00000390       __imp__exit                00768390     ucrtd:ucrtbased.dll
 0005:00000394       __imp___seh_filter_exe     00768394     ucrtd:ucrtbased.dll
 0005:00000398       __imp___set_app_type       00768398     ucrtd:ucrtbased.dll
 0005:0000039c       __imp____setusermatherr    0076839c     ucrtd:ucrtbased.dll
 0005:000003a0       __imp___configure_narrow_argv 007683a0     ucrtd:ucrtbased.dll
 0005:000003a4       __imp___initialize_narrow_environment 007683a4     ucrtd:ucrtbased.dll
 0005:000003a8       __imp___get_initial_narrow_environment 007683a8     ucrtd:ucrtbased.dll
 0005:000003ac       __imp___initterm           007683ac     ucrtd:ucrtbased.dll
 0005:000003b0       __imp___initterm_e         007683b0     ucrtd:ucrtbased.dll
 0005:000003b4       __imp___exit               007683b4     ucrtd:ucrtbased.dll
 0005:000003b8       __imp___set_fmode          007683b8     ucrtd:ucrtbased.dll
 0005:000003bc       __imp____p___argc          007683bc     ucrtd:ucrtbased.dll
 0005:000003c0       __imp____p___argv          007683c0     ucrtd:ucrtbased.dll
 0005:000003c4       __imp___cexit              007683c4     ucrtd:ucrtbased.dll
 0005:000003c8       __imp___c_exit             007683c8     ucrtd:ucrtbased.dll
 0005:000003cc       __imp___register_thread_local_exe_atexit_callback 007683cc     ucrtd:ucrtbased.dll
 0005:000003d0       __imp___configthreadlocale 007683d0     ucrtd:ucrtbased.dll
 0005:000003d4       __imp___set_new_mode       007683d4     ucrtd:ucrtbased.dll
 0005:000003d8       __imp____p__commode        007683d8     ucrtd:ucrtbased.dll
 0005:000003dc       __imp___except1            007683dc     ucrtd:ucrtbased.dll
 0005:000003e0       __imp___seh_filter_dll     007683e0     ucrtd:ucrtbased.dll
 0005:000003e4       __imp___initialize_onexit_table 007683e4     ucrtd:ucrtbased.dll
 0005:000003e8       __imp___register_onexit_function 007683e8     ucrtd:ucrtbased.dll
 0005:000003ec       __imp___execute_onexit_table 007683ec     ucrtd:ucrtbased.dll
 0005:000003f0       __imp___crt_atexit         007683f0     ucrtd:ucrtbased.dll
 0005:000003f4       __imp___crt_at_quick_exit  007683f4     ucrtd:ucrtbased.dll
 0005:000003f8       __imp___controlfp_s        007683f8     ucrtd:ucrtbased.dll
 0005:000003fc       __imp__terminate           007683fc     ucrtd:ucrtbased.dll
 0005:00000400       \177ucrtbased_NULL_THUNK_DATA 00768400     ucrtd:ucrtbased.dll
 0005:0000045c       __IMPORT_DESCRIPTOR_ole32  0076845c     ole32:ole32.dll
 0005:00000470       __IMPORT_DESCRIPTOR_WS2_32 00768470     ws2_32:WS2_32.dll
 0005:00000484       __IMPORT_DESCRIPTOR_WINMM  00768484     winmm:WINMM.dll
 0005:00000498       __IMPORT_DESCRIPTOR_KERNEL32 00768498     kernel32:KERNEL32.dll
 0005:000004ac       __IMPORT_DESCRIPTOR_VCRUNTIME140D 007684ac     vcruntimed:VCRUNTIME140D.dll
 0005:000004c0       __IMPORT_DESCRIPTOR_ucrtbased 007684c0     ucrtd:ucrtbased.dll
 0005:000004d4       __NULL_IMPORT_DESCRIPTOR   007684d4     ole32:ole32.dll
 0006:00000000       ___guard_check_icall_fptr  0076a000     MSVCRTD:guard_support.obj

 entry point at        0002:00001a0e

 Static symbols

 0000:ffc8c000       .debug$S                   00400000     winmm:WINMM.dll
 0000:ffc8c000       .debug$S                   00400000     ucrtd:ucrtbased.dll
 0000:ffc8c000       .debug$S                   00400000     ucrtd:ucrtbased.dll
 0000:ffc8c000       .debug$S                   00400000     ucrtd:ucrtbased.dll
 0000:ffc8c000       .debug$S                   00400000     ucrtd:ucrtbased.dll
 0000:ffc8c000       .debug$S                   00400000     ucrtd:ucrtbased.dll
 0000:ffc8c000       .debug$S                   00400000     ucrtd:ucrtbased.dll
 0000:ffc8c000       .debug$S                   00400000     ucrtd:ucrtbased.dll
 0000:ffc8c000       .debug$S                   00400000     ucrtd:ucrtbased.dll
 0000:ffc8c000       .debug$S                   00400000     ucrtd:ucrtbased.dll
 0000:ffc8c000       .debug$S                   00400000     ucrtd:ucrtbased.dll
 0000:ffc8c000       .debug$S                   00400000     ucrtd:ucrtbased.dll
 0000:ffc8c000       .debug$S                   00400000     ucrtd:ucrtbased.dll
 0000:ffc8c000       .debug$S                   00400000     ucrtd:ucrtbased.dll
 0000:ffc8c000       .debug$S                   00400000     ucrtd:ucrtbased.dll
 0000:ffc8c000       .debug$S                   00400000     ucrtd:ucrtbased.dll
 0000:ffc8c000       .debug$S                   00400000     ucrtd:ucrtbased.dll
 0000:ffc8c000       .debug$S                   00400000     ucrtd:ucrtbased.dll
 0000:ffc8c000       .debug$S                   00400000     ucrtd:ucrtbased.dll
 0000:ffc8c000       .debug$S                   00400000     ucrtd:ucrtbased.dll
 0000:ffc8c000       .debug$S                   00400000     ucrtd:ucrtbased.dll
 0000:ffc8c000       .debug$S                   00400000     ucrtd:ucrtbased.dll
 0000:ffc8c000       .debug$S                   00400000     ucrtd:ucrtbased.dll
 0000:ffc8c000       .debug$S                   00400000     ucrtd:ucrtbased.dll
 0000:ffc8c000       .debug$S                   00400000     ucrtd:ucrtbased.dll
 0000:ffc8c000       .debug$S                   00400000     ucrtd:ucrtbased.dll
 0000:ffc8c000       .debug$S                   00400000     ucrtd:ucrtbased.dll
 0000:ffc8c000       .debug$S                   00400000     ucrtd:ucrtbased.dll
 0000:ffc8c000       .debug$S                   00400000     ucrtd:ucrtbased.dll
 0000:ffc8c000       .debug$S                   00400000     ucrtd:ucrtbased.dll
 0000:ffc8c000       .debug$S                   00400000     ucrtd:ucrtbased.dll
 0000:ffc8c000       .debug$S                   00400000     ucrtd:ucrtbased.dll
 0000:ffc8c000       .debug$S                   00400000     ucrtd:ucrtbased.dll
 0000:ffc8c000       .debug$S                   00400000     ucrtd:ucrtbased.dll
 0000:ffc8c000       .debug$S                   00400000     ucrtd:ucrtbased.dll
 0000:ffc8c000       .debug$S                   00400000     ucrtd:ucrtbased.dll
 0000:ffc8c000       .debug$S                   00400000     ucrtd:ucrtbased.dll
 0000:ffc8c000       .debug$S                   00400000     ucrtd:ucrtbased.dll
 0000:ffc8c000       .debug$S                   00400000     ucrtd:ucrtbased.dll
 0000:ffc8c000       .debug$S                   00400000     ucrtd:ucrtbased.dll
 0000:ffc8c000       .debug$S                   00400000     ucrtd:ucrtbased.dll
 0000:ffc8c000       .debug$S                   00400000     ucrtd:ucrtbased.dll
 0000:ffc8c000       .debug$S                   00400000     ucrtd:ucrtbased.dll
 0000:ffc8c000       .debug$S                   00400000     ucrtd:ucrtbased.dll
 0000:ffc8c000       .debug$S                   00400000     ucrtd:ucrtbased.dll
 0000:ffc8c000       .debug$S                   00400000     ucrtd:ucrtbased.dll
 0000:ffc8c000       .debug$S                   00400000     ucrtd:ucrtbased.dll
 0000:ffc8c000       .debug$S                   00400000     ucrtd:ucrtbased.dll
 0000:ffc8c000       .debug$S                   00400000     ucrtd:ucrtbased.dll
 0000:ffc8c000       .debug$S                   00400000     ucrtd:ucrtbased.dll
 0000:ffc8c000       .debug$S                   00400000     ucrtd:ucrtbased.dll
 0000:ffc8c000       .debug$S                   00400000     ucrtd:ucrtbased.dll
 0000:ffc8c000       .debug$S                   00400000     ucrtd:ucrtbased.dll
 0000:ffc8c000       .debug$S                   00400000     ucrtd:ucrtbased.dll
 0000:ffc8c000       .debug$S                   00400000     ucrtd:ucrtbased.dll
 0000:ffc8c000       .debug$S                   00400000     ucrtd:ucrtbased.dll
 0000:ffc8c000       .debug$S                   00400000     ucrtd:ucrtbased.dll
 0000:ffc8c000       .debug$S                   00400000     ucrtd:ucrtbased.dll
 0000:ffc8c000       .debug$S                   00400000     ucrtd:ucrtbased.dll
 0000:ffc8c000       .debug$S                   00400000     ucrtd:ucrtbased.dll
 0000:ffc8c000       .debug$S                   00400000     ucrtd:ucrtbased.dll
 0000:ffc8c000       .debug$S                   00400000     ws2_32:WS2_32.dll
 0000:ffc8c000       .debug$S                   00400000     vcruntimed:VCRUNTIME140D.dll
 0000:ffc8c000       .debug$S                   00400000     vcruntimed:VCRUNTIME140D.dll
 0000:ffc8c000       .debug$S                   00400000     vcruntimed:VCRUNTIME140D.dll
 0000:ffc8c000       .debug$S                   00400000     vcruntimed:VCRUNTIME140D.dll
 0000:ffc8c000       .debug$S                   00400000     vcruntimed:VCRUNTIME140D.dll
 0000:ffc8c000       .debug$S                   00400000     vcruntimed:VCRUNTIME140D.dll
 0000:ffc8c000       .debug$S                   00400000     vcruntimed:VCRUNTIME140D.dll
 0000:ffc8c000       .debug$S                   00400000     vcruntimed:VCRUNTIME140D.dll
 0000:ffc8c000       .debug$S                   00400000     vcruntimed:VCRUNTIME140D.dll
 0000:ffc8c000       .debug$S                   00400000     vcruntimed:VCRUNTIME140D.dll
 0000:ffc8c000       .debug$S                   00400000     ws2_32:WS2_32.dll
 0000:ffc8c000       .debug$S                   00400000     kernel32:KERNEL32.dll
 0000:ffc8c000       .debug$S                   00400000     kernel32:KERNEL32.dll
 0000:ffc8c000       .debug$S                   00400000     kernel32:KERNEL32.dll
 0000:ffc8c000       .debug$S                   00400000     kernel32:KERNEL32.dll
 0000:ffc8c000       .debug$S                   00400000     kernel32:KERNEL32.dll
 0000:ffc8c000       .debug$S                   00400000     kernel32:KERNEL32.dll
 0000:ffc8c000       .debug$S                   00400000     kernel32:KERNEL32.dll
 0000:ffc8c000       .debug$S                   00400000     kernel32:KERNEL32.dll
 0000:ffc8c000       .debug$S                   00400000     kernel32:KERNEL32.dll
 0000:ffc8c000       .debug$S                   00400000     kernel32:KERNEL32.dll
 0000:ffc8c000       .debug$S                   00400000     kernel32:KERNEL32.dll
 0000:ffc8c000       .debug$S                   00400000     kernel32:KERNEL32.dll
 0000:ffc8c000       .debug$S                   00400000     kernel32:KERNEL32.dll
 0000:ffc8c000       .debug$S                   00400000     kernel32:KERNEL32.dll
 0000:ffc8c000       .debug$S                   00400000     kernel32:KERNEL32.dll
 0000:ffc8c000       .debug$S                   00400000     kernel32:KERNEL32.dll
 0000:ffc8c000       .debug$S                   00400000     kernel32:KERNEL32.dll
 0000:ffc8c000       .debug$S                   00400000     kernel32:KERNEL32.dll
 0000:ffc8c000       .debug$S                   00400000     kernel32:KERNEL32.dll
 0000:ffc8c000       .debug$S                   00400000     kernel32:KERNEL32.dll
 0000:ffc8c000       .debug$S                   00400000     kernel32:KERNEL32.dll
 0000:ffc8c000       .debug$S                   00400000     kernel32:KERNEL32.dll
 0000:ffc8c000       .debug$S                   00400000     kernel32:KERNEL32.dll
 0000:ffc8c000       .debug$S                   00400000     kernel32:KERNEL32.dll
 0000:ffc8c000       .debug$S                   00400000     kernel32:KERNEL32.dll
 0000:ffc8c000       .debug$S                   00400000     kernel32:KERNEL32.dll
 0000:ffc8c000       .debug$S                   00400000     kernel32:KERNEL32.dll
 0000:ffc8c000       .debug$S                   00400000     kernel32:KERNEL32.dll
 0000:ffc8c000       .debug$S                   00400000     kernel32:KERNEL32.dll
 0000:ffc8c000       .debug$S                   00400000     kernel32:KERNEL32.dll
 0000:ffc8c000       .debug$S                   00400000     kernel32:KERNEL32.dll
 0000:ffc8c000       .debug$S                   00400000     kernel32:KERNEL32.dll
 0000:ffc8c000       .debug$S                   00400000     kernel32:KERNEL32.dll
 0000:ffc8c000       .debug$S                   00400000     kernel32:KERNEL32.dll
 0000:ffc8c000       .debug$S                   00400000     kernel32:KERNEL32.dll
 0000:ffc8c000       .debug$S                   00400000     kernel32:KERNEL32.dll
 0000:ffc8c000       .debug$S                   00400000     kernel32:KERNEL32.dll
 0000:ffc8c000       .debug$S                   00400000     kernel32:KERNEL32.dll
 0000:ffc8c000       .debug$S                   00400000     kernel32:KERNEL32.dll
 0000:ffc8c000       .debug$S                   00400000     kernel32:KERNEL32.dll
 0000:ffc8c000       .debug$S                   00400000     kernel32:KERNEL32.dll
 0000:ffc8c000       .debug$S                   00400000     kernel32:KERNEL32.dll
 0000:ffc8c000       .debug$S                   00400000     kernel32:KERNEL32.dll
 0000:ffc8c000       .debug$S                   00400000     kernel32:KERNEL32.dll
 0000:ffc8c000       .debug$S                   00400000     kernel32:KERNEL32.dll
 0000:ffc8c000       .debug$S                   00400000     kernel32:KERNEL32.dll
 0000:ffc8c000       .debug$S                   00400000     kernel32:KERNEL32.dll
 0000:ffc8c000       .debug$S                   00400000     kernel32:KERNEL32.dll
 0000:ffc8c000       .debug$S                   00400000     kernel32:KERNEL32.dll
 0000:ffc8c000       .debug$S                   00400000     kernel32:KERNEL32.dll
 0000:ffc8c000       .debug$S                   00400000     kernel32:KERNEL32.dll
 0000:ffc8c000       .debug$S                   00400000     ole32:ole32.dll
 0000:ffc8c000       .debug$S                   00400000     winmm:WINMM.dll
 0000:ffc8c000       .debug$S                   00400000     winmm:WINMM.dll
 0000:ffc8c000       .debug$S                   00400000     winmm:WINMM.dll
 0000:ffc8c000       .debug$S                   00400000     winmm:WINMM.dll
 0000:ffc8c000       .debug$S                   00400000     ws2_32:WS2_32.dll
 0000:ffc8c000       .debug$S                   00400000     winmm:WINMM.dll
 0000:ffc8c000       .debug$S                   00400000     winmm:WINMM.dll
 0000:ffc8c000       .debug$S                   00400000     winmm:WINMM.dll
 0000:ffc8c000       .debug$S                   00400000     winmm:WINMM.dll
 0000:ffc8c000       .debug$S                   00400000     winmm:WINMM.dll
 0000:ffc8c000       .debug$S                   00400000     winmm:WINMM.dll
 0000:ffc8c000       .debug$S                   00400000     winmm:WINMM.dll
 0000:ffc8c000       .debug$S                   00400000     winmm:WINMM.dll
 0000:ffc8c000       .debug$S                   00400000     winmm:WINMM.dll
 0000:ffc8c000       .debug$S                   00400000     winmm:WINMM.dll
 0000:ffc8c000       .debug$S                   00400000     winmm:WINMM.dll
 0000:ffc8c000       .debug$S                   00400000     winmm:WINMM.dll
 0000:ffc8c000       .debug$S                   00400000     winmm:WINMM.dll
 0000:ffc8c000       .debug$S                   00400000     winmm:WINMM.dll
 0000:ffc8c000       .debug$S                   00400000     winmm:WINMM.dll
 0000:ffc8c000       .debug$S                   00400000     winmm:WINMM.dll
 0000:ffc8c000       .debug$S                   00400000     winmm:WINMM.dll
 0000:ffc8c000       .debug$S                   00400000     winmm:WINMM.dll
 0000:ffc8c000       .debug$S                   00400000     winmm:WINMM.dll
 0000:ffc96000       __guard_fids___guard_icall_checks_enforced 00400000     MSVCRTD:guard_support.obj
 0000:ffc96000       __guard_fids__             00400000     MSVCRTD:guard_support.obj
 0000:ffc96000       __guard_fids___except_handler4 00400000     MSVCRTD:chandler4gs.obj
 0000:ffc96000       __guard_fids____scrt_set_unhandled_exception_filter 00400000     MSVCRTD:utility_desktop.obj
 0000:ffc8c000       .debug$S                   00400000     ws2_32:WS2_32.dll
 0000:ffc8c000       .debug$S                   00400000     ws2_32:WS2_32.dll
 0000:ffc96000       __guard_fids__             00400000     MSVCRTD:exe_main.obj
 0000:ffc8c000       .debug$S                   00400000     ws2_32:WS2_32.dll
 0000:ffc8c000       .debug$S                   00400000     ws2_32:WS2_32.dll
 0000:ffc8c000       .debug$S                   00400000     ws2_32:WS2_32.dll
 0000:ffc8c000       .debug$S                   00400000     ws2_32:WS2_32.dll
 0000:ffc8c000       .debug$S                   00400000     ws2_32:WS2_32.dll
 0000:ffc8c000       .debug$S                   00400000     ws2_32:WS2_32.dll
 0000:ffc8c000       .debug$S                   00400000     ws2_32:WS2_32.dll
 0000:ffc8c000       .debug$S                   00400000     ws2_32:WS2_32.dll
 0000:ffc8c000       .debug$S                   00400000     ws2_32:WS2_32.dll
 0000:ffc8c000       .debug$S                   00400000     ws2_32:WS2_32.dll
 0000:ffc8c000       .debug$S                   00400000     ws2_32:WS2_32.dll
 0000:ffc8c000       .debug$S                   00400000     ws2_32:WS2_32.dll
 0000:ffc8c000       .debug$S                   00400000     ws2_32:WS2_32.dll
 0000:ffc8c000       .debug$S                   00400000     ws2_32:WS2_32.dll
 0000:ffc8c000       .debug$S                   00400000     ws2_32:WS2_32.dll
 0000:ffc8c000       .debug$S                   00400000     ws2_32:WS2_32.dll
 0000:ffc8c000       .debug$S                   00400000     ws2_32:WS2_32.dll
 0000:ffc8c000       .debug$S                   00400000     ws2_32:WS2_32.dll
 0000:ffc8c000       .debug$S                   00400000     ws2_32:WS2_32.dll
 0000:ffc8c000       .debug$S                   00400000     ws2_32:WS2_32.dll
 0000:ffc8c000       .debug$S                   00400000     ws2_32:WS2_32.dll
 0000:ffc96000       __guard_fids_?pre_c_initialization@@YAHXZ 00400000     MSVCRTD:exe_main.obj
 0000:ffc8c000       .debug$S                   00400000     ws2_32:WS2_32.dll
 0000:ffc8c000       .debug$S                   00400000     ws2_32:WS2_32.dll
 0000:ffc8c000       .debug$S                   00400000     ws2_32:WS2_32.dll
 0000:ffc8c000       .debug$S                   00400000     ws2_32:WS2_32.dll
 0000:ffc8c000       .debug$S                   00400000     ws2_32:WS2_32.dll
 0000:ffc8c000       .debug$S                   00400000     ws2_32:WS2_32.dll
 0000:ffc8c000       .debug$S                   00400000     ws2_32:WS2_32.dll
 0000:ffc96004       __guard_fids__             00400004     MSVCRTD:exe_main.obj
 0000:ffc96008       __guard_fids__             00400008     MSVCRTD:exe_main.obj
 0002:00003870       _pj_pool_zalloc            00456870 f   siprtp.obj
 0002:00003890       _pj_bzero                  00456890 f   siprtp.obj
 0002:000038b0       _pj_memcpy                 004568b0 f   siprtp.obj
 0002:000038d0       _pjmedia_transport_info_init 004568d0 f   siprtp.obj
 0002:00003900       _pjmedia_transport_get_info 00456900 f   siprtp.obj
 0002:00003940       _pjmedia_transport_attach  00456940 f   siprtp.obj
 0002:00003a00       _pjmedia_transport_detach  00456a00 f   siprtp.obj
 0002:00003a20       _pjmedia_transport_send_rtp 00456a20 f   siprtp.obj
 0002:00003a40       _pjmedia_transport_send_rtcp 00456a40 f   siprtp.obj
 0002:00003a60       _pjmedia_transport_media_start 00456a60 f   siprtp.obj
 0002:00003a90       _pjmedia_transport_close   00456a90 f   siprtp.obj
 0002:00003ac0       _pjmedia_endpt_create      00456ac0 f   siprtp.obj
 0002:00003b10       _pjmedia_endpt_destroy     00456b10 f   siprtp.obj
 0002:00003b30       _call_on_media_update      00456b30 f   siprtp.obj
 0002:00003e20       _call_on_state_changed     00456e20 f   siprtp.obj
 0002:000040d0       _call_on_forked            004570d0 f   siprtp.obj
 0002:000040e0       _on_rx_request             004570e0 f   siprtp.obj
 0002:00004160       _sip_worker_thread         00457160 f   siprtp.obj
 0002:000041a0       _create_sdp                004571a0 f   siprtp.obj
 0002:000046e0       _hangup_call               004576e0 f   siprtp.obj
 0002:00004750       _destroy_call_media        00457750 f   siprtp.obj
 0002:000047f0       _destroy_media             004577f0 f   siprtp.obj
 0002:00004890       _on_rx_rtp                 00457890 f   siprtp.obj
 0002:00004970       _on_rx_rtcp                00457970 f   siprtp.obj
 0002:000049d0       _app_perror                004579d0 f   siprtp.obj
 0002:00004a30       _print_call                00457a30 f   siprtp.obj
 0002:00005810       _init_sip                  00458810 f   siprtp.obj
 0002:00005bc0       _destroy_sip               00458bc0 f   siprtp.obj
 0002:00005c60       _init_media                00458c60 f   siprtp.obj
 0002:00005df0       _make_call                 00458df0 f   siprtp.obj
 0002:00005fa0       _process_incoming_call     00458fa0 f   siprtp.obj
 0002:000062a0       _timer_disconnect_call     004592a0 f   siprtp.obj
 0002:000062d0       _init_options              004592d0 f   siprtp.obj
 0002:0000684c       $LN32                      0045984c     siprtp.obj
 0002:00006894       $LN31                      00459894     siprtp.obj
 0002:00006910       _boost_priority            00459910 f   siprtp.obj
 0002:00006940       _media_thread              00459940 f   siprtp.obj
 0002:00006eb0       _call_get_duration         00459eb0 f   siprtp.obj
 0002:00006f50       _good_number               00459f50 f   siprtp.obj
 0002:00006ff0       _print_avg_stat            00459ff0 f   siprtp.obj
 0002:00007ed0       _list_calls                0045aed0 f   siprtp.obj
 0002:00007f30       _hangup_all_calls          0045af30 f   siprtp.obj
 0002:00007fc0       _simple_input              0045afc0 f   siprtp.obj
 0002:00008070       _console_main              0045b070 f   siprtp.obj
 0002:000081b4       $LN17                      0045b1b4     siprtp.obj
 0002:000081cc       $LN16                      0045b1cc     siprtp.obj
 0002:00008200       _logger_on_rx_msg          0045b200 f   siprtp.obj
 0002:00008260       _logger_on_tx_msg          0045b260 f   siprtp.obj
 0002:000082d0       _app_log_writer            0045b2d0 f   siprtp.obj
 0002:00009b50       _mod_inv_load              0045cb50 f   pjsip-ua-i386-win32-vc8-debug-dynamic:sip_inv.obj
 0002:00009c30       _mod_inv_unload            0045cc30 f   pjsip-ua-i386-win32-vc8-debug-dynamic:sip_inv.obj
 0002:00009c50       _mod_inv_on_rx_request     0045cc50 f   pjsip-ua-i386-win32-vc8-debug-dynamic:sip_inv.obj
 0002:00009ed0       _mod_inv_on_rx_response    0045ced0 f   pjsip-ua-i386-win32-vc8-debug-dynamic:sip_inv.obj
 0002:00009fe0       _mod_inv_on_tsx_state      0045cfe0 f   pjsip-ua-i386-win32-vc8-debug-dynamic:sip_inv.obj
 0002:0000a140       _inv_on_state_null         0045d140 f   pjsip-ua-i386-win32-vc8-debug-dynamic:sip_inv.obj
 0002:0000a3a0       _inv_on_state_calling      0045d3a0 f   pjsip-ua-i386-win32-vc8-debug-dynamic:sip_inv.obj
 0002:0000a73c       $LN41                      0045d73c     pjsip-ua-i386-win32-vc8-debug-dynamic:sip_inv.obj
 0002:0000a850       _inv_on_state_incoming     0045d850 f   pjsip-ua-i386-win32-vc8-debug-dynamic:sip_inv.obj
 0002:0000aa04       $LN24                      0045da04     pjsip-ua-i386-win32-vc8-debug-dynamic:sip_inv.obj
 0002:0000aa90       _inv_on_state_early        0045da90 f   pjsip-ua-i386-win32-vc8-debug-dynamic:sip_inv.obj
 0002:0000afe0       $LN55                      0045dfe0     pjsip-ua-i386-win32-vc8-debug-dynamic:sip_inv.obj
 0002:0000b150       _inv_on_state_connecting   0045e150 f   pjsip-ua-i386-win32-vc8-debug-dynamic:sip_inv.obj
 0002:0000b690       _inv_on_state_confirmed    0045e690 f   pjsip-ua-i386-win32-vc8-debug-dynamic:sip_inv.obj
 0002:0000c380       _inv_on_state_disconnected 0045f380 f   pjsip-ua-i386-win32-vc8-debug-dynamic:sip_inv.obj
 0002:0000c580       _cleanup_allow_sup_hdr     0045f580 f   pjsip-ua-i386-win32-vc8-debug-dynamic:sip_inv.obj
 0002:0000c6b0       _clone_sdp                 0045f6b0 f   pjsip-ua-i386-win32-vc8-debug-dynamic:sip_inv.obj
 0002:0000c6e0       _create_sdp_body           0045f6e0 f   pjsip-ua-i386-win32-vc8-debug-dynamic:sip_inv.obj
 0002:0000c740       _handle_timer_response     0045f740 f   pjsip-ua-i386-win32-vc8-debug-dynamic:sip_inv.obj
 0002:0000c7d0       _handle_uac_call_rejection 0045f7d0 f   pjsip-ua-i386-win32-vc8-debug-dynamic:sip_inv.obj
 0002:0000ca20       _handle_uac_tsx_response   0045fa20 f   pjsip-ua-i386-win32-vc8-debug-dynamic:sip_inv.obj
 0002:0000ccb0       _inv_check_sdp_in_incoming_msg 0045fcb0 f   pjsip-ua-i386-win32-vc8-debug-dynamic:sip_inv.obj
 0002:0000d4b0       _inv_check_secure_dlg      004604b0 f   pjsip-ua-i386-win32-vc8-debug-dynamic:sip_inv.obj
 0002:0000d8b0       _inv_handle_bye_response   004608b0 f   pjsip-ua-i386-win32-vc8-debug-dynamic:sip_inv.obj
 0002:0000da10       _inv_handle_incoming_reliable_response 00460a10 f   pjsip-ua-i386-win32-vc8-debug-dynamic:sip_inv.obj
 0002:0000dab0       _inv_handle_update_response 00460ab0 f   pjsip-ua-i386-win32-vc8-debug-dynamic:sip_inv.obj
 0002:0000de10       _inv_has_pending_answer    00460e10 f   pjsip-ua-i386-win32-vc8-debug-dynamic:sip_inv.obj
 0002:0000df20       _inv_negotiate_sdp         00460f20 f   pjsip-ua-i386-win32-vc8-debug-dynamic:sip_inv.obj
 0002:0000e070       _inv_perform_pending_bye   00461070 f   pjsip-ua-i386-win32-vc8-debug-dynamic:sip_inv.obj
 0002:0000e120       _inv_respond_incoming_bye  00461120 f   pjsip-ua-i386-win32-vc8-debug-dynamic:sip_inv.obj
 0002:0000e1d0       _inv_respond_incoming_cancel 004611d0 f   pjsip-ua-i386-win32-vc8-debug-dynamic:sip_inv.obj
 0002:0000e430       _inv_respond_incoming_prack 00461430 f   pjsip-ua-i386-win32-vc8-debug-dynamic:sip_inv.obj
 0002:0000e540       _inv_respond_incoming_update 00461540 f   pjsip-ua-i386-win32-vc8-debug-dynamic:sip_inv.obj
 0002:0000e8e0       _inv_send_ack              004618e0 f   pjsip-ua-i386-win32-vc8-debug-dynamic:sip_inv.obj
 0002:0000eb20       _inv_session_destroy       00461b20 f   pjsip-ua-i386-win32-vc8-debug-dynamic:sip_inv.obj
 0002:0000ec50       _inv_set_cause             00461c50 f   pjsip-ua-i386-win32-vc8-debug-dynamic:sip_inv.obj
 0002:0000ed10       _inv_set_state             00461d10 f   pjsip-ua-i386-win32-vc8-debug-dynamic:sip_inv.obj
 0002:0000ef00       _inv_uac_recurse           00461f00 f   pjsip-ua-i386-win32-vc8-debug-dynamic:sip_inv.obj
 0002:0000f0d8       $LN17                      004620d8     pjsip-ua-i386-win32-vc8-debug-dynamic:sip_inv.obj
 0002:0000f170       _pj_bzero                  00462170 f   pjsip-ua-i386-win32-vc8-debug-dynamic:sip_inv.obj
 0002:0000f1a0       _pj_list_empty             004621a0 f   pjsip-ua-i386-win32-vc8-debug-dynamic:sip_inv.obj
 0002:0000f1e0       _pj_list_init              004621e0 f   pjsip-ua-i386-win32-vc8-debug-dynamic:sip_inv.obj
 0002:0000f210       _pj_list_push_back         00462210 f   pjsip-ua-i386-win32-vc8-debug-dynamic:sip_inv.obj
 0002:0000f240       _pj_memcpy                 00462240 f   pjsip-ua-i386-win32-vc8-debug-dynamic:sip_inv.obj
 0002:0000f270       _pj_pool_zalloc            00462270 f   pjsip-ua-i386-win32-vc8-debug-dynamic:sip_inv.obj
 0002:0000f2a0       _pjsip_cfg                 004622a0 f   pjsip-ua-i386-win32-vc8-debug-dynamic:sip_inv.obj
 0002:0001057c       $LN36                      0046357c     pjsip-ua-i386-win32-vc8-debug-dynamic:sip_inv.obj
 0002:00011184       $LN29                      00464184     pjsip-ua-i386-win32-vc8-debug-dynamic:sip_inv.obj
 0002:00011500       $LN36                      00464500     pjsip-ua-i386-win32-vc8-debug-dynamic:sip_inv.obj
 0002:00013750       _pjsip_msg_add_hdr         00466750 f   pjsip-ua-i386-win32-vc8-debug-dynamic:sip_inv.obj
 0002:00013a30       _pjsip_uri_clone           00466a30 f   pjsip-ua-i386-win32-vc8-debug-dynamic:sip_inv.obj
 0002:00013a60       _pjsip_uri_get_scheme      00466a60 f   pjsip-ua-i386-win32-vc8-debug-dynamic:sip_inv.obj
 0002:00013a90       _pjsip_uri_get_uri         00466a90 f   pjsip-ua-i386-win32-vc8-debug-dynamic:sip_inv.obj
 0002:00013ac0       _pjsip_uri_print           00466ac0 f   pjsip-ua-i386-win32-vc8-debug-dynamic:sip_inv.obj
 0002:00013b00       _print_sdp                 00466b00 f   pjsip-ua-i386-win32-vc8-debug-dynamic:sip_inv.obj
 0002:00013b30       _process_answer            00466b30 f   pjsip-ua-i386-win32-vc8-debug-dynamic:sip_inv.obj
 0002:00013e20       _remove_val_from_array_hdr 00466e20 f   pjsip-ua-i386-win32-vc8-debug-dynamic:sip_inv.obj
 0002:00013ec0       _swap_pool                 00466ec0 f   pjsip-ua-i386-win32-vc8-debug-dynamic:sip_inv.obj
 0002:00013f00       _tx_data_has_sdp           00466f00 f   pjsip-ua-i386-win32-vc8-debug-dynamic:sip_inv.obj
 0002:00014060       _mod_100rel_load           00467060 f   pjsip-ua-i386-win32-vc8-debug-dynamic:sip_100rel.obj
 0002:000140d0       _clear_all_responses       004670d0 f   pjsip-ua-i386-win32-vc8-debug-dynamic:sip_100rel.obj
 0002:00014140       _find_req_hdr              00467140 f   pjsip-ua-i386-win32-vc8-debug-dynamic:sip_100rel.obj
 0002:00014200       _has_sdp                   00467200 f   pjsip-ua-i386-win32-vc8-debug-dynamic:sip_100rel.obj
 0002:00014270       _on_retransmit             00467270 f   pjsip-ua-i386-win32-vc8-debug-dynamic:sip_100rel.obj
 0002:000144e0       _parse_rack                004674e0 f   pjsip-ua-i386-win32-vc8-debug-dynamic:sip_100rel.obj
 0002:00014610       _pj_isdigit                00467610 f   pjsip-ua-i386-win32-vc8-debug-dynamic:sip_100rel.obj
 0002:00014640       _pj_list_empty             00467640 f   pjsip-ua-i386-win32-vc8-debug-dynamic:sip_100rel.obj
 0002:00014680       _pj_list_init              00467680 f   pjsip-ua-i386-win32-vc8-debug-dynamic:sip_100rel.obj
 0002:000146b0       _pj_list_push_back         004676b0 f   pjsip-ua-i386-win32-vc8-debug-dynamic:sip_100rel.obj
 0002:000146e0       _pj_pool_zalloc            004676e0 f   pjsip-ua-i386-win32-vc8-debug-dynamic:sip_100rel.obj
 0002:00015ab0       _pjsip_cfg                 00468ab0 f   pjsip-ua-i386-win32-vc8-debug-dynamic:sip_100rel.obj
 0002:00015af0       _pjsip_msg_add_hdr         00468af0 f   pjsip-ua-i386-win32-vc8-debug-dynamic:sip_100rel.obj
 0002:00015b20       _pjsip_uri_clone           00468b20 f   pjsip-ua-i386-win32-vc8-debug-dynamic:sip_100rel.obj
 0002:00015b50       _se_hdr_print              00468b50 f   pjsip-ua-i386-win32-vc8-debug-dynamic:sip_timer.obj
 0002:00015df0       _se_hdr_clone              00468df0 f   pjsip-ua-i386-win32-vc8-debug-dynamic:sip_timer.obj
 0002:00015e70       _se_hdr_shallow_clone      00468e70 f   pjsip-ua-i386-win32-vc8-debug-dynamic:sip_timer.obj
 0002:00015ee0       _min_se_hdr_print          00468ee0 f   pjsip-ua-i386-win32-vc8-debug-dynamic:sip_timer.obj
 0002:00016040       _min_se_hdr_clone          00469040 f   pjsip-ua-i386-win32-vc8-debug-dynamic:sip_timer.obj
 0002:000160a0       _min_se_hdr_shallow_clone  004690a0 f   pjsip-ua-i386-win32-vc8-debug-dynamic:sip_timer.obj
 0002:00016110       _add_timer_headers         00469110 f   pjsip-ua-i386-win32-vc8-debug-dynamic:sip_timer.obj
 0002:00016220       _parse_hdr_min_se          00469220 f   pjsip-ua-i386-win32-vc8-debug-dynamic:sip_timer.obj
 0002:00016350       _parse_hdr_se              00469350 f   pjsip-ua-i386-win32-vc8-debug-dynamic:sip_timer.obj
 0002:000164b0       _pj_bzero                  004694b0 f   pjsip-ua-i386-win32-vc8-debug-dynamic:sip_timer.obj
 0002:000164e0       _pj_list_init              004694e0 f   pjsip-ua-i386-win32-vc8-debug-dynamic:sip_timer.obj
 0002:00016510       _pj_list_push_back         00469510 f   pjsip-ua-i386-win32-vc8-debug-dynamic:sip_timer.obj
 0002:00016540       _pj_memcpy                 00469540 f   pjsip-ua-i386-win32-vc8-debug-dynamic:sip_timer.obj
 0002:00016570       _pj_pool_zalloc            00469570 f   pjsip-ua-i386-win32-vc8-debug-dynamic:sip_timer.obj
 0002:000165a0       _pjsip_cfg                 004695a0 f   pjsip-ua-i386-win32-vc8-debug-dynamic:sip_timer.obj
 0002:00016670       _pjsip_msg_add_hdr         00469670 f   pjsip-ua-i386-win32-vc8-debug-dynamic:sip_timer.obj
 0002:00016770       _pjsip_timer_deinit_module 00469770 f   pjsip-ua-i386-win32-vc8-debug-dynamic:sip_timer.obj
 0002:00017f90       _start_timer               0046af90 f   pjsip-ua-i386-win32-vc8-debug-dynamic:sip_timer.obj
 0002:000181d0       _stop_timer                0046b1d0 f   pjsip-ua-i386-win32-vc8-debug-dynamic:sip_timer.obj
 0002:00018280       _timer_cb                  0046b280 f   pjsip-ua-i386-win32-vc8-debug-dynamic:sip_timer.obj
 0002:000187d0       _pjsip_generic_string_hdr_print 0046b7d0 f   pjsip-core-i386-win32-vc8-debug-dynamic:sip_msg.obj
 0002:000188d0       _pjsip_generic_string_hdr_clone 0046b8d0 f   pjsip-core-i386-win32-vc8-debug-dynamic:sip_msg.obj
 0002:00018940       _pjsip_generic_string_hdr_shallow_clone 0046b940 f   pjsip-core-i386-win32-vc8-debug-dynamic:sip_msg.obj
 0002:00018990       _pjsip_generic_int_hdr_print 0046b990 f   pjsip-core-i386-win32-vc8-debug-dynamic:sip_msg.obj
 0002:00018a70       _pjsip_generic_int_hdr_clone 0046ba70 f   pjsip-core-i386-win32-vc8-debug-dynamic:sip_msg.obj
 0002:00018ac0       _pjsip_generic_int_hdr_shallow_clone 0046bac0 f   pjsip-core-i386-win32-vc8-debug-dynamic:sip_msg.obj
 0002:00018b10       _pjsip_generic_array_hdr_print 0046bb10 f   pjsip-core-i386-win32-vc8-debug-dynamic:sip_msg.obj
 0002:00018d50       _pjsip_generic_array_hdr_clone 0046bd50 f   pjsip-core-i386-win32-vc8-debug-dynamic:sip_msg.obj
 0002:00018df0       _pjsip_generic_array_hdr_shallow_clone 0046bdf0 f   pjsip-core-i386-win32-vc8-debug-dynamic:sip_msg.obj
 0002:00018e40       _pjsip_clen_hdr_print      0046be40 f   pjsip-core-i386-win32-vc8-debug-dynamic:sip_msg.obj
 0002:00018f30       _pjsip_clen_hdr_clone      0046bf30 f   pjsip-core-i386-win32-vc8-debug-dynamic:sip_msg.obj
 0002:00018f70       _pjsip_cseq_hdr_print      0046bf70 f   pjsip-core-i386-win32-vc8-debug-dynamic:sip_msg.obj
 0002:00019080       _pjsip_cseq_hdr_clone      0046c080 f   pjsip-core-i386-win32-vc8-debug-dynamic:sip_msg.obj
 0002:000190e0       _pjsip_cseq_hdr_shallow_clone 0046c0e0 f   pjsip-core-i386-win32-vc8-debug-dynamic:sip_msg.obj
 0002:00019130       _pjsip_contact_hdr_print   0046c130 f   pjsip-core-i386-win32-vc8-debug-dynamic:sip_msg.obj
 0002:00019520       _pjsip_contact_hdr_clone   0046c520 f   pjsip-core-i386-win32-vc8-debug-dynamic:sip_msg.obj
 0002:000195d0       _pjsip_contact_hdr_shallow_clone 0046c5d0 f   pjsip-core-i386-win32-vc8-debug-dynamic:sip_msg.obj
 0002:00019640       _pjsip_ctype_hdr_print     0046c640 f   pjsip-core-i386-win32-vc8-debug-dynamic:sip_msg.obj
 0002:00019750       _pjsip_ctype_hdr_clone     0046c750 f   pjsip-core-i386-win32-vc8-debug-dynamic:sip_msg.obj
 0002:000197e0       _pjsip_fromto_hdr_print    0046c7e0 f   pjsip-core-i386-win32-vc8-debug-dynamic:sip_msg.obj
 0002:00019a00       _pjsip_fromto_hdr_clone    0046ca00 f   pjsip-core-i386-win32-vc8-debug-dynamic:sip_msg.obj
 0002:00019ad0       _pjsip_fromto_hdr_shallow_clone 0046cad0 f   pjsip-core-i386-win32-vc8-debug-dynamic:sip_msg.obj
 0002:00019b40       _pjsip_routing_hdr_print   0046cb40 f   pjsip-core-i386-win32-vc8-debug-dynamic:sip_msg.obj
 0002:00019d90       _pjsip_routing_hdr_clone   0046cd90 f   pjsip-core-i386-win32-vc8-debug-dynamic:sip_msg.obj
 0002:00019e40       _pjsip_routing_hdr_shallow_clone 0046ce40 f   pjsip-core-i386-win32-vc8-debug-dynamic:sip_msg.obj
 0002:00019eb0       _pjsip_retry_after_hdr_print 0046ceb0 f   pjsip-core-i386-win32-vc8-debug-dynamic:sip_msg.obj
 0002:0001a0d0       _pjsip_retry_after_hdr_clone 0046d0d0 f   pjsip-core-i386-win32-vc8-debug-dynamic:sip_msg.obj
 0002:0001a150       _pjsip_retry_after_hdr_shallow_clone 0046d150 f   pjsip-core-i386-win32-vc8-debug-dynamic:sip_msg.obj
 0002:0001a1c0       _pjsip_via_hdr_print       0046d1c0 f   pjsip-core-i386-win32-vc8-debug-dynamic:sip_msg.obj
 0002:0001a9c0       _pjsip_via_hdr_clone       0046d9c0 f   pjsip-core-i386-win32-vc8-debug-dynamic:sip_msg.obj
 0002:0001aae0       _pjsip_via_hdr_shallow_clone 0046dae0 f   pjsip-core-i386-win32-vc8-debug-dynamic:sip_msg.obj
 0002:0001ab50       _init_hdr                  0046db50 f   pjsip-core-i386-win32-vc8-debug-dynamic:sip_msg.obj
 0002:0001ac10       _init_status_phrase        0046dc10 f   pjsip-core-i386-win32-vc8-debug-dynamic:sip_msg.obj
 0002:0001b540       _pj_bzero                  0046e540 f   pjsip-core-i386-win32-vc8-debug-dynamic:sip_msg.obj
 0002:0001b570       _pj_list_empty             0046e570 f   pjsip-core-i386-win32-vc8-debug-dynamic:sip_msg.obj
 0002:0001b5b0       _pj_list_init              0046e5b0 f   pjsip-core-i386-win32-vc8-debug-dynamic:sip_msg.obj
 0002:0001b5e0       _pj_memchr                 0046e5e0 f   pjsip-core-i386-win32-vc8-debug-dynamic:sip_msg.obj
 0002:0001b610       _pj_memcmp                 0046e610 f   pjsip-core-i386-win32-vc8-debug-dynamic:sip_msg.obj
 0002:0001b640       _pj_memcpy                 0046e640 f   pjsip-core-i386-win32-vc8-debug-dynamic:sip_msg.obj
 0002:0001b670       _pj_memset                 0046e670 f   pjsip-core-i386-win32-vc8-debug-dynamic:sip_msg.obj
 0002:0001b6a0       _pj_pool_zalloc            0046e6a0 f   pjsip-core-i386-win32-vc8-debug-dynamic:sip_msg.obj
 0002:0001b6d0       _pj_strchr                 0046e6d0 f   pjsip-core-i386-win32-vc8-debug-dynamic:sip_msg.obj
 0002:0001b720       _pj_strset2                0046e720 f   pjsip-core-i386-win32-vc8-debug-dynamic:sip_msg.obj
 0002:0001b780       _pj_toupper                0046e780 f   pjsip-core-i386-win32-vc8-debug-dynamic:sip_msg.obj
 0002:0001b8f0       _pjsip_cfg                 0046e8f0 f   pjsip-core-i386-win32-vc8-debug-dynamic:sip_msg.obj
 0002:0001caf0       _pjsip_msg_add_hdr         0046faf0 f   pjsip-core-i386-win32-vc8-debug-dynamic:sip_msg.obj
 0002:0001dd80       _pjsip_uri_clone           00470d80 f   pjsip-core-i386-win32-vc8-debug-dynamic:sip_msg.obj
 0002:0001ddb0       _pjsip_uri_get_scheme      00470db0 f   pjsip-core-i386-win32-vc8-debug-dynamic:sip_msg.obj
 0002:0001dde0       _pjsip_uri_get_uri         00470de0 f   pjsip-core-i386-win32-vc8-debug-dynamic:sip_msg.obj
 0002:0001de10       _pjsip_uri_print           00470e10 f   pjsip-core-i386-win32-vc8-debug-dynamic:sip_msg.obj
 0002:0001e030       _print_media_type          00471030 f   pjsip-core-i386-win32-vc8-debug-dynamic:sip_msg.obj
 0002:0001e130       _mod_on_tx_msg             00471130 f   pjsip-core-i386-win32-vc8-debug-dynamic:sip_transport.obj
 0002:0001e160       _destroy_transport         00471160 f   pjsip-core-i386-win32-vc8-debug-dynamic:sip_transport.obj
 0002:0001e2f0       _get_msg_info              004712f0 f   pjsip-core-i386-win32-vc8-debug-dynamic:sip_transport.obj
 0002:0001e4b0       _get_net_interface         004714b0 f   pjsip-core-i386-win32-vc8-debug-dynamic:sip_transport.obj
 0002:0001e600       _get_tpname                00471600 f   pjsip-core-i386-win32-vc8-debug-dynamic:sip_transport.obj
 0002:0001e690       _init_tp_data              00471690 f   pjsip-core-i386-win32-vc8-debug-dynamic:sip_transport.obj
 0002:0001e730       _is_transport_valid        00471730 f   pjsip-core-i386-win32-vc8-debug-dynamic:sip_transport.obj
 0002:0001e7c0       _pj_bzero                  004717c0 f   pjsip-core-i386-win32-vc8-debug-dynamic:sip_transport.obj
 0002:0001e7f0       _pj_list_empty             004717f0 f   pjsip-core-i386-win32-vc8-debug-dynamic:sip_transport.obj
 0002:0001e830       _pj_list_init              00471830 f   pjsip-core-i386-win32-vc8-debug-dynamic:sip_transport.obj
 0002:0001e860       _pj_list_push_back         00471860 f   pjsip-core-i386-win32-vc8-debug-dynamic:sip_transport.obj
 0002:0001e890       _pj_memcpy                 00471890 f   pjsip-core-i386-win32-vc8-debug-dynamic:sip_transport.obj
 0002:0001e8c0       _pj_pool_zalloc            004718c0 f   pjsip-core-i386-win32-vc8-debug-dynamic:sip_transport.obj
 0002:0001e8f0       _pj_strset                 004718f0 f   pjsip-core-i386-win32-vc8-debug-dynamic:sip_transport.obj
 0002:0001e920       _pjsip_cfg                 00471920 f   pjsip-core-i386-win32-vc8-debug-dynamic:sip_transport.obj
 0002:0001e940       _pjsip_msg_add_hdr         00471940 f   pjsip-core-i386-win32-vc8-debug-dynamic:sip_transport.obj
 0002:0001ec60       $LN41                      00471c60     pjsip-core-i386-win32-vc8-debug-dynamic:sip_transport.obj
 0002:0001ec94       $LN40                      00471c94     pjsip-core-i386-win32-vc8-debug-dynamic:sip_transport.obj
 0002:000202c0       _pjsip_tpmgr_is_tpfactory_valid 004732c0 f   pjsip-core-i386-win32-vc8-debug-dynamic:sip_transport.obj
 0002:00022a80       _send_raw_callback         00475a80 f   pjsip-core-i386-win32-vc8-debug-dynamic:sip_transport.obj
 0002:00022b00       _tp_state_callback         00475b00 f   pjsip-core-i386-win32-vc8-debug-dynamic:sip_transport.obj
 0002:00022bd0       _transport_idle_callback   00475bd0 f   pjsip-core-i386-win32-vc8-debug-dynamic:sip_transport.obj
 0002:00022c40       _transport_send_callback   00475c40 f   pjsip-core-i386-win32-vc8-debug-dynamic:sip_transport.obj
 0002:00022cc0       _tx_data_destroy           00475cc0 f   pjsip-core-i386-win32-vc8-debug-dynamic:sip_transport.obj
 0002:00022d90       _cmp_mod_name              00475d90 f   pjsip-core-i386-win32-vc8-debug-dynamic:sip_endpoint.obj
 0002:00022dc0       _endpt_on_rx_msg           00475dc0 f   pjsip-core-i386-win32-vc8-debug-dynamic:sip_endpoint.obj
 0002:000230e0       _endpt_on_tx_msg           004760e0 f   pjsip-core-i386-win32-vc8-debug-dynamic:sip_endpoint.obj
 0002:000231e0       _pj_bzero                  004761e0 f   pjsip-core-i386-win32-vc8-debug-dynamic:sip_endpoint.obj
 0002:00023210       _pj_cstr                   00476210 f   pjsip-core-i386-win32-vc8-debug-dynamic:sip_endpoint.obj
 0002:00023270       _pj_list_init              00476270 f   pjsip-core-i386-win32-vc8-debug-dynamic:sip_endpoint.obj
 0002:000232a0       _pj_list_push_back         004762a0 f   pjsip-core-i386-win32-vc8-debug-dynamic:sip_endpoint.obj
 0002:000232d0       _pj_pool_factory_dump      004762d0 f   pjsip-core-i386-win32-vc8-debug-dynamic:sip_endpoint.obj
 0002:00023300       _pj_pool_zalloc            00476300 f   pjsip-core-i386-win32-vc8-debug-dynamic:sip_endpoint.obj
 0002:00023330       _pjsip_cfg                 00476330 f   pjsip-core-i386-win32-vc8-debug-dynamic:sip_endpoint.obj
 0002:00025050       _pool_callback             00478050 f   pjsip-core-i386-win32-vc8-debug-dynamic:sip_endpoint.obj
 0002:00025080       _unload_module             00478080 f   pjsip-core-i386-win32-vc8-debug-dynamic:sip_endpoint.obj
 0002:00025170       _init_request_throw        00478170 f   pjsip-core-i386-win32-vc8-debug-dynamic:sip_util.obj
 0002:00025500       _pj_bzero                  00478500 f   pjsip-core-i386-win32-vc8-debug-dynamic:sip_util.obj
 0002:00025530       _pj_list_push_back         00478530 f   pjsip-core-i386-win32-vc8-debug-dynamic:sip_util.obj
 0002:00025560       _pj_memcpy                 00478560 f   pjsip-core-i386-win32-vc8-debug-dynamic:sip_util.obj
 0002:00025590       _pj_pool_zalloc            00478590 f   pjsip-core-i386-win32-vc8-debug-dynamic:sip_util.obj
 0002:000255c0       _pj_strchr                 004785c0 f   pjsip-core-i386-win32-vc8-debug-dynamic:sip_util.obj
 0002:00025610       _pjsip_cfg                 00478610 f   pjsip-core-i386-win32-vc8-debug-dynamic:sip_util.obj
 0002:00027b80       _pjsip_msg_add_hdr         0047ab80 f   pjsip-core-i386-win32-vc8-debug-dynamic:sip_util.obj
 0002:00027bb0       _pjsip_msg_insert_first_hdr 0047abb0 f   pjsip-core-i386-win32-vc8-debug-dynamic:sip_util.obj
 0002:00028620       _pjsip_uri_clone           0047b620 f   pjsip-core-i386-win32-vc8-debug-dynamic:sip_util.obj
 0002:00028650       _pjsip_uri_cmp             0047b650 f   pjsip-core-i386-win32-vc8-debug-dynamic:sip_util.obj
 0002:00028690       _pjsip_uri_get_scheme      0047b690 f   pjsip-core-i386-win32-vc8-debug-dynamic:sip_util.obj
 0002:000286c0       _pjsip_uri_get_uri         0047b6c0 f   pjsip-core-i386-win32-vc8-debug-dynamic:sip_util.obj
 0002:000286f0       _send_raw_resolver_callback 0047b6f0 f   pjsip-core-i386-win32-vc8-debug-dynamic:sip_util.obj
 0002:000288e0       _send_response_resolver_cb 0047b8e0 f   pjsip-core-i386-win32-vc8-debug-dynamic:sip_util.obj
 0002:00028b10       _send_response_transport_cb 0047bb10 f   pjsip-core-i386-win32-vc8-debug-dynamic:sip_util.obj
 0002:00028b80       _stateless_send_resolver_callback 0047bb80 f   pjsip-core-i386-win32-vc8-debug-dynamic:sip_util.obj
 0002:00028e50       _stateless_send_transport_cb 0047be50 f   pjsip-core-i386-win32-vc8-debug-dynamic:sip_util.obj
 0002:00029470       _create_socket             0047c470 f   pjsip-core-i386-win32-vc8-debug-dynamic:sip_transport_udp.obj
 0002:00029590       _get_published_name        0047c590 f   pjsip-core-i386-win32-vc8-debug-dynamic:sip_transport_udp.obj
 0002:000297a0       _init_rdata                0047c7a0 f   pjsip-core-i386-win32-vc8-debug-dynamic:sip_transport_udp.obj
 0002:00029840       _pj_bzero                  0047c840 f   pjsip-core-i386-win32-vc8-debug-dynamic:sip_transport_udp.obj
 0002:00029870       _pj_memcmp                 0047c870 f   pjsip-core-i386-win32-vc8-debug-dynamic:sip_transport_udp.obj
 0002:000298a0       _pj_memcpy                 0047c8a0 f   pjsip-core-i386-win32-vc8-debug-dynamic:sip_transport_udp.obj
 0002:000298d0       _pj_memset                 0047c8d0 f   pjsip-core-i386-win32-vc8-debug-dynamic:sip_transport_udp.obj
 0002:00029900       _pj_pool_zalloc            0047c900 f   pjsip-core-i386-win32-vc8-debug-dynamic:sip_transport_udp.obj
 0002:0002a450       _register_to_ioqueue       0047d450 f   pjsip-core-i386-win32-vc8-debug-dynamic:sip_transport_udp.obj
 0002:0002a590       _start_async_read          0047d590 f   pjsip-core-i386-win32-vc8-debug-dynamic:sip_transport_udp.obj
 0002:0002a710       _transport_attach          0047d710 f   pjsip-core-i386-win32-vc8-debug-dynamic:sip_transport_udp.obj
 0002:0002ac90       _udp_destroy               0047dc90 f   pjsip-core-i386-win32-vc8-debug-dynamic:sip_transport_udp.obj
 0002:0002ae10       _udp_on_destroy            0047de10 f   pjsip-core-i386-win32-vc8-debug-dynamic:sip_transport_udp.obj
 0002:0002af00       _udp_on_read_complete      0047df00 f   pjsip-core-i386-win32-vc8-debug-dynamic:sip_transport_udp.obj
 0002:0002b320       _udp_on_write_complete     0047e320 f   pjsip-core-i386-win32-vc8-debug-dynamic:sip_transport_udp.obj
 0002:0002b3a0       _udp_send_msg              0047e3a0 f   pjsip-core-i386-win32-vc8-debug-dynamic:sip_transport_udp.obj
 0002:0002b530       _udp_set_pub_name          0047e530 f   pjsip-core-i386-win32-vc8-debug-dynamic:sip_transport_udp.obj
 0002:0002b6a0       _udp_set_socket            0047e6a0 f   pjsip-core-i386-win32-vc8-debug-dynamic:sip_transport_udp.obj
 0002:0002b6e0       _udp_shutdown              0047e6e0 f   pjsip-core-i386-win32-vc8-debug-dynamic:sip_transport_udp.obj
 0002:0002b710       _mod_tsx_layer_load        0047e710 f   pjsip-core-i386-win32-vc8-debug-dynamic:sip_transaction.obj
 0002:0002b730       _mod_tsx_layer_start       0047e730 f   pjsip-core-i386-win32-vc8-debug-dynamic:sip_transaction.obj
 0002:0002b750       _mod_tsx_layer_stop        0047e750 f   pjsip-core-i386-win32-vc8-debug-dynamic:sip_transaction.obj
 0002:0002b880       _mod_tsx_layer_unload      0047e880 f   pjsip-core-i386-win32-vc8-debug-dynamic:sip_transaction.obj
 0002:0002b910       _mod_tsx_layer_on_rx_request 0047e910 f   pjsip-core-i386-win32-vc8-debug-dynamic:sip_transaction.obj
 0002:0002ba10       _mod_tsx_layer_on_rx_response 0047ea10 f   pjsip-core-i386-win32-vc8-debug-dynamic:sip_transaction.obj
 0002:0002bb10       _tsx_on_state_null         0047eb10 f   pjsip-core-i386-win32-vc8-debug-dynamic:sip_transaction.obj
 0002:0002bdb0       _tsx_on_state_calling      0047edb0 f   pjsip-core-i386-win32-vc8-debug-dynamic:sip_transaction.obj
 0002:0002c0c0       _tsx_on_state_trying       0047f0c0 f   pjsip-core-i386-win32-vc8-debug-dynamic:sip_transaction.obj
 0002:0002c190       _tsx_on_state_proceeding_uas 0047f190 f   pjsip-core-i386-win32-vc8-debug-dynamic:sip_transaction.obj
 0002:0002ca90       _tsx_on_state_proceeding_uac 0047fa90 f   pjsip-core-i386-win32-vc8-debug-dynamic:sip_transaction.obj
 0002:0002d040       _tsx_on_state_completed_uas 00480040 f   pjsip-core-i386-win32-vc8-debug-dynamic:sip_transaction.obj
 0002:0002d370       _tsx_on_state_completed_uac 00480370 f   pjsip-core-i386-win32-vc8-debug-dynamic:sip_transaction.obj
 0002:0002d510       _tsx_on_state_confirmed    00480510 f   pjsip-core-i386-win32-vc8-debug-dynamic:sip_transaction.obj
 0002:0002d6f0       _tsx_on_state_terminated   004806f0 f   pjsip-core-i386-win32-vc8-debug-dynamic:sip_transaction.obj
 0002:0002d770       _tsx_on_state_destroyed    00480770 f   pjsip-core-i386-win32-vc8-debug-dynamic:sip_transaction.obj
 0002:0002d790       _create_tsx_key_2543       00480790 f   pjsip-core-i386-win32-vc8-debug-dynamic:sip_transaction.obj
 0002:0002dc10       _create_tsx_key_3261       00480c10 f   pjsip-core-i386-win32-vc8-debug-dynamic:sip_transaction.obj
 0002:0002ddb0       _find_tsx                  00480db0 f   pjsip-core-i386-win32-vc8-debug-dynamic:sip_transaction.obj
 0002:0002de80       _lock_timer                00480e80 f   pjsip-core-i386-win32-vc8-debug-dynamic:sip_transaction.obj
 0002:0002deb0       _mod_tsx_layer_register_tsx 00480eb0 f   pjsip-core-i386-win32-vc8-debug-dynamic:sip_transaction.obj
 0002:0002dfe0       _mod_tsx_layer_unregister_tsx 00480fe0 f   pjsip-core-i386-win32-vc8-debug-dynamic:sip_transaction.obj
 0002:0002e090       _pj_bzero                  00481090 f   pjsip-core-i386-win32-vc8-debug-dynamic:sip_transaction.obj
 0002:0002e0c0       _pj_memcpy                 004810c0 f   pjsip-core-i386-win32-vc8-debug-dynamic:sip_transaction.obj
 0002:0002e0f0       _pj_pool_zalloc            004810f0 f   pjsip-core-i386-win32-vc8-debug-dynamic:sip_transaction.obj
 0002:0002e120       _pjsip_cfg                 00481120 f   pjsip-core-i386-win32-vc8-debug-dynamic:sip_transaction.obj
 0002:0002e140       _pjsip_msg_insert_first_hdr 00481140 f   pjsip-core-i386-win32-vc8-debug-dynamic:sip_transaction.obj
 0002:0002fa80       _send_msg_callback         00482a80 f   pjsip-core-i386-win32-vc8-debug-dynamic:sip_transaction.obj
 0002:00030040       _transport_callback        00483040 f   pjsip-core-i386-win32-vc8-debug-dynamic:sip_transaction.obj
 0002:000301d0       _tsx_cancel_timer          004831d0 f   pjsip-core-i386-win32-vc8-debug-dynamic:sip_transaction.obj
 0002:00030220       _tsx_create                00483220 f   pjsip-core-i386-win32-vc8-debug-dynamic:sip_transaction.obj
 0002:00030460       _tsx_layer_destroy         00483460 f   pjsip-core-i386-win32-vc8-debug-dynamic:sip_transaction.obj
 0002:000304e0       _tsx_on_destroy            004834e0 f   pjsip-core-i386-win32-vc8-debug-dynamic:sip_transaction.obj
 0002:00030560       _tsx_resched_retransmission 00483560 f   pjsip-core-i386-win32-vc8-debug-dynamic:sip_transaction.obj
 0002:00030720       _tsx_retransmit            00483720 f   pjsip-core-i386-win32-vc8-debug-dynamic:sip_transaction.obj
 0002:000308d0       _tsx_schedule_timer        004838d0 f   pjsip-core-i386-win32-vc8-debug-dynamic:sip_transaction.obj
 0002:00030960       _tsx_send_msg              00483960 f   pjsip-core-i386-win32-vc8-debug-dynamic:sip_transaction.obj
 0002:00030ed0       _tsx_set_state             00483ed0 f   pjsip-core-i386-win32-vc8-debug-dynamic:sip_transaction.obj
 0002:00031230       _tsx_set_status_code       00484230 f   pjsip-core-i386-win32-vc8-debug-dynamic:sip_transaction.obj
 0002:000312a0       _tsx_shutdown              004842a0 f   pjsip-core-i386-win32-vc8-debug-dynamic:sip_transaction.obj
 0002:00031400       _tsx_timer_callback        00484400 f   pjsip-core-i386-win32-vc8-debug-dynamic:sip_transaction.obj
 0002:000316a0       _tsx_tp_state_callback     004846a0 f   pjsip-core-i386-win32-vc8-debug-dynamic:sip_transaction.obj
 0002:000317a0       _tsx_update_transport      004847a0 f   pjsip-core-i386-win32-vc8-debug-dynamic:sip_transaction.obj
 0002:000318c0       _unlock_timer              004848c0 f   pjsip-core-i386-win32-vc8-debug-dynamic:sip_transaction.obj
 0002:000318f0       _mod_ua_load               004848f0 f   pjsip-core-i386-win32-vc8-debug-dynamic:sip_ua_layer.obj
 0002:00031a00       _mod_ua_unload             00484a00 f   pjsip-core-i386-win32-vc8-debug-dynamic:sip_ua_layer.obj
 0002:00031a60       _mod_ua_on_rx_request      00484a60 f   pjsip-core-i386-win32-vc8-debug-dynamic:sip_ua_layer.obj
 0002:00031d80       _mod_ua_on_rx_response     00484d80 f   pjsip-core-i386-win32-vc8-debug-dynamic:sip_ua_layer.obj
 0002:00032270       _mod_ua_on_tsx_state       00485270 f   pjsip-core-i386-win32-vc8-debug-dynamic:sip_ua_layer.obj
 0002:000322c0       _alloc_dlgset_node         004852c0 f   pjsip-core-i386-win32-vc8-debug-dynamic:sip_ua_layer.obj
 0002:00032330       _find_dlg_set_for_msg      00485330 f   pjsip-core-i386-win32-vc8-debug-dynamic:sip_ua_layer.obj
 0002:00032490       _pj_list_empty             00485490 f   pjsip-core-i386-win32-vc8-debug-dynamic:sip_ua_layer.obj
 0002:000324d0       _pj_list_init              004854d0 f   pjsip-core-i386-win32-vc8-debug-dynamic:sip_ua_layer.obj
 0002:00032500       _pj_list_push_back         00485500 f   pjsip-core-i386-win32-vc8-debug-dynamic:sip_ua_layer.obj
 0002:00032530       _pj_memcpy                 00485530 f   pjsip-core-i386-win32-vc8-debug-dynamic:sip_ua_layer.obj
 0002:00033190       _print_dialog              00486190 f   pjsip-core-i386-win32-vc8-debug-dynamic:sip_ua_layer.obj
 0002:000332e0       _create_dialog             004862e0 f   pjsip-core-i386-win32-vc8-debug-dynamic:sip_dialog.obj
 0002:00033e60       _destroy_dialog            00486e60 f   pjsip-core-i386-win32-vc8-debug-dynamic:sip_dialog.obj
 0002:00033f30       _dlg_beautify_response     00486f30 f   pjsip-core-i386-win32-vc8-debug-dynamic:sip_dialog.obj
 0002:00034230       _dlg_create_request_throw  00487230 f   pjsip-core-i386-win32-vc8-debug-dynamic:sip_dialog.obj
 0002:000343d0       _dlg_update_routeset       004873d0 f   pjsip-core-i386-win32-vc8-debug-dynamic:sip_dialog.obj
 0002:00034620       _pj_bzero                  00487620 f   pjsip-core-i386-win32-vc8-debug-dynamic:sip_dialog.obj
 0002:00034650       _pj_list_empty             00487650 f   pjsip-core-i386-win32-vc8-debug-dynamic:sip_dialog.obj
 0002:00034690       _pj_list_init              00487690 f   pjsip-core-i386-win32-vc8-debug-dynamic:sip_dialog.obj
 0002:000346c0       _pj_list_push_back         004876c0 f   pjsip-core-i386-win32-vc8-debug-dynamic:sip_dialog.obj
 0002:000346f0       _pj_memcpy                 004876f0 f   pjsip-core-i386-win32-vc8-debug-dynamic:sip_dialog.obj
 0002:00034720       _pj_pool_zalloc            00487720 f   pjsip-core-i386-win32-vc8-debug-dynamic:sip_dialog.obj
 0002:000385a0       _pjsip_msg_add_hdr         0048b5a0 f   pjsip-core-i386-win32-vc8-debug-dynamic:sip_dialog.obj
 0002:000385d0       _pjsip_target_set_init     0048b5d0 f   pjsip-core-i386-win32-vc8-debug-dynamic:sip_dialog.obj
 0002:00038600       _pjsip_uri_clone           0048b600 f   pjsip-core-i386-win32-vc8-debug-dynamic:sip_dialog.obj
 0002:00038630       _pjsip_uri_cmp             0048b630 f   pjsip-core-i386-win32-vc8-debug-dynamic:sip_dialog.obj
 0002:00038670       _pjsip_uri_get_scheme      0048b670 f   pjsip-core-i386-win32-vc8-debug-dynamic:sip_dialog.obj
 0002:000386a0       _pjsip_uri_get_uri         0048b6a0 f   pjsip-core-i386-win32-vc8-debug-dynamic:sip_dialog.obj
 0002:000386d0       _pjsip_uri_print           0048b6d0 f   pjsip-core-i386-win32-vc8-debug-dynamic:sip_dialog.obj
 0002:00038710       _unregister_and_destroy_dialog 0048b710 f   pjsip-core-i386-win32-vc8-debug-dynamic:sip_dialog.obj
 0002:00038870       _auth_find_cred            0048b870 f   pjsip-core-i386-win32-vc8-debug-dynamic:sip_auth_client.obj
 0002:00038960       _auth_respond              0048b960 f   pjsip-core-i386-win32-vc8-debug-dynamic:sip_auth_client.obj
 0002:00038c70       _digest2str                0048bc70 f   pjsip-core-i386-win32-vc8-debug-dynamic:sip_auth_client.obj
 0002:00038cd0       _dup_bin                   0048bcd0 f   pjsip-core-i386-win32-vc8-debug-dynamic:sip_auth_client.obj
 0002:00038d50       _find_cached_auth          0048bd50 f   pjsip-core-i386-win32-vc8-debug-dynamic:sip_auth_client.obj
 0002:00038db0       _get_header_for_realm      0048bdb0 f   pjsip-core-i386-win32-vc8-debug-dynamic:sip_auth_client.obj
 0002:00038e10       _has_auth_qop              0048be10 f   pjsip-core-i386-win32-vc8-debug-dynamic:sip_auth_client.obj
 0002:00038f20       _pj_list_init              0048bf20 f   pjsip-core-i386-win32-vc8-debug-dynamic:sip_auth_client.obj
 0002:00038f50       _pj_memcpy                 0048bf50 f   pjsip-core-i386-win32-vc8-debug-dynamic:sip_auth_client.obj
 0002:00038f80       _pj_pool_zalloc            0048bf80 f   pjsip-core-i386-win32-vc8-debug-dynamic:sip_auth_client.obj
 0002:00038fb0       _pj_tolower                0048bfb0 f   pjsip-core-i386-win32-vc8-debug-dynamic:sip_auth_client.obj
 0002:00038fe0       _pj_val_to_hex_digit       0048bfe0 f   pjsip-core-i386-win32-vc8-debug-dynamic:sip_auth_client.obj
 0002:0003a930       _pjsip_msg_add_hdr         0048d930 f   pjsip-core-i386-win32-vc8-debug-dynamic:sip_auth_client.obj
 0002:0003a960       _pjsip_uri_print           0048d960 f   pjsip-core-i386-win32-vc8-debug-dynamic:sip_auth_client.obj
 0002:0003a9a0       _process_auth              0048d9a0 f   pjsip-core-i386-win32-vc8-debug-dynamic:sip_auth_client.obj
 0002:0003acb0       _recreate_cached_auth_pool 0048dcb0 f   pjsip-core-i386-win32-vc8-debug-dynamic:sip_auth_client.obj
 0002:0003adc0       _respond_digest            0048ddc0 f   pjsip-core-i386-win32-vc8-debug-dynamic:sip_auth_client.obj
 0002:0003b190       _update_digest_session     0048e190 f   pjsip-core-i386-win32-vc8-debug-dynamic:sip_auth_client.obj
 0002:0003b300       _compare_handler           0048e300 f   pjsip-core-i386-win32-vc8-debug-dynamic:sip_parser.obj
 0002:0003b420       _find_handler              0048e420 f   pjsip-core-i386-win32-vc8-debug-dynamic:sip_parser.obj
 0002:0003b4f0       _find_handler_imp          0048e4f0 f   pjsip-core-i386-win32-vc8-debug-dynamic:sip_parser.obj
 0002:0003b5e0       _find_uri_handler          0048e5e0 f   pjsip-core-i386-win32-vc8-debug-dynamic:sip_parser.obj
 0002:0003b690       _init_parser               0048e690 f   pjsip-core-i386-win32-vc8-debug-dynamic:sip_parser.obj
 0002:0003cb10       _int_is_next_user          0048fb10 f   pjsip-core-i386-win32-vc8-debug-dynamic:sip_parser.obj
 0002:0003cb60       _int_parse_contact_param   0048fb60 f   pjsip-core-i386-win32-vc8-debug-dynamic:sip_parser.obj
 0002:0003cdc0       _int_parse_host            0048fdc0 f   pjsip-core-i386-win32-vc8-debug-dynamic:sip_parser.obj
 0002:0003ce40       _int_parse_hparam          0048fe40 f   pjsip-core-i386-win32-vc8-debug-dynamic:sip_parser.obj
 0002:0003cf20       _int_parse_msg             0048ff20 f   pjsip-core-i386-win32-vc8-debug-dynamic:sip_parser.obj
 0002:0003d4d0       _int_parse_name_addr       004904d0 f   pjsip-core-i386-win32-vc8-debug-dynamic:sip_parser.obj
 0002:0003d670       _int_parse_other_uri       00490670 f   pjsip-core-i386-win32-vc8-debug-dynamic:sip_parser.obj
 0002:0003d740       _int_parse_param           00490740 f   pjsip-core-i386-win32-vc8-debug-dynamic:sip_parser.obj
 0002:0003d790       _int_parse_req_line        00490790 f   pjsip-core-i386-win32-vc8-debug-dynamic:sip_parser.obj
 0002:0003d810       _int_parse_sip_url         00490810 f   pjsip-core-i386-win32-vc8-debug-dynamic:sip_parser.obj
 0002:0003dc90       _int_parse_status_line     00490c90 f   pjsip-core-i386-win32-vc8-debug-dynamic:sip_parser.obj
 0002:0003dd60       _int_parse_uri             00490d60 f   pjsip-core-i386-win32-vc8-debug-dynamic:sip_parser.obj
 0002:0003ddf0       _int_parse_uri_host_port   00490df0 f   pjsip-core-i386-win32-vc8-debug-dynamic:sip_parser.obj
 0002:0003de80       _int_parse_uri_or_name_addr 00490e80 f   pjsip-core-i386-win32-vc8-debug-dynamic:sip_parser.obj
 0002:0003dfe0       _int_parse_uri_param       00490fe0 f   pjsip-core-i386-win32-vc8-debug-dynamic:sip_parser.obj
 0002:0003e030       _int_parse_user_pass       00491030 f   pjsip-core-i386-win32-vc8-debug-dynamic:sip_parser.obj
 0002:0003e0e0       _int_parse_via_param       004910e0 f   pjsip-core-i386-win32-vc8-debug-dynamic:sip_parser.obj
 0002:0003e330       _int_register_parser       00491330 f   pjsip-core-i386-win32-vc8-debug-dynamic:sip_parser.obj
 0002:0003e560       _is_next_sip_version       00491560 f   pjsip-core-i386-win32-vc8-debug-dynamic:sip_parser.obj
 0002:0003e600       _on_str_parse_error        00491600 f   pjsip-core-i386-win32-vc8-debug-dynamic:sip_parser.obj
 0002:0003e6f0       _on_syntax_error           004916f0 f   pjsip-core-i386-win32-vc8-debug-dynamic:sip_parser.obj
 0002:0003e720       _parse_generic_array_hdr   00491720 f   pjsip-core-i386-win32-vc8-debug-dynamic:sip_parser.obj
 0002:0003e850       _parse_generic_int_hdr     00491850 f   pjsip-core-i386-win32-vc8-debug-dynamic:sip_parser.obj
 0002:0003e8b0       _parse_generic_string_hdr  004918b0 f   pjsip-core-i386-win32-vc8-debug-dynamic:sip_parser.obj
 0002:0003ea20       _parse_hdr_accept          00491a20 f   pjsip-core-i386-win32-vc8-debug-dynamic:sip_parser.obj
 0002:0003ea70       _parse_hdr_allow           00491a70 f   pjsip-core-i386-win32-vc8-debug-dynamic:sip_parser.obj
 0002:0003eac0       _parse_hdr_call_id         00491ac0 f   pjsip-core-i386-win32-vc8-debug-dynamic:sip_parser.obj
 0002:0003eb40       _parse_hdr_contact         00491b40 f   pjsip-core-i386-win32-vc8-debug-dynamic:sip_parser.obj
 0002:0003ec70       _parse_hdr_content_len     00491c70 f   pjsip-core-i386-win32-vc8-debug-dynamic:sip_parser.obj
 0002:0003ed10       _parse_hdr_content_type    00491d10 f   pjsip-core-i386-win32-vc8-debug-dynamic:sip_parser.obj
 0002:0003ee40       _parse_hdr_cseq            00491e40 f   pjsip-core-i386-win32-vc8-debug-dynamic:sip_parser.obj
 0002:0003ef30       _parse_hdr_end             00491f30 f   pjsip-core-i386-win32-vc8-debug-dynamic:sip_parser.obj
 0002:0003ef90       _parse_hdr_expires         00491f90 f   pjsip-core-i386-win32-vc8-debug-dynamic:sip_parser.obj
 0002:0003efe0       _parse_hdr_from            00491fe0 f   pjsip-core-i386-win32-vc8-debug-dynamic:sip_parser.obj
 0002:0003f050       _parse_hdr_fromto          00492050 f   pjsip-core-i386-win32-vc8-debug-dynamic:sip_parser.obj
 0002:0003f160       _parse_hdr_generic_string  00492160 f   pjsip-core-i386-win32-vc8-debug-dynamic:sip_parser.obj
 0002:0003f1b0       _parse_hdr_max_forwards    004921b0 f   pjsip-core-i386-win32-vc8-debug-dynamic:sip_parser.obj
 0002:0003f220       _parse_hdr_min_expires     00492220 f   pjsip-core-i386-win32-vc8-debug-dynamic:sip_parser.obj
 0002:0003f270       _parse_hdr_require         00492270 f   pjsip-core-i386-win32-vc8-debug-dynamic:sip_parser.obj
 0002:0003f360       _parse_hdr_retry_after     00492360 f   pjsip-core-i386-win32-vc8-debug-dynamic:sip_parser.obj
 0002:0003f510       _parse_hdr_route           00492510 f   pjsip-core-i386-win32-vc8-debug-dynamic:sip_parser.obj
 0002:0003f610       _parse_hdr_rr              00492610 f   pjsip-core-i386-win32-vc8-debug-dynamic:sip_parser.obj
 0002:0003f710       _parse_hdr_rr_route        00492710 f   pjsip-core-i386-win32-vc8-debug-dynamic:sip_parser.obj
 0002:0003f7c0       _parse_hdr_supported       004927c0 f   pjsip-core-i386-win32-vc8-debug-dynamic:sip_parser.obj
 0002:0003f8b0       _parse_hdr_to              004928b0 f   pjsip-core-i386-win32-vc8-debug-dynamic:sip_parser.obj
 0002:0003f920       _parse_hdr_unsupported     00492920 f   pjsip-core-i386-win32-vc8-debug-dynamic:sip_parser.obj
 0002:0003f970       _parse_hdr_via             00492970 f   pjsip-core-i386-win32-vc8-debug-dynamic:sip_parser.obj
 0002:0003fb80       _parse_param_imp           00492b80 f   pjsip-core-i386-win32-vc8-debug-dynamic:sip_parser.obj
 0002:0003fcb0       _parse_sip_version         00492cb0 f   pjsip-core-i386-win32-vc8-debug-dynamic:sip_parser.obj
 0002:0003fd80       _parser_get_and_unescape   00492d80 f   pjsip-core-i386-win32-vc8-debug-dynamic:sip_parser.obj
 0002:0003fdd0       _pj_bzero                  00492dd0 f   pjsip-core-i386-win32-vc8-debug-dynamic:sip_parser.obj
 0002:0003fe00       _pj_cis_match              00492e00 f   pjsip-core-i386-win32-vc8-debug-dynamic:sip_parser.obj
 0002:0003fe40       _pj_list_push_back         00492e40 f   pjsip-core-i386-win32-vc8-debug-dynamic:sip_parser.obj
 0002:0003fe70       _pj_memchr                 00492e70 f   pjsip-core-i386-win32-vc8-debug-dynamic:sip_parser.obj
 0002:0003fea0       _pj_memcmp                 00492ea0 f   pjsip-core-i386-win32-vc8-debug-dynamic:sip_parser.obj
 0002:0003fed0       _pj_memcpy                 00492ed0 f   pjsip-core-i386-win32-vc8-debug-dynamic:sip_parser.obj
 0002:0003ff00       _pj_memmove                00492f00 f   pjsip-core-i386-win32-vc8-debug-dynamic:sip_parser.obj
 0002:0003ff30       _pj_scan_get_col           00492f30 f   pjsip-core-i386-win32-vc8-debug-dynamic:sip_parser.obj
 0002:0003ff60       _pj_scan_is_eof            00492f60 f   pjsip-core-i386-win32-vc8-debug-dynamic:sip_parser.obj
 0002:0003ffa0       _pj_strchr                 00492fa0 f   pjsip-core-i386-win32-vc8-debug-dynamic:sip_parser.obj
 0002:0003fff0       _pj_strtoul_mindigit       00492ff0 f   pjsip-core-i386-win32-vc8-debug-dynamic:sip_parser.obj
 0002:00040080       _pj_tolower                00493080 f   pjsip-core-i386-win32-vc8-debug-dynamic:sip_parser.obj
 0002:00041090       _strtoi_validate           00494090 f   pjsip-core-i386-win32-vc8-debug-dynamic:sip_parser.obj
 0002:00041150       _multipart_clone_data      00494150 f   pjsip-core-i386-win32-vc8-debug-dynamic:sip_multipart.obj
 0002:00041280       _multipart_print_body      00494280 f   pjsip-core-i386-win32-vc8-debug-dynamic:sip_multipart.obj
 0002:00041880       _parse_multipart_part      00494880 f   pjsip-core-i386-win32-vc8-debug-dynamic:sip_multipart.obj
 0002:00041c20       _pj_isspace                00494c20 f   pjsip-core-i386-win32-vc8-debug-dynamic:sip_multipart.obj
 0002:00041c50       _pj_list_empty             00494c50 f   pjsip-core-i386-win32-vc8-debug-dynamic:sip_multipart.obj
 0002:00041c90       _pj_list_init              00494c90 f   pjsip-core-i386-win32-vc8-debug-dynamic:sip_multipart.obj
 0002:00041cc0       _pj_list_push_back         00494cc0 f   pjsip-core-i386-win32-vc8-debug-dynamic:sip_multipart.obj
 0002:00041cf0       _pj_memcpy                 00494cf0 f   pjsip-core-i386-win32-vc8-debug-dynamic:sip_multipart.obj
 0002:00041d20       _pj_memset                 00494d20 f   pjsip-core-i386-win32-vc8-debug-dynamic:sip_multipart.obj
 0002:00041d50       _pj_pool_zalloc            00494d50 f   pjsip-core-i386-win32-vc8-debug-dynamic:sip_multipart.obj
 0002:00041d80       _pj_strset                 00494d80 f   pjsip-core-i386-win32-vc8-debug-dynamic:sip_multipart.obj
 0002:00041db0       _pjsip_cfg                 00494db0 f   pjsip-core-i386-win32-vc8-debug-dynamic:sip_multipart.obj
 0002:00042b10       _pjsip_url_get_scheme      00495b10 f   pjsip-core-i386-win32-vc8-debug-dynamic:sip_uri.obj
 0002:00042b30       _pjsips_url_get_scheme     00495b30 f   pjsip-core-i386-win32-vc8-debug-dynamic:sip_uri.obj
 0002:00042b50       _pjsip_name_addr_get_scheme 00495b50 f   pjsip-core-i386-win32-vc8-debug-dynamic:sip_uri.obj
 0002:00042bb0       _pjsip_get_uri             00495bb0 f   pjsip-core-i386-win32-vc8-debug-dynamic:sip_uri.obj
 0002:00042bd0       _pjsip_name_addr_get_uri   00495bd0 f   pjsip-core-i386-win32-vc8-debug-dynamic:sip_uri.obj
 0002:00042c00       _pjsip_name_addr_clone     00495c00 f   pjsip-core-i386-win32-vc8-debug-dynamic:sip_uri.obj
 0002:00042c70       _pjsip_name_addr_print     00495c70 f   pjsip-core-i386-win32-vc8-debug-dynamic:sip_uri.obj
 0002:00042ec0       _pjsip_name_addr_compare   00495ec0 f   pjsip-core-i386-win32-vc8-debug-dynamic:sip_uri.obj
 0002:00042fb0       _pjsip_url_print           00495fb0 f   pjsip-core-i386-win32-vc8-debug-dynamic:sip_uri.obj
 0002:00043a20       _pjsip_url_compare         00496a20 f   pjsip-core-i386-win32-vc8-debug-dynamic:sip_uri.obj
 0002:00043cb0       _pjsip_url_clone           00496cb0 f   pjsip-core-i386-win32-vc8-debug-dynamic:sip_uri.obj
 0002:00043d40       _other_uri_get_scheme      00496d40 f   pjsip-core-i386-win32-vc8-debug-dynamic:sip_uri.obj
 0002:00043d60       _other_uri_get_uri         00496d60 f   pjsip-core-i386-win32-vc8-debug-dynamic:sip_uri.obj
 0002:00043d80       _other_uri_print           00496d80 f   pjsip-core-i386-win32-vc8-debug-dynamic:sip_uri.obj
 0002:00043ea0       _other_uri_cmp             00496ea0 f   pjsip-core-i386-win32-vc8-debug-dynamic:sip_uri.obj
 0002:00043f20       _other_uri_clone           00496f20 f   pjsip-core-i386-win32-vc8-debug-dynamic:sip_uri.obj
 0002:00043f90       _pj_bzero                  00496f90 f   pjsip-core-i386-win32-vc8-debug-dynamic:sip_uri.obj
 0002:00043fc0       _pj_list_init              00496fc0 f   pjsip-core-i386-win32-vc8-debug-dynamic:sip_uri.obj
 0002:00043ff0       _pj_memchr                 00496ff0 f   pjsip-core-i386-win32-vc8-debug-dynamic:sip_uri.obj
 0002:00044020       _pj_memcpy                 00497020 f   pjsip-core-i386-win32-vc8-debug-dynamic:sip_uri.obj
 0002:00044050       _pj_pool_zalloc            00497050 f   pjsip-core-i386-win32-vc8-debug-dynamic:sip_uri.obj
 0002:00044080       _pjsip_cfg                 00497080 f   pjsip-core-i386-win32-vc8-debug-dynamic:sip_uri.obj
 0002:000448e0       _pjsip_uri_clone           004978e0 f   pjsip-core-i386-win32-vc8-debug-dynamic:sip_uri.obj
 0002:00044910       _pjsip_uri_cmp             00497910 f   pjsip-core-i386-win32-vc8-debug-dynamic:sip_uri.obj
 0002:00044950       _pjsip_uri_get_scheme      00497950 f   pjsip-core-i386-win32-vc8-debug-dynamic:sip_uri.obj
 0002:00044980       _pjsip_uri_get_uri         00497980 f   pjsip-core-i386-win32-vc8-debug-dynamic:sip_uri.obj
 0002:000449b0       _pjsip_uri_print           004979b0 f   pjsip-core-i386-win32-vc8-debug-dynamic:sip_uri.obj
 0002:000449f0       _dns_a_callback            004979f0 f   pjsip-core-i386-win32-vc8-debug-dynamic:sip_resolve.obj
 0002:00044c70       _dns_aaaa_callback         00497c70 f   pjsip-core-i386-win32-vc8-debug-dynamic:sip_resolve.obj
 0002:00044f20       _get_ip_addr_ver           00497f20 f   pjsip-core-i386-win32-vc8-debug-dynamic:sip_resolve.obj
 0002:00044fb0       _pj_bzero                  00497fb0 f   pjsip-core-i386-win32-vc8-debug-dynamic:sip_resolve.obj
 0002:00044fe0       _pj_pool_zalloc            00497fe0 f   pjsip-core-i386-win32-vc8-debug-dynamic:sip_resolve.obj
 0002:00045fb0       _srv_resolver_cb           00498fb0 f   pjsip-core-i386-win32-vc8-debug-dynamic:sip_resolve.obj
 0002:00046540       _tel_uri_get_scheme        00499540 f   pjsip-core-i386-win32-vc8-debug-dynamic:sip_tel_uri.obj
 0002:00046560       _tel_uri_get_uri           00499560 f   pjsip-core-i386-win32-vc8-debug-dynamic:sip_tel_uri.obj
 0002:00046580       _tel_uri_print             00499580 f   pjsip-core-i386-win32-vc8-debug-dynamic:sip_tel_uri.obj
 0002:000468a0       _tel_uri_cmp               004998a0 f   pjsip-core-i386-win32-vc8-debug-dynamic:sip_tel_uri.obj
 0002:00046b30       _tel_uri_clone             00499b30 f   pjsip-core-i386-win32-vc8-debug-dynamic:sip_tel_uri.obj
 0002:00046c00       _pj_cis_match              00499c00 f   pjsip-core-i386-win32-vc8-debug-dynamic:sip_tel_uri.obj
 0002:00046c40       _pj_list_init              00499c40 f   pjsip-core-i386-win32-vc8-debug-dynamic:sip_tel_uri.obj
 0002:00046c70       _pj_memcpy                 00499c70 f   pjsip-core-i386-win32-vc8-debug-dynamic:sip_tel_uri.obj
 0002:00046ca0       _pj_pool_zalloc            00499ca0 f   pjsip-core-i386-win32-vc8-debug-dynamic:sip_tel_uri.obj
 0002:00046cd0       _pj_tolower                00499cd0 f   pjsip-core-i386-win32-vc8-debug-dynamic:sip_tel_uri.obj
 0002:00046d00       _pjsip_param_cfind         00499d00 f   pjsip-core-i386-win32-vc8-debug-dynamic:sip_tel_uri.obj
 0002:00047450       _tel_uri_parse             0049a450 f   pjsip-core-i386-win32-vc8-debug-dynamic:sip_tel_uri.obj
 0002:00047720       _mod_util_on_tsx_state     0049a720 f   pjsip-core-i386-win32-vc8-debug-dynamic:sip_util_statefull.obj
 0002:00047b60       _pjsip_msg_add_hdr         0049ab60 f   pjsip-core-i386-win32-vc8-debug-dynamic:sip_util_statefull.obj
 0002:00047b90       _pjsip_authorization_hdr_clone 0049ab90 f   pjsip-core-i386-win32-vc8-debug-dynamic:sip_auth_msg.obj
 0002:00047e10       _pjsip_authorization_hdr_shallow_clone 0049ae10 f   pjsip-core-i386-win32-vc8-debug-dynamic:sip_auth_msg.obj
 0002:00047e80       _pjsip_authorization_hdr_print 0049ae80 f   pjsip-core-i386-win32-vc8-debug-dynamic:sip_auth_msg.obj
 0002:00048080       _pjsip_www_authenticate_hdr_print 0049b080 f   pjsip-core-i386-win32-vc8-debug-dynamic:sip_auth_msg.obj
 0002:00048280       _pjsip_www_authenticate_hdr_clone 0049b280 f   pjsip-core-i386-win32-vc8-debug-dynamic:sip_auth_msg.obj
 0002:00048480       _pjsip_www_authenticate_hdr_shallow_clone 0049b480 f   pjsip-core-i386-win32-vc8-debug-dynamic:sip_auth_msg.obj
 0002:000484f0       _init_hdr                  0049b4f0 f   pjsip-core-i386-win32-vc8-debug-dynamic:sip_auth_msg.obj
 0002:000485b0       _pj_list_init              0049b5b0 f   pjsip-core-i386-win32-vc8-debug-dynamic:sip_auth_msg.obj
 0002:000485e0       _pj_memcpy                 0049b5e0 f   pjsip-core-i386-win32-vc8-debug-dynamic:sip_auth_msg.obj
 0002:00048610       _pj_pool_zalloc            0049b610 f   pjsip-core-i386-win32-vc8-debug-dynamic:sip_auth_msg.obj
 0002:000487c0       _print_digest_challenge    0049b7c0 f   pjsip-core-i386-win32-vc8-debug-dynamic:sip_auth_msg.obj
 0002:00048ea0       _print_digest_credential   0049bea0 f   pjsip-core-i386-win32-vc8-debug-dynamic:sip_auth_msg.obj
 0002:00049850       _print_pgp_challenge       0049c850 f   pjsip-core-i386-win32-vc8-debug-dynamic:sip_auth_msg.obj
 0002:00049870       _print_pgp_credential      0049c870 f   pjsip-core-i386-win32-vc8-debug-dynamic:sip_auth_msg.obj
 0002:00049890       _int_parse_hdr_authenticate 0049c890 f   pjsip-core-i386-win32-vc8-debug-dynamic:sip_auth_parser.obj
 0002:000499c0       _int_parse_hdr_authorization 0049c9c0 f   pjsip-core-i386-win32-vc8-debug-dynamic:sip_auth_parser.obj
 0002:00049af0       _parse_digest_challenge    0049caf0 f   pjsip-core-i386-win32-vc8-debug-dynamic:sip_auth_parser.obj
 0002:00049da0       _parse_digest_credential   0049cda0 f   pjsip-core-i386-win32-vc8-debug-dynamic:sip_auth_parser.obj
 0002:0004a080       _parse_hdr_authorization   0049d080 f   pjsip-core-i386-win32-vc8-debug-dynamic:sip_auth_parser.obj
 0002:0004a0d0       _parse_hdr_proxy_authenticate 0049d0d0 f   pjsip-core-i386-win32-vc8-debug-dynamic:sip_auth_parser.obj
 0002:0004a120       _parse_hdr_proxy_authorization 0049d120 f   pjsip-core-i386-win32-vc8-debug-dynamic:sip_auth_parser.obj
 0002:0004a170       _parse_hdr_www_authenticate 0049d170 f   pjsip-core-i386-win32-vc8-debug-dynamic:sip_auth_parser.obj
 0002:0004a1c0       _parse_pgp_challenge       0049d1c0 f   pjsip-core-i386-win32-vc8-debug-dynamic:sip_auth_parser.obj
 0002:0004a1f0       _parse_pgp_credential      0049d1f0 f   pjsip-core-i386-win32-vc8-debug-dynamic:sip_auth_parser.obj
 0002:0004a220       _pj_list_init              0049d220 f   pjsip-core-i386-win32-vc8-debug-dynamic:sip_auth_parser.obj
 0002:0004a250       _pj_scan_is_eof            0049d250 f   pjsip-core-i386-win32-vc8-debug-dynamic:sip_auth_parser.obj
 0002:0004aa70       _factory_init              0049da70 f   pjmedia-audiodev-i386-win32-vc8-debug-dynamic:wmme_dev.obj
 0002:0004aad0       _factory_destroy           0049dad0 f   pjmedia-audiodev-i386-win32-vc8-debug-dynamic:wmme_dev.obj
 0002:0004ab30       _factory_refresh           0049db30 f   pjmedia-audiodev-i386-win32-vc8-debug-dynamic:wmme_dev.obj
 0002:0004b0c0       _factory_get_dev_count     0049e0c0 f   pjmedia-audiodev-i386-win32-vc8-debug-dynamic:wmme_dev.obj
 0002:0004b0f0       _factory_get_dev_info      0049e0f0 f   pjmedia-audiodev-i386-win32-vc8-debug-dynamic:wmme_dev.obj
 0002:0004b190       _factory_default_param     0049e190 f   pjmedia-audiodev-i386-win32-vc8-debug-dynamic:wmme_dev.obj
 0002:0004b350       _factory_create_stream     0049e350 f   pjmedia-audiodev-i386-win32-vc8-debug-dynamic:wmme_dev.obj
 0002:0004b7d0       _stream_get_param          0049e7d0 f   pjmedia-audiodev-i386-win32-vc8-debug-dynamic:wmme_dev.obj
 0002:0004b890       _stream_get_cap            0049e890 f   pjmedia-audiodev-i386-win32-vc8-debug-dynamic:wmme_dev.obj
 0002:0004b9e0       _stream_set_cap            0049e9e0 f   pjmedia-audiodev-i386-win32-vc8-debug-dynamic:wmme_dev.obj
 0002:0004bb20       _stream_start              0049eb20 f   pjmedia-audiodev-i386-win32-vc8-debug-dynamic:wmme_dev.obj
 0002:0004bc10       _stream_stop               0049ec10 f   pjmedia-audiodev-i386-win32-vc8-debug-dynamic:wmme_dev.obj
 0002:0004bd40       _stream_destroy            0049ed40 f   pjmedia-audiodev-i386-win32-vc8-debug-dynamic:wmme_dev.obj
 0002:0004c000       _build_dev_info            0049f000 f   pjmedia-audiodev-i386-win32-vc8-debug-dynamic:wmme_dev.obj
 0002:0004c2b0       _get_dev_names             0049f2b0 f   pjmedia-audiodev-i386-win32-vc8-debug-dynamic:wmme_dev.obj
 0002:0004c2d0       _get_fmt_name              0049f2d0 f   pjmedia-audiodev-i386-win32-vc8-debug-dynamic:wmme_dev.obj
 0002:0004c340       _init_capture_stream       0049f340 f   pjmedia-audiodev-i386-win32-vc8-debug-dynamic:wmme_dev.obj
 0002:0004c690       _init_player_stream        0049f690 f   pjmedia-audiodev-i386-win32-vc8-debug-dynamic:wmme_dev.obj
 0002:0004ca20       _init_waveformatex         0049fa20 f   pjmedia-audiodev-i386-win32-vc8-debug-dynamic:wmme_dev.obj
 0002:0004cbe0       _pj_bzero                  0049fbe0 f   pjmedia-audiodev-i386-win32-vc8-debug-dynamic:wmme_dev.obj
 0002:0004cc10       _pj_memcpy                 0049fc10 f   pjmedia-audiodev-i386-win32-vc8-debug-dynamic:wmme_dev.obj
 0002:0004cc40       _pj_memset                 0049fc40 f   pjmedia-audiodev-i386-win32-vc8-debug-dynamic:wmme_dev.obj
 0002:0004cc70       _pj_pool_zalloc            0049fc70 f   pjmedia-audiodev-i386-win32-vc8-debug-dynamic:wmme_dev.obj
 0002:0004cca0       _pjmedia_format_init_audio 0049fca0 f   pjmedia-audiodev-i386-win32-vc8-debug-dynamic:wmme_dev.obj
 0002:0004cd20       _pjmedia_frame_ext_append_subframe 0049fd20 f   pjmedia-audiodev-i386-win32-vc8-debug-dynamic:wmme_dev.obj
 0002:0004ce00       _pjmedia_frame_ext_copy_payload 0049fe00 f   pjmedia-audiodev-i386-win32-vc8-debug-dynamic:wmme_dev.obj
 0002:0004cec0       _pjmedia_frame_ext_get_subframe 0049fec0 f   pjmedia-audiodev-i386-win32-vc8-debug-dynamic:wmme_dev.obj
 0002:0004cfd0       _wmme_dev_thread           0049ffd0 f   pjmedia-audiodev-i386-win32-vc8-debug-dynamic:wmme_dev.obj
 0002:0004d940       _apply_media_direction     004a0940 f   pjmedia-i386-win32-vc8-debug-dynamic:sdp.obj
 0002:0004dbb0       _init_sdp_parser           004a0bb0 f   pjmedia-i386-win32-vc8-debug-dynamic:sdp.obj
 0002:0004dc90       _on_scanner_error          004a0c90 f   pjmedia-i386-win32-vc8-debug-dynamic:sdp.obj
 0002:0004dcb0       _parse_attr                004a0cb0 f   pjmedia-i386-win32-vc8-debug-dynamic:sdp.obj
 0002:0004de20       _parse_bandwidth_info      004a0e20 f   pjmedia-i386-win32-vc8-debug-dynamic:sdp.obj
 0002:0004dec0       _parse_connection_info     004a0ec0 f   pjmedia-i386-win32-vc8-debug-dynamic:sdp.obj
 0002:0004df70       _parse_generic_line        004a0f70 f   pjmedia-i386-win32-vc8-debug-dynamic:sdp.obj
 0002:0004dff0       _parse_media               004a0ff0 f   pjmedia-i386-win32-vc8-debug-dynamic:sdp.obj
 0002:0004e230       _parse_origin              004a1230 f   pjmedia-i386-win32-vc8-debug-dynamic:sdp.obj
 0002:0004e3b0       _parse_time                004a13b0 f   pjmedia-i386-win32-vc8-debug-dynamic:sdp.obj
 0002:0004e490       _parse_version             004a1490 f   pjmedia-i386-win32-vc8-debug-dynamic:sdp.obj
 0002:0004e510       _pj_bzero                  004a1510 f   pjmedia-i386-win32-vc8-debug-dynamic:sdp.obj
 0002:0004e540       _pj_isdigit                004a1540 f   pjmedia-i386-win32-vc8-debug-dynamic:sdp.obj
 0002:0004e570       _pj_memcpy                 004a1570 f   pjmedia-i386-win32-vc8-debug-dynamic:sdp.obj
 0002:0004e5a0       _pj_pool_zalloc            004a15a0 f   pjmedia-i386-win32-vc8-debug-dynamic:sdp.obj
 0002:0004e5d0       _pj_scan_get_col           004a15d0 f   pjmedia-i386-win32-vc8-debug-dynamic:sdp.obj
 0002:0004e600       _pj_scan_is_eof            004a1600 f   pjmedia-i386-win32-vc8-debug-dynamic:sdp.obj
 0002:0004e640       _pj_strset                 004a1640 f   pjmedia-i386-win32-vc8-debug-dynamic:sdp.obj
 0002:000507d8       $LN73                      004a37d8     pjmedia-i386-win32-vc8-debug-dynamic:sdp.obj
 0002:00050800       $LN72                      004a3800     pjmedia-i386-win32-vc8-debug-dynamic:sdp.obj
 0002:00051620       _print_attr                004a4620 f   pjmedia-i386-win32-vc8-debug-dynamic:sdp.obj
 0002:00051730       _print_bandw               004a4730 f   pjmedia-i386-win32-vc8-debug-dynamic:sdp.obj
 0002:00051820       _print_connection_info     004a4820 f   pjmedia-i386-win32-vc8-debug-dynamic:sdp.obj
 0002:000518a0       _print_media_desc          004a48a0 f   pjmedia-i386-win32-vc8-debug-dynamic:sdp.obj
 0002:00051be0       _print_session             004a4be0 f   pjmedia-i386-win32-vc8-debug-dynamic:sdp.obj
 0002:00052110       _validate_sdp_conn         004a5110 f   pjmedia-i386-win32-vc8-debug-dynamic:sdp.obj
 0002:000521d0       _good_number               004a51d0 f   pjmedia-i386-win32-vc8-debug-dynamic:endpoint.obj
 0002:000522a0       _init_sdp_media            004a52a0 f   pjmedia-i386-win32-vc8-debug-dynamic:endpoint.obj
 0002:00052570       _pj_bzero                  004a5570 f   pjmedia-i386-win32-vc8-debug-dynamic:endpoint.obj
 0002:000525a0       _pj_list_init              004a55a0 f   pjmedia-i386-win32-vc8-debug-dynamic:endpoint.obj
 0002:000525d0       _pj_list_push_back         004a55d0 f   pjmedia-i386-win32-vc8-debug-dynamic:endpoint.obj
 0002:00052600       _pj_pool_zalloc            004a5600 f   pjmedia-i386-win32-vc8-debug-dynamic:endpoint.obj
 0002:00053f90       _worker_proc               004a6f90 f   pjmedia-i386-win32-vc8-debug-dynamic:endpoint.obj
 0002:000540f0       _g711_test_alloc           004a70f0 f   pjmedia-i386-win32-vc8-debug-dynamic:g711.obj
 0002:00054140       _g711_default_attr         004a7140 f   pjmedia-i386-win32-vc8-debug-dynamic:g711.obj
 0002:00054200       _g711_enum_codecs          004a7200 f   pjmedia-i386-win32-vc8-debug-dynamic:g711.obj
 0002:00054340       _g711_alloc_codec          004a7340 f   pjmedia-i386-win32-vc8-debug-dynamic:g711.obj
 0002:00054550       _g711_dealloc_codec        004a7550 f   pjmedia-i386-win32-vc8-debug-dynamic:g711.obj
 0002:000546d0       _g711_init                 004a76d0 f   pjmedia-i386-win32-vc8-debug-dynamic:g711.obj
 0002:000546f0       _g711_open                 004a76f0 f   pjmedia-i386-win32-vc8-debug-dynamic:g711.obj
 0002:00054780       _g711_close                004a7780 f   pjmedia-i386-win32-vc8-debug-dynamic:g711.obj
 0002:000547a0       _g711_modify               004a77a0 f   pjmedia-i386-win32-vc8-debug-dynamic:g711.obj
 0002:00054840       _g711_parse                004a7840 f   pjmedia-i386-win32-vc8-debug-dynamic:g711.obj
 0002:00054970       _g711_encode               004a7970 f   pjmedia-i386-win32-vc8-debug-dynamic:g711.obj
 0002:00054bc0       _g711_decode               004a7bc0 f   pjmedia-i386-win32-vc8-debug-dynamic:g711.obj
 0002:00054de0       _g711_recover              004a7de0 f   pjmedia-i386-win32-vc8-debug-dynamic:g711.obj
 0002:00054e90       _pj_bzero                  004a7e90 f   pjmedia-i386-win32-vc8-debug-dynamic:g711.obj
 0002:00054ec0       _pj_list_empty             004a7ec0 f   pjmedia-i386-win32-vc8-debug-dynamic:g711.obj
 0002:00054f00       _pj_list_init              004a7f00 f   pjmedia-i386-win32-vc8-debug-dynamic:g711.obj
 0002:00054f30       _pj_pool_zalloc            004a7f30 f   pjmedia-i386-win32-vc8-debug-dynamic:g711.obj
 0002:00054f60       _pj_timestamp_diff32       004a7f60 f   pjmedia-i386-win32-vc8-debug-dynamic:g711.obj
 0002:00055110       _pjmedia_zero_samples      004a8110 f   pjmedia-i386-win32-vc8-debug-dynamic:g711.obj
 0002:00055140       _pj_bzero                  004a8140 f   pjmedia-i386-win32-vc8-debug-dynamic:rtp.obj
 0002:000554b0       _pjmedia_rtp_seq_restart   004a84b0 f   pjmedia-i386-win32-vc8-debug-dynamic:rtp.obj
 0002:00055c50       _parse_rtcp_bye            004a8c50 f   pjmedia-i386-win32-vc8-debug-dynamic:rtcp.obj
 0002:00055d10       _parse_rtcp_fb             004a8d10 f   pjmedia-i386-win32-vc8-debug-dynamic:rtcp.obj
 0002:00055e00       _parse_rtcp_report         004a8e00 f   pjmedia-i386-win32-vc8-debug-dynamic:rtcp.obj
 0002:000562e0       _parse_rtcp_sdes           004a92e0 f   pjmedia-i386-win32-vc8-debug-dynamic:rtcp.obj
 0002:000564ac       $LN25                      004a94ac     pjmedia-i386-win32-vc8-debug-dynamic:rtcp.obj
 0002:00056550       _pj_bzero                  004a9550 f   pjmedia-i386-win32-vc8-debug-dynamic:rtcp.obj
 0002:00056580       _pj_math_stat_init         004a9580 f   pjmedia-i386-win32-vc8-debug-dynamic:rtcp.obj
 0002:000565b0       _pj_math_stat_update       004a95b0 f   pjmedia-i386-win32-vc8-debug-dynamic:rtcp.obj
 0002:000566d0       _pj_memcpy                 004a96d0 f   pjmedia-i386-win32-vc8-debug-dynamic:rtcp.obj
 0002:00057c18       $LN12                      004aac18     pjmedia-i386-win32-vc8-debug-dynamic:rtcp.obj
 0002:000580c0       _rtcp_init_seq             004ab0c0 f   pjmedia-i386-win32-vc8-debug-dynamic:rtcp.obj
 0002:00058120       _apply_answer_symmetric_pt 004ab120 f   pjmedia-i386-win32-vc8-debug-dynamic:sdp_neg.obj
 0002:000583c0       _create_answer             004ab3c0 f   pjmedia-i386-win32-vc8-debug-dynamic:sdp_neg.obj
 0002:000586f0       _custom_fmt_match          004ab6f0 f   pjmedia-i386-win32-vc8-debug-dynamic:sdp_neg.obj
 0002:000587c0       _match_offer               004ab7c0 f   pjmedia-i386-win32-vc8-debug-dynamic:sdp_neg.obj
 0002:00059320       _pj_bzero                  004ac320 f   pjmedia-i386-win32-vc8-debug-dynamic:sdp_neg.obj
 0002:00059350       _pj_isdigit                004ac350 f   pjmedia-i386-win32-vc8-debug-dynamic:sdp_neg.obj
 0002:00059380       _pj_memcpy                 004ac380 f   pjmedia-i386-win32-vc8-debug-dynamic:sdp_neg.obj
 0002:000593b0       _pj_memmove                004ac3b0 f   pjmedia-i386-win32-vc8-debug-dynamic:sdp_neg.obj
 0002:000593e0       _pj_pool_zalloc            004ac3e0 f   pjmedia-i386-win32-vc8-debug-dynamic:sdp_neg.obj
 0002:0005aeb0       _process_answer            004adeb0 f   pjmedia-i386-win32-vc8-debug-dynamic:sdp_neg.obj
 0002:0005b160       _process_m_answer          004ae160 f   pjmedia-i386-win32-vc8-debug-dynamic:sdp_neg.obj
 0002:0005b900       _remove_all_media_directions 004ae900 f   pjmedia-i386-win32-vc8-debug-dynamic:sdp_neg.obj
 0002:0005b970       _rewrite_pt                004ae970 f   pjmedia-i386-win32-vc8-debug-dynamic:sdp_neg.obj
 0002:0005ba80       _sdp_media_clone_deactivate 004aea80 f   pjmedia-i386-win32-vc8-debug-dynamic:sdp_neg.obj
 0002:0005bbb0       _str_swap                  004aebb0 f   pjmedia-i386-win32-vc8-debug-dynamic:sdp_neg.obj
 0002:0005bc00       _update_media_direction    004aec00 f   pjmedia-i386-win32-vc8-debug-dynamic:sdp_neg.obj
 0002:0005be20       _get_audio_codec_info_param 004aee20 f   pjmedia-i386-win32-vc8-debug-dynamic:stream_info.obj
 0002:0005c790       _get_opus_channels_and_clock_rate 004af790 f   pjmedia-i386-win32-vc8-debug-dynamic:stream_info.obj
 0002:0005ca20       _pj_bzero                  004afa20 f   pjmedia-i386-win32-vc8-debug-dynamic:stream_info.obj
 0002:0005ca50       _pj_isdigit                004afa50 f   pjmedia-i386-win32-vc8-debug-dynamic:stream_info.obj
 0002:0005ca80       _pj_memcpy                 004afa80 f   pjmedia-i386-win32-vc8-debug-dynamic:stream_info.obj
 0002:0005d460       _transport_get_info        004b0460 f   pjmedia-i386-win32-vc8-debug-dynamic:transport_udp.obj
 0002:0005d5e0       _transport_attach          004b05e0 f   pjmedia-i386-win32-vc8-debug-dynamic:transport_udp.obj
 0002:0005d630       _transport_attach2         004b0630 f   pjmedia-i386-win32-vc8-debug-dynamic:transport_udp.obj
 0002:0005d690       _transport_detach          004b0690 f   pjmedia-i386-win32-vc8-debug-dynamic:transport_udp.obj
 0002:0005d830       _transport_send_rtp        004b0830 f   pjmedia-i386-win32-vc8-debug-dynamic:transport_udp.obj
 0002:0005d9d0       _transport_send_rtcp       004b09d0 f   pjmedia-i386-win32-vc8-debug-dynamic:transport_udp.obj
 0002:0005da10       _transport_send_rtcp2      004b0a10 f   pjmedia-i386-win32-vc8-debug-dynamic:transport_udp.obj
 0002:0005dad0       _transport_media_create    004b0ad0 f   pjmedia-i386-win32-vc8-debug-dynamic:transport_udp.obj
 0002:0005db80       _transport_encode_sdp      004b0b80 f   pjmedia-i386-win32-vc8-debug-dynamic:transport_udp.obj
 0002:0005de50       _transport_media_start     004b0e50 f   pjmedia-i386-win32-vc8-debug-dynamic:transport_udp.obj
 0002:0005dfe0       _transport_media_stop      004b0fe0 f   pjmedia-i386-win32-vc8-debug-dynamic:transport_udp.obj
 0002:0005e0b0       _transport_simulate_lost   004b10b0 f   pjmedia-i386-win32-vc8-debug-dynamic:transport_udp.obj
 0002:0005e150       _transport_destroy         004b1150 f   pjmedia-i386-win32-vc8-debug-dynamic:transport_udp.obj
 0002:0005e2c0       _on_rx_rtcp                004b12c0 f   pjmedia-i386-win32-vc8-debug-dynamic:transport_udp.obj
 0002:0005e500       _on_rx_rtp                 004b1500 f   pjmedia-i386-win32-vc8-debug-dynamic:transport_udp.obj
 0002:0005e8c0       _pj_bzero                  004b18c0 f   pjmedia-i386-win32-vc8-debug-dynamic:transport_udp.obj
 0002:0005e8f0       _pj_memcpy                 004b18f0 f   pjmedia-i386-win32-vc8-debug-dynamic:transport_udp.obj
 0002:0005e920       _pj_pool_zalloc            004b1920 f   pjmedia-i386-win32-vc8-debug-dynamic:transport_udp.obj
 0002:0005f0a0       _tp_attach                 004b20a0 f   pjmedia-i386-win32-vc8-debug-dynamic:transport_udp.obj
 0002:0005f3f0       _get_cap_pointer           004b23f0 f   pjmedia-i386-win32-vc8-debug-dynamic:audiodev.obj
 0002:0005f5a0       $LN20                      004b25a0     pjmedia-i386-win32-vc8-debug-dynamic:audiodev.obj
 0002:0005f5b8       $LN19                      004b25b8     pjmedia-i386-win32-vc8-debug-dynamic:audiodev.obj
 0002:0005f640       _lookup_dev                004b2640 f   pjmedia-i386-win32-vc8-debug-dynamic:audiodev.obj
 0002:0005f7f0       _make_global_index         004b27f0 f   pjmedia-i386-win32-vc8-debug-dynamic:audiodev.obj
 0002:0005f900       _pj_bzero                  004b2900 f   pjmedia-i386-win32-vc8-debug-dynamic:audiodev.obj
 0002:0005f930       _pj_memcpy                 004b2930 f   pjmedia-i386-win32-vc8-debug-dynamic:audiodev.obj
 0002:00060a10       _pj_bzero                  004b3a10 f   pjmedia-i386-win32-vc8-debug-dynamic:codec.obj
 0002:00060a40       _pj_list_init              004b3a40 f   pjmedia-i386-win32-vc8-debug-dynamic:codec.obj
 0002:00060a70       _pj_list_push_back         004b3a70 f   pjmedia-i386-win32-vc8-debug-dynamic:codec.obj
 0002:00060aa0       _pj_memcpy                 004b3aa0 f   pjmedia-i386-win32-vc8-debug-dynamic:codec.obj
 0002:00060ad0       _pj_pool_zalloc            004b3ad0 f   pjmedia-i386-win32-vc8-debug-dynamic:codec.obj
 0002:00062120       _sort_codecs               004b5120 f   pjmedia-i386-win32-vc8-debug-dynamic:codec.obj
 0002:00062230       _swap_codec                004b5230 f   pjmedia-i386-win32-vc8-debug-dynamic:codec.obj
 0002:000624d0       _plc_wsola_create          004b54d0 f   pjmedia-i386-win32-vc8-debug-dynamic:plc_common.obj
 0002:00062560       _plc_wsola_save            004b5560 f   pjmedia-i386-win32-vc8-debug-dynamic:plc_common.obj
 0002:000625b0       _plc_wsola_generate        004b55b0 f   pjmedia-i386-win32-vc8-debug-dynamic:plc_common.obj
 0002:000625f0       _pj_pool_zalloc            004b55f0 f   pjmedia-i386-win32-vc8-debug-dynamic:plc_common.obj
 0002:00062860       _pj_pool_zalloc            004b5860 f   pjmedia-i386-win32-vc8-debug-dynamic:silencedet.obj
 0002:00063120       _event_mgr_distribute_events 004b6120 f   pjmedia-i386-win32-vc8-debug-dynamic:event.obj
 0002:00063280       _event_queue_add_event     004b6280 f   pjmedia-i386-win32-vc8-debug-dynamic:event.obj
 0002:00063390       _event_worker_thread       004b6390 f   pjmedia-i386-win32-vc8-debug-dynamic:event.obj
 0002:00063430       _pj_bzero                  004b6430 f   pjmedia-i386-win32-vc8-debug-dynamic:event.obj
 0002:00063460       _pj_list_init              004b6460 f   pjmedia-i386-win32-vc8-debug-dynamic:event.obj
 0002:00063490       _pj_list_push_back         004b6490 f   pjmedia-i386-win32-vc8-debug-dynamic:event.obj
 0002:000634c0       _pj_memcpy                 004b64c0 f   pjmedia-i386-win32-vc8-debug-dynamic:event.obj
 0002:000634f0       _pj_pool_zalloc            004b64f0 f   pjmedia-i386-win32-vc8-debug-dynamic:event.obj
 0002:00063e80       _pjmedia_fourcc_name       004b6e80 f   pjmedia-i386-win32-vc8-debug-dynamic:event.obj
 0002:00063f30       _add_sdp_attr_rtcp_fb      004b6f30 f   pjmedia-i386-win32-vc8-debug-dynamic:rtcp_fb.obj
 0002:000640f0       _get_codec_info_from_sdp   004b70f0 f   pjmedia-i386-win32-vc8-debug-dynamic:rtcp_fb.obj
 0002:000642d0       _pj_bzero                  004b72d0 f   pjmedia-i386-win32-vc8-debug-dynamic:rtcp_fb.obj
 0002:00064300       _pj_cstr                   004b7300 f   pjmedia-i386-win32-vc8-debug-dynamic:rtcp_fb.obj
 0002:00064360       _pj_memcpy                 004b7360 f   pjmedia-i386-win32-vc8-debug-dynamic:rtcp_fb.obj
 0002:00064390       _pj_pool_zalloc            004b7390 f   pjmedia-i386-win32-vc8-debug-dynamic:rtcp_fb.obj
 0002:000643c0       _pj_strset                 004b73c0 f   pjmedia-i386-win32-vc8-debug-dynamic:rtcp_fb.obj
 0002:000643f0       _pj_strset2                004b73f0 f   pjmedia-i386-win32-vc8-debug-dynamic:rtcp_fb.obj
 0002:00064c80       _pjmedia_rtcp_fb_cap_dup   004b7c80 f   pjmedia-i386-win32-vc8-debug-dynamic:rtcp_fb.obj
 0002:00065f80       _pj_bzero                  004b8f80 f   pjmedia-i386-win32-vc8-debug-dynamic:stream_common.obj
 0002:00065fb0       _pj_strset                 004b8fb0 f   pjmedia-i386-win32-vc8-debug-dynamic:stream_common.obj
 0002:00066340       _transport_get_info        004b9340 f   pjmedia-i386-win32-vc8-debug-dynamic:transport_srtp.obj
 0002:00066580       _transport_detach          004b9580 f   pjmedia-i386-win32-vc8-debug-dynamic:transport_srtp.obj
 0002:00066680       _transport_send_rtp        004b9680 f   pjmedia-i386-win32-vc8-debug-dynamic:transport_srtp.obj
 0002:000667d0       _transport_send_rtcp       004b97d0 f   pjmedia-i386-win32-vc8-debug-dynamic:transport_srtp.obj
 0002:00066810       _transport_send_rtcp2      004b9810 f   pjmedia-i386-win32-vc8-debug-dynamic:transport_srtp.obj
 0002:00066980       _transport_media_create    004b9980 f   pjmedia-i386-win32-vc8-debug-dynamic:transport_srtp.obj
 0002:00066cb0       _transport_encode_sdp      004b9cb0 f   pjmedia-i386-win32-vc8-debug-dynamic:transport_srtp.obj
 0002:00067050       _transport_media_start     004ba050 f   pjmedia-i386-win32-vc8-debug-dynamic:transport_srtp.obj
 0002:000672c0       _transport_media_stop      004ba2c0 f   pjmedia-i386-win32-vc8-debug-dynamic:transport_srtp.obj
 0002:000673e0       _transport_simulate_lost   004ba3e0 f   pjmedia-i386-win32-vc8-debug-dynamic:transport_srtp.obj
 0002:00067460       _transport_destroy         004ba460 f   pjmedia-i386-win32-vc8-debug-dynamic:transport_srtp.obj
 0002:000675a0       _transport_attach2         004ba5a0 f   pjmedia-i386-win32-vc8-debug-dynamic:transport_srtp.obj
 0002:000677e0       _sdes_media_create         004ba7e0 f   pjmedia-i386-win32-vc8-debug-dynamic:transport_srtp.obj
 0002:000678d0       _sdes_encode_sdp           004ba8d0 f   pjmedia-i386-win32-vc8-debug-dynamic:transport_srtp.obj
 0002:00068290       _sdes_media_start          004bb290 f   pjmedia-i386-win32-vc8-debug-dynamic:transport_srtp.obj
 0002:000687a0       _sdes_media_stop           004bb7a0 f   pjmedia-i386-win32-vc8-debug-dynamic:transport_srtp.obj
 0002:000687c0       _fill_local_crypto         004bb7c0 f   pjmedia-i386-win32-vc8-debug-dynamic:transport_srtp.obj
 0002:00068920       _generate_crypto_attr_value 004bb920 f   pjmedia-i386-win32-vc8-debug-dynamic:transport_srtp.obj
 0002:00068d70       _get_crypto_idx            004bbd70 f   pjmedia-i386-win32-vc8-debug-dynamic:transport_srtp.obj
 0002:00068e50       _parse_attr_crypto         004bbe50 f   pjmedia-i386-win32-vc8-debug-dynamic:transport_srtp.obj
 0002:00069230       _pj_bzero                  004bc230 f   pjmedia-i386-win32-vc8-debug-dynamic:transport_srtp.obj
 0002:00069260       _pj_isdigit                004bc260 f   pjmedia-i386-win32-vc8-debug-dynamic:transport_srtp.obj
 0002:00069290       _pj_memcpy                 004bc290 f   pjmedia-i386-win32-vc8-debug-dynamic:transport_srtp.obj
 0002:000692c0       _pj_memmove                004bc2c0 f   pjmedia-i386-win32-vc8-debug-dynamic:transport_srtp.obj
 0002:000692f0       _pj_pool_zalloc            004bc2f0 f   pjmedia-i386-win32-vc8-debug-dynamic:transport_srtp.obj
 0002:00069320       _pj_strset                 004bc320 f   pjmedia-i386-win32-vc8-debug-dynamic:transport_srtp.obj
 0002:00069350       _pjmedia_srtp_deinit_lib   004bc350 f   pjmedia-i386-win32-vc8-debug-dynamic:transport_srtp.obj
 0002:000696c0       _pjmedia_transport_attach2 004bc6c0 f   pjmedia-i386-win32-vc8-debug-dynamic:transport_srtp.obj
 0002:00069750       _pjmedia_transport_close   004bc750 f   pjmedia-i386-win32-vc8-debug-dynamic:transport_srtp.obj
 0002:000697a0       _pjmedia_transport_detach  004bc7a0 f   pjmedia-i386-win32-vc8-debug-dynamic:transport_srtp.obj
 0002:000697d0       _pjmedia_transport_encode_sdp 004bc7d0 f   pjmedia-i386-win32-vc8-debug-dynamic:transport_srtp.obj
 0002:00069810       _pjmedia_transport_get_info 004bc810 f   pjmedia-i386-win32-vc8-debug-dynamic:transport_srtp.obj
 0002:00069870       _pjmedia_transport_media_create 004bc870 f   pjmedia-i386-win32-vc8-debug-dynamic:transport_srtp.obj
 0002:000698b0       _pjmedia_transport_media_start 004bc8b0 f   pjmedia-i386-win32-vc8-debug-dynamic:transport_srtp.obj
 0002:000698f0       _pjmedia_transport_media_stop 004bc8f0 f   pjmedia-i386-win32-vc8-debug-dynamic:transport_srtp.obj
 0002:00069920       _pjmedia_transport_send_rtcp2 004bc920 f   pjmedia-i386-win32-vc8-debug-dynamic:transport_srtp.obj
 0002:00069960       _pjmedia_transport_send_rtp 004bc960 f   pjmedia-i386-win32-vc8-debug-dynamic:transport_srtp.obj
 0002:000699a0       _pjmedia_transport_simulate_lost 004bc9a0 f   pjmedia-i386-win32-vc8-debug-dynamic:transport_srtp.obj
 0002:0006ae70       _sdes_create               004bde70 f   pjmedia-i386-win32-vc8-debug-dynamic:transport_srtp.obj
 0002:0006af40       _srtp_crypto_cmp           004bdf40 f   pjmedia-i386-win32-vc8-debug-dynamic:transport_srtp.obj
 0002:0006afd0       _srtp_crypto_empty         004bdfd0 f   pjmedia-i386-win32-vc8-debug-dynamic:transport_srtp.obj
 0002:0006b020       _srtp_rtcp_cb              004be020 f   pjmedia-i386-win32-vc8-debug-dynamic:transport_srtp.obj
 0002:0006b1e0       _srtp_rtp_cb               004be1e0 f   pjmedia-i386-win32-vc8-debug-dynamic:transport_srtp.obj
 0002:0006b700       _start_srtp                004be700 f   pjmedia-i386-win32-vc8-debug-dynamic:transport_srtp.obj
 0002:0006b8e0       _compress                  004be8e0 f   pjmedia-i386-win32-vc8-debug-dynamic:wsola.obj
 0002:0006bab0       _create_win                004beab0 f   pjmedia-i386-win32-vc8-debug-dynamic:wsola.obj
 0002:0006bbc0       _expand                    004bebc0 f   pjmedia-i386-win32-vc8-debug-dynamic:wsola.obj
 0002:0006bde0       _fade_in                   004bede0 f   pjmedia-i386-win32-vc8-debug-dynamic:wsola.obj
 0002:0006bef0       _find_pitch                004beef0 f   pjmedia-i386-win32-vc8-debug-dynamic:wsola.obj
 0002:0006c1b0       _overlapp_add              004bf1b0 f   pjmedia-i386-win32-vc8-debug-dynamic:wsola.obj
 0002:0006c250       _overlapp_add_simple       004bf250 f   pjmedia-i386-win32-vc8-debug-dynamic:wsola.obj
 0002:0006c340       _pj_bzero                  004bf340 f   pjmedia-i386-win32-vc8-debug-dynamic:wsola.obj
 0002:0006c370       _pj_memcpy                 004bf370 f   pjmedia-i386-win32-vc8-debug-dynamic:wsola.obj
 0002:0006c3a0       _pj_memmove                004bf3a0 f   pjmedia-i386-win32-vc8-debug-dynamic:wsola.obj
 0002:0006c3d0       _pj_pool_zalloc            004bf3d0 f   pjmedia-i386-win32-vc8-debug-dynamic:wsola.obj
 0002:0006c400       _pjmedia_circ_buf_adv_read_ptr 004bf400 f   pjmedia-i386-win32-vc8-debug-dynamic:wsola.obj
 0002:0006c4a0       _pjmedia_circ_buf_adv_write_ptr 004bf4a0 f   pjmedia-i386-win32-vc8-debug-dynamic:wsola.obj
 0002:0006c4f0       _pjmedia_circ_buf_copy     004bf4f0 f   pjmedia-i386-win32-vc8-debug-dynamic:wsola.obj
 0002:0006c5f0       _pjmedia_circ_buf_create   004bf5f0 f   pjmedia-i386-win32-vc8-debug-dynamic:wsola.obj
 0002:0006c670       _pjmedia_circ_buf_get_len  004bf670 f   pjmedia-i386-win32-vc8-debug-dynamic:wsola.obj
 0002:0006c690       _pjmedia_circ_buf_get_read_regions 004bf690 f   pjmedia-i386-win32-vc8-debug-dynamic:wsola.obj
 0002:0006c750       _pjmedia_circ_buf_get_write_regions 004bf750 f   pjmedia-i386-win32-vc8-debug-dynamic:wsola.obj
 0002:0006c850       _pjmedia_circ_buf_pack_buffer 004bf850 f   pjmedia-i386-win32-vc8-debug-dynamic:wsola.obj
 0002:0006c9c0       _pjmedia_circ_buf_reset    004bf9c0 f   pjmedia-i386-win32-vc8-debug-dynamic:wsola.obj
 0002:0006c9f0       _pjmedia_circ_buf_set_len  004bf9f0 f   pjmedia-i386-win32-vc8-debug-dynamic:wsola.obj
 0002:0006ca10       _pjmedia_circ_buf_write    004bfa10 f   pjmedia-i386-win32-vc8-debug-dynamic:wsola.obj
 0002:0006cae0       _pjmedia_copy_samples      004bfae0 f   pjmedia-i386-win32-vc8-debug-dynamic:wsola.obj
 0002:0006cb10       _pjmedia_move_samples      004bfb10 f   pjmedia-i386-win32-vc8-debug-dynamic:wsola.obj
 0002:0006dcd0       _pjmedia_zero_samples      004c0cd0 f   pjmedia-i386-win32-vc8-debug-dynamic:wsola.obj
 0002:0006dd00       _wsola_fade_out            004c0d00 f   pjmedia-i386-win32-vc8-debug-dynamic:wsola.obj
 0002:0006e0b0       __getopt_initialize        004c10b0 f   pjlib-util-i386-win32-vc8-debug-dynamic:getopt.obj
 0002:0006e190       __getopt_internal          004c1190 f   pjlib-util-i386-win32-vc8-debug-dynamic:getopt.obj
 0002:0006eec0       _exchange                  004c1ec0 f   pjlib-util-i386-win32-vc8-debug-dynamic:getopt.obj
 0002:0006f070       _my_index                  004c2070 f   pjlib-util-i386-win32-vc8-debug-dynamic:getopt.obj
 0002:0006f140       _pj_bzero                  004c2140 f   pjlib-util-i386-win32-vc8-debug-dynamic:scanner.obj
 0002:0006f6d0       _pj_cis_match              004c26d0 f   pjlib-util-i386-win32-vc8-debug-dynamic:scanner.obj
 0002:0006f710       _pj_hex_digit_to_val       004c2710 f   pjlib-util-i386-win32-vc8-debug-dynamic:scanner.obj
 0002:0006f770       _pj_isxdigit               004c2770 f   pjlib-util-i386-win32-vc8-debug-dynamic:scanner.obj
 0002:0006f7a0       _pj_memmove                004c27a0 f   pjlib-util-i386-win32-vc8-debug-dynamic:scanner.obj
 0002:000709d0       _pj_scan_syntax_err        004c39d0 f   pjlib-util-i386-win32-vc8-debug-dynamic:scanner.obj
 0002:00070a00       _pj_strset                 004c3a00 f   pjlib-util-i386-win32-vc8-debug-dynamic:scanner.obj
 0002:00070a30       _pj_strset3                004c3a30 f   pjlib-util-i386-win32-vc8-debug-dynamic:scanner.obj
 0002:00070a60       _pj_cis_match              004c3a60 f   pjlib-util-i386-win32-vc8-debug-dynamic:string.obj
 0002:00070aa0       _pj_hex_digit_to_val       004c3aa0 f   pjlib-util-i386-win32-vc8-debug-dynamic:string.obj
 0002:00070b00       _pj_isxdigit               004c3b00 f   pjlib-util-i386-win32-vc8-debug-dynamic:string.obj
 0002:00070c90       _pj_strchr                 004c3c90 f   pjlib-util-i386-win32-vc8-debug-dynamic:string.obj
 0002:00070f70       _pj_val_to_hex_digit       004c3f70 f   pjlib-util-i386-win32-vc8-debug-dynamic:string.obj
 0002:00070fc0       _alloc_entry               004c3fc0 f   pjlib-util-i386-win32-vc8-debug-dynamic:resolver.obj
 0002:00071040       _alloc_qnode               004c4040 f   pjlib-util-i386-win32-vc8-debug-dynamic:resolver.obj
 0002:00071130       _close_sock                004c4130 f   pjlib-util-i386-win32-vc8-debug-dynamic:resolver.obj
 0002:000711d0       _dns_resolver_on_destroy   004c41d0 f   pjlib-util-i386-win32-vc8-debug-dynamic:resolver.obj
 0002:00071200       _free_entry                004c4200 f   pjlib-util-i386-win32-vc8-debug-dynamic:resolver.obj
 0002:00071230       _init_res_key              004c4230 f   pjlib-util-i386-win32-vc8-debug-dynamic:resolver.obj
 0002:00071300       _init_sock                 004c4300 f   pjlib-util-i386-win32-vc8-debug-dynamic:resolver.obj
 0002:000714c0       _on_read_complete          004c44c0 f   pjlib-util-i386-win32-vc8-debug-dynamic:resolver.obj
 0002:00071bf0       _on_timeout                004c4bf0 f   pjlib-util-i386-win32-vc8-debug-dynamic:resolver.obj
 0002:00071ef0       _pj_bzero                  004c4ef0 f   pjlib-util-i386-win32-vc8-debug-dynamic:resolver.obj
 0002:000743b0       _pj_list_empty             004c73b0 f   pjlib-util-i386-win32-vc8-debug-dynamic:resolver.obj
 0002:000743f0       _pj_list_init              004c73f0 f   pjlib-util-i386-win32-vc8-debug-dynamic:resolver.obj
 0002:00074420       _pj_list_push_back         004c7420 f   pjlib-util-i386-win32-vc8-debug-dynamic:resolver.obj
 0002:00074450       _pj_memcpy                 004c7450 f   pjlib-util-i386-win32-vc8-debug-dynamic:resolver.obj
 0002:00074480       _pj_pool_zalloc            004c7480 f   pjlib-util-i386-win32-vc8-debug-dynamic:resolver.obj
 0002:000744b0       _pj_tolower                004c74b0 f   pjlib-util-i386-win32-vc8-debug-dynamic:resolver.obj
 0002:000744e0       _report_nameserver_status  004c74e0 f   pjlib-util-i386-win32-vc8-debug-dynamic:resolver.obj
 0002:00074680       _reset_entry               004c7680 f   pjlib-util-i386-win32-vc8-debug-dynamic:resolver.obj
 0002:00074710       _select_nameservers        004c7710 f   pjlib-util-i386-win32-vc8-debug-dynamic:resolver.obj
 0002:00074a10       _set_nameserver_state      004c7a10 f   pjlib-util-i386-win32-vc8-debug-dynamic:resolver.obj
 0002:00074b70       _transmit_query            004c7b70 f   pjlib-util-i386-win32-vc8-debug-dynamic:resolver.obj
 0002:00075050       _update_res_cache          004c8050 f   pjlib-util-i386-win32-vc8-debug-dynamic:resolver.obj
 0002:000753e0       _MD5Transform              004c83e0 f   pjlib-util-i386-win32-vc8-debug-dynamic:md5.obj
 0002:000768e0       _pj_bzero                  004c98e0 f   pjlib-util-i386-win32-vc8-debug-dynamic:md5.obj
 0002:00076cf0       _pj_memcpy                 004c9cf0 f   pjlib-util-i386-win32-vc8-debug-dynamic:md5.obj
 0002:00076d20       _apply_name_table          004c9d20 f   pjlib-util-i386-win32-vc8-debug-dynamic:dns.obj
 0002:00076e10       _copy_query                004c9e10 f   pjlib-util-i386-win32-vc8-debug-dynamic:dns.obj
 0002:00076e60       _copy_rr                   004c9e60 f   pjlib-util-i386-win32-vc8-debug-dynamic:dns.obj
 0002:00077030       _get_name                  004ca030 f   pjlib-util-i386-win32-vc8-debug-dynamic:dns.obj
 0002:00077210       _get_name_len              004ca210 f   pjlib-util-i386-win32-vc8-debug-dynamic:dns.obj
 0002:00077410       _parse_query               004ca410 f   pjlib-util-i386-win32-vc8-debug-dynamic:dns.obj
 0002:00077570       _parse_rr                  004ca570 f   pjlib-util-i386-win32-vc8-debug-dynamic:dns.obj
 0002:00077b20       _pj_bzero                  004cab20 f   pjlib-util-i386-win32-vc8-debug-dynamic:dns.obj
 0002:00077bcc       $LN15                      004cabcc     pjlib-util-i386-win32-vc8-debug-dynamic:dns.obj
 0002:00077bf4       $LN14                      004cabf4     pjlib-util-i386-win32-vc8-debug-dynamic:dns.obj
 0002:00078990       _pj_memcpy                 004cb990 f   pjlib-util-i386-win32-vc8-debug-dynamic:dns.obj
 0002:000789c0       _pj_pool_zalloc            004cb9c0 f   pjlib-util-i386-win32-vc8-debug-dynamic:dns.obj
 0002:000789f0       _write16                   004cb9f0 f   pjlib-util-i386-win32-vc8-debug-dynamic:dns.obj
 0002:00078a40       _build_server_entries      004cba40 f   pjlib-util-i386-win32-vc8-debug-dynamic:srv_resolver.obj
 0002:000798d0       _dns_callback              004cc8d0 f   pjlib-util-i386-win32-vc8-debug-dynamic:srv_resolver.obj
 0002:0007a730       _pj_bzero                  004cd730 f   pjlib-util-i386-win32-vc8-debug-dynamic:srv_resolver.obj
 0002:0007aba0       _pj_memcpy                 004cdba0 f   pjlib-util-i386-win32-vc8-debug-dynamic:srv_resolver.obj
 0002:0007abd0       _pj_pool_zalloc            004cdbd0 f   pjlib-util-i386-win32-vc8-debug-dynamic:srv_resolver.obj
 0002:0007ac00       _resolve_hostnames         004cdc00 f   pjlib-util-i386-win32-vc8-debug-dynamic:srv_resolver.obj
 0002:0007ae20       _base256_char              004cde20 f   pjlib-util-i386-win32-vc8-debug-dynamic:base64.obj
 0002:0007aee0       _base256to64               004cdee0 f   pjlib-util-i386-win32-vc8-debug-dynamic:base64.obj
 0002:0007b5c0       _init_mutex                004ce5c0 f   pjlib-i386-win32-vc8-debug-dynamic:os_core_win32.obj
 0002:0007b6a0       _os_attr_to_pj_color       004ce6a0 f   pjlib-i386-win32-vc8-debug-dynamic:os_core_win32.obj
 0002:0007bb00       _pj_bzero                  004ceb00 f   pjlib-i386-win32-vc8-debug-dynamic:os_core_win32.obj
 0002:0007bb30       _pj_color_to_os_attr       004ceb30 f   pjlib-i386-win32-vc8-debug-dynamic:os_core_win32.obj
 0002:0007c270       _pj_event_wait_for         004cf270 f   pjlib-i386-win32-vc8-debug-dynamic:os_core_win32.obj
 0002:0007d4e0       _pj_sem_wait_for           004d04e0 f   pjlib-i386-win32-vc8-debug-dynamic:os_core_win32.obj
 0002:0007d780       _pj_strlen                 004d0780 f   pjlib-i386-win32-vc8-debug-dynamic:os_core_win32.obj
 0002:0007e6a0       _thread_main@4             004d16a0 f   pjlib-i386-win32-vc8-debug-dynamic:os_core_win32.obj
 0002:0007e8d0       _invoke_log                004d18d0 f   pjlib-i386-win32-vc8-debug-dynamic:errno.obj
 0002:0007e920       _pj_bzero                  004d1920 f   pjlib-i386-win32-vc8-debug-dynamic:errno.obj
 0002:0007e990       _pj_memcpy                 004d1990 f   pjlib-i386-win32-vc8-debug-dynamic:errno.obj
 0002:0007eba0       _pj_perror_imp             004d1ba0 f   pjlib-i386-win32-vc8-debug-dynamic:errno.obj
 0002:0007f0b0       _pjlib_error               004d20b0 f   pjlib-i386-win32-vc8-debug-dynamic:errno.obj
 0002:0007f1a0       _pj_bzero                  004d21a0 f   pjlib-i386-win32-vc8-debug-dynamic:sock_bsd.obj
 0002:0007f920       _pj_memcpy                 004d2920 f   pjlib-i386-win32-vc8-debug-dynamic:sock_bsd.obj
 0002:000809d0       _pj_bzero                  004d39d0 f   pjlib-i386-win32-vc8-debug-dynamic:sock_common.obj
 0002:00081ae0       _pj_isdigit                004d4ae0 f   pjlib-i386-win32-vc8-debug-dynamic:sock_common.obj
 0002:00081b10       _pj_memcmp                 004d4b10 f   pjlib-i386-win32-vc8-debug-dynamic:sock_common.obj
 0002:00081b40       _pj_memcpy                 004d4b40 f   pjlib-i386-win32-vc8-debug-dynamic:sock_common.obj
 0002:000834b0       _pj_strchr                 004d64b0 f   pjlib-i386-win32-vc8-debug-dynamic:sock_common.obj
 0002:00083520       _pj_bzero                  004d6520 f   pjlib-i386-win32-vc8-debug-dynamic:pool.obj
 0002:00083550       _pj_list_init              004d6550 f   pjlib-i386-win32-vc8-debug-dynamic:pool.obj
 0002:00083870       _pj_pool_create_block      004d6870 f   pjlib-i386-win32-vc8-debug-dynamic:pool.obj
 0002:00083dd0       _reset_pool                004d6dd0 f   pjlib-i386-win32-vc8-debug-dynamic:pool.obj
 0002:00083ec0       _cpool_create_pool         004d6ec0 f   pjlib-i386-win32-vc8-debug-dynamic:pool_caching.obj
 0002:00084120       _cpool_dump_status         004d7120 f   pjlib-i386-win32-vc8-debug-dynamic:pool_caching.obj
 0002:00084330       _cpool_on_block_alloc      004d7330 f   pjlib-i386-win32-vc8-debug-dynamic:pool_caching.obj
 0002:00084390       _cpool_on_block_free       004d7390 f   pjlib-i386-win32-vc8-debug-dynamic:pool_caching.obj
 0002:000843c0       _cpool_release_pool        004d73c0 f   pjlib-i386-win32-vc8-debug-dynamic:pool_caching.obj
 0002:000845c0       _pj_bzero                  004d75c0 f   pjlib-i386-win32-vc8-debug-dynamic:pool_caching.obj
 0002:000848b0       _pj_list_empty             004d78b0 f   pjlib-i386-win32-vc8-debug-dynamic:pool_caching.obj
 0002:000848f0       _pj_list_init              004d78f0 f   pjlib-i386-win32-vc8-debug-dynamic:pool_caching.obj
 0002:00084920       _pj_memcpy                 004d7920 f   pjlib-i386-win32-vc8-debug-dynamic:pool_caching.obj
 0002:00084aa0       _pj_hex_digit_to_val       004d7aa0 f   pjlib-i386-win32-vc8-debug-dynamic:string.obj
 0002:00084b00       _pj_isdigit                004d7b00 f   pjlib-i386-win32-vc8-debug-dynamic:string.obj
 0002:00084b30       _pj_isspace                004d7b30 f   pjlib-i386-win32-vc8-debug-dynamic:string.obj
 0002:00084b60       _pj_isxdigit               004d7b60 f   pjlib-i386-win32-vc8-debug-dynamic:string.obj
 0002:00084b90       _pj_memchr                 004d7b90 f   pjlib-i386-win32-vc8-debug-dynamic:string.obj
 0002:00084bc0       _pj_memcmp                 004d7bc0 f   pjlib-i386-win32-vc8-debug-dynamic:string.obj
 0002:00084bf0       _pj_memcpy                 004d7bf0 f   pjlib-i386-win32-vc8-debug-dynamic:string.obj
 0002:00086960       _pj_val_to_hex_digit       004d9960 f   pjlib-i386-win32-vc8-debug-dynamic:string.obj
 0002:000869b0       _get_base_time             004d99b0 f   pjlib-i386-win32-vc8-debug-dynamic:os_time_win32.obj
 0002:00086a80       _pj_bzero                  004d9a80 f   pjlib-i386-win32-vc8-debug-dynamic:os_time_win32.obj
 0002:00086f60       _term_restore_color        004d9f60 f   pjlib-i386-win32-vc8-debug-dynamic:log_writer_stdout.obj
 0002:00086f90       _term_set_color            004d9f90 f   pjlib-i386-win32-vc8-debug-dynamic:log_writer_stdout.obj
 0002:00086fc0       _is_logging_suspended      004d9fc0 f   pjlib-i386-win32-vc8-debug-dynamic:log.obj
 0002:00087040       _log_get_indent            004da040 f   pjlib-i386-win32-vc8-debug-dynamic:log.obj
 0002:00087080       _log_get_raw_indent        004da080 f   pjlib-i386-win32-vc8-debug-dynamic:log.obj
 0002:000870b0       _log_set_indent            004da0b0 f   pjlib-i386-win32-vc8-debug-dynamic:log.obj
 0002:000870f0       _logging_shutdown          004da0f0 f   pjlib-i386-win32-vc8-debug-dynamic:log.obj
 0002:00087bdc       $LN13                      004dabdc     pjlib-i386-win32-vc8-debug-dynamic:log.obj
 0002:00087ddc       $LN15                      004daddc     pjlib-i386-win32-vc8-debug-dynamic:log.obj
 0002:00087e00       $LN14                      004dae00     pjlib-i386-win32-vc8-debug-dynamic:log.obj
 0002:00087ef0       _pj_memset                 004daef0 f   pjlib-i386-win32-vc8-debug-dynamic:log.obj
 0002:00087f20       _resume_logging            004daf20 f   pjlib-i386-win32-vc8-debug-dynamic:log.obj
 0002:00087f80       _suspend_logging           004daf80 f   pjlib-i386-win32-vc8-debug-dynamic:log.obj
 0002:00088050       _platform_rand             004db050 f   pjlib-i386-win32-vc8-debug-dynamic:rand.obj
 0002:00088090       _default_block_alloc       004db090 f   pjlib-i386-win32-vc8-debug-dynamic:pool_policy_malloc.obj
 0002:00088140       _default_block_free        004db140 f   pjlib-i386-win32-vc8-debug-dynamic:pool_policy_malloc.obj
 0002:000881b0       _default_pool_callback     004db1b0 f   pjlib-i386-win32-vc8-debug-dynamic:pool_policy_malloc.obj
 0002:00088210       _pj_link_node              004db210 f   pjlib-i386-win32-vc8-debug-dynamic:list.obj
 0002:00088240       _pj_list_empty             004db240 f   pjlib-i386-win32-vc8-debug-dynamic:list.obj
 0002:00088330       _pj_list_init              004db330 f   pjlib-i386-win32-vc8-debug-dynamic:list.obj
 0002:00088610       _null_op                   004db610 f   pjlib-i386-win32-vc8-debug-dynamic:lock.obj
 0002:00088630       _create_mutex_lock         004db630 f   pjlib-i386-win32-vc8-debug-dynamic:lock.obj
 0002:00088720       _grp_lock_acquire          004db720 f   pjlib-i386-win32-vc8-debug-dynamic:lock.obj
 0002:000887e0       _grp_lock_add_handler      004db7e0 f   pjlib-i386-win32-vc8-debug-dynamic:lock.obj
 0002:00088880       _grp_lock_add_ref          004db880 f   pjlib-i386-win32-vc8-debug-dynamic:lock.obj
 0002:000888b0       _grp_lock_dec_ref          004db8b0 f   pjlib-i386-win32-vc8-debug-dynamic:lock.obj
 0002:00088930       _grp_lock_destroy          004db930 f   pjlib-i386-win32-vc8-debug-dynamic:lock.obj
 0002:00088a70       _grp_lock_release          004dba70 f   pjlib-i386-win32-vc8-debug-dynamic:lock.obj
 0002:00088af0       _grp_lock_set_owner_thread 004dbaf0 f   pjlib-i386-win32-vc8-debug-dynamic:lock.obj
 0002:00088b80       _grp_lock_tryacquire       004dbb80 f   pjlib-i386-win32-vc8-debug-dynamic:lock.obj
 0002:00088c80       _grp_lock_unset_owner_thread 004dbc80 f   pjlib-i386-win32-vc8-debug-dynamic:lock.obj
 0002:00088d40       _pj_bzero                  004dbd40 f   pjlib-i386-win32-vc8-debug-dynamic:lock.obj
 0002:000894e0       _pj_list_init              004dc4e0 f   pjlib-i386-win32-vc8-debug-dynamic:lock.obj
 0002:00089510       _pj_list_push_back         004dc510 f   pjlib-i386-win32-vc8-debug-dynamic:lock.obj
 0002:000898c0       _pj_memcpy                 004dc8c0 f   pjlib-i386-win32-vc8-debug-dynamic:lock.obj
 0002:000898f0       _pj_pool_zalloc            004dc8f0 f   pjlib-i386-win32-vc8-debug-dynamic:lock.obj
 0002:00089ab0       _pj_memmove                004dcab0 f   pjlib-i386-win32-vc8-debug-dynamic:array.obj
 0002:00089ae0       _cancel                    004dcae0 f   pjlib-i386-win32-vc8-debug-dynamic:timer.obj
 0002:00089c20       _cancel_timer              004dcc20 f   pjlib-i386-win32-vc8-debug-dynamic:timer.obj
 0002:00089d10       _copy_node                 004dcd10 f   pjlib-i386-win32-vc8-debug-dynamic:timer.obj
 0002:00089d70       _grow_heap                 004dcd70 f   pjlib-i386-win32-vc8-debug-dynamic:timer.obj
 0002:00089e90       _insert_node               004dce90 f   pjlib-i386-win32-vc8-debug-dynamic:timer.obj
 0002:00089f30       _lock_timer_heap           004dcf30 f   pjlib-i386-win32-vc8-debug-dynamic:timer.obj
 0002:0008a7b0       _pop_freelist              004dd7b0 f   pjlib-i386-win32-vc8-debug-dynamic:timer.obj
 0002:0008a810       _push_freelist             004dd810 f   pjlib-i386-win32-vc8-debug-dynamic:timer.obj
 0002:0008a870       _reheap_down               004dd870 f   pjlib-i386-win32-vc8-debug-dynamic:timer.obj
 0002:0008aaa0       _reheap_up                 004ddaa0 f   pjlib-i386-win32-vc8-debug-dynamic:timer.obj
 0002:0008abd0       _remove_node               004ddbd0 f   pjlib-i386-win32-vc8-debug-dynamic:timer.obj
 0002:0008ad80       _schedule_entry            004ddd80 f   pjlib-i386-win32-vc8-debug-dynamic:timer.obj
 0002:0008adf0       _schedule_w_grp_lock       004dddf0 f   pjlib-i386-win32-vc8-debug-dynamic:timer.obj
 0002:0008afc0       _unlock_timer_heap         004ddfc0 f   pjlib-i386-win32-vc8-debug-dynamic:timer.obj
 0002:0008b000       _decrement_counter         004de000 f   pjlib-i386-win32-vc8-debug-dynamic:ioqueue_select.obj
 0002:0008b160       _increment_counter         004de160 f   pjlib-i386-win32-vc8-debug-dynamic:ioqueue_select.obj
 0002:0008b1d0       _ioqueue_add_to_set        004de1d0 f   pjlib-i386-win32-vc8-debug-dynamic:ioqueue_select.obj
 0002:0008b2b0       _ioqueue_destroy           004de2b0 f   pjlib-i386-win32-vc8-debug-dynamic:ioqueue_select.obj
 0002:0008bdb0       _ioqueue_init              004dedb0 f   pjlib-i386-win32-vc8-debug-dynamic:ioqueue_select.obj
 0002:0008bdf0       _ioqueue_init_key          004dedf0 f   pjlib-i386-win32-vc8-debug-dynamic:ioqueue_select.obj
 0002:0008bf90       _ioqueue_remove_from_set   004def90 f   pjlib-i386-win32-vc8-debug-dynamic:ioqueue_select.obj
 0002:0008c070       _key_has_pending_accept    004df070 f   pjlib-i386-win32-vc8-debug-dynamic:ioqueue_select.obj
 0002:0008c0c0       _key_has_pending_connect   004df0c0 f   pjlib-i386-win32-vc8-debug-dynamic:ioqueue_select.obj
 0002:0008c0e0       _key_has_pending_read      004df0e0 f   pjlib-i386-win32-vc8-debug-dynamic:ioqueue_select.obj
 0002:0008c130       _key_has_pending_write     004df130 f   pjlib-i386-win32-vc8-debug-dynamic:ioqueue_select.obj
 0002:0008c180       _pj_bzero                  004df180 f   pjlib-i386-win32-vc8-debug-dynamic:ioqueue_select.obj
 0002:0008d0c0       $LN41                      004e00c0     pjlib-i386-win32-vc8-debug-dynamic:ioqueue_select.obj
 0002:0008e5b0       _pj_list_empty             004e15b0 f   pjlib-i386-win32-vc8-debug-dynamic:ioqueue_select.obj
 0002:0008e5f0       _pj_list_init              004e15f0 f   pjlib-i386-win32-vc8-debug-dynamic:ioqueue_select.obj
 0002:0008e620       _pj_list_push_back         004e1620 f   pjlib-i386-win32-vc8-debug-dynamic:ioqueue_select.obj
 0002:0008e650       _pj_memcpy                 004e1650 f   pjlib-i386-win32-vc8-debug-dynamic:ioqueue_select.obj
 0002:0008e680       _rescan_fdset              004e1680 f   pjlib-i386-win32-vc8-debug-dynamic:ioqueue_select.obj
 0002:0008e6a0       _scan_closing_keys         004e16a0 f   pjlib-i386-win32-vc8-debug-dynamic:ioqueue_select.obj
 0002:0008e7c0       _exception_cleanup         004e17c0 f   pjlib-i386-win32-vc8-debug-dynamic:except.obj
 0002:0008ebc0       _find_entry                004e1bc0 f   pjlib-i386-win32-vc8-debug-dynamic:hash.obj
 0002:0008eee0       _hash_set                  004e1ee0 f   pjlib-i386-win32-vc8-debug-dynamic:hash.obj
 0002:0008f560       _pj_memcmp                 004e2560 f   pjlib-i386-win32-vc8-debug-dynamic:hash.obj
 0002:0008f590       _pj_memcpy                 004e2590 f   pjlib-i386-win32-vc8-debug-dynamic:hash.obj
 0002:0008f5c0       _pj_tolower                004e25c0 f   pjlib-i386-win32-vc8-debug-dynamic:hash.obj
 0002:0008f690       _pj_memcpy                 004e2690 f   pjlib-i386-win32-vc8-debug-dynamic:os_error_win32.obj
 0002:0008f960       _guid_to_str               004e2960 f   pjlib-i386-win32-vc8-debug-dynamic:guid_win32.obj
 0002:0008fa40       _hex2digit                 004e2a40 f   pjlib-i386-win32-vc8-debug-dynamic:guid_win32.obj
 0002:0008fc70       _pj_tolower                004e2c70 f   pjlib-i386-win32-vc8-debug-dynamic:guid.obj
 0002:0008fca0       _pj_memcpy                 004e2ca0 f   pjlib-i386-win32-vc8-debug-dynamic:sock_qos_common.obj
 0002:000900c0       _pj_bzero                  004e30c0 f   pjlib-i386-win32-vc8-debug-dynamic:addr_resolv_sock.obj
 0002:00090480       _pj_memcpy                 004e3480 f   pjlib-i386-win32-vc8-debug-dynamic:addr_resolv_sock.obj
 0002:000905c0       _pool_buf_cleanup          004e35c0 f   pjlib-i386-win32-vc8-debug-dynamic:pool_buf.obj
 0002:00090620       _pool_buf_initialize       004e3620 f   pjlib-i386-win32-vc8-debug-dynamic:pool_buf.obj
 0002:00090670       _stack_alloc               004e3670 f   pjlib-i386-win32-vc8-debug-dynamic:pool_buf.obj
 0002:00090d50       _GetIpHlpApiProc           004e3d50 f   pjlib-i386-win32-vc8-debug-dynamic:ip_helper_win32.obj
 0002:00090dd0       _MyGetAdapterAddresses     004e3dd0 f   pjlib-i386-win32-vc8-debug-dynamic:ip_helper_win32.obj
 0002:00090e40       _MyGetIfEntry              004e3e40 f   pjlib-i386-win32-vc8-debug-dynamic:ip_helper_win32.obj
 0002:00090ea0       _MyGetIpAddrTable          004e3ea0 f   pjlib-i386-win32-vc8-debug-dynamic:ip_helper_win32.obj
 0002:00090f00       _MyGetIpForwardTable       004e3f00 f   pjlib-i386-win32-vc8-debug-dynamic:ip_helper_win32.obj
 0002:00090f60       _enum_ipv4_interface       004e3f60 f   pjlib-i386-win32-vc8-debug-dynamic:ip_helper_win32.obj
 0002:00091330       _enum_ipv4_ipv6_interface  004e4330 f   pjlib-i386-win32-vc8-debug-dynamic:ip_helper_win32.obj
 0002:00091700       _pj_bzero                  004e4700 f   pjlib-i386-win32-vc8-debug-dynamic:ip_helper_win32.obj
 0002:00091c30       _pj_memcpy                 004e4c30 f   pjlib-i386-win32-vc8-debug-dynamic:ip_helper_win32.obj
 0002:00091c60       _unload_iphlp_module       004e4c60 f   pjlib-i386-win32-vc8-debug-dynamic:ip_helper_win32.obj
 0002:00091cd0       _elapsed_msec              004e4cd0 f   pjlib-i386-win32-vc8-debug-dynamic:os_timestamp_common.obj
 0002:00091d80       _elapsed_usec              004e4d80 f   pjlib-i386-win32-vc8-debug-dynamic:os_timestamp_common.obj
 0002:00091e30       _get_elapsed               004e4e30 f   pjlib-i386-win32-vc8-debug-dynamic:os_timestamp_common.obj
 0002:00092160       _pj_set_timestamp32        004e5160 f   pjlib-i386-win32-vc8-debug-dynamic:os_timestamp_common.obj
 0002:00092620       _pj_bzero                  004e5620 f   pjlib-i386-win32-vc8-debug-dynamic:sock_qos_bsd.obj
 0002:00092b74       $LN10                      004e5b74     libsrtp-i386-win32-vc8-debug-dynamic:srtp.obj
 0002:00092c20       _base_key_length           004e5c20 f   libsrtp-i386-win32-vc8-debug-dynamic:srtp.obj
 0002:00092c74       $LN9                       004e5c74     libsrtp-i386-win32-vc8-debug-dynamic:srtp.obj
 0002:00092cb0       _be64_to_cpu               004e5cb0 f   libsrtp-i386-win32-vc8-debug-dynamic:srtp.obj
 0002:00092ea0       _srtp_calc_aead_iv         004e5ea0 f   libsrtp-i386-win32-vc8-debug-dynamic:srtp.obj
 0002:000930d0       _srtp_calc_aead_iv_srtcp   004e60d0 f   libsrtp-i386-win32-vc8-debug-dynamic:srtp.obj
 0002:00093940       $LN10                      004e6940     libsrtp-i386-win32-vc8-debug-dynamic:srtp.obj
 0002:00093970       _srtp_estimate_index       004e6970 f   libsrtp-i386-win32-vc8-debug-dynamic:srtp.obj
 0002:00093ab0       _srtp_get_est_pkt_index    004e6ab0 f   libsrtp-i386-win32-vc8-debug-dynamic:srtp.obj
 0002:00094250       _srtp_kdf_clear            004e7250 f   libsrtp-i386-win32-vc8-debug-dynamic:srtp.obj
 0002:000942a0       _srtp_kdf_generate         004e72a0 f   libsrtp-i386-win32-vc8-debug-dynamic:srtp.obj
 0002:000943a0       _srtp_kdf_init             004e73a0 f   libsrtp-i386-win32-vc8-debug-dynamic:srtp.obj
 0002:00094490       _srtp_process_header_encryption 004e7490 f   libsrtp-i386-win32-vc8-debug-dynamic:srtp.obj
 0002:00094960       $LN11                      004e7960     libsrtp-i386-win32-vc8-debug-dynamic:srtp.obj
 0002:00094a00       $LN11                      004e7a00     libsrtp-i386-win32-vc8-debug-dynamic:srtp.obj
 0002:00094a80       _srtp_protect_aead         004e7a80 f   libsrtp-i386-win32-vc8-debug-dynamic:srtp.obj
 0002:00094f50       _srtp_protect_extension_header 004e7f50 f   libsrtp-i386-win32-vc8-debug-dynamic:srtp.obj
 0002:000959d0       _srtp_protect_rtcp_aead    004e89d0 f   libsrtp-i386-win32-vc8-debug-dynamic:srtp.obj
 0002:00097140       _srtp_stream_free          004ea140 f   libsrtp-i386-win32-vc8-debug-dynamic:srtp.obj
 0002:00098490       _srtp_unprotect_aead       004eb490 f   libsrtp-i386-win32-vc8-debug-dynamic:srtp.obj
 0002:00099400       _srtp_unprotect_rtcp_aead  004ec400 f   libsrtp-i386-win32-vc8-debug-dynamic:srtp.obj
 0002:0009a250       _srtp_validate_rtp_header  004ed250 f   libsrtp-i386-win32-vc8-debug-dynamic:srtp.obj
 0002:0009a3a0       _update_stream             004ed3a0 f   libsrtp-i386-win32-vc8-debug-dynamic:srtp.obj
 0002:0009a530       _update_template_streams   004ed530 f   libsrtp-i386-win32-vc8-debug-dynamic:srtp.obj
 0002:0009c420       _srtp_cipher_rand          004ef420 f   libsrtp-i386-win32-vc8-debug-dynamic:cipher.obj
 0002:0009dfb0       _srtp_crypto_kernel_do_load_cipher_type 004f0fb0 f   libsrtp-i386-win32-vc8-debug-dynamic:crypto_kernel.obj
 0002:0009e9b0       _srtcp_packet_get_ekt_roc  004f19b0 f   libsrtp-i386-win32-vc8-debug-dynamic:ekt.obj
 0002:0009e9e0       _srtcp_packet_get_ekt_spi  004f19e0 f   libsrtp-i386-win32-vc8-debug-dynamic:ekt.obj
 0002:0009ea10       _srtcp_packet_get_emk_location 004f1a10 f   libsrtp-i386-win32-vc8-debug-dynamic:ekt.obj
 0002:0009f5f0       _srtp_null_cipher_alloc    004f25f0 f   libsrtp-i386-win32-vc8-debug-dynamic:null_cipher.obj
 0002:0009f6b0       _srtp_null_cipher_dealloc  004f26b0 f   libsrtp-i386-win32-vc8-debug-dynamic:null_cipher.obj
 0002:0009f6f0       _srtp_null_cipher_init     004f26f0 f   libsrtp-i386-win32-vc8-debug-dynamic:null_cipher.obj
 0002:0009f730       _srtp_null_cipher_set_iv   004f2730 f   libsrtp-i386-win32-vc8-debug-dynamic:null_cipher.obj
 0002:0009f750       _srtp_null_cipher_encrypt  004f2750 f   libsrtp-i386-win32-vc8-debug-dynamic:null_cipher.obj
 0002:0009f770       _srtp_aes_icm_alloc        004f2770 f   libsrtp-i386-win32-vc8-debug-dynamic:aes_icm.obj
 0002:0009f8e0       _srtp_aes_icm_dealloc      004f28e0 f   libsrtp-i386-win32-vc8-debug-dynamic:aes_icm.obj
 0002:0009f950       _srtp_aes_icm_context_init 004f2950 f   libsrtp-i386-win32-vc8-debug-dynamic:aes_icm.obj
 0002:0009fc40       _srtp_aes_icm_set_iv       004f2c40 f   libsrtp-i386-win32-vc8-debug-dynamic:aes_icm.obj
 0002:0009fde0       _srtp_aes_icm_encrypt      004f2de0 f   libsrtp-i386-win32-vc8-debug-dynamic:aes_icm.obj
 0002:000a0440       _srtp_aes_icm_advance      004f3440 f   libsrtp-i386-win32-vc8-debug-dynamic:aes_icm.obj
 0002:000a05e0       _srtp_null_auth_alloc      004f35e0 f   libsrtp-i386-win32-vc8-debug-dynamic:null_auth.obj
 0002:000a06d0       _srtp_null_auth_dealloc    004f36d0 f   libsrtp-i386-win32-vc8-debug-dynamic:null_auth.obj
 0002:000a0710       _srtp_null_auth_init       004f3710 f   libsrtp-i386-win32-vc8-debug-dynamic:null_auth.obj
 0002:000a0730       _srtp_null_auth_compute    004f3730 f   libsrtp-i386-win32-vc8-debug-dynamic:null_auth.obj
 0002:000a0750       _srtp_null_auth_update     004f3750 f   libsrtp-i386-win32-vc8-debug-dynamic:null_auth.obj
 0002:000a0770       _srtp_null_auth_start      004f3770 f   libsrtp-i386-win32-vc8-debug-dynamic:null_auth.obj
 0002:000a0790       _srtp_hmac_alloc           004f3790 f   libsrtp-i386-win32-vc8-debug-dynamic:hmac.obj
 0002:000a08a0       _srtp_hmac_dealloc         004f38a0 f   libsrtp-i386-win32-vc8-debug-dynamic:hmac.obj
 0002:000a08e0       _srtp_hmac_init            004f38e0 f   libsrtp-i386-win32-vc8-debug-dynamic:hmac.obj
 0002:000a0a40       _srtp_hmac_start           004f3a40 f   libsrtp-i386-win32-vc8-debug-dynamic:hmac.obj
 0002:000a0a80       _srtp_hmac_update          004f3a80 f   libsrtp-i386-win32-vc8-debug-dynamic:hmac.obj
 0002:000a0b00       _srtp_hmac_compute         004f3b00 f   libsrtp-i386-win32-vc8-debug-dynamic:hmac.obj
 0002:000a0c90       _aes_128_expand_encryption_key 004f3c90 f   libsrtp-i386-win32-vc8-debug-dynamic:aes.obj
 0002:000a0f70       _aes_256_expand_encryption_key 004f3f70 f   libsrtp-i386-win32-vc8-debug-dynamic:aes.obj
 0002:000a1380       _aes_final_round           004f4380 f   libsrtp-i386-win32-vc8-debug-dynamic:aes.obj
 0002:000a1700       _aes_inv_final_round       004f4700 f   libsrtp-i386-win32-vc8-debug-dynamic:aes.obj
 0002:000a1a80       _aes_inv_round             004f4a80 f   libsrtp-i386-win32-vc8-debug-dynamic:aes.obj
 0002:000a1d00       _aes_round                 004f4d00 f   libsrtp-i386-win32-vc8-debug-dynamic:aes.obj
 0002:000a4738       $LN55                      004f7738     libsrtp-i386-win32-vc8-debug-dynamic:sha1.obj
 0002:000a5120       $$000000                   004f8120     MSVCRTD:llmul.obj
 0002:000a5170       $$000000                   004f8170     MSVCRTD:ulldiv.obj
 0002:000a5200       ?pre_c_initialization@@YAHXZ 004f8200 f   MSVCRTD:exe_main.obj
 0002:000a52e0       ?post_pgo_initialization@@YAHXZ 004f82e0 f   MSVCRTD:exe_main.obj
 0002:000a52f0       ?pre_cpp_initialization@@YAXXZ 004f82f0 f   MSVCRTD:exe_main.obj
 0002:000a5310       ?__scrt_common_main@@YAHXZ 004f8310 f   MSVCRTD:exe_main.obj
 0002:000a5330       ?__scrt_common_main_seh@@YAHXZ 004f8330 f   MSVCRTD:exe_main.obj
 0002:000a5600       ?invoke_main@@YAHXZ        004f8600 f   MSVCRTD:exe_main.obj
 0002:000a56a0       $$000000                   004f86a0     MSVCRTD:llshl.obj
 0002:000a56d0       $$000000                   004f86d0     MSVCRTD:ullrem.obj
 0002:000a5770       $$000000                   004f8770     MSVCRTD:ullshr.obj
 0002:000a57a0       $$000000                   004f87a0     MSVCRTD:lldiv.obj
 0002:000a5880       $$000000                   004f8880     MSVCRTD:chkstk.obj
 0002:000a58c0       $$000000                   004f88c0     MSVCRTD:ftol3.obj
 0002:000a5da0       ?find_pe_section@@YAPAU_IMAGE_SECTION_HEADER@@QAEI@Z 004f8da0 f   MSVCRTD:utility.obj
 0002:000a5e50       ?is_potentially_valid_image_base@@YA_NQAX@Z 004f8e50 f   MSVCRTD:utility.obj
 0002:000a6590       ___get_entropy             004f9590 f   MSVCRTD:gs_support.obj
 0003:00000104       ?pre_cpp_initializer@@3P6AXXZA 004fe104     MSVCRTD:exe_main.obj
 0003:00000410       ?pre_c_initializer@@3P6AHXZA 004fe410     MSVCRTD:exe_main.obj
 0003:00000514       ?post_pgo_initializer@@3P6AHXZA 004fe514     MSVCRTD:exe_main.obj
 0003:00000bc8       _pjsip_update_method       004febc8     pjsip-ua-i386-win32-vc8-debug-dynamic:sip_inv.obj
 0003:00002844       _tag_100rel                00500844     pjsip-ua-i386-win32-vc8-debug-dynamic:sip_100rel.obj
 0003:0000284c       _RSEQ                      0050084c     pjsip-ua-i386-win32-vc8-debug-dynamic:sip_100rel.obj
 0003:00002854       _RACK                      00500854     pjsip-ua-i386-win32-vc8-debug-dynamic:sip_100rel.obj
 0003:00002f44       _STR_SE                    00500f44     pjsip-ua-i386-win32-vc8-debug-dynamic:sip_timer.obj
 0003:00002f4c       _STR_SHORT_SE              00500f4c     pjsip-ua-i386-win32-vc8-debug-dynamic:sip_timer.obj
 0003:00002f54       _STR_MIN_SE                00500f54     pjsip-ua-i386-win32-vc8-debug-dynamic:sip_timer.obj
 0003:00002f5c       _STR_REFRESHER             00500f5c     pjsip-ua-i386-win32-vc8-debug-dynamic:sip_timer.obj
 0003:00002f64       _STR_UAC                   00500f64     pjsip-ua-i386-win32-vc8-debug-dynamic:sip_timer.obj
 0003:00002f6c       _STR_UAS                   00500f6c     pjsip-ua-i386-win32-vc8-debug-dynamic:sip_timer.obj
 0003:00002f74       _STR_TIMER                 00500f74     pjsip-ua-i386-win32-vc8-debug-dynamic:sip_timer.obj
 0003:00008b74       _HCONTACT                  00506b74     pjsip-core-i386-win32-vc8-debug-dynamic:sip_dialog.obj
 0003:0000b180       _err_str                   00509180     pjsip-core-i386-win32-vc8-debug-dynamic:sip_errno.obj
 0003:0000ce28       _err_str                   0050ae28     pjmedia-audiodev-i386-win32-vc8-debug-dynamic:errno.obj
 0003:0000e0d4       _STR_IN                    0050c0d4     pjmedia-i386-win32-vc8-debug-dynamic:endpoint.obj
 0003:0000e0dc       _STR_IP4                   0050c0dc     pjmedia-i386-win32-vc8-debug-dynamic:endpoint.obj
 0003:0000e0e4       _STR_IP6                   0050c0e4     pjmedia-i386-win32-vc8-debug-dynamic:endpoint.obj
 0003:0000e0ec       _STR_RTP_AVP               0050c0ec     pjmedia-i386-win32-vc8-debug-dynamic:endpoint.obj
 0003:0000e0f4       _STR_SDP_NAME              0050c0f4     pjmedia-i386-win32-vc8-debug-dynamic:endpoint.obj
 0003:0000e0fc       _STR_SENDRECV              0050c0fc     pjmedia-i386-win32-vc8-debug-dynamic:endpoint.obj
 0003:0000fa44       _ID_AUDIO                  0050da44     pjmedia-i386-win32-vc8-debug-dynamic:stream_info.obj
 0003:0000fa4c       _ID_IN                     0050da4c     pjmedia-i386-win32-vc8-debug-dynamic:stream_info.obj
 0003:0000fa54       _ID_IP4                    0050da54     pjmedia-i386-win32-vc8-debug-dynamic:stream_info.obj
 0003:0000fa5c       _ID_IP6                    0050da5c     pjmedia-i386-win32-vc8-debug-dynamic:stream_info.obj
 0003:0000fa64       _ID_RTPMAP                 0050da64     pjmedia-i386-win32-vc8-debug-dynamic:stream_info.obj
 0003:0000fa6c       _ID_TELEPHONE_EVENT        0050da6c     pjmedia-i386-win32-vc8-debug-dynamic:stream_info.obj
 0003:0000fc70       _STR_RTCP_MUX              0050dc70     pjmedia-i386-win32-vc8-debug-dynamic:transport_udp.obj
 0003:00010b80       _err_str                   0050eb80     pjmedia-i386-win32-vc8-debug-dynamic:errno.obj
 0003:0001d574       _ID_RTP_AVP                0051b574     pjmedia-i386-win32-vc8-debug-dynamic:transport_srtp.obj
 0003:0001d57c       _ID_RTP_SAVP               0051b57c     pjmedia-i386-win32-vc8-debug-dynamic:transport_srtp.obj
 0003:0001d584       _ID_CRYPTO                 0051b584     pjmedia-i386-win32-vc8-debug-dynamic:transport_srtp.obj
 0003:0001e6c0       _err_str                   0051c6c0     pjlib-util-i386-win32-vc8-debug-dynamic:errno.obj
 0003:00020bc8       _base64_char               0051ebc8     pjlib-util-i386-win32-vc8-debug-dynamic:base64.obj
 0003:00021780       _err_str                   0051f780     pjlib-i386-win32-vc8-debug-dynamic:errno.obj
 0003:00023cc0       _gaErrorList               00521cc0     pjlib-i386-win32-vc8-debug-dynamic:os_error_win32.obj
 0003:00024910       _qos_map                   00522910     pjlib-i386-win32-vc8-debug-dynamic:sock_qos_common.obj
 0003:00026094       _srtp_null_cipher_description 00524094     libsrtp-i386-win32-vc8-debug-dynamic:null_cipher.obj
 0003:000260a0       _srtp_null_cipher_test_0   005240a0     libsrtp-i386-win32-vc8-debug-dynamic:null_cipher.obj
 0003:000261c8       _srtp_aes_icm_128_description 005241c8     libsrtp-i386-win32-vc8-debug-dynamic:aes_icm.obj
 0003:000261e8       _srtp_aes_icm_256_description 005241e8     libsrtp-i386-win32-vc8-debug-dynamic:aes_icm.obj
 0003:00026208       _srtp_aes_icm_128_test_case_0_key 00524208     libsrtp-i386-win32-vc8-debug-dynamic:aes_icm.obj
 0003:00026228       _srtp_aes_icm_128_test_case_0_plaintext 00524228     libsrtp-i386-win32-vc8-debug-dynamic:aes_icm.obj
 0003:00026248       _srtp_aes_icm_128_test_case_0_ciphertext 00524248     libsrtp-i386-win32-vc8-debug-dynamic:aes_icm.obj
 0003:00026268       _srtp_aes_icm_128_test_case_0 00524268     libsrtp-i386-win32-vc8-debug-dynamic:aes_icm.obj
 0003:00026294       _srtp_aes_icm_256_test_case_0_key 00524294     libsrtp-i386-win32-vc8-debug-dynamic:aes_icm.obj
 0003:000262c4       _srtp_aes_icm_256_test_case_0_plaintext 005242c4     libsrtp-i386-win32-vc8-debug-dynamic:aes_icm.obj
 0003:000262e4       _srtp_aes_icm_256_test_case_0_ciphertext 005242e4     libsrtp-i386-win32-vc8-debug-dynamic:aes_icm.obj
 0003:00026304       _srtp_aes_icm_256_test_case_0 00524304     libsrtp-i386-win32-vc8-debug-dynamic:aes_icm.obj
 0003:00026430       _srtp_null_auth_test_case_0 00524430     libsrtp-i386-win32-vc8-debug-dynamic:null_auth.obj
 0003:0002644c       _srtp_null_auth_description 0052444c     libsrtp-i386-win32-vc8-debug-dynamic:null_auth.obj
 0003:00026524       _srtp_hmac_test_case_0_key 00524524     libsrtp-i386-win32-vc8-debug-dynamic:hmac.obj
 0003:00026538       _srtp_hmac_test_case_0_data 00524538     libsrtp-i386-win32-vc8-debug-dynamic:hmac.obj
 0003:00026540       _srtp_hmac_test_case_0_tag 00524540     libsrtp-i386-win32-vc8-debug-dynamic:hmac.obj
 0003:00026554       _srtp_hmac_test_case_0     00524554     libsrtp-i386-win32-vc8-debug-dynamic:hmac.obj
 0003:00026570       _srtp_hmac_description     00524570     libsrtp-i386-win32-vc8-debug-dynamic:hmac.obj
 0003:00026638       _T0                        00524638     libsrtp-i386-win32-vc8-debug-dynamic:aes.obj
 0003:00026a38       _T1                        00524a38     libsrtp-i386-win32-vc8-debug-dynamic:aes.obj
 0003:00026e38       _T2                        00524e38     libsrtp-i386-win32-vc8-debug-dynamic:aes.obj
 0003:00027238       _T3                        00525238     libsrtp-i386-win32-vc8-debug-dynamic:aes.obj
 0003:00027638       _U0                        00525638     libsrtp-i386-win32-vc8-debug-dynamic:aes.obj
 0003:00027a38       _U1                        00525a38     libsrtp-i386-win32-vc8-debug-dynamic:aes.obj
 0003:00027e38       _U2                        00525e38     libsrtp-i386-win32-vc8-debug-dynamic:aes.obj
 0003:00028238       _U3                        00526238     libsrtp-i386-win32-vc8-debug-dynamic:aes.obj
 0003:00028638       _aes_sbox                  00526638     libsrtp-i386-win32-vc8-debug-dynamic:aes.obj
 0003:00028738       _aes_inv_sbox              00526738     libsrtp-i386-win32-vc8-debug-dynamic:aes.obj
 0003:00028fd4       _GS_ExceptionPointers      00526fd4     MSVCRTD:gs_report.obj
 0003:00028fe0       _Int32ToUInt32             00526fe0     MSVCRTD:ftol3.obj
 0003:00028fe8       _DP2to32                   00526fe8     MSVCRTD:ftol3.obj
 0003:00028ff0       _MantissaMask              00526ff0     MSVCRTD:ftol3.obj
 0003:00028ff8       _IntegerBit                00526ff8     MSVCRTD:ftol3.obj
 0003:00029000       _SignBit64                 00527000     MSVCRTD:ftol3.obj
 0003:00029008       _MinFP64                   00527008     MSVCRTD:ftol3.obj
 0003:00029010       _MinInt64                  00527010     MSVCRTD:ftol3.obj
 0003:00029018       _MaxInt64                  00527018     MSVCRTD:ftol3.obj
 0003:00029020       _MaxUInt64                 00527020     MSVCRTD:ftol3.obj
 0003:00029028       _MaxFP32                   00527028     MSVCRTD:ftol3.obj
 0003:00029030       _MinFP32                   00527030     MSVCRTD:ftol3.obj
 0003:00029038       _MinSubInexact             00527038     MSVCRTD:ftol3.obj
 0003:00029040       _FpExcptTable              00527040     MSVCRTD:ftol3.obj
 0003:00029050       _i1075                     00527050     MSVCRTD:ftol3.obj
 0003:00029054       _i1087                     00527054     MSVCRTD:ftol3.obj
 0003:00029058       _x0800                     00527058     MSVCRTD:ftol3.obj
 0003:0002905c       _x17FF                     0052705c     MSVCRTD:ftol3.obj
 0003:00029060       _CWMask                    00527060     MSVCRTD:ftol3.obj
 0003:00029ec8       __sehtable$?__scrt_common_main_seh@@YAHXZ 00527ec8     MSVCRTD:exe_main.obj
 0003:00029ee8       __sehtable$___scrt_is_nonwritable_in_current_image 00527ee8     MSVCRTD:utility.obj
 0004:00000000       $SG4288                    00529000     siprtp.obj
 0004:00000568       $SG54448                   00529568     siprtp.obj
 0004:000005e0       $SG54502                   005295e0     siprtp.obj
 0004:000005f0       $SG30162                   005295f0     siprtp.obj
 0004:00000678       $SG30164                   00529678     siprtp.obj
 0004:00000680       $SG30165                   00529680     siprtp.obj
 0004:0000068c       $SG30166                   0052968c     siprtp.obj
 0004:00000690       $SG30167                   00529690     siprtp.obj
 0004:00000694       $SG30168                   00529694     siprtp.obj
 0004:0000069c       $SG30169                   0052969c     siprtp.obj
 0004:000006a4       $SG30170                   005296a4     siprtp.obj
 0004:000006ac       $SG30171                   005296ac     siprtp.obj
 0004:000006b8       $SG30172                   005296b8     siprtp.obj
 0004:000006c0       $SG30173                   005296c0     siprtp.obj
 0004:000006c8       _USAGE                     005296c8     siprtp.obj
 0004:000006cc       _mod_siprtp                005296cc     siprtp.obj
 0004:00000708       $SG30230                   00529708     siprtp.obj
 0004:00000738       $SG30231                   00529738     siprtp.obj
 0004:00000764       $SG30232                   00529764     siprtp.obj
 0004:00000768       $SG30234                   00529768     siprtp.obj
 0004:00000798       $SG30235                   00529798     siprtp.obj
 0004:000007c4       $SG30238                   005297c4     siprtp.obj
 0004:000007e4       $SG30239                   005297e4     siprtp.obj
 0004:000007f0       $SG30241                   005297f0     siprtp.obj
 0004:00000810       $SG30242                   00529810     siprtp.obj
 0004:0000081c       $SG30244                   0052981c     siprtp.obj
 0004:0000083c       $SG30245                   0052983c     siprtp.obj
 0004:00000848       $SG30247                   00529848     siprtp.obj
 0004:00000878       $SG30248                   00529878     siprtp.obj
 0004:000008a4       $SG30250                   005298a4     siprtp.obj
 0004:000008d4       $SG30251                   005298d4     siprtp.obj
 0004:00000900       $SG30253                   00529900     siprtp.obj
 0004:00000930       $SG30254                   00529930     siprtp.obj
 0004:0000095c       $SG30256                   0052995c     siprtp.obj
 0004:0000098c       $SG30257                   0052998c     siprtp.obj
 0004:000009b8       $SG30259                   005299b8     siprtp.obj
 0004:000009e8       $SG30260                   005299e8     siprtp.obj
 0004:00000a14       $SG30298                   00529a14     siprtp.obj
 0004:00000a44       $SG30299                   00529a44     siprtp.obj
 0004:00000a70       $SG30300                   00529a70     siprtp.obj
 0004:00000a78       $SG30346                   00529a78     siprtp.obj
 0004:00000aa8       $SG30347                   00529aa8     siprtp.obj
 0004:00000ad4       $SG30349                   00529ad4     siprtp.obj
 0004:00000b04       $SG30350                   00529b04     siprtp.obj
 0004:00000b30       $SG30392                   00529b30     siprtp.obj
 0004:00000b40       $SG30397                   00529b40     siprtp.obj
 0004:00000b58       $SG30402                   00529b58     siprtp.obj
 0004:00000b88       $SG30403                   00529b88     siprtp.obj
 0004:00000bb4       $SG30421                   00529bb4     siprtp.obj
 0004:00000bcc       $SG30459                   00529bcc     siprtp.obj
 0004:00000bf4       $SG30460                   00529bf4     siprtp.obj
 0004:00000c00       $SG30463                   00529c00     siprtp.obj
 0004:00000c18       $SG30464                   00529c18     siprtp.obj
 0004:00000c24       $SG30469                   00529c24     siprtp.obj
 0004:00000c40       $SG30470                   00529c40     siprtp.obj
 0004:00000c4c       $SG30487                   00529c4c     siprtp.obj
 0004:00000c60       $SG30530                   00529c60     siprtp.obj
 0004:00000c68       $SG30532                   00529c68     siprtp.obj
 0004:00000c6c       $SG30534                   00529c6c     siprtp.obj
 0004:00000c78       $SG30536                   00529c78     siprtp.obj
 0004:00000c84       $SG30538                   00529c84     siprtp.obj
 0004:00000c90       $SG30540                   00529c90     siprtp.obj
 0004:00000c9c       $SG30542                   00529c9c     siprtp.obj
 0004:00000ca8       $SG30544                   00529ca8     siprtp.obj
 0004:00000cb0       $SG30546                   00529cb0     siprtp.obj
 0004:00000cbc       $SG30548                   00529cbc     siprtp.obj
 0004:00000ccc       $SG30550                   00529ccc     siprtp.obj
 0004:00000cd8       $SG30552                   00529cd8     siprtp.obj
 0004:00000ce4       $SG30553                   00529ce4     siprtp.obj
 0004:00000cf8       $SG30557                   00529cf8     siprtp.obj
 0004:00000d24       $SG30558                   00529d24     siprtp.obj
 0004:00000d30       $SG30577                   00529d30     siprtp.obj
 0004:00000d3c       $SG30606                   00529d3c     siprtp.obj
 0004:00000d6c       $SG30607                   00529d6c     siprtp.obj
 0004:00000d88       $SG30608                   00529d88     siprtp.obj
 0004:00000d98       $SG30609                   00529d98     siprtp.obj
 0004:00000d9c       $SG30610                   00529d9c     siprtp.obj
 0004:00000da0       $SG30611                   00529da0     siprtp.obj
 0004:00000da8       $SG30612                   00529da8     siprtp.obj
 0004:00000dac       $SG30613                   00529dac     siprtp.obj
 0004:00000db0       $SG30614                   00529db0     siprtp.obj
 0004:00000db8       $SG30615                   00529db8     siprtp.obj
 0004:00000dc0       $SG30616                   00529dc0     siprtp.obj
 0004:00000dc4       $SG30617                   00529dc4     siprtp.obj
 0004:00000dd0       $SG30618                   00529dd0     siprtp.obj
 0004:00000dd4       $SG30619                   00529dd4     siprtp.obj
 0004:00000ddc       $SG30620                   00529ddc     siprtp.obj
 0004:00000df8       $SG30621                   00529df8     siprtp.obj
 0004:00000e00       $SG30622                   00529e00     siprtp.obj
 0004:00000e0c       $SG53977                   00529e0c     siprtp.obj
 0004:00000e20       $SG53978                   00529e20     siprtp.obj
 0004:00000e2c       $SG53980                   00529e2c     siprtp.obj
 0004:00000e40       $SG53981                   00529e40     siprtp.obj
 0004:00000e4c       $SG53993                   00529e4c     siprtp.obj
 0004:00000e68       $SG53994                   00529e68     siprtp.obj
 0004:00000e74       $SG54040                   00529e74     siprtp.obj
 0004:00000e90       $SG54041                   00529e90     siprtp.obj
 0004:00000e9c       $SG54042                   00529e9c     siprtp.obj
 0004:00000eb0       $SG54043                   00529eb0     siprtp.obj
 0004:00000ee0       $SG54044                   00529ee0     siprtp.obj
 0004:00000f0c       $SG54048                   00529f0c     siprtp.obj
 0004:00000f28       $SG54049                   00529f28     siprtp.obj
 0004:00000f34       $SG54073                   00529f34     siprtp.obj
 0004:00000f4c       $SG54074                   00529f4c     siprtp.obj
 0004:00000f58       $SG54076                   00529f58     siprtp.obj
 0004:00000f7c       $SG54077                   00529f7c     siprtp.obj
 0004:00000f88       $SG54083                   00529f88     siprtp.obj
 0004:00000fac       $SG54084                   00529fac     siprtp.obj
 0004:00000fb8       $SG54085                   00529fb8     siprtp.obj
 0004:00000fc0       $SG54087                   00529fc0     siprtp.obj
 0004:00000fe4       $SG54088                   00529fe4     siprtp.obj
 0004:00000ff0       $SG54089                   00529ff0     siprtp.obj
 0004:00000ff8       $SG54091                   00529ff8     siprtp.obj
 0004:00001014       $SG54092                   0052a014     siprtp.obj
 0004:00001020       $SG54122                   0052a020     siprtp.obj
 0004:00001024       $SG54125                   0052a024     siprtp.obj
 0004:00001030       $SG54126                   0052a030     siprtp.obj
 0004:0000103c       $SG54260                   0052a03c     siprtp.obj
 0004:0000104c       $SG54261                   0052a04c     siprtp.obj
 0004:00001050       $SG54262                   0052a050     siprtp.obj
 0004:00001054       $SG54263                   0052a054     siprtp.obj
 0004:0000105c       $SG54264                   0052a05c     siprtp.obj
 0004:00001064       $SG54265                   0052a064     siprtp.obj
 0004:00001068       $SG54266                   0052a068     siprtp.obj
 0004:00001070       $SG54267                   0052a070     siprtp.obj
 0004:00001078       $SG54268                   0052a078     siprtp.obj
 0004:00001080       $SG54269                   0052a080     siprtp.obj
 0004:00001084       $SG54270                   0052a084     siprtp.obj
 0004:0000108c       $SG54271                   0052a08c     siprtp.obj
 0004:00001094       $SG54272                   0052a094     siprtp.obj
 0004:00001098       $SG54273                   0052a098     siprtp.obj
 0004:000010a0       $SG54274                   0052a0a0     siprtp.obj
 0004:000010a8       $SG54275                   0052a0a8     siprtp.obj
 0004:000010b0       $SG54276                   0052a0b0     siprtp.obj
 0004:000010b4       $SG54277                   0052a0b4     siprtp.obj
 0004:000010bc       $SG54349                   0052a0bc     siprtp.obj
 0004:000010c8       $SG54278                   0052a0c8     siprtp.obj
 0004:0000139c       $SG54346                   0052a39c     siprtp.obj
 0004:000013c4       $SG54348                   0052a3c4     siprtp.obj
 0004:000013d4       $SG54352                   0052a3d4     siprtp.obj
 0004:000013e8       $SG54354                   0052a3e8     siprtp.obj
 0004:000013f0       $SG54355                   0052a3f0     siprtp.obj
 0004:000013fc       $SG54360                   0052a3fc     siprtp.obj
 0004:00001418       $SG54363                   0052a418     siprtp.obj
 0004:00001434       $SG54365                   0052a434     siprtp.obj
 0004:00001450       $SG54366                   0052a450     siprtp.obj
 0004:0000145c       $SG54369                   0052a45c     siprtp.obj
 0004:00001468       $SG54368                   0052a468     siprtp.obj
 0004:000014ac       $SG54372                   0052a4ac     siprtp.obj
 0004:000014b4       $SG54373                   0052a4b4     siprtp.obj
 0004:000014d4       $SG54380                   0052a4d4     siprtp.obj
 0004:000014e0       $SG54379                   0052a4e0     siprtp.obj
 0004:00001644       $SG54383                   0052a644     siprtp.obj
 0004:0000164c       $SG54384                   0052a64c     siprtp.obj
 0004:0000166c       $SG54391                   0052a66c     siprtp.obj
 0004:00001678       $SG54390                   0052a678     siprtp.obj
 0004:000017d8       $SG54394                   0052a7d8     siprtp.obj
 0004:00001814       $SG54395                   0052a814     siprtp.obj
 0004:00001820       $SG54402                   0052a820     siprtp.obj
 0004:00001830       $SG54440                   0052a830     siprtp.obj
 0004:00001848       _MENU                      0052a848     siprtp.obj
 0004:0000184c       $SG54460                   0052a84c     siprtp.obj
 0004:00001850       $SG54461                   0052a850     siprtp.obj
 0004:00001858       $SG54463                   0052a858     siprtp.obj
 0004:00001884       $SG54468                   0052a884     siprtp.obj
 0004:0000189c       $SG54472                   0052a89c     siprtp.obj
 0004:000018ac       $SG54473                   0052a8ac     siprtp.obj
 0004:000018b0       $SG54482                   0052a8b0     siprtp.obj
 0004:000018dc       $SG54483                   0052a8dc     siprtp.obj
 0004:000018e8       $SG54492                   0052a8e8     siprtp.obj
 0004:00001910       $SG54493                   0052a910     siprtp.obj
 0004:0000191c       _msg_logger                0052a91c     siprtp.obj
 0004:00001958       $SG54524                   0052a958     siprtp.obj
 0004:0000195c       $SG54527                   0052a95c     siprtp.obj
 0004:00001978       $SG54528                   0052a978     siprtp.obj
 0004:00001984       $SG54564                   0052a984     siprtp.obj
 0004:000019a0       $SG54561                   0052a9a0     siprtp.obj
 0004:000019e4       $SG54565                   0052a9e4     siprtp.obj
 0004:000019f0       $SG54567                   0052a9f0     siprtp.obj
 0004:00001a0c       $SG54568                   0052aa0c     siprtp.obj
 0004:00001a18       $SG54569                   0052aa18     siprtp.obj
 0004:00001a1c       $SG54573                   0052aa1c     siprtp.obj
 0004:00001a34       $SG54574                   0052aa34     siprtp.obj
 0004:00001a40       $SG54576                   0052aa40     siprtp.obj
 0004:00001a54       $SG54577                   0052aa54     siprtp.obj
 0004:00001a60       $SG54581                   0052aa60     siprtp.obj
 0004:00001a84       $SG54582                   0052aa84     siprtp.obj
 0004:00001fe0       _inv_state_names           0052afe0     pjsip-ua-i386-win32-vc8-debug-dynamic:sip_inv.obj
 0004:00002000       _inv_state_handler         0052b000     pjsip-ua-i386-win32-vc8-debug-dynamic:sip_inv.obj
 0004:00002020       _mod_inv                   0052b020     pjsip-ua-i386-win32-vc8-debug-dynamic:sip_inv.obj
 0004:00002158       _mod_100rel                0052b158     pjsip-ua-i386-win32-vc8-debug-dynamic:sip_100rel.obj
 0004:000021c0       _se_hdr_vptr               0052b1c0     pjsip-ua-i386-win32-vc8-debug-dynamic:sip_timer.obj
 0004:000021cc       _min_se_hdr_vptr           0052b1cc     pjsip-ua-i386-win32-vc8-debug-dynamic:sip_timer.obj
 0004:0000220c       _method_names              0052b20c     pjsip-core-i386-win32-vc8-debug-dynamic:sip_msg.obj
 0004:00002224       _generic_hdr_vptr          0052b224     pjsip-core-i386-win32-vc8-debug-dynamic:sip_msg.obj
 0004:00002230       _generic_int_hdr_vptr      0052b230     pjsip-core-i386-win32-vc8-debug-dynamic:sip_msg.obj
 0004:0000223c       _generic_array_hdr_vptr    0052b23c     pjsip-core-i386-win32-vc8-debug-dynamic:sip_msg.obj
 0004:00002248       _clen_hdr_vptr             0052b248     pjsip-core-i386-win32-vc8-debug-dynamic:sip_msg.obj
 0004:00002254       _cseq_hdr_vptr             0052b254     pjsip-core-i386-win32-vc8-debug-dynamic:sip_msg.obj
 0004:00002260       _contact_hdr_vptr          0052b260     pjsip-core-i386-win32-vc8-debug-dynamic:sip_msg.obj
 0004:0000226c       _ctype_hdr_vptr            0052b26c     pjsip-core-i386-win32-vc8-debug-dynamic:sip_msg.obj
 0004:00002278       _fromto_hdr_vptr           0052b278     pjsip-core-i386-win32-vc8-debug-dynamic:sip_msg.obj
 0004:00002284       _routing_hdr_vptr          0052b284     pjsip-core-i386-win32-vc8-debug-dynamic:sip_msg.obj
 0004:00002290       _retry_after_hdr_vptr      0052b290     pjsip-core-i386-win32-vc8-debug-dynamic:sip_msg.obj
 0004:0000229c       _via_hdr_vptr              0052b29c     pjsip-core-i386-win32-vc8-debug-dynamic:sip_msg.obj
 0004:000022e8       _mod_msg_print             0052b2e8     pjsip-core-i386-win32-vc8-debug-dynamic:sip_transport.obj
 0004:00002328       _transport_names           0052b328     pjsip-core-i386-win32-vc8-debug-dynamic:sip_transport.obj
 0004:000026d8       _event_str                 0052b6d8     pjsip-core-i386-win32-vc8-debug-dynamic:sip_util.obj
 0004:000026f4       _str_TEXT                  0052b6f4     pjsip-core-i386-win32-vc8-debug-dynamic:sip_util.obj
 0004:000026fc       _str_PLAIN                 0052b6fc     pjsip-core-i386-win32-vc8-debug-dynamic:sip_util.obj
 0004:00002778       _mod_tsx_layer             0052b778     pjsip-core-i386-win32-vc8-debug-dynamic:sip_transaction.obj
 0004:000027c4       _state_str                 0052b7c4     pjsip-core-i386-win32-vc8-debug-dynamic:sip_transaction.obj
 0004:000027e4       _role_name                 0052b7e4     pjsip-core-i386-win32-vc8-debug-dynamic:sip_transaction.obj
 0004:000027ec       _t1_timer_val              0052b7ec     pjsip-core-i386-win32-vc8-debug-dynamic:sip_transaction.obj
 0004:000027f4       _t2_timer_val              0052b7f4     pjsip-core-i386-win32-vc8-debug-dynamic:sip_transaction.obj
 0004:000027fc       _t4_timer_val              0052b7fc     pjsip-core-i386-win32-vc8-debug-dynamic:sip_transaction.obj
 0004:00002804       _td_timer_val              0052b804     pjsip-core-i386-win32-vc8-debug-dynamic:sip_transaction.obj
 0004:0000280c       _timeout_timer_val         0052b80c     pjsip-core-i386-win32-vc8-debug-dynamic:sip_transaction.obj
 0004:00002814       _tsx_state_handler_uac     0052b814     pjsip-core-i386-win32-vc8-debug-dynamic:sip_transaction.obj
 0004:00002834       _tsx_state_handler_uas     0052b834     pjsip-core-i386-win32-vc8-debug-dynamic:sip_transaction.obj
 0004:00002900       _mod_ua                    0052b900     pjsip-core-i386-win32-vc8-debug-dynamic:sip_ua_layer.obj
 0004:00002a58       _pconst                    0052ba58     pjsip-core-i386-win32-vc8-debug-dynamic:sip_parser.obj
 0004:00002c64       _sip_str                   0052bc64     pjsip-core-i386-win32-vc8-debug-dynamic:sip_uri.obj
 0004:00002c6c       _sips_str                  0052bc6c     pjsip-core-i386-win32-vc8-debug-dynamic:sip_uri.obj
 0004:00002c74       _sip_url_vptr              0052bc74     pjsip-core-i386-win32-vc8-debug-dynamic:sip_uri.obj
 0004:00002c88       _sips_url_vptr             0052bc88     pjsip-core-i386-win32-vc8-debug-dynamic:sip_uri.obj
 0004:00002c9c       _name_addr_vptr            0052bc9c     pjsip-core-i386-win32-vc8-debug-dynamic:sip_uri.obj
 0004:00002cb0       _other_uri_vptr            0052bcb0     pjsip-core-i386-win32-vc8-debug-dynamic:sip_uri.obj
 0004:00002cf0       _pjsip_ISUB_STR            0052bcf0     pjsip-core-i386-win32-vc8-debug-dynamic:sip_tel_uri.obj
 0004:00002cf8       _pjsip_EXT_STR             0052bcf8     pjsip-core-i386-win32-vc8-debug-dynamic:sip_tel_uri.obj
 0004:00002d00       _pjsip_PH_CTX_STR          0052bd00     pjsip-core-i386-win32-vc8-debug-dynamic:sip_tel_uri.obj
 0004:00002d08       _tel_uri_vptr              0052bd08     pjsip-core-i386-win32-vc8-debug-dynamic:sip_tel_uri.obj
 0004:00002d78       _authorization_hdr_vptr    0052bd78     pjsip-core-i386-win32-vc8-debug-dynamic:sip_auth_msg.obj
 0004:00002d84       _www_authenticate_hdr_vptr 0052bd84     pjsip-core-i386-win32-vc8-debug-dynamic:sip_auth_msg.obj
 0004:00002dac       _factory_op                0052bdac     pjmedia-audiodev-i386-win32-vc8-debug-dynamic:wmme_dev.obj
 0004:00002dc8       _stream_op                 0052bdc8     pjmedia-audiodev-i386-win32-vc8-debug-dynamic:wmme_dev.obj
 0004:00002eac       _g711_op                   0052beac     pjmedia-i386-win32-vc8-debug-dynamic:g711.obj
 0004:00002ecc       _g711_factory_op           0052becc     pjmedia-i386-win32-vc8-debug-dynamic:g711.obj
 0004:00002f1c       _state_str                 0052bf1c     pjmedia-i386-win32-vc8-debug-dynamic:sdp_neg.obj
 0004:00002f98       _transport_udp_op          0052bf98     pjmedia-i386-win32-vc8-debug-dynamic:transport_udp.obj
 0004:00003008       _cap_infos                 0052c008     pjmedia-i386-win32-vc8-debug-dynamic:audiodev.obj
 0004:000030e0       _plc_wsola                 0052c0e0     pjmedia-i386-win32-vc8-debug-dynamic:plc_common.obj
 0004:00003178       _crypto_suites             0052c178     pjmedia-i386-win32-vc8-debug-dynamic:transport_srtp.obj
 0004:00003254       _transport_srtp_op         0052c254     pjmedia-i386-win32-vc8-debug-dynamic:transport_srtp.obj
 0004:00003288       ?liberr@?1??get_libsrtp_errstr@@9@9 0052c288     pjmedia-i386-win32-vc8-debug-dynamic:transport_srtp.obj
 0004:000032ec       _sdes_op                   0052c2ec     pjmedia-i386-win32-vc8-debug-dynamic:transport_srtp.obj
 0004:000033e8       _state_names               0052c3e8     pjlib-util-i386-win32-vc8-debug-dynamic:resolver.obj
 0004:00003454       _thread_tls_id             0052c454     pjlib-i386-win32-vc8-debug-dynamic:os_core_win32.obj
 0004:000035e0       _pool_sizes                0052c5e0     pjlib-i386-win32-vc8-debug-dynamic:pool_caching.obj
 0004:00003664       _pj_log_max_level          0052c664     pjlib-i386-win32-vc8-debug-dynamic:log.obj
 0004:00003668       _thread_suspended_tls_id   0052c668     pjlib-i386-win32-vc8-debug-dynamic:log.obj
 0004:0000366c       _thread_indent_tls_id      0052c66c     pjlib-i386-win32-vc8-debug-dynamic:log.obj
 0004:00003670       _log_writer                0052c670     pjlib-i386-win32-vc8-debug-dynamic:log.obj
 0004:00003674       _log_decor                 0052c674     pjlib-i386-win32-vc8-debug-dynamic:log.obj
 0004:00003678       _PJ_LOG_COLOR_0            0052c678     pjlib-i386-win32-vc8-debug-dynamic:log.obj
 0004:0000367c       _PJ_LOG_COLOR_1            0052c67c     pjlib-i386-win32-vc8-debug-dynamic:log.obj
 0004:00003680       _PJ_LOG_COLOR_2            0052c680     pjlib-i386-win32-vc8-debug-dynamic:log.obj
 0004:00003684       _PJ_LOG_COLOR_3            0052c684     pjlib-i386-win32-vc8-debug-dynamic:log.obj
 0004:00003688       _PJ_LOG_COLOR_4            0052c688     pjlib-i386-win32-vc8-debug-dynamic:log.obj
 0004:0000368c       _PJ_LOG_COLOR_5            0052c68c     pjlib-i386-win32-vc8-debug-dynamic:log.obj
 0004:00003690       _PJ_LOG_COLOR_6            0052c690     pjlib-i386-win32-vc8-debug-dynamic:log.obj
 0004:00003694       _PJ_LOG_COLOR_77           0052c694     pjlib-i386-win32-vc8-debug-dynamic:log.obj
 0004:00003698       ?ltexts@?2??pj_log@@9@9    0052c698     pjlib-i386-win32-vc8-debug-dynamic:log.obj
 0004:000036b4       ?wdays@?3??pj_log@@9@9     0052c6b4     pjlib-i386-win32-vc8-debug-dynamic:log.obj
 0004:00003714       _mutex_lock_template       0052c714     pjlib-i386-win32-vc8-debug-dynamic:lock.obj
 0004:00003728       _null_lock_template        0052c728     pjlib-i386-win32-vc8-debug-dynamic:lock.obj
 0004:0000373c       _sem_lock_template         0052c73c     pjlib-i386-win32-vc8-debug-dynamic:lock.obj
 0004:00003820       _thread_local_id           0052c820     pjlib-i386-win32-vc8-debug-dynamic:except.obj
 0004:00003844       ?hex@?1??hex2digit@@9@9    0052c844     pjlib-i386-win32-vc8-debug-dynamic:guid_win32.obj
 0004:0000386c       _tls                       0052c86c     pjlib-i386-win32-vc8-debug-dynamic:pool_buf.obj
 0004:0000387c       _id                        0052c87c     pjlib-i386-win32-vc8-debug-dynamic:config.obj
 0004:000038ac       _srtp_event_handler        0052c8ac     libsrtp-i386-win32-vc8-debug-dynamic:srtp.obj
 0004:00004140       _app                       0052d140     siprtp.obj
 0004:001da388       ?ip_addr@?1??init_options@@9@9 00703388     siprtp.obj
 0004:001da398       ?local_uri@?1??init_options@@9@9 00703398     siprtp.obj
 0004:001da3d8       $SG54375                   007033d8     siprtp.obj
 0004:001da3d9       $SG54376                   007033d9     siprtp.obj
 0004:001da3da       $SG54377                   007033da     siprtp.obj
 0004:001da3db       $SG54378                   007033db     siprtp.obj
 0004:001da3dc       $SG54386                   007033dc     siprtp.obj
 0004:001da3dd       $SG54387                   007033dd     siprtp.obj
 0004:001da3de       $SG54388                   007033de     siprtp.obj
 0004:001da3df       $SG54389                   007033df     siprtp.obj
 0004:001da3e0       $SG54393                   007033e0     siprtp.obj
 0004:001da3e4       _log_file                  007033e4     siprtp.obj
 0004:00238470       _is_initialized            00761470     pjsip-ua-i386-win32-vc8-debug-dynamic:sip_timer.obj
 0004:00238478       _status_phrase             00761478     pjsip-core-i386-win32-vc8-debug-dynamic:sip_msg.obj
 0004:00239aa8       ?is_initialized@?1??pjsip_get_status_text@@9@9 00762aa8     pjsip-core-i386-win32-vc8-debug-dynamic:sip_msg.obj
 0004:00239f20       _handler                   00762f20     pjsip-core-i386-win32-vc8-debug-dynamic:sip_parser.obj
 0004:0023b5a0       _handler_count             007645a0     pjsip-core-i386-win32-vc8-debug-dynamic:sip_parser.obj
 0004:0023b5a4       _parser_is_initialized     007645a4     pjsip-core-i386-win32-vc8-debug-dynamic:sip_parser.obj
 0004:0023b5a8       _uri_handler               007645a8     pjsip-core-i386-win32-vc8-debug-dynamic:sip_parser.obj
 0004:0023b5d8       _uri_handler_count         007645d8     pjsip-core-i386-win32-vc8-debug-dynamic:sip_parser.obj
 0004:0023b5e0       _cis_buf                   007645e0     pjsip-core-i386-win32-vc8-debug-dynamic:sip_parser.obj
 0004:0023bf40       _cis_buf                   00764f40     pjsip-core-i386-win32-vc8-debug-dynamic:sip_tel_uri.obj
 0004:0023c344       _pjsip_TEL_NUMBER_SPEC     00765344     pjsip-core-i386-win32-vc8-debug-dynamic:sip_tel_uri.obj
 0004:0023c34c       _pjsip_TEL_EXT_VALUE_SPEC  0076534c     pjsip-core-i386-win32-vc8-debug-dynamic:sip_tel_uri.obj
 0004:0023c354       _pjsip_TEL_PHONE_CONTEXT_SPEC 00765354     pjsip-core-i386-win32-vc8-debug-dynamic:sip_tel_uri.obj
 0004:0023c35c       _pjsip_TEL_URIC_SPEC       0076535c     pjsip-core-i386-win32-vc8-debug-dynamic:sip_tel_uri.obj
 0004:0023c364       _pjsip_TEL_VISUAL_SEP_SPEC 00765364     pjsip-core-i386-win32-vc8-debug-dynamic:sip_tel_uri.obj
 0004:0023c36c       _pjsip_TEL_PNAME_SPEC      0076536c     pjsip-core-i386-win32-vc8-debug-dynamic:sip_tel_uri.obj
 0004:0023c374       _pjsip_TEL_PVALUE_SPEC     00765374     pjsip-core-i386-win32-vc8-debug-dynamic:sip_tel_uri.obj
 0004:0023c37c       _pjsip_TEL_PVALUE_SPEC_ESC 0076537c     pjsip-core-i386-win32-vc8-debug-dynamic:sip_tel_uri.obj
 0004:0023c384       _pjsip_TEL_PARSING_PVALUE_SPEC 00765384     pjsip-core-i386-win32-vc8-debug-dynamic:sip_tel_uri.obj
 0004:0023c38c       _pjsip_TEL_PARSING_PVALUE_SPEC_ESC 0076538c     pjsip-core-i386-win32-vc8-debug-dynamic:sip_tel_uri.obj
 0004:0023c474       ?name@?1??get_fmt_name@@9@9 00765474     pjmedia-audiodev-i386-win32-vc8-debug-dynamic:wmme_dev.obj
 0004:0023c47c       ?rec_cnt@?1??wmme_dev_thread@@9@9 0076547c     pjmedia-audiodev-i386-win32-vc8-debug-dynamic:wmme_dev.obj
 0004:0023c480       ?play_cnt@?1??wmme_dev_thread@@9@9 00765480     pjmedia-audiodev-i386-win32-vc8-debug-dynamic:wmme_dev.obj
 0004:0023c488       _is_initialized            00765488     pjmedia-i386-win32-vc8-debug-dynamic:sdp.obj
 0004:0023c490       _cis_buf                   00765490     pjmedia-i386-win32-vc8-debug-dynamic:sdp.obj
 0004:0023c894       _cs_digit                  00765894     pjmedia-i386-win32-vc8-debug-dynamic:sdp.obj
 0004:0023c89c       _cs_token                  0076589c     pjmedia-i386-win32-vc8-debug-dynamic:sdp.obj
 0004:0023c978       _g711_factory              00765978     pjmedia-i386-win32-vc8-debug-dynamic:g711.obj
 0004:0023c9b8       _fmt_match_cb_cnt          007659b8     pjmedia-i386-win32-vc8-debug-dynamic:sdp_neg.obj
 0004:0023c9c0       _fmt_match_cb              007659c0     pjmedia-i386-win32-vc8-debug-dynamic:sdp_neg.obj
 0004:0023ca38       _aud_subsys                00765a38     pjmedia-i386-win32-vc8-debug-dynamic:audiodev.obj
 0004:0023d000       _event_manager_instance    00766000     pjmedia-i386-win32-vc8-debug-dynamic:event.obj
 0004:0023d008       ?ev_queue@?9??pjmedia_event_publish@@9@9 00766008     pjmedia-i386-win32-vc8-debug-dynamic:event.obj
 0004:0023d4ec       ?msg@?3??get_libsrtp_errstr@@9@9 007664ec     pjmedia-i386-win32-vc8-debug-dynamic:transport_srtp.obj
 0004:0023d50c       _libsrtp_initialized       0076650c     pjmedia-i386-win32-vc8-debug-dynamic:transport_srtp.obj
 0004:0023d51c       ___getopt_initialized      0076651c     pjlib-util-i386-win32-vc8-debug-dynamic:getopt.obj
 0004:0023d520       _nextchar                  00766520     pjlib-util-i386-win32-vc8-debug-dynamic:getopt.obj
 0004:0023d524       _ordering                  00766524     pjlib-util-i386-win32-vc8-debug-dynamic:getopt.obj
 0004:0023d528       _posixly_correct           00766528     pjlib-util-i386-win32-vc8-debug-dynamic:getopt.obj
 0004:0023d52c       _first_nonopt              0076652c     pjlib-util-i386-win32-vc8-debug-dynamic:getopt.obj
 0004:0023d530       _last_nonopt               00766530     pjlib-util-i386-win32-vc8-debug-dynamic:getopt.obj
 0004:0023d540       _initialized               00766540     pjlib-i386-win32-vc8-debug-dynamic:os_core_win32.obj
 0004:0023d544       _atexit_count              00766544     pjlib-i386-win32-vc8-debug-dynamic:os_core_win32.obj
 0004:0023d548       _main_thread               00766548     pjlib-i386-win32-vc8-debug-dynamic:os_core_win32.obj
 0004:0023d648       _critical_section_mutex    00766648     pjlib-i386-win32-vc8-debug-dynamic:os_core_win32.obj
 0004:0023d688       _atexit_func               00766688     pjlib-i386-win32-vc8-debug-dynamic:os_core_win32.obj
 0004:0023d768       _err_msg_hnd_cnt           00766768     pjlib-i386-win32-vc8-debug-dynamic:errno.obj
 0004:0023d770       _err_msg_hnd               00766770     pjlib-i386-win32-vc8-debug-dynamic:errno.obj
 0004:0023d808       ?buf@?1??pj_gethostname@@9@9 00766808     pjlib-i386-win32-vc8-debug-dynamic:sock_bsd.obj
 0004:0023d888       ?hostname@?1??pj_gethostname@@9@9 00766888     pjlib-i386-win32-vc8-debug-dynamic:sock_bsd.obj
 0004:0023d8b0       _base_time                 007668b0     pjlib-i386-win32-vc8-debug-dynamic:os_time_win32.obj
 0004:0023d8bc       _g_last_thread             007668bc     pjlib-i386-win32-vc8-debug-dynamic:log.obj
 0004:0023d8c0       _exception_id_names        007668c0     pjlib-i386-win32-vc8-debug-dynamic:except.obj
 0004:0023d900       ?unknown_name@?1??pj_exception_id_name@@9@9 00766900     pjlib-i386-win32-vc8-debug-dynamic:except.obj
 0004:0023d934       _stack_based_factory       00766934     pjlib-i386-win32-vc8-debug-dynamic:pool_buf.obj
 0004:0023d958       _is_initialized            00766958     pjlib-i386-win32-vc8-debug-dynamic:pool_buf.obj
 0004:0023d964       _s_hDLL                    00766964     pjlib-i386-win32-vc8-debug-dynamic:ip_helper_win32.obj
 0004:0023d968       _s_pfnGetIpAddrTable       00766968     pjlib-i386-win32-vc8-debug-dynamic:ip_helper_win32.obj
 0004:0023d96c       _s_pfnGetAdapterAddresses  0076696c     pjlib-i386-win32-vc8-debug-dynamic:ip_helper_win32.obj
 0004:0023d970       _s_pfnGetIpForwardTable    00766970     pjlib-i386-win32-vc8-debug-dynamic:ip_helper_win32.obj
 0004:0023d974       _s_pfnGetIfEntry           00766974     pjlib-i386-win32-vc8-debug-dynamic:ip_helper_win32.obj
 0004:0023d97c       _srtp_log_handler          0076697c     libsrtp-i386-win32-vc8-debug-dynamic:srtp.obj
 0004:0023d980       _srtp_log_handler_data     00766980     libsrtp-i386-win32-vc8-debug-dynamic:srtp.obj
 0004:0023d9a0       _srtp_aes_icm_128_test_case_0_nonce 007669a0     libsrtp-i386-win32-vc8-debug-dynamic:aes_icm.obj
 0004:0023d9b0       _srtp_aes_icm_256_test_case_0_nonce 007669b0     libsrtp-i386-win32-vc8-debug-dynamic:aes_icm.obj
 0004:0023d9c8       _GS_ExceptionRecord        007669c8     MSVCRTD:gs_report.obj
 0004:0023da18       _GS_ContextRecord          00766a18     MSVCRTD:gs_report.obj
 0004:0023dd8c       ?is_initialized_as_dll@@3_NA 00766d8c     MSVCRTD:utility.obj
 0004:0023dd8d       ?module_local_atexit_table_initialized@@3_NA 00766d8d     MSVCRTD:utility.obj
 0004:0023dd90       ?module_local_atexit_table@@3U_onexit_table_t@@A 00766d90     MSVCRTD:utility.obj
 0004:0023dd9c       ?module_local_at_quick_exit_table@@3U_onexit_table_t@@A 00766d9c     MSVCRTD:utility.obj
 0005:00000954       .idata$6                   00768954     ole32:ole32.dll
 0005:000009a4       .idata$6                   007689a4     ws2_32:WS2_32.dll
 0005:00000b70       .idata$6                   00768b70     winmm:WINMM.dll
 0005:00000f74       .idata$6                   00768f74     kernel32:KERNEL32.dll
 0005:0000100e       .idata$6                   0076900e     vcruntimed:VCRUNTIME140D.dll
 0005:00001398       .idata$6                   00769398     ucrtd:ucrtbased.dll
