 stereotest

 Timestamp is 5ce478d4 (Wed May 22 07:16:52 2019)

 Preferred load address is 00400000

 Start         Length     Name                   Class
 0001:00000000 0002d8a3H .textbss                DATA
 0002:00000000 00060100H .text$mn                CODE
 0003:00000000 00000104H .CRT$XCA                DATA
 0003:00000104 00000104H .CRT$XCAA               DATA
 0003:00000208 00000104H .CRT$XCZ                DATA
 0003:0000030c 00000104H .CRT$XIA                DATA
 0003:00000410 00000104H .CRT$XIAA               DATA
 0003:00000514 00000104H .CRT$XIAC               DATA
 0003:00000618 00000104H .CRT$XIZ                DATA
 0003:0000071c 00000104H .CRT$XPA                DATA
 0003:00000820 00000104H .CRT$XPZ                DATA
 0003:00000924 00000104H .CRT$XTA                DATA
 0003:00000a28 00000108H .CRT$XTZ                DATA
 0003:00000b30 0001a9b8H .rdata                  DATA
 0003:0001b4e8 000001a4H .rdata$zzzdbg           DATA
 0003:0001b68c 00000104H .rtc$IAA                DATA
 0003:0001b790 00000104H .rtc$IZZ                DATA
 0003:0001b894 00000104H .rtc$TAA                DATA
 0003:0001b998 00000108H .rtc$TZZ                DATA
 0003:0001baa0 00000145H .xdata$x                DATA
 0003:0001bbe5 00000000H .edata                  DATA
 0004:00000000 00002000H .data                   DATA
 0004:00002000 00001904H .bss                    DATA
 0005:00000000 00000494H .idata$5                DATA
 0005:00000494 00000078H .idata$2                DATA
 0005:0000050c 00000014H .idata$3                DATA
 0005:00000520 00000494H .idata$4                DATA
 0005:000009b4 00000d0cH .idata$6                DATA
 0006:00000000 00000104H .00cfg                  DATA

  Address         Publics by Value              Rva+Base       Lib:Object

 0000:00000000       ___hybrid_code_map_count   00000000     <absolute>
 0000:00000000       ___guard_iat_table         00000000     <absolute>
 0000:00000000       ___guard_fids_count        00000000     <absolute>
 0000:00000000       ___safe_se_handler_table   00000000     <absolute>
 0000:00000000       ___guard_longjmp_count     00000000     <absolute>
 0000:00000000       ___hybrid_auxiliary_iat    00000000     <absolute>
 0000:00000000       ___hybrid_code_map         00000000     <absolute>
 0000:00000000       ___volatile_metadata       00000000     <absolute>
 0000:00000000       ___dynamic_value_reloc_table 00000000     <absolute>
 0000:00000000       ___enclave_config          00000000     <absolute>
 0000:00000000       ___guard_fids_table        00000000     <absolute>
 0000:00000000       ___guard_longjmp_table     00000000     <absolute>
 0000:00000000       ___guard_iat_count         00000000     <absolute>
 0000:00000000       ___safe_se_handler_count   00000000     <absolute>
 0000:00000100       ___guard_flags             00000100     <absolute>
 0000:00000000       ___ImageBase               00400000     <linker-defined>
 0001:00000000       __enc$textbss$begin        00401000     <linker-defined>
 0001:0002d8a3       __enc$textbss$end          0042e8a3     <linker-defined>
 0002:00002a90       _get_snd_options           00431a90 f   stereotest.obj
 0002:00002e00       _dump_pool_usage           00431e00 f   stereotest.obj
 0002:00002ea0       _main                      00431ea0 f   stereotest.obj
 0002:00003b50       ___local_stdio_printf_options 00432b50 f i stereotest.obj
 0002:00003b60       __vfprintf_l               00432b60 f i stereotest.obj
 0002:00003ba0       _printf                    00432ba0 f i stereotest.obj
 0002:00003bf0       _pjmedia_aud_register_factory 00432bf0 f   pjmedia-audiodev-i386-win32-vc8-debug-dynamic:audiodev.obj
 0002:00003c90       _pjmedia_aud_subsys_get_pool_factory 00432c90 f   pjmedia-audiodev-i386-win32-vc8-debug-dynamic:audiodev.obj
 0002:00003cc0       _pjmedia_aud_subsys_init   00432cc0 f   pjmedia-audiodev-i386-win32-vc8-debug-dynamic:audiodev.obj
 0002:00003e20       _pjmedia_aud_subsys_shutdown 00432e20 f   pjmedia-audiodev-i386-win32-vc8-debug-dynamic:audiodev.obj
 0002:00003eb0       _pjmedia_aud_unregister_factory 00432eb0 f   pjmedia-audiodev-i386-win32-vc8-debug-dynamic:audiodev.obj
 0002:00003f90       __snprintf                 00432f90 f i pjmedia-audiodev-i386-win32-vc8-debug-dynamic:errno.obj
 0002:00003fe0       __vsnprintf                00432fe0 f i pjmedia-audiodev-i386-win32-vc8-debug-dynamic:errno.obj
 0002:00004020       __vsnprintf_l              00433020 f i pjmedia-audiodev-i386-win32-vc8-debug-dynamic:errno.obj
 0002:00004090       _pjmedia_audiodev_strerror 00433090 f   pjmedia-audiodev-i386-win32-vc8-debug-dynamic:errno.obj
 0002:00006800       _pjmedia_wmme_factory      00435800 f   pjmedia-audiodev-i386-win32-vc8-debug-dynamic:wmme_dev.obj
 0002:000072a0       _pjmedia_port_destroy      004362a0 f   pjmedia-i386-win32-vc8-debug-dynamic:port.obj
 0002:00007330       _pjmedia_port_get_clock_src 00436330 f   pjmedia-i386-win32-vc8-debug-dynamic:port.obj
 0002:00007380       _pjmedia_port_get_frame    00436380 f   pjmedia-i386-win32-vc8-debug-dynamic:port.obj
 0002:00007420       _pjmedia_port_info_init    00436420 f   pjmedia-i386-win32-vc8-debug-dynamic:port.obj
 0002:000074f0       _pjmedia_port_info_init2   004364f0 f   pjmedia-i386-win32-vc8-debug-dynamic:port.obj
 0002:00007560       _pjmedia_port_put_frame    00436560 f   pjmedia-i386-win32-vc8-debug-dynamic:port.obj
 0002:00007600       __vsprintf_l               00436600 f i pjmedia-i386-win32-vc8-debug-dynamic:endpoint.obj
 0002:00007aa0       _pjmedia_endpt_atexit      00436aa0 f   pjmedia-i386-win32-vc8-debug-dynamic:endpoint.obj
 0002:00007b70       _pjmedia_endpt_create2     00436b70 f   pjmedia-i386-win32-vc8-debug-dynamic:endpoint.obj
 0002:00007ef0       _pjmedia_endpt_create_audio_sdp 00436ef0 f   pjmedia-i386-win32-vc8-debug-dynamic:endpoint.obj
 0002:00008760       _pjmedia_endpt_create_base_sdp 00437760 f   pjmedia-i386-win32-vc8-debug-dynamic:endpoint.obj
 0002:000089d0       _pjmedia_endpt_create_pool 004379d0 f   pjmedia-i386-win32-vc8-debug-dynamic:endpoint.obj
 0002:00008a40       _pjmedia_endpt_create_sdp  00437a40 f   pjmedia-i386-win32-vc8-debug-dynamic:endpoint.obj
 0002:00008bd0       _pjmedia_endpt_destroy2    00437bd0 f   pjmedia-i386-win32-vc8-debug-dynamic:endpoint.obj
 0002:00008cb0       _pjmedia_endpt_dump        00437cb0 f   pjmedia-i386-win32-vc8-debug-dynamic:endpoint.obj
 0002:00009040       _pjmedia_endpt_get_codec_mgr 00438040 f   pjmedia-i386-win32-vc8-debug-dynamic:endpoint.obj
 0002:00009060       _pjmedia_endpt_get_flag    00438060 f   pjmedia-i386-win32-vc8-debug-dynamic:endpoint.obj
 0002:000090f0       _pjmedia_endpt_get_ioqueue 004380f0 f   pjmedia-i386-win32-vc8-debug-dynamic:endpoint.obj
 0002:00009150       _pjmedia_endpt_get_thread  00438150 f   pjmedia-i386-win32-vc8-debug-dynamic:endpoint.obj
 0002:00009210       _pjmedia_endpt_get_thread_count 00438210 f   pjmedia-i386-win32-vc8-debug-dynamic:endpoint.obj
 0002:00009270       _pjmedia_endpt_set_flag    00438270 f   pjmedia-i386-win32-vc8-debug-dynamic:endpoint.obj
 0002:00009300       _pjmedia_endpt_stop_threads 00438300 f   pjmedia-i386-win32-vc8-debug-dynamic:endpoint.obj
 0002:00009400       _sprintf                   00438400 f i pjmedia-i386-win32-vc8-debug-dynamic:endpoint.obj
 0002:000095c0       _pjmedia_snd_port_connect  004385c0 f   pjmedia-i386-win32-vc8-debug-dynamic:sound_port.obj
 0002:000096d0       _pjmedia_snd_port_create   004386d0 f   pjmedia-i386-win32-vc8-debug-dynamic:sound_port.obj
 0002:000097e0       _pjmedia_snd_port_create2  004387e0 f   pjmedia-i386-win32-vc8-debug-dynamic:sound_port.obj
 0002:00009a70       _pjmedia_snd_port_create_player 00438a70 f   pjmedia-i386-win32-vc8-debug-dynamic:sound_port.obj
 0002:00009b60       _pjmedia_snd_port_create_rec 00438b60 f   pjmedia-i386-win32-vc8-debug-dynamic:sound_port.obj
 0002:00009c50       _pjmedia_snd_port_destroy  00438c50 f   pjmedia-i386-win32-vc8-debug-dynamic:sound_port.obj
 0002:00009cc0       _pjmedia_snd_port_disconnect 00438cc0 f   pjmedia-i386-win32-vc8-debug-dynamic:sound_port.obj
 0002:00009d30       _pjmedia_snd_port_get_clock_src 00438d30 f   pjmedia-i386-win32-vc8-debug-dynamic:sound_port.obj
 0002:00009d70       _pjmedia_snd_port_get_ec_tail 00438d70 f   pjmedia-i386-win32-vc8-debug-dynamic:sound_port.obj
 0002:00009ec0       _pjmedia_snd_port_get_port 00438ec0 f   pjmedia-i386-win32-vc8-debug-dynamic:sound_port.obj
 0002:00009f20       _pjmedia_snd_port_get_snd_stream 00438f20 f   pjmedia-i386-win32-vc8-debug-dynamic:sound_port.obj
 0002:00009f80       _pjmedia_snd_port_param_default 00438f80 f   pjmedia-i386-win32-vc8-debug-dynamic:sound_port.obj
 0002:00009fb0       _pjmedia_snd_port_set_ec   00438fb0 f   pjmedia-i386-win32-vc8-debug-dynamic:sound_port.obj
 0002:0000b270       _pjmedia_stereo_port_create 0043a270 f   pjmedia-i386-win32-vc8-debug-dynamic:stereo_port.obj
 0002:0000c3b0       _pjmedia_wav_player_get_info 0043b3b0 f   pjmedia-i386-win32-vc8-debug-dynamic:wav_player.obj
 0002:0000c570       _pjmedia_wav_player_get_len 0043b570 f   pjmedia-i386-win32-vc8-debug-dynamic:wav_player.obj
 0002:0000c640       _pjmedia_wav_player_port_create 0043b640 f   pjmedia-i386-win32-vc8-debug-dynamic:wav_player.obj
 0002:0000ce40       _pjmedia_wav_player_port_get_pos 0043be40 f   pjmedia-i386-win32-vc8-debug-dynamic:wav_player.obj
 0002:0000cf60       _pjmedia_wav_player_port_set_pos 0043bf60 f   pjmedia-i386-win32-vc8-debug-dynamic:wav_player.obj
 0002:0000d110       _pjmedia_wav_player_set_eof_cb 0043c110 f   pjmedia-i386-win32-vc8-debug-dynamic:wav_player.obj
 0002:0000d960       _pjmedia_wav_writer_port_create 0043c960 f   pjmedia-i386-win32-vc8-debug-dynamic:wav_writer.obj
 0002:0000df20       _pjmedia_wav_writer_port_get_pos 0043cf20 f   pjmedia-i386-win32-vc8-debug-dynamic:wav_writer.obj
 0002:0000dfe0       _pjmedia_wav_writer_port_set_cb 0043cfe0 f   pjmedia-i386-win32-vc8-debug-dynamic:wav_writer.obj
 0002:0000e630       _pjmedia_aud_dev_cap_name  0043d630 f   pjmedia-i386-win32-vc8-debug-dynamic:audiodev.obj
 0002:0000e6d0       _pjmedia_aud_dev_count     0043d6d0 f   pjmedia-i386-win32-vc8-debug-dynamic:audiodev.obj
 0002:0000e6f0       _pjmedia_aud_dev_default_param 0043d6f0 f   pjmedia-i386-win32-vc8-debug-dynamic:audiodev.obj
 0002:0000e840       _pjmedia_aud_dev_get_info  0043d840 f   pjmedia-i386-win32-vc8-debug-dynamic:audiodev.obj
 0002:0000e940       _pjmedia_aud_dev_lookup    0043d940 f   pjmedia-i386-win32-vc8-debug-dynamic:audiodev.obj
 0002:0000eb60       _pjmedia_aud_dev_refresh   0043db60 f   pjmedia-i386-win32-vc8-debug-dynamic:audiodev.obj
 0002:0000ec40       _pjmedia_aud_driver_deinit 0043dc40 f   pjmedia-i386-win32-vc8-debug-dynamic:audiodev.obj
 0002:0000ecd0       _pjmedia_aud_driver_init   0043dcd0 f   pjmedia-i386-win32-vc8-debug-dynamic:audiodev.obj
 0002:0000f040       _pjmedia_aud_param_get_cap 0043e040 f   pjmedia-i386-win32-vc8-debug-dynamic:audiodev.obj
 0002:0000f0d0       _pjmedia_aud_param_set_cap 0043e0d0 f   pjmedia-i386-win32-vc8-debug-dynamic:audiodev.obj
 0002:0000f150       _pjmedia_aud_stream_create 0043e150 f   pjmedia-i386-win32-vc8-debug-dynamic:audiodev.obj
 0002:0000f4a0       _pjmedia_aud_stream_destroy 0043e4a0 f   pjmedia-i386-win32-vc8-debug-dynamic:audiodev.obj
 0002:0000f4d0       _pjmedia_aud_stream_get_cap 0043e4d0 f   pjmedia-i386-win32-vc8-debug-dynamic:audiodev.obj
 0002:0000f510       _pjmedia_aud_stream_get_param 0043e510 f   pjmedia-i386-win32-vc8-debug-dynamic:audiodev.obj
 0002:0000f620       _pjmedia_aud_stream_set_cap 0043e620 f   pjmedia-i386-win32-vc8-debug-dynamic:audiodev.obj
 0002:0000f660       _pjmedia_aud_stream_start  0043e660 f   pjmedia-i386-win32-vc8-debug-dynamic:audiodev.obj
 0002:0000f690       _pjmedia_aud_stream_stop   0043e690 f   pjmedia-i386-win32-vc8-debug-dynamic:audiodev.obj
 0002:0000f6c0       _pjmedia_get_aud_subsys    0043e6c0 f   pjmedia-i386-win32-vc8-debug-dynamic:audiodev.obj
 0002:0000f710       _pjmedia_format_copy       0043e710 f   pjmedia-i386-win32-vc8-debug-dynamic:format.obj
 0002:0000f740       _pjmedia_format_get_audio_format_detail 0043e740 f   pjmedia-i386-win32-vc8-debug-dynamic:format.obj
 0002:0000f8a0       _pjmedia_codec_info_to_id  0043e8a0 f   pjmedia-i386-win32-vc8-debug-dynamic:codec.obj
 0002:0000f980       _pjmedia_codec_mgr_alloc_codec 0043e980 f   pjmedia-i386-win32-vc8-debug-dynamic:codec.obj
 0002:0000fac0       _pjmedia_codec_mgr_dealloc_codec 0043eac0 f   pjmedia-i386-win32-vc8-debug-dynamic:codec.obj
 0002:0000fb50       _pjmedia_codec_mgr_destroy 0043eb50 f   pjmedia-i386-win32-vc8-debug-dynamic:codec.obj
 0002:0000fcd0       _pjmedia_codec_mgr_enum_codecs 0043ecd0 f   pjmedia-i386-win32-vc8-debug-dynamic:codec.obj
 0002:0000fe20       _pjmedia_codec_mgr_find_codecs_by_id 0043ee20 f   pjmedia-i386-win32-vc8-debug-dynamic:codec.obj
 0002:0000ffc0       _pjmedia_codec_mgr_get_codec_info 0043efc0 f   pjmedia-i386-win32-vc8-debug-dynamic:codec.obj
 0002:000100e0       _pjmedia_codec_mgr_get_default_param 0043f0e0 f   pjmedia-i386-win32-vc8-debug-dynamic:codec.obj
 0002:00010360       _pjmedia_codec_mgr_init    0043f360 f   pjmedia-i386-win32-vc8-debug-dynamic:codec.obj
 0002:00010470       _pjmedia_codec_mgr_register_factory 0043f470 f   pjmedia-i386-win32-vc8-debug-dynamic:codec.obj
 0002:00010730       _pjmedia_codec_mgr_set_codec_priority 0043f730 f   pjmedia-i386-win32-vc8-debug-dynamic:codec.obj
 0002:00010880       _pjmedia_codec_mgr_set_default_param 0043f880 f   pjmedia-i386-win32-vc8-debug-dynamic:codec.obj
 0002:00010b30       _pjmedia_codec_mgr_unregister_factory 0043fb30 f   pjmedia-i386-win32-vc8-debug-dynamic:codec.obj
 0002:00010cf0       _pjmedia_codec_param_clone 0043fcf0 f   pjmedia-i386-win32-vc8-debug-dynamic:codec.obj
 0002:00011da0       _pjmedia_sdp_attr_add      00440da0 f   pjmedia-i386-win32-vc8-debug-dynamic:sdp.obj
 0002:00011e80       _pjmedia_sdp_attr_clone    00440e80 f   pjmedia-i386-win32-vc8-debug-dynamic:sdp.obj
 0002:00011f40       _pjmedia_sdp_attr_create   00440f40 f   pjmedia-i386-win32-vc8-debug-dynamic:sdp.obj
 0002:00012010       _pjmedia_sdp_attr_create_rtcp 00441010 f   pjmedia-i386-win32-vc8-debug-dynamic:sdp.obj
 0002:00012190       _pjmedia_sdp_attr_create_ssrc 00441190 f   pjmedia-i386-win32-vc8-debug-dynamic:sdp.obj
 0002:00012250       _pjmedia_sdp_attr_find     00441250 f   pjmedia-i386-win32-vc8-debug-dynamic:sdp.obj
 0002:00012360       _pjmedia_sdp_attr_find2    00441360 f   pjmedia-i386-win32-vc8-debug-dynamic:sdp.obj
 0002:000123b0       _pjmedia_sdp_attr_get_fmtp 004413b0 f   pjmedia-i386-win32-vc8-debug-dynamic:sdp.obj
 0002:00012500       _pjmedia_sdp_attr_get_rtcp 00441500 f   pjmedia-i386-win32-vc8-debug-dynamic:sdp.obj
 0002:00012730       _pjmedia_sdp_attr_get_rtpmap 00441730 f   pjmedia-i386-win32-vc8-debug-dynamic:sdp.obj
 0002:00012a60       _pjmedia_sdp_attr_get_ssrc 00441a60 f   pjmedia-i386-win32-vc8-debug-dynamic:sdp.obj
 0002:00012c90       _pjmedia_sdp_attr_remove   00441c90 f   pjmedia-i386-win32-vc8-debug-dynamic:sdp.obj
 0002:00012df0       _pjmedia_sdp_attr_remove_all 00441df0 f   pjmedia-i386-win32-vc8-debug-dynamic:sdp.obj
 0002:00012f60       _pjmedia_sdp_attr_to_rtpmap 00441f60 f   pjmedia-i386-win32-vc8-debug-dynamic:sdp.obj
 0002:00013050       _pjmedia_sdp_bandw_clone   00442050 f   pjmedia-i386-win32-vc8-debug-dynamic:sdp.obj
 0002:000130c0       _pjmedia_sdp_conn_clone    004420c0 f   pjmedia-i386-win32-vc8-debug-dynamic:sdp.obj
 0002:00013180       _pjmedia_sdp_media_add_attr 00442180 f   pjmedia-i386-win32-vc8-debug-dynamic:sdp.obj
 0002:000131c0       _pjmedia_sdp_media_clone   004421c0 f   pjmedia-i386-win32-vc8-debug-dynamic:sdp.obj
 0002:00013520       _pjmedia_sdp_media_clone_deactivate 00442520 f   pjmedia-i386-win32-vc8-debug-dynamic:sdp.obj
 0002:000137b0       _pjmedia_sdp_media_deactivate 004427b0 f   pjmedia-i386-win32-vc8-debug-dynamic:sdp.obj
 0002:00013830       _pjmedia_sdp_media_find_attr 00442830 f   pjmedia-i386-win32-vc8-debug-dynamic:sdp.obj
 0002:000138c0       _pjmedia_sdp_media_find_attr2 004428c0 f   pjmedia-i386-win32-vc8-debug-dynamic:sdp.obj
 0002:00013950       _pjmedia_sdp_media_remove_all_attr 00442950 f   pjmedia-i386-win32-vc8-debug-dynamic:sdp.obj
 0002:00013990       _pjmedia_sdp_media_remove_attr 00442990 f   pjmedia-i386-win32-vc8-debug-dynamic:sdp.obj
 0002:000139d0       _pjmedia_sdp_parse         004429d0 f   pjmedia-i386-win32-vc8-debug-dynamic:sdp.obj
 0002:00014110       _pjmedia_sdp_print         00443110 f   pjmedia-i386-win32-vc8-debug-dynamic:sdp.obj
 0002:00014140       _pjmedia_sdp_rtpmap_to_attr 00443140 f   pjmedia-i386-win32-vc8-debug-dynamic:sdp.obj
 0002:000143d0       _pjmedia_sdp_session_add_attr 004433d0 f   pjmedia-i386-win32-vc8-debug-dynamic:sdp.obj
 0002:00014410       _pjmedia_sdp_session_clone 00443410 f   pjmedia-i386-win32-vc8-debug-dynamic:sdp.obj
 0002:00014750       _pjmedia_sdp_transport_cmp 00443750 f   pjmedia-i386-win32-vc8-debug-dynamic:sdp.obj
 0002:000147e0       _pjmedia_sdp_transport_get_proto 004437e0 f   pjmedia-i386-win32-vc8-debug-dynamic:sdp.obj
 0002:000149d0       _pjmedia_sdp_validate      004439d0 f   pjmedia-i386-win32-vc8-debug-dynamic:sdp.obj
 0002:00014a00       _pjmedia_sdp_validate2     00443a00 f   pjmedia-i386-win32-vc8-debug-dynamic:sdp.obj
 0002:00015900       _pjmedia_strerror          00444900 f   pjmedia-i386-win32-vc8-debug-dynamic:errno.obj
 0002:00015de0       _pjmedia_clock_create      00444de0 f   pjmedia-i386-win32-vc8-debug-dynamic:clock_thread.obj
 0002:00015e60       _pjmedia_clock_create2     00444e60 f   pjmedia-i386-win32-vc8-debug-dynamic:clock_thread.obj
 0002:000160b0       _pjmedia_clock_destroy     004450b0 f   pjmedia-i386-win32-vc8-debug-dynamic:clock_thread.obj
 0002:000161a0       _pjmedia_clock_modify      004451a0 f   pjmedia-i386-win32-vc8-debug-dynamic:clock_thread.obj
 0002:00016220       _pjmedia_clock_src_get_current_timestamp 00445220 f   pjmedia-i386-win32-vc8-debug-dynamic:clock_thread.obj
 0002:00016300       _pjmedia_clock_src_get_time_msec 00445300 f   pjmedia-i386-win32-vc8-debug-dynamic:clock_thread.obj
 0002:000163a0       _pjmedia_clock_src_init    004453a0 f   pjmedia-i386-win32-vc8-debug-dynamic:clock_thread.obj
 0002:00016450       _pjmedia_clock_src_update  00445450 f   pjmedia-i386-win32-vc8-debug-dynamic:clock_thread.obj
 0002:000164e0       _pjmedia_clock_start       004454e0 f   pjmedia-i386-win32-vc8-debug-dynamic:clock_thread.obj
 0002:00016620       _pjmedia_clock_stop        00445620 f   pjmedia-i386-win32-vc8-debug-dynamic:clock_thread.obj
 0002:00016700       _pjmedia_clock_wait        00445700 f   pjmedia-i386-win32-vc8-debug-dynamic:clock_thread.obj
 0002:00016a50       _pjmedia_echo_cancel       00445a50 f   pjmedia-i386-win32-vc8-debug-dynamic:echo_common.obj
 0002:00016aa0       _pjmedia_echo_capture      00445aa0 f   pjmedia-i386-win32-vc8-debug-dynamic:echo_common.obj
 0002:00016c00       _pjmedia_echo_create       00445c00 f   pjmedia-i386-win32-vc8-debug-dynamic:echo_common.obj
 0002:00016c50       _pjmedia_echo_create2      00445c50 f   pjmedia-i386-win32-vc8-debug-dynamic:echo_common.obj
 0002:00017010       _pjmedia_echo_destroy      00446010 f   pjmedia-i386-win32-vc8-debug-dynamic:echo_common.obj
 0002:00017080       _pjmedia_echo_playback     00446080 f   pjmedia-i386-win32-vc8-debug-dynamic:echo_common.obj
 0002:000171e0       _pjmedia_echo_reset        004461e0 f   pjmedia-i386-win32-vc8-debug-dynamic:echo_common.obj
 0002:000172c0       _pjmedia_wave_hdr_file_to_host 004462c0 f   pjmedia-i386-win32-vc8-debug-dynamic:wave.obj
 0002:000172f0       _pjmedia_wave_hdr_host_to_file 004462f0 f   pjmedia-i386-win32-vc8-debug-dynamic:wave.obj
 0002:00019df0       _get_libsrtp_errstr        00448df0 f   pjmedia-i386-win32-vc8-debug-dynamic:transport_srtp.obj
 0002:0001a3c0       _pjmedia_srtp_enum_crypto  004493c0 f   pjmedia-i386-win32-vc8-debug-dynamic:transport_srtp.obj
 0002:0001a4c0       _pjmedia_srtp_enum_keying  004494c0 f   pjmedia-i386-win32-vc8-debug-dynamic:transport_srtp.obj
 0002:0001a570       _pjmedia_srtp_init_lib     00449570 f   pjmedia-i386-win32-vc8-debug-dynamic:transport_srtp.obj
 0002:0001a650       _pjmedia_srtp_setting_default 00449650 f   pjmedia-i386-win32-vc8-debug-dynamic:transport_srtp.obj
 0002:0001a9e0       _pjmedia_transport_srtp_create 004499e0 f   pjmedia-i386-win32-vc8-debug-dynamic:transport_srtp.obj
 0002:0001aed0       _pjmedia_transport_srtp_decrypt_pkt 00449ed0 f   pjmedia-i386-win32-vc8-debug-dynamic:transport_srtp.obj
 0002:0001b120       _pjmedia_transport_srtp_dtls_get_fingerprint 0044a120 f   pjmedia-i386-win32-vc8-debug-dynamic:transport_srtp.obj
 0002:0001b140       _pjmedia_transport_srtp_dtls_start_nego 0044a140 f   pjmedia-i386-win32-vc8-debug-dynamic:transport_srtp.obj
 0002:0001b160       _pjmedia_transport_srtp_get_member 0044a160 f   pjmedia-i386-win32-vc8-debug-dynamic:transport_srtp.obj
 0002:0001b1d0       _pjmedia_transport_srtp_start 0044a1d0 f   pjmedia-i386-win32-vc8-debug-dynamic:transport_srtp.obj
 0002:0001bcb0       _pjmedia_transport_srtp_stop 0044acb0 f   pjmedia-i386-win32-vc8-debug-dynamic:transport_srtp.obj
 0002:0001c990       _echo_supp_cancel_echo     0044b990 f   pjmedia-i386-win32-vc8-debug-dynamic:echo_suppress.obj
 0002:0001cfb0       _echo_supp_create          0044bfb0 f   pjmedia-i386-win32-vc8-debug-dynamic:echo_suppress.obj
 0002:0001d210       _echo_supp_destroy         0044c210 f   pjmedia-i386-win32-vc8-debug-dynamic:echo_suppress.obj
 0002:0001d230       _echo_supp_reset           0044c230 f   pjmedia-i386-win32-vc8-debug-dynamic:echo_suppress.obj
 0002:0001d3e0       _echo_supp_soft_reset      0044c3e0 f   pjmedia-i386-win32-vc8-debug-dynamic:echo_suppress.obj
 0002:0001e2a0       _speex_aec_cancel_echo     0044d2a0 f   pjmedia-i386-win32-vc8-debug-dynamic:echo_speex.obj
 0002:0001e3a0       _speex_aec_capture         0044d3a0 f   pjmedia-i386-win32-vc8-debug-dynamic:echo_speex.obj
 0002:0001e470       _speex_aec_create          0044d470 f   pjmedia-i386-win32-vc8-debug-dynamic:echo_speex.obj
 0002:0001e6c0       _speex_aec_destroy         0044d6c0 f   pjmedia-i386-win32-vc8-debug-dynamic:echo_speex.obj
 0002:0001e790       _speex_aec_playback        0044d790 f   pjmedia-i386-win32-vc8-debug-dynamic:echo_speex.obj
 0002:0001e820       _speex_aec_reset           0044d820 f   pjmedia-i386-win32-vc8-debug-dynamic:echo_speex.obj
 0002:0001ee50       _pjmedia_delay_buf_create  0044de50 f   pjmedia-i386-win32-vc8-debug-dynamic:delaybuf.obj
 0002:0001f0d0       _pjmedia_delay_buf_destroy 0044e0d0 f   pjmedia-i386-win32-vc8-debug-dynamic:delaybuf.obj
 0002:0001f1b0       _pjmedia_delay_buf_get     0044e1b0 f   pjmedia-i386-win32-vc8-debug-dynamic:delaybuf.obj
 0002:0001f440       _pjmedia_delay_buf_put     0044e440 f   pjmedia-i386-win32-vc8-debug-dynamic:delaybuf.obj
 0002:0001f690       _pjmedia_delay_buf_reset   0044e690 f   pjmedia-i386-win32-vc8-debug-dynamic:delaybuf.obj
 0002:0001fb20       _pjmedia_calc_avg_signal   0044eb20 f   pjmedia-i386-win32-vc8-debug-dynamic:silencedet.obj
 0002:0001fbc0       _pjmedia_silence_det_apply 0044ebc0 f   pjmedia-i386-win32-vc8-debug-dynamic:silencedet.obj
 0002:0001ff90       _pjmedia_silence_det_create 0044ef90 f   pjmedia-i386-win32-vc8-debug-dynamic:silencedet.obj
 0002:00020090       _pjmedia_silence_det_detect 0044f090 f   pjmedia-i386-win32-vc8-debug-dynamic:silencedet.obj
 0002:000200f0       _pjmedia_silence_det_disable 0044f0f0 f   pjmedia-i386-win32-vc8-debug-dynamic:silencedet.obj
 0002:00020160       _pjmedia_silence_det_set_adaptive 0044f160 f   pjmedia-i386-win32-vc8-debug-dynamic:silencedet.obj
 0002:000201e0       _pjmedia_silence_det_set_fixed 0044f1e0 f   pjmedia-i386-win32-vc8-debug-dynamic:silencedet.obj
 0002:00020260       _pjmedia_silence_det_set_name 0044f260 f   pjmedia-i386-win32-vc8-debug-dynamic:silencedet.obj
 0002:00020300       _pjmedia_silence_det_set_params 0044f300 f   pjmedia-i386-win32-vc8-debug-dynamic:silencedet.obj
 0002:00021610       _pjmedia_wsola_create      00450610 f   pjmedia-i386-win32-vc8-debug-dynamic:wsola.obj
 0002:00021a60       _pjmedia_wsola_destroy     00450a60 f   pjmedia-i386-win32-vc8-debug-dynamic:wsola.obj
 0002:00021a80       _pjmedia_wsola_discard     00450a80 f   pjmedia-i386-win32-vc8-debug-dynamic:wsola.obj
 0002:00021fb0       _pjmedia_wsola_generate    00450fb0 f   pjmedia-i386-win32-vc8-debug-dynamic:wsola.obj
 0002:000220e0       _pjmedia_wsola_reset       004510e0 f   pjmedia-i386-win32-vc8-debug-dynamic:wsola.obj
 0002:000221c0       _pjmedia_wsola_save        004511c0 f   pjmedia-i386-win32-vc8-debug-dynamic:wsola.obj
 0002:00022720       _pjmedia_wsola_set_max_expand 00451720 f   pjmedia-i386-win32-vc8-debug-dynamic:wsola.obj
 0002:00023990       _pj_getopt                 00452990 f   pjlib-util-i386-win32-vc8-debug-dynamic:getopt.obj
 0002:000239d0       _pj_getopt_long            004529d0 f   pjlib-util-i386-win32-vc8-debug-dynamic:getopt.obj
 0002:00023a40       _pj_cis_add_alpha          00452a40 f   pjlib-util-i386-win32-vc8-debug-dynamic:scanner.obj
 0002:00023a80       _pj_cis_add_cis            00452a80 f   pjlib-util-i386-win32-vc8-debug-dynamic:scanner.obj
 0002:00023b10       _pj_cis_add_num            00452b10 f   pjlib-util-i386-win32-vc8-debug-dynamic:scanner.obj
 0002:00023b40       _pj_cis_add_range          00452b40 f   pjlib-util-i386-win32-vc8-debug-dynamic:scanner.obj
 0002:00023bd0       _pj_cis_add_str            00452bd0 f   pjlib-util-i386-win32-vc8-debug-dynamic:scanner.obj
 0002:00023c40       _pj_cis_buf_init           00452c40 f   pjlib-util-i386-win32-vc8-debug-dynamic:scanner.obj
 0002:00023c80       _pj_cis_del_range          00452c80 f   pjlib-util-i386-win32-vc8-debug-dynamic:scanner.obj
 0002:00023ce0       _pj_cis_del_str            00452ce0 f   pjlib-util-i386-win32-vc8-debug-dynamic:scanner.obj
 0002:00023d50       _pj_cis_dup                00452d50 f   pjlib-util-i386-win32-vc8-debug-dynamic:scanner.obj
 0002:00023e40       _pj_cis_init               00452e40 f   pjlib-util-i386-win32-vc8-debug-dynamic:scanner.obj
 0002:00023ee0       _pj_cis_invert             00452ee0 f   pjlib-util-i386-win32-vc8-debug-dynamic:scanner.obj
 0002:000240a0       _pj_scan_advance_n         004530a0 f   pjlib-util-i386-win32-vc8-debug-dynamic:scanner.obj
 0002:00024120       _pj_scan_fini              00453120 f   pjlib-util-i386-win32-vc8-debug-dynamic:scanner.obj
 0002:00024150       _pj_scan_get               00453150 f   pjlib-util-i386-win32-vc8-debug-dynamic:scanner.obj
 0002:00024250       _pj_scan_get_char          00453250 f   pjlib-util-i386-win32-vc8-debug-dynamic:scanner.obj
 0002:000242d0       _pj_scan_get_n             004532d0 f   pjlib-util-i386-win32-vc8-debug-dynamic:scanner.obj
 0002:00024370       _pj_scan_get_newline       00453370 f   pjlib-util-i386-win32-vc8-debug-dynamic:scanner.obj
 0002:00024430       _pj_scan_get_quote         00453430 f   pjlib-util-i386-win32-vc8-debug-dynamic:scanner.obj
 0002:00024480       _pj_scan_get_quotes        00453480 f   pjlib-util-i386-win32-vc8-debug-dynamic:scanner.obj
 0002:000246a0       _pj_scan_get_unescape      004536a0 f   pjlib-util-i386-win32-vc8-debug-dynamic:scanner.obj
 0002:00024950       _pj_scan_get_until         00453950 f   pjlib-util-i386-win32-vc8-debug-dynamic:scanner.obj
 0002:00024a20       _pj_scan_get_until_ch      00453a20 f   pjlib-util-i386-win32-vc8-debug-dynamic:scanner.obj
 0002:00024ae0       _pj_scan_get_until_chr     00453ae0 f   pjlib-util-i386-win32-vc8-debug-dynamic:scanner.obj
 0002:00024bd0       _pj_scan_init              00453bd0 f   pjlib-util-i386-win32-vc8-debug-dynamic:scanner.obj
 0002:00024c70       _pj_scan_peek              00453c70 f   pjlib-util-i386-win32-vc8-debug-dynamic:scanner.obj
 0002:00024d10       _pj_scan_peek_n            00453d10 f   pjlib-util-i386-win32-vc8-debug-dynamic:scanner.obj
 0002:00024d80       _pj_scan_peek_until        00453d80 f   pjlib-util-i386-win32-vc8-debug-dynamic:scanner.obj
 0002:00024e20       _pj_scan_restore_state     00453e20 f   pjlib-util-i386-win32-vc8-debug-dynamic:scanner.obj
 0002:00024e60       _pj_scan_save_state        00453e60 f   pjlib-util-i386-win32-vc8-debug-dynamic:scanner.obj
 0002:00024ea0       _pj_scan_skip_line         00453ea0 f   pjlib-util-i386-win32-vc8-debug-dynamic:scanner.obj
 0002:00024f20       _pj_scan_skip_whitespace   00453f20 f   pjlib-util-i386-win32-vc8-debug-dynamic:scanner.obj
 0002:00025180       _pj_scan_strcmp            00454180 f   pjlib-util-i386-win32-vc8-debug-dynamic:scanner.obj
 0002:000251e0       _pj_scan_stricmp           004541e0 f   pjlib-util-i386-win32-vc8-debug-dynamic:scanner.obj
 0002:00025240       _pj_scan_stricmp_alnum     00454240 f   pjlib-util-i386-win32-vc8-debug-dynamic:scanner.obj
 0002:00025530       _pj_base64_decode          00454530 f   pjlib-util-i386-win32-vc8-debug-dynamic:base64.obj
 0002:000258a0       _pj_base64_encode          004548a0 f   pjlib-util-i386-win32-vc8-debug-dynamic:base64.obj
 0002:00025c30       _pj_atexit                 00454c30 f   pjlib-i386-win32-vc8-debug-dynamic:os_core_win32.obj
 0002:00025c80       _pj_atomic_add             00454c80 f   pjlib-i386-win32-vc8-debug-dynamic:os_core_win32.obj
 0002:00025ce0       _pj_atomic_add_and_get     00454ce0 f   pjlib-i386-win32-vc8-debug-dynamic:os_core_win32.obj
 0002:00025d10       _pj_atomic_create          00454d10 f   pjlib-i386-win32-vc8-debug-dynamic:os_core_win32.obj
 0002:00025d60       _pj_atomic_dec             00454d60 f   pjlib-i386-win32-vc8-debug-dynamic:os_core_win32.obj
 0002:00025dc0       _pj_atomic_dec_and_get     00454dc0 f   pjlib-i386-win32-vc8-debug-dynamic:os_core_win32.obj
 0002:00025e00       _pj_atomic_destroy         00454e00 f   pjlib-i386-win32-vc8-debug-dynamic:os_core_win32.obj
 0002:00025e60       _pj_atomic_get             00454e60 f   pjlib-i386-win32-vc8-debug-dynamic:os_core_win32.obj
 0002:00025ee0       _pj_atomic_inc             00454ee0 f   pjlib-i386-win32-vc8-debug-dynamic:os_core_win32.obj
 0002:00025f40       _pj_atomic_inc_and_get     00454f40 f   pjlib-i386-win32-vc8-debug-dynamic:os_core_win32.obj
 0002:00025f90       _pj_atomic_set             00454f90 f   pjlib-i386-win32-vc8-debug-dynamic:os_core_win32.obj
 0002:000260c0       _pj_enter_critical_section 004550c0 f   pjlib-i386-win32-vc8-debug-dynamic:os_core_win32.obj
 0002:000260f0       _pj_event_create           004550f0 f   pjlib-i386-win32-vc8-debug-dynamic:os_core_win32.obj
 0002:000262e0       _pj_event_destroy          004552e0 f   pjlib-i386-win32-vc8-debug-dynamic:os_core_win32.obj
 0002:000263d0       _pj_event_pulse            004553d0 f   pjlib-i386-win32-vc8-debug-dynamic:os_core_win32.obj
 0002:000264c0       _pj_event_reset            004554c0 f   pjlib-i386-win32-vc8-debug-dynamic:os_core_win32.obj
 0002:000265b0       _pj_event_set              004555b0 f   pjlib-i386-win32-vc8-debug-dynamic:os_core_win32.obj
 0002:000266a0       _pj_event_trywait          004556a0 f   pjlib-i386-win32-vc8-debug-dynamic:os_core_win32.obj
 0002:00026710       _pj_event_wait             00455710 f   pjlib-i386-win32-vc8-debug-dynamic:os_core_win32.obj
 0002:000268b0       _pj_getpid                 004558b0 f   pjlib-i386-win32-vc8-debug-dynamic:os_core_win32.obj
 0002:000268f0       _pj_init                   004558f0 f   pjlib-i386-win32-vc8-debug-dynamic:os_core_win32.obj
 0002:00026b60       _pj_leave_critical_section 00455b60 f   pjlib-i386-win32-vc8-debug-dynamic:os_core_win32.obj
 0002:00026b90       _pj_mutex_create           00455b90 f   pjlib-i386-win32-vc8-debug-dynamic:os_core_win32.obj
 0002:00026c50       _pj_mutex_create_recursive 00455c50 f   pjlib-i386-win32-vc8-debug-dynamic:os_core_win32.obj
 0002:00026c80       _pj_mutex_create_simple    00455c80 f   pjlib-i386-win32-vc8-debug-dynamic:os_core_win32.obj
 0002:00026cb0       _pj_mutex_destroy          00455cb0 f   pjlib-i386-win32-vc8-debug-dynamic:os_core_win32.obj
 0002:00026d40       _pj_mutex_is_locked        00455d40 f   pjlib-i386-win32-vc8-debug-dynamic:os_core_win32.obj
 0002:00026d80       _pj_mutex_lock             00455d80 f   pjlib-i386-win32-vc8-debug-dynamic:os_core_win32.obj
 0002:00026e50       _pj_mutex_trylock          00455e50 f   pjlib-i386-win32-vc8-debug-dynamic:os_core_win32.obj
 0002:00026f40       _pj_mutex_unlock           00455f40 f   pjlib-i386-win32-vc8-debug-dynamic:os_core_win32.obj
 0002:00027040       _pj_run_app                00456040 f   pjlib-i386-win32-vc8-debug-dynamic:os_core_win32.obj
 0002:00027070       _pj_rwmutex_create         00456070 f   pjlib-i386-win32-vc8-debug-dynamic:os_core_win32.obj
 0002:00027180       _pj_rwmutex_destroy        00456180 f   pjlib-i386-win32-vc8-debug-dynamic:os_core_win32.obj
 0002:00027200       _pj_rwmutex_lock_read      00456200 f   pjlib-i386-win32-vc8-debug-dynamic:os_core_win32.obj
 0002:00027330       _pj_rwmutex_lock_write     00456330 f   pjlib-i386-win32-vc8-debug-dynamic:os_core_win32.obj
 0002:000273a0       _pj_rwmutex_unlock_read    004563a0 f   pjlib-i386-win32-vc8-debug-dynamic:os_core_win32.obj
 0002:000274d0       _pj_rwmutex_unlock_write   004564d0 f   pjlib-i386-win32-vc8-debug-dynamic:os_core_win32.obj
 0002:00027570       _pj_sem_create             00456570 f   pjlib-i386-win32-vc8-debug-dynamic:os_core_win32.obj
 0002:00027710       _pj_sem_destroy            00456710 f   pjlib-i386-win32-vc8-debug-dynamic:os_core_win32.obj
 0002:00027800       _pj_sem_post               00456800 f   pjlib-i386-win32-vc8-debug-dynamic:os_core_win32.obj
 0002:000278f0       _pj_sem_trywait            004568f0 f   pjlib-i386-win32-vc8-debug-dynamic:os_core_win32.obj
 0002:00027970       _pj_sem_wait               00456970 f   pjlib-i386-win32-vc8-debug-dynamic:os_core_win32.obj
 0002:00027b20       _pj_shutdown               00456b20 f   pjlib-i386-win32-vc8-debug-dynamic:os_core_win32.obj
 0002:00027cb0       _pj_term_get_color         00456cb0 f   pjlib-i386-win32-vc8-debug-dynamic:os_core_win32.obj
 0002:00027d20       _pj_term_set_color         00456d20 f   pjlib-i386-win32-vc8-debug-dynamic:os_core_win32.obj
 0002:00027df0       _pj_thread_check_stack     00456df0 f   pjlib-i386-win32-vc8-debug-dynamic:os_core_win32.obj
 0002:00027ef0       _pj_thread_create          00456ef0 f   pjlib-i386-win32-vc8-debug-dynamic:os_core_win32.obj
 0002:00028130       _pj_thread_destroy         00457130 f   pjlib-i386-win32-vc8-debug-dynamic:os_core_win32.obj
 0002:00028220       _pj_thread_get_name        00457220 f   pjlib-i386-win32-vc8-debug-dynamic:os_core_win32.obj
 0002:000282a0       _pj_thread_get_os_handle   004572a0 f   pjlib-i386-win32-vc8-debug-dynamic:os_core_win32.obj
 0002:00028300       _pj_thread_get_prio        00457300 f   pjlib-i386-win32-vc8-debug-dynamic:os_core_win32.obj
 0002:00028330       _pj_thread_get_prio_max    00457330 f   pjlib-i386-win32-vc8-debug-dynamic:os_core_win32.obj
 0002:00028350       _pj_thread_get_prio_min    00457350 f   pjlib-i386-win32-vc8-debug-dynamic:os_core_win32.obj
 0002:00028370       _pj_thread_get_stack_info  00457370 f   pjlib-i386-win32-vc8-debug-dynamic:os_core_win32.obj
 0002:000283d0       _pj_thread_get_stack_max_usage 004573d0 f   pjlib-i386-win32-vc8-debug-dynamic:os_core_win32.obj
 0002:000283f0       _pj_thread_init            004573f0 f   pjlib-i386-win32-vc8-debug-dynamic:os_core_win32.obj
 0002:00028450       _pj_thread_is_registered   00457450 f   pjlib-i386-win32-vc8-debug-dynamic:os_core_win32.obj
 0002:000284a0       _pj_thread_join            004574a0 f   pjlib-i386-win32-vc8-debug-dynamic:os_core_win32.obj
 0002:000285d0       _pj_thread_local_alloc     004575d0 f   pjlib-i386-win32-vc8-debug-dynamic:os_core_win32.obj
 0002:00028690       _pj_thread_local_free      00457690 f   pjlib-i386-win32-vc8-debug-dynamic:os_core_win32.obj
 0002:000286d0       _pj_thread_local_get       004576d0 f   pjlib-i386-win32-vc8-debug-dynamic:os_core_win32.obj
 0002:000286f0       _pj_thread_local_set       004576f0 f   pjlib-i386-win32-vc8-debug-dynamic:os_core_win32.obj
 0002:00028780       _pj_thread_register        00457780 f   pjlib-i386-win32-vc8-debug-dynamic:os_core_win32.obj
 0002:000288f0       _pj_thread_resume          004578f0 f   pjlib-i386-win32-vc8-debug-dynamic:os_core_win32.obj
 0002:000289e0       _pj_thread_set_prio        004579e0 f   pjlib-i386-win32-vc8-debug-dynamic:os_core_win32.obj
 0002:00028b00       _pj_thread_sleep           00457b00 f   pjlib-i386-win32-vc8-debug-dynamic:os_core_win32.obj
 0002:00028b40       _pj_thread_this            00457b40 f   pjlib-i386-win32-vc8-debug-dynamic:os_core_win32.obj
 0002:00028d20       _pj_errno_clear_handlers   00457d20 f   pjlib-i386-win32-vc8-debug-dynamic:errno.obj
 0002:00028d90       _pj_perror                 00457d90 f   pjlib-i386-win32-vc8-debug-dynamic:errno.obj
 0002:00028de0       _pj_perror_1               00457de0 f   pjlib-i386-win32-vc8-debug-dynamic:errno.obj
 0002:00028e30       _pj_perror_2               00457e30 f   pjlib-i386-win32-vc8-debug-dynamic:errno.obj
 0002:00028e80       _pj_perror_3               00457e80 f   pjlib-i386-win32-vc8-debug-dynamic:errno.obj
 0002:00028ed0       _pj_perror_4               00457ed0 f   pjlib-i386-win32-vc8-debug-dynamic:errno.obj
 0002:00028f20       _pj_perror_5               00457f20 f   pjlib-i386-win32-vc8-debug-dynamic:errno.obj
 0002:00029040       _pj_register_strerror      00458040 f   pjlib-i386-win32-vc8-debug-dynamic:errno.obj
 0002:00029280       _pj_strerror               00458280 f   pjlib-i386-win32-vc8-debug-dynamic:errno.obj
 0002:00029570       _pj_NO_MEMORY_EXCEPTION    00458570 f   pjlib-i386-win32-vc8-debug-dynamic:pool.obj
 0002:000295f0       _pj_pool_alloc             004585f0 f   pjlib-i386-win32-vc8-debug-dynamic:pool.obj
 0002:00029650       _pj_pool_alloc_from_block  00458650 f   pjlib-i386-win32-vc8-debug-dynamic:pool.obj
 0002:000296c0       _pj_pool_allocate_find     004586c0 f   pjlib-i386-win32-vc8-debug-dynamic:pool.obj
 0002:00029840       _pj_pool_calloc            00458840 f   pjlib-i386-win32-vc8-debug-dynamic:pool.obj
 0002:000298a0       _pj_pool_create            004588a0 f   pjlib-i386-win32-vc8-debug-dynamic:pool.obj
 0002:00029a00       _pj_pool_create_int        00458a00 f   pjlib-i386-win32-vc8-debug-dynamic:pool.obj
 0002:00029b80       _pj_pool_destroy_int       00458b80 f   pjlib-i386-win32-vc8-debug-dynamic:pool.obj
 0002:00029c00       _pj_pool_get_capacity      00458c00 f   pjlib-i386-win32-vc8-debug-dynamic:pool.obj
 0002:00029c20       _pj_pool_get_used_size     00458c20 f   pjlib-i386-win32-vc8-debug-dynamic:pool.obj
 0002:00029c90       _pj_pool_getobjname        00458c90 f   pjlib-i386-win32-vc8-debug-dynamic:pool.obj
 0002:00029cb0       _pj_pool_init_int          00458cb0 f   pjlib-i386-win32-vc8-debug-dynamic:pool.obj
 0002:00029d80       _pj_pool_release           00458d80 f   pjlib-i386-win32-vc8-debug-dynamic:pool.obj
 0002:00029dd0       _pj_pool_reset             00458dd0 f   pjlib-i386-win32-vc8-debug-dynamic:pool.obj
 0002:00029e00       _pj_pool_safe_release      00458e00 f   pjlib-i386-win32-vc8-debug-dynamic:pool.obj
 0002:0002a660       _pj_caching_pool_destroy   00459660 f   pjlib-i386-win32-vc8-debug-dynamic:pool_caching.obj
 0002:0002a7d0       _pj_caching_pool_init      004597d0 f   pjlib-i386-win32-vc8-debug-dynamic:pool_caching.obj
 0002:0002ab60       _pj_log                    00459b60 f   pjlib-i386-win32-vc8-debug-dynamic:log.obj
 0002:0002b410       _pj_log_1                  0045a410 f   pjlib-i386-win32-vc8-debug-dynamic:log.obj
 0002:0002b450       _pj_log_2                  0045a450 f   pjlib-i386-win32-vc8-debug-dynamic:log.obj
 0002:0002b490       _pj_log_3                  0045a490 f   pjlib-i386-win32-vc8-debug-dynamic:log.obj
 0002:0002b4d0       _pj_log_4                  0045a4d0 f   pjlib-i386-win32-vc8-debug-dynamic:log.obj
 0002:0002b510       _pj_log_5                  0045a510 f   pjlib-i386-win32-vc8-debug-dynamic:log.obj
 0002:0002b550       _pj_log_add_indent         0045a550 f   pjlib-i386-win32-vc8-debug-dynamic:log.obj
 0002:0002b580       _pj_log_get_color          0045a580 f   pjlib-i386-win32-vc8-debug-dynamic:log.obj
 0002:0002b620       _pj_log_get_decor          0045a620 f   pjlib-i386-win32-vc8-debug-dynamic:log.obj
 0002:0002b640       _pj_log_get_level          0045a640 f   pjlib-i386-win32-vc8-debug-dynamic:log.obj
 0002:0002b660       _pj_log_get_log_func       0045a660 f   pjlib-i386-win32-vc8-debug-dynamic:log.obj
 0002:0002b680       _pj_log_init               0045a680 f   pjlib-i386-win32-vc8-debug-dynamic:log.obj
 0002:0002b720       _pj_log_pop_indent         0045a720 f   pjlib-i386-win32-vc8-debug-dynamic:log.obj
 0002:0002b740       _pj_log_push_indent        0045a740 f   pjlib-i386-win32-vc8-debug-dynamic:log.obj
 0002:0002b760       _pj_log_set_color          0045a760 f   pjlib-i386-win32-vc8-debug-dynamic:log.obj
 0002:0002b890       _pj_log_set_decor          0045a890 f   pjlib-i386-win32-vc8-debug-dynamic:log.obj
 0002:0002b8b0       _pj_log_set_level          0045a8b0 f   pjlib-i386-win32-vc8-debug-dynamic:log.obj
 0002:0002b8d0       _pj_log_set_log_func       0045a8d0 f   pjlib-i386-win32-vc8-debug-dynamic:log.obj
 0002:0002bb30       _pj_pool_factory_get_default_policy 0045ab30 f   pjlib-i386-win32-vc8-debug-dynamic:pool_policy_malloc.obj
 0002:0002bb50       _pj_create_random_string   0045ab50 f   pjlib-i386-win32-vc8-debug-dynamic:string.obj
 0002:0002be20       _pj_str                    0045ae20 f   pjlib-i386-win32-vc8-debug-dynamic:string.obj
 0002:0002be70       _pj_strassign              0045ae70 f   pjlib-i386-win32-vc8-debug-dynamic:string.obj
 0002:0002beb0       _pj_strcat                 0045aeb0 f   pjlib-i386-win32-vc8-debug-dynamic:string.obj
 0002:0002bf10       _pj_strcat2                0045af10 f   pjlib-i386-win32-vc8-debug-dynamic:string.obj
 0002:0002bf90       _pj_strcmp                 0045af90 f   pjlib-i386-win32-vc8-debug-dynamic:string.obj
 0002:0002c0b0       _pj_strcmp2                0045b0b0 f   pjlib-i386-win32-vc8-debug-dynamic:string.obj
 0002:0002c110       _pj_strcpy                 0045b110 f   pjlib-i386-win32-vc8-debug-dynamic:string.obj
 0002:0002c170       _pj_strcpy2                0045b170 f   pjlib-i386-win32-vc8-debug-dynamic:string.obj
 0002:0002c1f0       _pj_strcspn                0045b1f0 f   pjlib-i386-win32-vc8-debug-dynamic:string.obj
 0002:0002c280       _pj_strcspn2               0045b280 f   pjlib-i386-win32-vc8-debug-dynamic:string.obj
 0002:0002c310       _pj_strdup                 0045b310 f   pjlib-i386-win32-vc8-debug-dynamic:string.obj
 0002:0002c3a0       _pj_strdup2                0045b3a0 f   pjlib-i386-win32-vc8-debug-dynamic:string.obj
 0002:0002c440       _pj_strdup2_with_null      0045b440 f   pjlib-i386-win32-vc8-debug-dynamic:string.obj
 0002:0002c4f0       _pj_strdup3                0045b4f0 f   pjlib-i386-win32-vc8-debug-dynamic:string.obj
 0002:0002c530       _pj_strdup_with_null       0045b530 f   pjlib-i386-win32-vc8-debug-dynamic:string.obj
 0002:0002c5c0       _pj_stricmp                0045b5c0 f   pjlib-i386-win32-vc8-debug-dynamic:string.obj
 0002:0002c6e0       _pj_stricmp2               0045b6e0 f   pjlib-i386-win32-vc8-debug-dynamic:string.obj
 0002:0002c740       _pj_stristr                0045b740 f   pjlib-i386-win32-vc8-debug-dynamic:string.obj
 0002:0002c7e0       _pj_strltrim               0045b7e0 f   pjlib-i386-win32-vc8-debug-dynamic:string.obj
 0002:0002c870       _pj_strncmp                0045b870 f   pjlib-i386-win32-vc8-debug-dynamic:string.obj
 0002:0002c8f0       _pj_strncmp2               0045b8f0 f   pjlib-i386-win32-vc8-debug-dynamic:string.obj
 0002:0002c950       _pj_strncpy                0045b950 f   pjlib-i386-win32-vc8-debug-dynamic:string.obj
 0002:0002c9e0       _pj_strncpy_with_null      0045b9e0 f   pjlib-i386-win32-vc8-debug-dynamic:string.obj
 0002:0002ca90       _pj_strnicmp               0045ba90 f   pjlib-i386-win32-vc8-debug-dynamic:string.obj
 0002:0002cb10       _pj_strnicmp2              0045bb10 f   pjlib-i386-win32-vc8-debug-dynamic:string.obj
 0002:0002cb70       _pj_strrtrim               0045bb70 f   pjlib-i386-win32-vc8-debug-dynamic:string.obj
 0002:0002cc00       _pj_strspn                 0045bc00 f   pjlib-i386-win32-vc8-debug-dynamic:string.obj
 0002:0002ccb0       _pj_strspn2                0045bcb0 f   pjlib-i386-win32-vc8-debug-dynamic:string.obj
 0002:0002cd60       _pj_strstr                 0045bd60 f   pjlib-i386-win32-vc8-debug-dynamic:string.obj
 0002:0002ce00       _pj_strtof                 0045be00 f   pjlib-i386-win32-vc8-debug-dynamic:string.obj
 0002:0002cfd0       _pj_strtok                 0045bfd0 f   pjlib-i386-win32-vc8-debug-dynamic:string.obj
 0002:0002d0b0       _pj_strtok2                0045c0b0 f   pjlib-i386-win32-vc8-debug-dynamic:string.obj
 0002:0002d190       _pj_strtol                 0045c190 f   pjlib-i386-win32-vc8-debug-dynamic:string.obj
 0002:0002d290       _pj_strtol2                0045c290 f   pjlib-i386-win32-vc8-debug-dynamic:string.obj
 0002:0002d4a0       _pj_strtoul                0045c4a0 f   pjlib-i386-win32-vc8-debug-dynamic:string.obj
 0002:0002d550       _pj_strtoul2               0045c550 f   pjlib-i386-win32-vc8-debug-dynamic:string.obj
 0002:0002d6e0       _pj_strtoul3               0045c6e0 f   pjlib-i386-win32-vc8-debug-dynamic:string.obj
 0002:0002d9e0       _pj_strtrim                0045c9e0 f   pjlib-i386-win32-vc8-debug-dynamic:string.obj
 0002:0002da20       _pj_utoa                   0045ca20 f   pjlib-i386-win32-vc8-debug-dynamic:string.obj
 0002:0002da50       _pj_utoa_pad               0045ca50 f   pjlib-i386-win32-vc8-debug-dynamic:string.obj
 0002:0002dbb0       _pj_get_netos_error        0045cbb0 f   pjlib-i386-win32-vc8-debug-dynamic:os_error_win32.obj
 0002:0002dc00       _pj_get_os_error           0045cc00 f   pjlib-i386-win32-vc8-debug-dynamic:os_error_win32.obj
 0002:0002dc80       _pj_set_netos_error        0045cc80 f   pjlib-i386-win32-vc8-debug-dynamic:os_error_win32.obj
 0002:0002dcd0       _pj_set_os_error           0045ccd0 f   pjlib-i386-win32-vc8-debug-dynamic:os_error_win32.obj
 0002:0002dd20       _platform_strerror         0045cd20 f   pjlib-i386-win32-vc8-debug-dynamic:os_error_win32.obj
 0002:0002df20       _pj_addr_str_print         0045cf20 f   pjlib-i386-win32-vc8-debug-dynamic:sock_common.obj
 0002:0002e070       _pj_getdefaultipinterface  0045d070 f   pjlib-i386-win32-vc8-debug-dynamic:sock_common.obj
 0002:0002e0f0       _pj_gethostaddr            0045d0f0 f   pjlib-i386-win32-vc8-debug-dynamic:sock_common.obj
 0002:0002e140       _pj_gethostip              0045d140 f   pjlib-i386-win32-vc8-debug-dynamic:sock_common.obj
 0002:0002ee30       _pj_getipinterface         0045de30 f   pjlib-i386-win32-vc8-debug-dynamic:sock_common.obj
 0002:0002f080       _pj_inet_addr              0045e080 f   pjlib-i386-win32-vc8-debug-dynamic:sock_common.obj
 0002:0002f0b0       _pj_inet_addr2             0045e0b0 f   pjlib-i386-win32-vc8-debug-dynamic:sock_common.obj
 0002:0002f0f0       _pj_inet_ntop2             0045e0f0 f   pjlib-i386-win32-vc8-debug-dynamic:sock_common.obj
 0002:0002f1e0       _pj_sock_bind_random       0045e1e0 f   pjlib-i386-win32-vc8-debug-dynamic:sock_common.obj
 0002:0002f360       _pj_sock_setsockopt_sobuf  0045e360 f   pjlib-i386-win32-vc8-debug-dynamic:sock_common.obj
 0002:0002f590       _pj_sockaddr_cmp           0045e590 f   pjlib-i386-win32-vc8-debug-dynamic:sock_common.obj
 0002:0002f6a0       _pj_sockaddr_copy_addr     0045e6a0 f   pjlib-i386-win32-vc8-debug-dynamic:sock_common.obj
 0002:0002f700       _pj_sockaddr_cp            0045e700 f   pjlib-i386-win32-vc8-debug-dynamic:sock_common.obj
 0002:0002f740       _pj_sockaddr_get_addr      0045e740 f   pjlib-i386-win32-vc8-debug-dynamic:sock_common.obj
 0002:0002f810       _pj_sockaddr_get_addr_len  0045e810 f   pjlib-i386-win32-vc8-debug-dynamic:sock_common.obj
 0002:0002f8e0       _pj_sockaddr_get_len       0045e8e0 f   pjlib-i386-win32-vc8-debug-dynamic:sock_common.obj
 0002:0002f9b0       _pj_sockaddr_get_port      0045e9b0 f   pjlib-i386-win32-vc8-debug-dynamic:sock_common.obj
 0002:0002faa0       _pj_sockaddr_has_addr      0045eaa0 f   pjlib-i386-win32-vc8-debug-dynamic:sock_common.obj
 0002:0002fb90       _pj_sockaddr_in_get_addr   0045eb90 f   pjlib-i386-win32-vc8-debug-dynamic:sock_common.obj
 0002:0002fbc0       _pj_sockaddr_in_get_port   0045ebc0 f   pjlib-i386-win32-vc8-debug-dynamic:sock_common.obj
 0002:0002fbf0       _pj_sockaddr_in_init       0045ebf0 f   pjlib-i386-win32-vc8-debug-dynamic:sock_common.obj
 0002:0002fca0       _pj_sockaddr_in_set_addr   0045eca0 f   pjlib-i386-win32-vc8-debug-dynamic:sock_common.obj
 0002:0002fcd0       _pj_sockaddr_in_set_port   0045ecd0 f   pjlib-i386-win32-vc8-debug-dynamic:sock_common.obj
 0002:0002fd00       _pj_sockaddr_in_set_str_addr 0045ed00 f   pjlib-i386-win32-vc8-debug-dynamic:sock_common.obj
 0002:0002fea0       _pj_sockaddr_init          0045eea0 f   pjlib-i386-win32-vc8-debug-dynamic:sock_common.obj
 0002:0002ffa0       _pj_sockaddr_parse         0045efa0 f   pjlib-i386-win32-vc8-debug-dynamic:sock_common.obj
 0002:00030140       _pj_sockaddr_parse2        0045f140 f   pjlib-i386-win32-vc8-debug-dynamic:sock_common.obj
 0002:000305e0       _pj_sockaddr_print         0045f5e0 f   pjlib-i386-win32-vc8-debug-dynamic:sock_common.obj
 0002:00030740       _pj_sockaddr_set_port      0045f740 f   pjlib-i386-win32-vc8-debug-dynamic:sock_common.obj
 0002:00030820       _pj_sockaddr_set_str_addr  0045f820 f   pjlib-i386-win32-vc8-debug-dynamic:sock_common.obj
 0002:000309a0       _pj_sockaddr_synthesize    0045f9a0 f   pjlib-i386-win32-vc8-debug-dynamic:sock_common.obj
 0002:00030c70       _pj_gettimeofday           0045fc70 f   pjlib-i386-win32-vc8-debug-dynamic:os_time_win32.obj
 0002:00030d50       _pj_time_decode            0045fd50 f   pjlib-i386-win32-vc8-debug-dynamic:os_time_win32.obj
 0002:00030e60       _pj_time_encode            0045fe60 f   pjlib-i386-win32-vc8-debug-dynamic:os_time_win32.obj
 0002:00030ff0       _pj_list_erase             0045fff0 f   pjlib-i386-win32-vc8-debug-dynamic:list.obj
 0002:00031030       _pj_list_find_node         00460030 f   pjlib-i386-win32-vc8-debug-dynamic:list.obj
 0002:000310d0       _pj_list_insert_after      004600d0 f   pjlib-i386-win32-vc8-debug-dynamic:list.obj
 0002:00031120       _pj_list_insert_before     00460120 f   pjlib-i386-win32-vc8-debug-dynamic:list.obj
 0002:00031150       _pj_list_insert_nodes_after 00460150 f   pjlib-i386-win32-vc8-debug-dynamic:list.obj
 0002:000311b0       _pj_list_insert_nodes_before 004601b0 f   pjlib-i386-win32-vc8-debug-dynamic:list.obj
 0002:000311e0       _pj_list_merge_first       004601e0 f   pjlib-i386-win32-vc8-debug-dynamic:list.obj
 0002:00031250       _pj_list_merge_last        00460250 f   pjlib-i386-win32-vc8-debug-dynamic:list.obj
 0002:000312c0       _pj_list_search            004602c0 f   pjlib-i386-win32-vc8-debug-dynamic:list.obj
 0002:00031330       _pj_list_size              00460330 f   pjlib-i386-win32-vc8-debug-dynamic:list.obj
 0002:00031690       _ioqueue_dispatch_exception_event 00460690 f   pjlib-i386-win32-vc8-debug-dynamic:ioqueue_select.obj
 0002:00031870       _ioqueue_dispatch_read_event 00460870 f   pjlib-i386-win32-vc8-debug-dynamic:ioqueue_select.obj
 0002:00031c70       _ioqueue_dispatch_write_event 00460c70 f   pjlib-i386-win32-vc8-debug-dynamic:ioqueue_select.obj
 0002:00032530       _pj_ioqueue_accept         00461530 f   pjlib-i386-win32-vc8-debug-dynamic:ioqueue_select.obj
 0002:00032760       _pj_ioqueue_connect        00461760 f   pjlib-i386-win32-vc8-debug-dynamic:ioqueue_select.obj
 0002:000328e0       _pj_ioqueue_create         004618e0 f   pjlib-i386-win32-vc8-debug-dynamic:ioqueue_select.obj
 0002:00032c00       _pj_ioqueue_destroy        00461c00 f   pjlib-i386-win32-vc8-debug-dynamic:ioqueue_select.obj
 0002:00032d50       _pj_ioqueue_get_user_data  00461d50 f   pjlib-i386-win32-vc8-debug-dynamic:ioqueue_select.obj
 0002:00032db0       _pj_ioqueue_is_pending     00461db0 f   pjlib-i386-win32-vc8-debug-dynamic:ioqueue_select.obj
 0002:00032df0       _pj_ioqueue_lock_key       00461df0 f   pjlib-i386-win32-vc8-debug-dynamic:ioqueue_select.obj
 0002:00032e40       _pj_ioqueue_name           00461e40 f   pjlib-i386-win32-vc8-debug-dynamic:ioqueue_select.obj
 0002:00032e60       _pj_ioqueue_op_key_init    00461e60 f   pjlib-i386-win32-vc8-debug-dynamic:ioqueue_select.obj
 0002:00032e90       _pj_ioqueue_poll           00461e90 f   pjlib-i386-win32-vc8-debug-dynamic:ioqueue_select.obj
 0002:000335c0       _pj_ioqueue_post_completion 004625c0 f   pjlib-i386-win32-vc8-debug-dynamic:ioqueue_select.obj
 0002:00033780       _pj_ioqueue_recv           00462780 f   pjlib-i386-win32-vc8-debug-dynamic:ioqueue_select.obj
 0002:00033980       _pj_ioqueue_recvfrom       00462980 f   pjlib-i386-win32-vc8-debug-dynamic:ioqueue_select.obj
 0002:00033ba0       _pj_ioqueue_register_sock  00462ba0 f   pjlib-i386-win32-vc8-debug-dynamic:ioqueue_select.obj
 0002:00033be0       _pj_ioqueue_register_sock2 00462be0 f   pjlib-i386-win32-vc8-debug-dynamic:ioqueue_select.obj
 0002:00033e90       _pj_ioqueue_send           00462e90 f   pjlib-i386-win32-vc8-debug-dynamic:ioqueue_select.obj
 0002:000340f0       _pj_ioqueue_sendto         004630f0 f   pjlib-i386-win32-vc8-debug-dynamic:ioqueue_select.obj
 0002:000343d0       _pj_ioqueue_set_concurrency 004633d0 f   pjlib-i386-win32-vc8-debug-dynamic:ioqueue_select.obj
 0002:00034490       _pj_ioqueue_set_default_concurrency 00463490 f   pjlib-i386-win32-vc8-debug-dynamic:ioqueue_select.obj
 0002:00034500       _pj_ioqueue_set_lock       00463500 f   pjlib-i386-win32-vc8-debug-dynamic:ioqueue_select.obj
 0002:000345b0       _pj_ioqueue_set_user_data  004635b0 f   pjlib-i386-win32-vc8-debug-dynamic:ioqueue_select.obj
 0002:00034630       _pj_ioqueue_trylock_key    00463630 f   pjlib-i386-win32-vc8-debug-dynamic:ioqueue_select.obj
 0002:00034680       _pj_ioqueue_unlock_key     00463680 f   pjlib-i386-win32-vc8-debug-dynamic:ioqueue_select.obj
 0002:000346d0       _pj_ioqueue_unregister     004636d0 f   pjlib-i386-win32-vc8-debug-dynamic:ioqueue_select.obj
 0002:00034b70       _pj_gethostname            00463b70 f   pjlib-i386-win32-vc8-debug-dynamic:sock_bsd.obj
 0002:00034c20       _pj_htonl                  00463c20 f   pjlib-i386-win32-vc8-debug-dynamic:sock_bsd.obj
 0002:00034c40       _pj_htons                  00463c40 f   pjlib-i386-win32-vc8-debug-dynamic:sock_bsd.obj
 0002:00034c70       _pj_inet_aton              00463c70 f   pjlib-i386-win32-vc8-debug-dynamic:sock_bsd.obj
 0002:00034da0       _pj_inet_ntoa              00463da0 f   pjlib-i386-win32-vc8-debug-dynamic:sock_bsd.obj
 0002:00034de0       _pj_inet_ntop              00463de0 f   pjlib-i386-win32-vc8-debug-dynamic:sock_bsd.obj
 0002:00035030       _pj_inet_pton              00464030 f   pjlib-i386-win32-vc8-debug-dynamic:sock_bsd.obj
 0002:000352f0       _pj_ntohl                  004642f0 f   pjlib-i386-win32-vc8-debug-dynamic:sock_bsd.obj
 0002:00035310       _pj_ntohs                  00464310 f   pjlib-i386-win32-vc8-debug-dynamic:sock_bsd.obj
 0002:00035340       _pj_sock_accept            00464340 f   pjlib-i386-win32-vc8-debug-dynamic:sock_bsd.obj
 0002:00035430       _pj_sock_bind              00464430 f   pjlib-i386-win32-vc8-debug-dynamic:sock_bsd.obj
 0002:00035520       _pj_sock_bind_in           00464520 f   pjlib-i386-win32-vc8-debug-dynamic:sock_bsd.obj
 0002:000355d0       _pj_sock_close             004645d0 f   pjlib-i386-win32-vc8-debug-dynamic:sock_bsd.obj
 0002:00035670       _pj_sock_connect           00464670 f   pjlib-i386-win32-vc8-debug-dynamic:sock_bsd.obj
 0002:00035710       _pj_sock_getpeername       00464710 f   pjlib-i386-win32-vc8-debug-dynamic:sock_bsd.obj
 0002:000357b0       _pj_sock_getsockname       004647b0 f   pjlib-i386-win32-vc8-debug-dynamic:sock_bsd.obj
 0002:00035850       _pj_sock_getsockopt        00464850 f   pjlib-i386-win32-vc8-debug-dynamic:sock_bsd.obj
 0002:00035950       _pj_sock_listen            00464950 f   pjlib-i386-win32-vc8-debug-dynamic:sock_bsd.obj
 0002:000359f0       _pj_sock_recv              004649f0 f   pjlib-i386-win32-vc8-debug-dynamic:sock_bsd.obj
 0002:00035af0       _pj_sock_recvfrom          00464af0 f   pjlib-i386-win32-vc8-debug-dynamic:sock_bsd.obj
 0002:00035c00       _pj_sock_send              00464c00 f   pjlib-i386-win32-vc8-debug-dynamic:sock_bsd.obj
 0002:00035d00       _pj_sock_sendto            00464d00 f   pjlib-i386-win32-vc8-debug-dynamic:sock_bsd.obj
 0002:00035e00       _pj_sock_setsockopt        00464e00 f   pjlib-i386-win32-vc8-debug-dynamic:sock_bsd.obj
 0002:00035ee0       _pj_sock_setsockopt_params 00464ee0 f   pjlib-i386-win32-vc8-debug-dynamic:sock_bsd.obj
 0002:00036040       _pj_sock_shutdown          00465040 f   pjlib-i386-win32-vc8-debug-dynamic:sock_bsd.obj
 0002:000360e0       _pj_sock_socket            004650e0 f   pjlib-i386-win32-vc8-debug-dynamic:sock_bsd.obj
 0002:00036530       _pj_file_delete            00465530 f   pjlib-i386-win32-vc8-debug-dynamic:file_access_win32.obj
 0002:000365f0       _pj_file_exists            004655f0 f   pjlib-i386-win32-vc8-debug-dynamic:file_access_win32.obj
 0002:00036690       _pj_file_getstat           00465690 f   pjlib-i386-win32-vc8-debug-dynamic:file_access_win32.obj
 0002:00036920       _pj_file_move              00465920 f   pjlib-i386-win32-vc8-debug-dynamic:file_access_win32.obj
 0002:00036a00       _pj_file_size              00465a00 f   pjlib-i386-win32-vc8-debug-dynamic:file_access_win32.obj
 0002:00036ac0       _pj_file_close             00465ac0 f   pjlib-i386-win32-vc8-debug-dynamic:file_io_win32.obj
 0002:00036b40       _pj_file_flush             00465b40 f   pjlib-i386-win32-vc8-debug-dynamic:file_io_win32.obj
 0002:00036bd0       _pj_file_getpos            00465bd0 f   pjlib-i386-win32-vc8-debug-dynamic:file_io_win32.obj
 0002:00036c60       _pj_file_open              00465c60 f   pjlib-i386-win32-vc8-debug-dynamic:file_io_win32.obj
 0002:00036eb0       _pj_file_read              00465eb0 f   pjlib-i386-win32-vc8-debug-dynamic:file_io_win32.obj
 0002:00036f60       _pj_file_setpos            00465f60 f   pjlib-i386-win32-vc8-debug-dynamic:file_io_win32.obj
 0002:00037070       _pj_file_write             00466070 f   pjlib-i386-win32-vc8-debug-dynamic:file_io_win32.obj
 0002:00037200       _pj_array_erase            00466200 f   pjlib-i386-win32-vc8-debug-dynamic:array.obj
 0002:00037290       _pj_array_find             00466290 f   pjlib-i386-win32-vc8-debug-dynamic:array.obj
 0002:00037310       _pj_array_insert           00466310 f   pjlib-i386-win32-vc8-debug-dynamic:array.obj
 0002:00037430       _pj_exception_id_alloc     00466430 f   pjlib-i386-win32-vc8-debug-dynamic:except.obj
 0002:000374b0       _pj_exception_id_free      004664b0 f   pjlib-i386-win32-vc8-debug-dynamic:except.obj
 0002:00037540       _pj_exception_id_name      00466540 f   pjlib-i386-win32-vc8-debug-dynamic:except.obj
 0002:000375f0       _pj_pop_exception_handler_ 004665f0 f   pjlib-i386-win32-vc8-debug-dynamic:except.obj
 0002:00037650       _pj_push_exception_handler_ 00466650 f   pjlib-i386-win32-vc8-debug-dynamic:except.obj
 0002:00037700       _pj_throw_exception_       00466700 f   pjlib-i386-win32-vc8-debug-dynamic:except.obj
 0002:00037f20       _pj_grp_lock_acquire       00466f20 f   pjlib-i386-win32-vc8-debug-dynamic:lock.obj
 0002:00037f50       _pj_grp_lock_add_handler   00466f50 f   pjlib-i386-win32-vc8-debug-dynamic:lock.obj
 0002:00037f90       _pj_grp_lock_add_ref       00466f90 f   pjlib-i386-win32-vc8-debug-dynamic:lock.obj
 0002:00037fc0       _pj_grp_lock_chain_lock    00466fc0 f   pjlib-i386-win32-vc8-debug-dynamic:lock.obj
 0002:000380b0       _pj_grp_lock_config_default 004670b0 f   pjlib-i386-win32-vc8-debug-dynamic:lock.obj
 0002:000380e0       _pj_grp_lock_create        004670e0 f   pjlib-i386-win32-vc8-debug-dynamic:lock.obj
 0002:000382c0       _pj_grp_lock_create_w_handler 004672c0 f   pjlib-i386-win32-vc8-debug-dynamic:lock.obj
 0002:00038320       _pj_grp_lock_dec_ref       00467320 f   pjlib-i386-win32-vc8-debug-dynamic:lock.obj
 0002:00038350       _pj_grp_lock_del_handler   00467350 f   pjlib-i386-win32-vc8-debug-dynamic:lock.obj
 0002:000383f0       _pj_grp_lock_destroy       004673f0 f   pjlib-i386-win32-vc8-debug-dynamic:lock.obj
 0002:00038420       _pj_grp_lock_dump          00467420 f   pjlib-i386-win32-vc8-debug-dynamic:lock.obj
 0002:00038480       _pj_grp_lock_get_ref       00467480 f   pjlib-i386-win32-vc8-debug-dynamic:lock.obj
 0002:000384b0       _pj_grp_lock_release       004674b0 f   pjlib-i386-win32-vc8-debug-dynamic:lock.obj
 0002:000384e0       _pj_grp_lock_replace       004674e0 f   pjlib-i386-win32-vc8-debug-dynamic:lock.obj
 0002:00038590       _pj_grp_lock_tryacquire    00467590 f   pjlib-i386-win32-vc8-debug-dynamic:lock.obj
 0002:000385c0       _pj_grp_lock_unchain_lock  004675c0 f   pjlib-i386-win32-vc8-debug-dynamic:lock.obj
 0002:000386f0       _pj_lock_acquire           004676f0 f   pjlib-i386-win32-vc8-debug-dynamic:lock.obj
 0002:00038760       _pj_lock_create_null_mutex 00467760 f   pjlib-i386-win32-vc8-debug-dynamic:lock.obj
 0002:000387d0       _pj_lock_create_recursive_mutex 004677d0 f   pjlib-i386-win32-vc8-debug-dynamic:lock.obj
 0002:00038800       _pj_lock_create_semaphore  00467800 f   pjlib-i386-win32-vc8-debug-dynamic:lock.obj
 0002:000388f0       _pj_lock_create_simple_mutex 004678f0 f   pjlib-i386-win32-vc8-debug-dynamic:lock.obj
 0002:00038920       _pj_lock_destroy           00467920 f   pjlib-i386-win32-vc8-debug-dynamic:lock.obj
 0002:00038990       _pj_lock_release           00467990 f   pjlib-i386-win32-vc8-debug-dynamic:lock.obj
 0002:00038a00       _pj_lock_tryacquire        00467a00 f   pjlib-i386-win32-vc8-debug-dynamic:lock.obj
 0002:00038ad0       _pj_get_timestamp          00467ad0 f   pjlib-i386-win32-vc8-debug-dynamic:os_timestamp_win32.obj
 0002:00038b60       _pj_get_timestamp_freq     00467b60 f   pjlib-i386-win32-vc8-debug-dynamic:os_timestamp_win32.obj
 0002:00038d90       _pj_elapsed_cycle          00467d90 f   pjlib-i386-win32-vc8-debug-dynamic:os_timestamp_common.obj
 0002:00038db0       _pj_elapsed_msec           00467db0 f   pjlib-i386-win32-vc8-debug-dynamic:os_timestamp_common.obj
 0002:00038df0       _pj_elapsed_msec64         00467df0 f   pjlib-i386-win32-vc8-debug-dynamic:os_timestamp_common.obj
 0002:00038e30       _pj_elapsed_nanosec        00467e30 f   pjlib-i386-win32-vc8-debug-dynamic:os_timestamp_common.obj
 0002:00038ef0       _pj_elapsed_time           00467ef0 f   pjlib-i386-win32-vc8-debug-dynamic:os_timestamp_common.obj
 0002:00038fd0       _pj_elapsed_usec           00467fd0 f   pjlib-i386-win32-vc8-debug-dynamic:os_timestamp_common.obj
 0002:00039010       _pj_gettickcount           00468010 f   pjlib-i386-win32-vc8-debug-dynamic:os_timestamp_common.obj
 0002:000390b0       _pj_rand                   004680b0 f   pjlib-i386-win32-vc8-debug-dynamic:rand.obj
 0002:000390f0       _pj_srand                  004680f0 f   pjlib-i386-win32-vc8-debug-dynamic:rand.obj
 0002:000392b0       _pj_GUID_STRING_LENGTH     004682b0 f   pjlib-i386-win32-vc8-debug-dynamic:guid_win32.obj
 0002:000392d0       _pj_generate_unique_string 004682d0 f   pjlib-i386-win32-vc8-debug-dynamic:guid_win32.obj
 0002:00039340       _pj_dump_config            00468340 f   pjlib-i386-win32-vc8-debug-dynamic:config.obj
 0002:00039950       _pj_get_version            00468950 f   pjlib-i386-win32-vc8-debug-dynamic:config.obj
 0002:00039970       _pj_pool_create_on_buf     00468970 f   pjlib-i386-win32-vc8-debug-dynamic:pool_buf.obj
 0002:00039be0       _pj_log_write              00468be0 f   pjlib-i386-win32-vc8-debug-dynamic:log_writer_stdout.obj
 0002:0003a6a0       _pj_enum_ip_interface      004696a0 f   pjlib-i386-win32-vc8-debug-dynamic:ip_helper_win32.obj
 0002:0003a800       _pj_enum_ip_route          00469800 f   pjlib-i386-win32-vc8-debug-dynamic:ip_helper_win32.obj
 0002:0003ac70       _pj_getaddrinfo            00469c70 f   pjlib-i386-win32-vc8-debug-dynamic:addr_resolv_sock.obj
 0002:0003aea0       _pj_gethostbyname          00469ea0 f   pjlib-i386-win32-vc8-debug-dynamic:addr_resolv_sock.obj
 0002:0003b030       _pj_time_val_normalize     0046a030 f   pjlib-i386-win32-vc8-debug-dynamic:types.obj
 0002:0003b170       _PJ_FD_CLR                 0046a170 f   pjlib-i386-win32-vc8-debug-dynamic:sock_select.obj
 0002:0003b2c0       _PJ_FD_COUNT               0046a2c0 f   pjlib-i386-win32-vc8-debug-dynamic:sock_select.obj
 0002:0003b2f0       _PJ_FD_ISSET               0046a2f0 f   pjlib-i386-win32-vc8-debug-dynamic:sock_select.obj
 0002:0003b350       _PJ_FD_SET                 0046a350 f   pjlib-i386-win32-vc8-debug-dynamic:sock_select.obj
 0002:0003b490       _PJ_FD_ZERO                0046a490 f   pjlib-i386-win32-vc8-debug-dynamic:sock_select.obj
 0002:0003b4f0       _pj_sock_select            0046a4f0 f   pjlib-i386-win32-vc8-debug-dynamic:sock_select.obj
 0002:0003bd60       _speex_echo_cancel         0046ad60 f   libspeex-i386-win32-vc8-debug-dynamic:mdf.obj
 0002:0003bda0       _speex_echo_cancellation   0046ada0 f   libspeex-i386-win32-vc8-debug-dynamic:mdf.obj
 0002:0003da90       _speex_echo_capture        0046ca90 f   libspeex-i386-win32-vc8-debug-dynamic:mdf.obj
 0002:0003dc30       _speex_echo_ctl            0046cc30 f   libspeex-i386-win32-vc8-debug-dynamic:mdf.obj
 0002:0003ddc0       _speex_echo_get_residual   0046cdc0 f   libspeex-i386-win32-vc8-debug-dynamic:mdf.obj
 0002:0003df20       _speex_echo_playback       0046cf20 f   libspeex-i386-win32-vc8-debug-dynamic:mdf.obj
 0002:0003e0f0       _speex_echo_state_destroy  0046d0f0 f   libspeex-i386-win32-vc8-debug-dynamic:mdf.obj
 0002:0003e2e0       _speex_echo_state_init     0046d2e0 f   libspeex-i386-win32-vc8-debug-dynamic:mdf.obj
 0002:0003eae0       _speex_echo_state_reset    0046dae0 f   libspeex-i386-win32-vc8-debug-dynamic:mdf.obj
 0002:0003fd40       _speex_preprocess          0046ed40 f   libspeex-i386-win32-vc8-debug-dynamic:preprocess.obj
 0002:0003fd70       _speex_preprocess_ctl      0046ed70 f   libspeex-i386-win32-vc8-debug-dynamic:preprocess.obj
 0002:00040780       _speex_preprocess_estimate_update 0046f780 f   libspeex-i386-win32-vc8-debug-dynamic:preprocess.obj
 0002:000409c0       _speex_preprocess_run      0046f9c0 f   libspeex-i386-win32-vc8-debug-dynamic:preprocess.obj
 0002:00042190       _speex_preprocess_state_destroy 00471190 f   libspeex-i386-win32-vc8-debug-dynamic:preprocess.obj
 0002:000423a0       _speex_preprocess_state_init 004713a0 f   libspeex-i386-win32-vc8-debug-dynamic:preprocess.obj
 0002:000431f0       _spx_fft                   004721f0 f   libspeex-i386-win32-vc8-debug-dynamic:fftwrap.obj
 0002:00043330       _spx_fft_destroy           00472330 f   libspeex-i386-win32-vc8-debug-dynamic:fftwrap.obj
 0002:00043370       _spx_fft_float             00472370 f   libspeex-i386-win32-vc8-debug-dynamic:fftwrap.obj
 0002:000433a0       _spx_fft_init              004723a0 f   libspeex-i386-win32-vc8-debug-dynamic:fftwrap.obj
 0002:000433e0       _spx_ifft                  004723e0 f   libspeex-i386-win32-vc8-debug-dynamic:fftwrap.obj
 0002:00043480       _spx_ifft_float            00472480 f   libspeex-i386-win32-vc8-debug-dynamic:fftwrap.obj
 0002:000434b0       _filterbank_compute_bank   004724b0 f   libspeex-i386-win32-vc8-debug-dynamic:filterbank.obj
 0002:00043620       _filterbank_compute_bank32 00472620 f   libspeex-i386-win32-vc8-debug-dynamic:filterbank.obj
 0002:00043740       _filterbank_compute_psd    00472740 f   libspeex-i386-win32-vc8-debug-dynamic:filterbank.obj
 0002:00043810       _filterbank_compute_psd16  00472810 f   libspeex-i386-win32-vc8-debug-dynamic:filterbank.obj
 0002:000438e0       _filterbank_destroy        004728e0 f   libspeex-i386-win32-vc8-debug-dynamic:filterbank.obj
 0002:00043960       _filterbank_new            00472960 f   libspeex-i386-win32-vc8-debug-dynamic:filterbank.obj
 0002:00043ea0       _filterbank_psy_smooth     00472ea0 f   libspeex-i386-win32-vc8-debug-dynamic:filterbank.obj
 0002:00048e20       _spx_drft_backward         00477e20 f   libspeex-i386-win32-vc8-debug-dynamic:smallft.obj
 0002:00048e80       _spx_drft_clear            00477e80 f   libspeex-i386-win32-vc8-debug-dynamic:smallft.obj
 0002:00048ee0       _spx_drft_forward          00477ee0 f   libspeex-i386-win32-vc8-debug-dynamic:smallft.obj
 0002:00048f40       _spx_drft_init             00477f40 f   libspeex-i386-win32-vc8-debug-dynamic:smallft.obj
 0002:00048fc0       _srtp_event_reporter       00477fc0 f   libsrtp-i386-win32-vc8-debug-dynamic:srtp.obj
 0002:00049090       ___local_stdio_scanf_options 00478090 f i libsrtp-i386-win32-vc8-debug-dynamic:srtp.obj
 0002:000490b0       __vsscanf_l                004780b0 f i libsrtp-i386-win32-vc8-debug-dynamic:srtp.obj
 0002:000491f0       _srtp_add_stream           004781f0 f   libsrtp-i386-win32-vc8-debug-dynamic:srtp.obj
 0002:00049350       _srtp_append_salt_to_key   00478350 f   libsrtp-i386-win32-vc8-debug-dynamic:srtp.obj
 0002:000497d0       _srtp_create               004787d0 f   libsrtp-i386-win32-vc8-debug-dynamic:srtp.obj
 0002:000498a0       _srtp_crypto_policy_set_aes_cm_128_hmac_sha1_32 004788a0 f   libsrtp-i386-win32-vc8-debug-dynamic:srtp.obj
 0002:00049900       _srtp_crypto_policy_set_aes_cm_128_null_auth 00478900 f   libsrtp-i386-win32-vc8-debug-dynamic:srtp.obj
 0002:00049960       _srtp_crypto_policy_set_aes_cm_256_hmac_sha1_32 00478960 f   libsrtp-i386-win32-vc8-debug-dynamic:srtp.obj
 0002:000499c0       _srtp_crypto_policy_set_aes_cm_256_hmac_sha1_80 004789c0 f   libsrtp-i386-win32-vc8-debug-dynamic:srtp.obj
 0002:00049a20       _srtp_crypto_policy_set_aes_cm_256_null_auth 00478a20 f   libsrtp-i386-win32-vc8-debug-dynamic:srtp.obj
 0002:00049a80       _srtp_crypto_policy_set_from_profile_for_rtcp 00478a80 f   libsrtp-i386-win32-vc8-debug-dynamic:srtp.obj
 0002:00049b00       _srtp_crypto_policy_set_from_profile_for_rtp 00478b00 f   libsrtp-i386-win32-vc8-debug-dynamic:srtp.obj
 0002:00049b80       _srtp_crypto_policy_set_null_cipher_hmac_null 00478b80 f   libsrtp-i386-win32-vc8-debug-dynamic:srtp.obj
 0002:00049be0       _srtp_crypto_policy_set_null_cipher_hmac_sha1_80 00478be0 f   libsrtp-i386-win32-vc8-debug-dynamic:srtp.obj
 0002:00049c40       _srtp_crypto_policy_set_rtcp_default 00478c40 f   libsrtp-i386-win32-vc8-debug-dynamic:srtp.obj
 0002:00049ca0       _srtp_crypto_policy_set_rtp_default 00478ca0 f   libsrtp-i386-win32-vc8-debug-dynamic:srtp.obj
 0002:00049d00       _srtp_dealloc              00478d00 f   libsrtp-i386-win32-vc8-debug-dynamic:srtp.obj
 0002:00049db0       _srtp_err_handler          00478db0 f   libsrtp-i386-win32-vc8-debug-dynamic:srtp.obj
 0002:0004a070       _srtp_get_protect_rtcp_trailer_length 00479070 f   libsrtp-i386-win32-vc8-debug-dynamic:srtp.obj
 0002:0004a180       _srtp_get_protect_trailer_length 00479180 f   libsrtp-i386-win32-vc8-debug-dynamic:srtp.obj
 0002:0004a280       _srtp_get_session_keys     00479280 f   libsrtp-i386-win32-vc8-debug-dynamic:srtp.obj
 0002:0004a410       _srtp_get_session_keys_with_mki_index 00479410 f   libsrtp-i386-win32-vc8-debug-dynamic:srtp.obj
 0002:0004a460       _srtp_get_stream           00479460 f   libsrtp-i386-win32-vc8-debug-dynamic:srtp.obj
 0002:0004a4b0       _srtp_get_stream_roc       004794b0 f   libsrtp-i386-win32-vc8-debug-dynamic:srtp.obj
 0002:0004a510       _srtp_get_user_data        00479510 f   libsrtp-i386-win32-vc8-debug-dynamic:srtp.obj
 0002:0004a530       _srtp_get_version          00479530 f   libsrtp-i386-win32-vc8-debug-dynamic:srtp.obj
 0002:0004a5e0       _srtp_get_version_string   004795e0 f   libsrtp-i386-win32-vc8-debug-dynamic:srtp.obj
 0002:0004a600       _srtp_init                 00479600 f   libsrtp-i386-win32-vc8-debug-dynamic:srtp.obj
 0002:0004a650       _srtp_inject_mki           00479650 f   libsrtp-i386-win32-vc8-debug-dynamic:srtp.obj
 0002:0004a6b0       _srtp_install_event_handler 004796b0 f   libsrtp-i386-win32-vc8-debug-dynamic:srtp.obj
 0002:0004a6d0       _srtp_install_log_handler  004796d0 f   libsrtp-i386-win32-vc8-debug-dynamic:srtp.obj
 0002:0004a950       _srtp_list_debug_modules   00479950 f   libsrtp-i386-win32-vc8-debug-dynamic:srtp.obj
 0002:0004ade0       _srtp_profile_get_master_key_length 00479de0 f   libsrtp-i386-win32-vc8-debug-dynamic:srtp.obj
 0002:0004ae80       _srtp_profile_get_master_salt_length 00479e80 f   libsrtp-i386-win32-vc8-debug-dynamic:srtp.obj
 0002:0004af20       _srtp_protect              00479f20 f   libsrtp-i386-win32-vc8-debug-dynamic:srtp.obj
 0002:0004b4b0       _srtp_protect_mki          0047a4b0 f   libsrtp-i386-win32-vc8-debug-dynamic:srtp.obj
 0002:0004be70       _srtp_protect_rtcp         0047ae70 f   libsrtp-i386-win32-vc8-debug-dynamic:srtp.obj
 0002:0004c270       _srtp_protect_rtcp_mki     0047b270 f   libsrtp-i386-win32-vc8-debug-dynamic:srtp.obj
 0002:0004c8b0       _srtp_remove_stream        0047b8b0 f   libsrtp-i386-win32-vc8-debug-dynamic:srtp.obj
 0002:0004c980       _srtp_set_debug_module     0047b980 f   libsrtp-i386-win32-vc8-debug-dynamic:srtp.obj
 0002:0004c9b0       _srtp_set_stream_roc       0047b9b0 f   libsrtp-i386-win32-vc8-debug-dynamic:srtp.obj
 0002:0004ca10       _srtp_set_user_data        0047ba10 f   libsrtp-i386-win32-vc8-debug-dynamic:srtp.obj
 0002:0004ca30       _srtp_shutdown             0047ba30 f   libsrtp-i386-win32-vc8-debug-dynamic:srtp.obj
 0002:0004ca60       _srtp_stream_alloc         0047ba60 f   libsrtp-i386-win32-vc8-debug-dynamic:srtp.obj
 0002:0004cf30       _srtp_stream_clone         0047bf30 f   libsrtp-i386-win32-vc8-debug-dynamic:srtp.obj
 0002:0004d2e0       _srtp_stream_dealloc       0047c2e0 f   libsrtp-i386-win32-vc8-debug-dynamic:srtp.obj
 0002:0004d7b0       _srtp_stream_init          0047c7b0 f   libsrtp-i386-win32-vc8-debug-dynamic:srtp.obj
 0002:0004d9c0       _srtp_stream_init_all_master_keys 0047c9c0 f   libsrtp-i386-win32-vc8-debug-dynamic:srtp.obj
 0002:0004daa0       _srtp_stream_init_keys     0047caa0 f   libsrtp-i386-win32-vc8-debug-dynamic:srtp.obj
 0002:0004e940       _srtp_unprotect            0047d940 f   libsrtp-i386-win32-vc8-debug-dynamic:srtp.obj
 0002:0004ee30       _srtp_unprotect_mki        0047de30 f   libsrtp-i386-win32-vc8-debug-dynamic:srtp.obj
 0002:0004f8b0       _srtp_unprotect_rtcp       0047e8b0 f   libsrtp-i386-win32-vc8-debug-dynamic:srtp.obj
 0002:0004fce0       _srtp_unprotect_rtcp_mki   0047ece0 f   libsrtp-i386-win32-vc8-debug-dynamic:srtp.obj
 0002:00050550       _srtp_update               0047f550 f   libsrtp-i386-win32-vc8-debug-dynamic:srtp.obj
 0002:000505d0       _srtp_update_stream        0047f5d0 f   libsrtp-i386-win32-vc8-debug-dynamic:srtp.obj
 0002:00050680       _srtp_validate_policy_master_keys 0047f680 f   libsrtp-i386-win32-vc8-debug-dynamic:srtp.obj
 0002:00050830       _sscanf                    0047f830 f i libsrtp-i386-win32-vc8-debug-dynamic:srtp.obj
 0002:00050d20       _srtp_crypto_alloc         0047fd20 f   libsrtp-i386-win32-vc8-debug-dynamic:alloc.obj
 0002:00050db0       _srtp_crypto_free          0047fdb0 f   libsrtp-i386-win32-vc8-debug-dynamic:alloc.obj
 0002:00050e00       _bitvector_alloc           0047fe00 f   libsrtp-i386-win32-vc8-debug-dynamic:datatypes.obj
 0002:00050eb0       _bitvector_bit_string      0047feb0 f   libsrtp-i386-win32-vc8-debug-dynamic:datatypes.obj
 0002:00050f80       _bitvector_dealloc         0047ff80 f   libsrtp-i386-win32-vc8-debug-dynamic:datatypes.obj
 0002:00050fd0       _bitvector_left_shift      0047ffd0 f   libsrtp-i386-win32-vc8-debug-dynamic:datatypes.obj
 0002:00051160       _bitvector_set_to_zero     00480160 f   libsrtp-i386-win32-vc8-debug-dynamic:datatypes.obj
 0002:000511a0       _octet_get_weight          004801a0 f   libsrtp-i386-win32-vc8-debug-dynamic:datatypes.obj
 0002:000511d0       _octet_string_is_eq        004801d0 f   libsrtp-i386-win32-vc8-debug-dynamic:datatypes.obj
 0002:00051260       _octet_string_set_to_zero  00480260 f   libsrtp-i386-win32-vc8-debug-dynamic:datatypes.obj
 0002:00051290       _srtp_cleanse              00480290 f   libsrtp-i386-win32-vc8-debug-dynamic:datatypes.obj
 0002:000512e0       _srtp_nibble_to_hex_char   004802e0 f   libsrtp-i386-win32-vc8-debug-dynamic:datatypes.obj
 0002:00051370       _srtp_octet_string_hex_string 00480370 f   libsrtp-i386-win32-vc8-debug-dynamic:datatypes.obj
 0002:00051460       _v128_bit_string           00480460 f   libsrtp-i386-win32-vc8-debug-dynamic:datatypes.obj
 0002:00051530       _v128_copy_octet_string    00480530 f   libsrtp-i386-win32-vc8-debug-dynamic:datatypes.obj
 0002:00051780       _v128_hex_string           00480780 f   libsrtp-i386-win32-vc8-debug-dynamic:datatypes.obj
 0002:00051850       _v128_left_shift           00480850 f   libsrtp-i386-win32-vc8-debug-dynamic:datatypes.obj
 0002:00051a00       _v128_right_shift          00480a00 f   libsrtp-i386-win32-vc8-debug-dynamic:datatypes.obj
 0002:00051bc0       _srtp_err_report           00480bc0 f   libsrtp-i386-win32-vc8-debug-dynamic:srtp_err.obj
 0002:00051c20       _srtp_err_reporting_init   00480c20 f   libsrtp-i386-win32-vc8-debug-dynamic:srtp_err.obj
 0002:00051c40       _srtp_err_reporting_set_level 00480c40 f   libsrtp-i386-win32-vc8-debug-dynamic:srtp_err.obj
 0002:00051c60       _srtp_install_err_report_handler 00480c60 f   libsrtp-i386-win32-vc8-debug-dynamic:srtp_err.obj
 0002:00051c80       _srtp_index_advance        00480c80 f   libsrtp-i386-win32-vc8-debug-dynamic:rdbx.obj
 0002:00051cb0       _srtp_index_guess          00480cb0 f   libsrtp-i386-win32-vc8-debug-dynamic:rdbx.obj
 0002:00051e00       _srtp_index_init           00480e00 f   libsrtp-i386-win32-vc8-debug-dynamic:rdbx.obj
 0002:00051e30       _srtp_rdbx_add_index       00480e30 f   libsrtp-i386-win32-vc8-debug-dynamic:rdbx.obj
 0002:00051f30       _srtp_rdbx_check           00480f30 f   libsrtp-i386-win32-vc8-debug-dynamic:rdbx.obj
 0002:00051fc0       _srtp_rdbx_dealloc         00480fc0 f   libsrtp-i386-win32-vc8-debug-dynamic:rdbx.obj
 0002:00051ff0       _srtp_rdbx_estimate_index  00480ff0 f   libsrtp-i386-win32-vc8-debug-dynamic:rdbx.obj
 0002:00052060       _srtp_rdbx_get_packet_index 00481060 f   libsrtp-i386-win32-vc8-debug-dynamic:rdbx.obj
 0002:00052080       _srtp_rdbx_get_roc         00481080 f   libsrtp-i386-win32-vc8-debug-dynamic:rdbx.obj
 0002:000520b0       _srtp_rdbx_get_window_size 004810b0 f   libsrtp-i386-win32-vc8-debug-dynamic:rdbx.obj
 0002:000520d0       _srtp_rdbx_init            004810d0 f   libsrtp-i386-win32-vc8-debug-dynamic:rdbx.obj
 0002:00052130       _srtp_rdbx_set_roc         00481130 f   libsrtp-i386-win32-vc8-debug-dynamic:rdbx.obj
 0002:000521f0       _srtp_rdbx_set_roc_seq     004811f0 f   libsrtp-i386-win32-vc8-debug-dynamic:rdbx.obj
 0002:000522a0       _srtp_rdb_add_index        004812a0 f   libsrtp-i386-win32-vc8-debug-dynamic:rdb.obj
 0002:00052370       _srtp_rdb_check            00481370 f   libsrtp-i386-win32-vc8-debug-dynamic:rdb.obj
 0002:000523f0       _srtp_rdb_get_value        004813f0 f   libsrtp-i386-win32-vc8-debug-dynamic:rdb.obj
 0002:00052410       _srtp_rdb_increment        00481410 f   libsrtp-i386-win32-vc8-debug-dynamic:rdb.obj
 0002:00052450       _srtp_rdb_init             00481450 f   libsrtp-i386-win32-vc8-debug-dynamic:rdb.obj
 0002:000524d0       _srtp_cipher_bits_per_second 004814d0 f   libsrtp-i386-win32-vc8-debug-dynamic:cipher.obj
 0002:000526a0       _srtp_cipher_dealloc       004816a0 f   libsrtp-i386-win32-vc8-debug-dynamic:cipher.obj
 0002:000526f0       _srtp_cipher_decrypt       004816f0 f   libsrtp-i386-win32-vc8-debug-dynamic:cipher.obj
 0002:00052750       _srtp_cipher_encrypt       00481750 f   libsrtp-i386-win32-vc8-debug-dynamic:cipher.obj
 0002:000527b0       _srtp_cipher_get_key_length 004817b0 f   libsrtp-i386-win32-vc8-debug-dynamic:cipher.obj
 0002:000527d0       _srtp_cipher_get_tag       004817d0 f   libsrtp-i386-win32-vc8-debug-dynamic:cipher.obj
 0002:00052850       _srtp_cipher_init          00481850 f   libsrtp-i386-win32-vc8-debug-dynamic:cipher.obj
 0002:000528b0       _srtp_cipher_output        004818b0 f   libsrtp-i386-win32-vc8-debug-dynamic:cipher.obj
 0002:00052960       _srtp_cipher_set_aad       00481960 f   libsrtp-i386-win32-vc8-debug-dynamic:cipher.obj
 0002:000529e0       _srtp_cipher_set_iv        004819e0 f   libsrtp-i386-win32-vc8-debug-dynamic:cipher.obj
 0002:00052a40       _srtp_cipher_type_alloc    00481a40 f   libsrtp-i386-win32-vc8-debug-dynamic:cipher.obj
 0002:00052a90       _srtp_cipher_type_self_test 00481a90 f   libsrtp-i386-win32-vc8-debug-dynamic:cipher.obj
 0002:00052ac0       _srtp_cipher_type_test     00481ac0 f   libsrtp-i386-win32-vc8-debug-dynamic:cipher.obj
 0002:00053c90       _srtp_auth_get_key_length  00482c90 f   libsrtp-i386-win32-vc8-debug-dynamic:auth.obj
 0002:00053cb0       _srtp_auth_get_prefix_length 00482cb0 f   libsrtp-i386-win32-vc8-debug-dynamic:auth.obj
 0002:00053cd0       _srtp_auth_get_tag_length  00482cd0 f   libsrtp-i386-win32-vc8-debug-dynamic:auth.obj
 0002:00053cf0       _srtp_auth_type_self_test  00482cf0 f   libsrtp-i386-win32-vc8-debug-dynamic:auth.obj
 0002:00053d20       _srtp_auth_type_test       00482d20 f   libsrtp-i386-win32-vc8-debug-dynamic:auth.obj
 0002:000540f0       _srtp_key_limit_check      004830f0 f   libsrtp-i386-win32-vc8-debug-dynamic:key.obj
 0002:00054120       _srtp_key_limit_clone      00483120 f   libsrtp-i386-win32-vc8-debug-dynamic:key.obj
 0002:00054150       _srtp_key_limit_set        00483150 f   libsrtp-i386-win32-vc8-debug-dynamic:key.obj
 0002:000541b0       _srtp_key_limit_update     004831b0 f   libsrtp-i386-win32-vc8-debug-dynamic:key.obj
 0002:00054260       _srtp_crypto_kernel_alloc_auth 00483260 f   libsrtp-i386-win32-vc8-debug-dynamic:crypto_kernel.obj
 0002:000542d0       _srtp_crypto_kernel_alloc_cipher 004832d0 f   libsrtp-i386-win32-vc8-debug-dynamic:crypto_kernel.obj
 0002:00054340       _srtp_crypto_kernel_do_load_auth_type 00483340 f   libsrtp-i386-win32-vc8-debug-dynamic:crypto_kernel.obj
 0002:000545e0       _srtp_crypto_kernel_get_auth_type 004835e0 f   libsrtp-i386-win32-vc8-debug-dynamic:crypto_kernel.obj
 0002:00054630       _srtp_crypto_kernel_get_cipher_type 00483630 f   libsrtp-i386-win32-vc8-debug-dynamic:crypto_kernel.obj
 0002:00054680       _srtp_crypto_kernel_init   00483680 f   libsrtp-i386-win32-vc8-debug-dynamic:crypto_kernel.obj
 0002:000548a0       _srtp_crypto_kernel_list_debug_modules 004838a0 f   libsrtp-i386-win32-vc8-debug-dynamic:crypto_kernel.obj
 0002:00054940       _srtp_crypto_kernel_load_auth_type 00483940 f   libsrtp-i386-win32-vc8-debug-dynamic:crypto_kernel.obj
 0002:00054970       _srtp_crypto_kernel_load_cipher_type 00483970 f   libsrtp-i386-win32-vc8-debug-dynamic:crypto_kernel.obj
 0002:000549a0       _srtp_crypto_kernel_load_debug_module 004839a0 f   libsrtp-i386-win32-vc8-debug-dynamic:crypto_kernel.obj
 0002:00054a60       _srtp_crypto_kernel_set_debug_module 00483a60 f   libsrtp-i386-win32-vc8-debug-dynamic:crypto_kernel.obj
 0002:00054ad0       _srtp_crypto_kernel_shutdown 00483ad0 f   libsrtp-i386-win32-vc8-debug-dynamic:crypto_kernel.obj
 0002:00054c30       _srtp_crypto_kernel_status 00483c30 f   libsrtp-i386-win32-vc8-debug-dynamic:crypto_kernel.obj
 0002:00054da0       _srtp_replace_auth_type    00483da0 f   libsrtp-i386-win32-vc8-debug-dynamic:crypto_kernel.obj
 0002:00054dd0       _srtp_replace_cipher_type  00483dd0 f   libsrtp-i386-win32-vc8-debug-dynamic:crypto_kernel.obj
 0002:00054e00       _aes_decrypt_with_raw_key  00483e00 f   libsrtp-i386-win32-vc8-debug-dynamic:ekt.obj
 0002:00054e70       _srtcp_ekt_trailer         00483e70 f   libsrtp-i386-win32-vc8-debug-dynamic:ekt.obj
 0002:00054f20       _srtp_ekt_alloc            00483f20 f   libsrtp-i386-win32-vc8-debug-dynamic:ekt.obj
 0002:00054f60       _srtp_ekt_octets_after_base_tag 00483f60 f   libsrtp-i386-win32-vc8-debug-dynamic:ekt.obj
 0002:00054fb0       _srtp_ekt_stream_init_from_policy 00483fb0 f   libsrtp-i386-win32-vc8-debug-dynamic:ekt.obj
 0002:00054fe0       _srtp_ekt_write_data       00483fe0 f   libsrtp-i386-win32-vc8-debug-dynamic:ekt.obj
 0002:00055200       _srtp_stream_init_from_ekt 00484200 f   libsrtp-i386-win32-vc8-debug-dynamic:ekt.obj
 0002:00055330       _stat_test_monobit         00484330 f   libsrtp-i386-win32-vc8-debug-dynamic:stat.obj
 0002:000553f0       _stat_test_poker           004843f0 f   libsrtp-i386-win32-vc8-debug-dynamic:stat.obj
 0002:00055600       _stat_test_runs            00484600 f   libsrtp-i386-win32-vc8-debug-dynamic:stat.obj
 0002:00058460       _srtp_aes_decrypt          00487460 f   libsrtp-i386-win32-vc8-debug-dynamic:aes.obj
 0002:00058770       _srtp_aes_encrypt          00487770 f   libsrtp-i386-win32-vc8-debug-dynamic:aes.obj
 0002:00058a80       _srtp_aes_expand_decryption_key 00487a80 f   libsrtp-i386-win32-vc8-debug-dynamic:aes.obj
 0002:000590b0       _srtp_aes_expand_encryption_key 004880b0 f   libsrtp-i386-win32-vc8-debug-dynamic:aes.obj
 0002:00059130       _srtp_sha1                 00488130 f   libsrtp-i386-win32-vc8-debug-dynamic:sha1.obj
 0002:000591a0       _srtp_sha1_core            004881a0 f   libsrtp-i386-win32-vc8-debug-dynamic:sha1.obj
 0002:0005a200       _srtp_sha1_final           00489200 f   libsrtp-i386-win32-vc8-debug-dynamic:sha1.obj
 0002:0005aec0       _srtp_sha1_init            00489ec0 f   libsrtp-i386-win32-vc8-debug-dynamic:sha1.obj
 0002:0005af60       _srtp_sha1_update          00489f60 f   libsrtp-i386-win32-vc8-debug-dynamic:sha1.obj
 0002:0005b0f0       _CoCreateGuid@4            0048a0f0 f   ole32:ole32.dll
 0002:0005b0f6       _WSAStartup@8              0048a0f6 f   ws2_32:WS2_32.dll
 0002:0005b0fc       _WSACleanup@0              0048a0fc f   ws2_32:WS2_32.dll
 0002:0005b102       _WSAGetLastError@0         0048a102 f   ws2_32:WS2_32.dll
 0002:0005b108       _WSASetLastError@4         0048a108 f   ws2_32:WS2_32.dll
 0002:0005b10e       _ioctlsocket@12            0048a10e f   ws2_32:WS2_32.dll
 0002:0005b114       _accept@12                 0048a114 f   ws2_32:WS2_32.dll
 0002:0005b11a       _bind@12                   0048a11a f   ws2_32:WS2_32.dll
 0002:0005b120       _closesocket@4             0048a120 f   ws2_32:WS2_32.dll
 0002:0005b126       _connect@12                0048a126 f   ws2_32:WS2_32.dll
 0002:0005b12c       _getpeername@12            0048a12c f   ws2_32:WS2_32.dll
 0002:0005b132       _getsockname@12            0048a132 f   ws2_32:WS2_32.dll
 0002:0005b138       _getsockopt@20             0048a138 f   ws2_32:WS2_32.dll
 0002:0005b13e       _htonl@4                   0048a13e f   ws2_32:WS2_32.dll
 0002:0005b144       _htons@4                   0048a144 f   ws2_32:WS2_32.dll
 0002:0005b14a       _inet_addr@4               0048a14a f   ws2_32:WS2_32.dll
 0002:0005b150       _inet_ntoa@4               0048a150 f   ws2_32:WS2_32.dll
 0002:0005b156       _listen@8                  0048a156 f   ws2_32:WS2_32.dll
 0002:0005b15c       _ntohl@4                   0048a15c f   ws2_32:WS2_32.dll
 0002:0005b162       _ntohs@4                   0048a162 f   ws2_32:WS2_32.dll
 0002:0005b168       _recv@16                   0048a168 f   ws2_32:WS2_32.dll
 0002:0005b16e       _recvfrom@24               0048a16e f   ws2_32:WS2_32.dll
 0002:0005b174       _send@16                   0048a174 f   ws2_32:WS2_32.dll
 0002:0005b17a       _sendto@24                 0048a17a f   ws2_32:WS2_32.dll
 0002:0005b180       _setsockopt@20             0048a180 f   ws2_32:WS2_32.dll
 0002:0005b186       _shutdown@8                0048a186 f   ws2_32:WS2_32.dll
 0002:0005b18c       _gethostname@8             0048a18c f   ws2_32:WS2_32.dll
 0002:0005b192       _WSAIoctl@36               0048a192 f   ws2_32:WS2_32.dll
 0002:0005b198       _WSASocketA@24             0048a198 f   ws2_32:WS2_32.dll
 0002:0005b19e       _WSAAddressToStringA@20    0048a19e f   ws2_32:WS2_32.dll
 0002:0005b1a4       _WSAStringToAddressA@20    0048a1a4 f   ws2_32:WS2_32.dll
 0002:0005b1aa       _gethostbyname@4           0048a1aa f   ws2_32:WS2_32.dll
 0002:0005b1b0       ___WSAFDIsSet@8            0048a1b0 f   ws2_32:WS2_32.dll
 0002:0005b1b6       _select@20                 0048a1b6 f   ws2_32:WS2_32.dll
 0002:0005b1c0       @__security_check_cookie@4 0048a1c0 f   MSVCRTD:secchk.obj
 0002:0005b5b0       ?configure_argv@__scrt_narrow_argv_policy@@SAHXZ 0048a5b0 f i MSVCRTD:exe_main.obj
 0002:0005b5d0       ?initialize_environment@__scrt_narrow_environment_policy@@SAHXZ 0048a5d0 f i MSVCRTD:exe_main.obj
 0002:0005b610       ?set_app_type@__scrt_main_policy@@SAXXZ 0048a610 f i MSVCRTD:exe_main.obj
 0002:0005b630       ?set_commode@__scrt_file_policy@@SAXXZ 0048a630 f i MSVCRTD:exe_main.obj
 0002:0005b650       ?set_fmode@__scrt_file_policy@@SAXXZ 0048a650 f i MSVCRTD:exe_main.obj
 0002:0005b670       _mainCRTStartup            0048a670 f   MSVCRTD:exe_main.obj
 0002:0005b680       ___raise_securityfailure   0048a680 f   MSVCRTD:gs_report.obj
 0002:0005b6c0       ___report_gsfailure        0048a6c0 f   MSVCRTD:gs_report.obj
 0002:0005b810       ___report_rangecheckfailure 0048a810 f   MSVCRTD:gs_report.obj
 0002:0005b820       ___report_securityfailure  0048a820 f   MSVCRTD:gs_report.obj
 0002:0005b930       ___report_securityfailureEx 0048a930 f   MSVCRTD:gs_report.obj
 0002:0005baa0       __aulldiv                  0048aaa0 f   MSVCRTD:ulldiv.obj
 0002:0005bb30       __allmul                   0048ab30 f   MSVCRTD:llmul.obj
 0002:0005bb80       __alldiv                   0048ab80 f   MSVCRTD:lldiv.obj
 0002:0005bc60       __chkstk                   0048ac60 f   MSVCRTD:chkstk.obj
 0002:0005bc60       __alloca_probe             0048ac60 f   MSVCRTD:chkstk.obj
 0002:0005bca0       __allshl                   0048aca0 f   MSVCRTD:llshl.obj
 0002:0005bcd0       __allshr                   0048acd0 f   MSVCRTD:llshr.obj
 0002:0005bd00       __ftoui3                   0048ad00 f   MSVCRTD:ftol3.obj
 0002:0005bd0f       __ftoul3                   0048ad0f f   MSVCRTD:ftol3.obj
 0002:0005bd1e       __ftol3                    0048ad1e f   MSVCRTD:ftol3.obj
 0002:0005bd2b       __ftol3_NaN                0048ad2b f   MSVCRTD:ftol3.obj
 0002:0005bd43       __ftol3_work               0048ad43 f   MSVCRTD:ftol3.obj
 0002:0005bdc9       __ftol3_common             0048adc9 f   MSVCRTD:ftol3.obj
 0002:0005be8b       __ftol3_arg_error          0048ae8b f   MSVCRTD:ftol3.obj
 0002:0005be9d       __ftol3_except             0048ae9d f   MSVCRTD:ftol3.obj
 0002:0005bee1       __dtoui3                   0048aee1 f   MSVCRTD:ftol3.obj
 0002:0005bef0       __dtoul3                   0048aef0 f   MSVCRTD:ftol3.obj
 0002:0005beff       __dtol3                    0048aeff f   MSVCRTD:ftol3.obj
 0002:0005bf0c       __dtol3_NaN                0048af0c f   MSVCRTD:ftol3.obj
 0002:0005bf29       __dtol3_work               0048af29 f   MSVCRTD:ftol3.obj
 0002:0005c010       __ultod3                   0048b010 f   MSVCRTD:ftol3.obj
 0002:0005c050       __ltod3                    0048b050 f   MSVCRTD:ftol3.obj
 0002:0005c160       __ftol2_sse                0048b160 f   MSVCRTD:ftol2.obj
 0002:0005c169       __ftol2_pentium4           0048b169 f   MSVCRTD:ftol2.obj
 0002:0005c17c       __ftol2_sse_excpt          0048b17c f   MSVCRTD:ftol2.obj
 0002:0005c1a0       __ftol2                    0048b1a0 f   MSVCRTD:ftol2.obj
 0002:0005c250       __aullshr                  0048b250 f   MSVCRTD:ullshr.obj
 0002:0005c280       ??$__crt_fast_decode_pointer@PAP6AXXZ@@YAPAP6AXXZQAP6AXXZ@Z 0048b280 f i MSVCRTD:utility.obj
 0002:0005c2b0       ??$__crt_fast_encode_pointer@PAP6AXXZ@@YAPAP6AXXZQAP6AXXZ@Z 0048b2b0 f i MSVCRTD:utility.obj
 0002:0005c2f0       ?__crt_rotate_pointer_value@@YAIIH@Z 0048b2f0 f i MSVCRTD:utility.obj
 0002:0005c440       _NtCurrentTeb              0048b440 f i MSVCRTD:utility.obj
 0002:0005c450       ___scrt_acquire_startup_lock 0048b450 f   MSVCRTD:utility.obj
 0002:0005c4b0       ___scrt_dllmain_after_initialize_c 0048b4b0 f   MSVCRTD:utility.obj
 0002:0005c4f0       ___scrt_dllmain_before_initialize_c 0048b4f0 f   MSVCRTD:utility.obj
 0002:0005c520       ___scrt_dllmain_crt_thread_attach 0048b520 f   MSVCRTD:utility.obj
 0002:0005c560       ___scrt_dllmain_crt_thread_detach 0048b560 f   MSVCRTD:utility.obj
 0002:0005c580       ___scrt_dllmain_exception_filter 0048b580 f   MSVCRTD:utility.obj
 0002:0005c5e0       ___scrt_dllmain_uninitialize_c 0048b5e0 f   MSVCRTD:utility.obj
 0002:0005c620       ___scrt_dllmain_uninitialize_critical 0048b620 f   MSVCRTD:utility.obj
 0002:0005c640       ___scrt_initialize_crt     0048b640 f   MSVCRTD:utility.obj
 0002:0005c6a0       ___scrt_initialize_onexit_tables 0048b6a0 f   MSVCRTD:utility.obj
 0002:0005c7c0       ___scrt_is_nonwritable_in_current_image 0048b7c0 f   MSVCRTD:utility.obj
 0002:0005c940       ___scrt_release_startup_lock 0048b940 f   MSVCRTD:utility.obj
 0002:0005c970       ___scrt_uninitialize_crt   0048b970 f   MSVCRTD:utility.obj
 0002:0005c9c0       __onexit                   0048b9c0 f   MSVCRTD:utility.obj
 0002:0005ca50       _at_quick_exit             0048ba50 f   MSVCRTD:utility.obj
 0002:0005cab0       _atexit                    0048bab0 f   MSVCRTD:utility.obj
 0002:0005cb80       ___security_init_cookie    0048bb80 f   MSVCRTD:gs_support.obj
 0002:0005cc20       __matherr                  0048bc20 f   MSVCRTD:matherr.obj
 0002:0005cc30       __get_startup_argv_mode    0048bc30 f   MSVCRTD:argv_mode.obj
 0002:0005cc40       __get_startup_commit_mode  0048bc40 f   MSVCRTD:commit_mode.obj
 0002:0005cc50       __get_startup_file_mode    0048bc50 f   MSVCRTD:file_mode.obj
 0002:0005cc60       __get_startup_new_mode     0048bc60 f   MSVCRTD:new_mode.obj
 0002:0005cc70       __get_startup_thread_locale_mode 0048bc70 f   MSVCRTD:thread_locale.obj
 0002:0005cc80       ?__scrt_initialize_type_info@@YAXXZ 0048bc80 f   MSVCRTD:tncleanup.obj
 0002:0005cca0       ?__scrt_uninitialize_type_info@@YAXXZ 0048bca0 f   MSVCRTD:tncleanup.obj
 0002:0005ccc0       __should_initialize_environment 0048bcc0 f   MSVCRTD:env_mode.obj
 0002:0005ccd0       __initialize_default_precision 0048bcd0 f   MSVCRTD:default_precision.obj
 0002:0005cd00       __initialize_invalid_parameter_handler 0048bd00 f   MSVCRTD:invalid_parameter_handler.obj
 0002:0005cd10       __initialize_denormal_control 0048bd10 f   MSVCRTD:denormal_control.obj
 0002:0005cd20       ___scrt_initialize_default_local_stdio_options 0048bd20 f   MSVCRTD:default_local_stdio_options.obj
 0002:0005cd70       ___scrt_is_user_matherr_present 0048bd70 f   MSVCRTD:matherr_detection.obj
 0002:0005cda0       ___scrt_get_dyn_tls_init_callback 0048bda0 f   MSVCRTD:dyn_tls_init.obj
 0002:0005cdb0       ___scrt_get_dyn_tls_dtor_callback 0048bdb0 f   MSVCRTD:dyn_tls_dtor.obj
 0002:0005cdc0       ___scrt_fastfail           0048bdc0 f   MSVCRTD:utility_desktop.obj
 0002:0005cf50       ___scrt_get_show_window_mode 0048bf50 f   MSVCRTD:utility_desktop.obj
 0002:0005cfa0       ___scrt_initialize_mta     0048bfa0 f   MSVCRTD:utility_desktop.obj
 0002:0005cfb0       ___scrt_initialize_winrt   0048bfb0 f   MSVCRTD:utility_desktop.obj
 0002:0005cfc0       ___scrt_is_managed_app     0048bfc0 f   MSVCRTD:utility_desktop.obj
 0002:0005d070       ___scrt_set_unhandled_exception_filter 0048c070 f   MSVCRTD:utility_desktop.obj
 0002:0005d090       ___scrt_exe_initialize_mta 0048c090 f   MSVCRTD:utility_desktop.obj
 0002:0005d090       ___scrt_stub_for_initialize_mta 0048c090 f   MSVCRTD:utility_desktop.obj
 0002:0005d0a0       ___scrt_unhandled_exception_filter@4 0048c0a0 f   MSVCRTD:utility_desktop.obj
 0002:0005d120       __crt_debugger_hook        0048c120 f   MSVCRTD:utility_desktop.obj
 0002:0005d140       __RTC_Initialize           0048c140 f   MSVCRTD:initsect.obj
 0002:0005d180       __RTC_Terminate            0048c180 f   MSVCRTD:initsect.obj
 0002:0005d1c0       __except_handler4          0048c1c0 f   MSVCRTD:chandler4gs.obj
 0002:0005d1f0       @_guard_check_icall_nop@4  0048c1f0 f i MSVCRTD:guard_support.obj
 0002:0005d200       _ReadNoFence               0048c200 f i MSVCRTD:guard_support.obj
 0002:0005d220       _ReadPointerNoFence        0048c220 f i MSVCRTD:guard_support.obj
 0002:0005d240       __guard_icall_checks_enforced 0048c240 f i MSVCRTD:guard_support.obj
 0002:0005d280       ___isa_available_init      0048c280 f   MSVCRTD:cpu_disp.obj
 0002:0005d610       ___scrt_is_ucrt_dll_in_use 0048c610 f   MSVCRTD:ucrt_detection.obj
 0002:0005d63d       _waveOutGetErrorTextA@12   0048c63d f   winmm:WINMM.dll
 0002:0005d643       _waveInGetErrorTextA@12    0048c643 f   winmm:WINMM.dll
 0002:0005d649       _waveOutGetNumDevs@0       0048c649 f   winmm:WINMM.dll
 0002:0005d64f       _waveOutGetDevCapsA@12     0048c64f f   winmm:WINMM.dll
 0002:0005d655       _waveOutGetVolume@8        0048c655 f   winmm:WINMM.dll
 0002:0005d65b       _waveOutSetVolume@8        0048c65b f   winmm:WINMM.dll
 0002:0005d661       _waveOutOpen@24            0048c661 f   winmm:WINMM.dll
 0002:0005d667       _waveOutClose@4            0048c667 f   winmm:WINMM.dll
 0002:0005d66d       _waveOutPrepareHeader@12   0048c66d f   winmm:WINMM.dll
 0002:0005d673       _waveOutUnprepareHeader@12 0048c673 f   winmm:WINMM.dll
 0002:0005d679       _waveOutWrite@12           0048c679 f   winmm:WINMM.dll
 0002:0005d67f       _waveOutPause@4            0048c67f f   winmm:WINMM.dll
 0002:0005d685       _waveOutRestart@4          0048c685 f   winmm:WINMM.dll
 0002:0005d68b       _waveOutReset@4            0048c68b f   winmm:WINMM.dll
 0002:0005d691       _waveInGetNumDevs@0        0048c691 f   winmm:WINMM.dll
 0002:0005d697       _waveInGetDevCapsA@12      0048c697 f   winmm:WINMM.dll
 0002:0005d69d       _waveInOpen@24             0048c69d f   winmm:WINMM.dll
 0002:0005d6a3       _waveInClose@4             0048c6a3 f   winmm:WINMM.dll
 0002:0005d6a9       _waveInPrepareHeader@12    0048c6a9 f   winmm:WINMM.dll
 0002:0005d6af       _waveInUnprepareHeader@12  0048c6af f   winmm:WINMM.dll
 0002:0005d6b5       _waveInAddBuffer@12        0048c6b5 f   winmm:WINMM.dll
 0002:0005d6bb       _waveInStart@4             0048c6bb f   winmm:WINMM.dll
 0002:0005d6c1       _waveInStop@4              0048c6c1 f   winmm:WINMM.dll
 0002:0005d6c7       _waveInReset@4             0048c6c7 f   winmm:WINMM.dll
 0002:0005d6cd       _CloseHandle@4             0048c6cd f   kernel32:KERNEL32.dll
 0002:0005d6d3       _SetEvent@4                0048c6d3 f   kernel32:KERNEL32.dll
 0002:0005d6d9       _CreateEventA@16           0048c6d9 f   kernel32:KERNEL32.dll
 0002:0005d6df       _GetCurrentThread@0        0048c6df f   kernel32:KERNEL32.dll
 0002:0005d6e5       _SetThreadPriority@8       0048c6e5 f   kernel32:KERNEL32.dll
 0002:0005d6eb       _WaitForMultipleObjects@16 0048c6eb f   kernel32:KERNEL32.dll
 0002:0005d6f1       _GetStdHandle@4            0048c6f1 f   kernel32:KERNEL32.dll
 0002:0005d6f7       _GetLastError@0            0048c6f7 f   kernel32:KERNEL32.dll
 0002:0005d6fd       _InitializeCriticalSection@4 0048c6fd f   kernel32:KERNEL32.dll
 0002:0005d703       _EnterCriticalSection@4    0048c703 f   kernel32:KERNEL32.dll
 0002:0005d709       _LeaveCriticalSection@4    0048c709 f   kernel32:KERNEL32.dll
 0002:0005d70f       _TryEnterCriticalSection@4 0048c70f f   kernel32:KERNEL32.dll
 0002:0005d715       _DeleteCriticalSection@4   0048c715 f   kernel32:KERNEL32.dll
 0002:0005d71b       _ResetEvent@4              0048c71b f   kernel32:KERNEL32.dll
 0002:0005d721       _ReleaseSemaphore@12       0048c721 f   kernel32:KERNEL32.dll
 0002:0005d727       _WaitForSingleObject@8     0048c727 f   kernel32:KERNEL32.dll
 0002:0005d72d       _Sleep@4                   0048c72d f   kernel32:KERNEL32.dll
 0002:0005d733       _GetCurrentProcessId@0     0048c733 f   kernel32:KERNEL32.dll
 0002:0005d739       _CreateThread@24           0048c739 f   kernel32:KERNEL32.dll
 0002:0005d73f       _GetCurrentThreadId@0      0048c73f f   kernel32:KERNEL32.dll
 0002:0005d745       _GetThreadPriority@4       0048c745 f   kernel32:KERNEL32.dll
 0002:0005d74b       _ResumeThread@4            0048c74b f   kernel32:KERNEL32.dll
 0002:0005d751       _TlsAlloc@0                0048c751 f   kernel32:KERNEL32.dll
 0002:0005d757       _TlsGetValue@4             0048c757 f   kernel32:KERNEL32.dll
 0002:0005d75d       _TlsSetValue@8             0048c75d f   kernel32:KERNEL32.dll
 0002:0005d763       _TlsFree@4                 0048c763 f   kernel32:KERNEL32.dll
 0002:0005d769       _PulseEvent@4              0048c769 f   kernel32:KERNEL32.dll
 0002:0005d76f       _CreateSemaphoreA@16       0048c76f f   kernel32:KERNEL32.dll
 0002:0005d775       _GetConsoleScreenBufferInfo@8 0048c775 f   kernel32:KERNEL32.dll
 0002:0005d77b       _SetConsoleTextAttribute@8 0048c77b f   kernel32:KERNEL32.dll
 0002:0005d781       _SetLastError@4            0048c781 f   kernel32:KERNEL32.dll
 0002:0005d787       _FormatMessageA@28         0048c787 f   kernel32:KERNEL32.dll
 0002:0005d78d       _GetLocalTime@4            0048c78d f   kernel32:KERNEL32.dll
 0002:0005d793       _FileTimeToSystemTime@8    0048c793 f   kernel32:KERNEL32.dll
 0002:0005d799       _SystemTimeToFileTime@8    0048c799 f   kernel32:KERNEL32.dll
 0002:0005d79f       _CreateFileA@28            0048c79f f   kernel32:KERNEL32.dll
 0002:0005d7a5       _DeleteFileA@4             0048c7a5 f   kernel32:KERNEL32.dll
 0002:0005d7ab       _FileTimeToLocalFileTime@8 0048c7ab f   kernel32:KERNEL32.dll
 0002:0005d7b1       _GetFileSize@8             0048c7b1 f   kernel32:KERNEL32.dll
 0002:0005d7b7       _GetFileTime@16            0048c7b7 f   kernel32:KERNEL32.dll
 0002:0005d7bd       _MoveFileExA@12            0048c7bd f   kernel32:KERNEL32.dll
 0002:0005d7c3       _FlushFileBuffers@4        0048c7c3 f   kernel32:KERNEL32.dll
 0002:0005d7c9       _ReadFile@20               0048c7c9 f   kernel32:KERNEL32.dll
 0002:0005d7cf       _SetFilePointer@16         0048c7cf f   kernel32:KERNEL32.dll
 0002:0005d7d5       _WriteFile@20              0048c7d5 f   kernel32:KERNEL32.dll
 0002:0005d7db       _QueryPerformanceCounter@4 0048c7db f   kernel32:KERNEL32.dll
 0002:0005d7e1       _QueryPerformanceFrequency@4 0048c7e1 f   kernel32:KERNEL32.dll
 0002:0005d7e7       _FreeLibrary@4             0048c7e7 f   kernel32:KERNEL32.dll
 0002:0005d7ed       _GetProcAddress@8          0048c7ed f   kernel32:KERNEL32.dll
 0002:0005d7f3       _LoadLibraryA@4            0048c7f3 f   kernel32:KERNEL32.dll
 0002:0005d7f9       _UnhandledExceptionFilter@4 0048c7f9 f   kernel32:KERNEL32.dll
 0002:0005d7ff       _SetUnhandledExceptionFilter@4 0048c7ff f   kernel32:KERNEL32.dll
 0002:0005d805       _GetCurrentProcess@0       0048c805 f   kernel32:KERNEL32.dll
 0002:0005d80b       _TerminateProcess@8        0048c80b f   kernel32:KERNEL32.dll
 0002:0005d811       _IsProcessorFeaturePresent@4 0048c811 f   kernel32:KERNEL32.dll
 0002:0005d817       _GetSystemTimeAsFileTime@4 0048c817 f   kernel32:KERNEL32.dll
 0002:0005d81d       _InitializeSListHead@4     0048c81d f   kernel32:KERNEL32.dll
 0002:0005d823       _IsDebuggerPresent@0       0048c823 f   kernel32:KERNEL32.dll
 0002:0005d829       _GetStartupInfoW@4         0048c829 f   kernel32:KERNEL32.dll
 0002:0005d82f       _GetModuleHandleW@4        0048c82f f   kernel32:KERNEL32.dll
 0002:0005d835       _memcpy                    0048c835 f   vcruntimed:VCRUNTIME140D.dll
 0002:0005d83b       _memset                    0048c83b f   vcruntimed:VCRUNTIME140D.dll
 0002:0005d841       __setjmp3                  0048c841 f   vcruntimed:VCRUNTIME140D.dll
 0002:0005d847       _memmove                   0048c847 f   vcruntimed:VCRUNTIME140D.dll
 0002:0005d84d       _memchr                    0048c84d f   vcruntimed:VCRUNTIME140D.dll
 0002:0005d853       _strchr                    0048c853 f   vcruntimed:VCRUNTIME140D.dll
 0002:0005d859       _memcmp                    0048c859 f   vcruntimed:VCRUNTIME140D.dll
 0002:0005d85f       _longjmp                   0048c85f f   vcruntimed:VCRUNTIME140D.dll
 0002:0005d865       ___std_type_info_destroy_list 0048c865 f   vcruntimed:VCRUNTIME140D.dll
 0002:0005d86b       __except_handler4_common   0048c86b f   vcruntimed:VCRUNTIME140D.dll
 0002:0005d871       ___acrt_iob_func           0048c871 f   ucrtd:ucrtbased.dll
 0002:0005d877       _fgets                     0048c877 f   ucrtd:ucrtbased.dll
 0002:0005d87d       _puts                      0048c87d f   ucrtd:ucrtbased.dll
 0002:0005d883       ___stdio_common_vfprintf   0048c883 f   ucrtd:ucrtbased.dll
 0002:0005d889       _atoi                      0048c889 f   ucrtd:ucrtbased.dll
 0002:0005d88f       _strtol                    0048c88f f   ucrtd:ucrtbased.dll
 0002:0005d895       __wassert                  0048c895 f   ucrtd:ucrtbased.dll
 0002:0005d89b       _strlen                    0048c89b f   ucrtd:ucrtbased.dll
 0002:0005d8a1       ___stdio_common_vsprintf   0048c8a1 f   ucrtd:ucrtbased.dll
 0002:0005d8a7       _strcpy                    0048c8a7 f   ucrtd:ucrtbased.dll
 0002:0005d8ad       _strncpy                   0048c8ad f   ucrtd:ucrtbased.dll
 0002:0005d8b3       __stricmp                  0048c8b3 f   ucrtd:ucrtbased.dll
 0002:0005d8b9       _isdigit                   0048c8b9 f   ucrtd:ucrtbased.dll
 0002:0005d8bf       _cos                       0048c8bf f   ucrtd:ucrtbased.dll
 0002:0005d8c5       _strcmp                    0048c8c5 f   ucrtd:ucrtbased.dll
 0002:0005d8cb       _strncmp                   0048c8cb f   ucrtd:ucrtbased.dll
 0002:0005d8d1       _isxdigit                  0048c8d1 f   ucrtd:ucrtbased.dll
 0002:0005d8d7       __strnicmp                 0048c8d7 f   ucrtd:ucrtbased.dll
 0002:0005d8dd       _free                      0048c8dd f   ucrtd:ucrtbased.dll
 0002:0005d8e3       _malloc                    0048c8e3 f   ucrtd:ucrtbased.dll
 0002:0005d8e9       _isspace                   0048c8e9 f   ucrtd:ucrtbased.dll
 0002:0005d8ef       _fmod                      0048c8ef f   ucrtd:ucrtbased.dll
 0002:0005d8f5       _srand                     0048c8f5 f   ucrtd:ucrtbased.dll
 0002:0005d8fb       _rand                      0048c8fb f   ucrtd:ucrtbased.dll
 0002:0005d901       _calloc                    0048c901 f   ucrtd:ucrtbased.dll
 0002:0005d907       _exp                       0048c907 f   ucrtd:ucrtbased.dll
 0002:0005d90d       _sqrt                      0048c90d f   ucrtd:ucrtbased.dll
 0002:0005d913       _fabs                      0048c913 f   ucrtd:ucrtbased.dll
 0002:0005d919       _log                       0048c919 f   ucrtd:ucrtbased.dll
 0002:0005d91f       _pow                       0048c91f f   ucrtd:ucrtbased.dll
 0002:0005d925       _floor                     0048c925 f   ucrtd:ucrtbased.dll
 0002:0005d92b       _atan                      0048c92b f   ucrtd:ucrtbased.dll
 0002:0005d931       _sin                       0048c931 f   ucrtd:ucrtbased.dll
 0002:0005d937       ___stdio_common_vsscanf    0048c937 f   ucrtd:ucrtbased.dll
 0002:0005d93d       _clock                     0048c93d f   ucrtd:ucrtbased.dll
 0002:0005d943       _exit                      0048c943 f   ucrtd:ucrtbased.dll
 0002:0005d949       __seh_filter_exe           0048c949 f   ucrtd:ucrtbased.dll
 0002:0005d94f       __set_app_type             0048c94f f   ucrtd:ucrtbased.dll
 0002:0005d955       ___setusermatherr          0048c955 f   ucrtd:ucrtbased.dll
 0002:0005d95b       __configure_narrow_argv    0048c95b f   ucrtd:ucrtbased.dll
 0002:0005d961       __initialize_narrow_environment 0048c961 f   ucrtd:ucrtbased.dll
 0002:0005d967       __get_initial_narrow_environment 0048c967 f   ucrtd:ucrtbased.dll
 0002:0005d96d       __initterm                 0048c96d f   ucrtd:ucrtbased.dll
 0002:0005d973       __initterm_e               0048c973 f   ucrtd:ucrtbased.dll
 0002:0005d979       __exit                     0048c979 f   ucrtd:ucrtbased.dll
 0002:0005d97f       __set_fmode                0048c97f f   ucrtd:ucrtbased.dll
 0002:0005d985       ___p___argc                0048c985 f   ucrtd:ucrtbased.dll
 0002:0005d98b       ___p___argv                0048c98b f   ucrtd:ucrtbased.dll
 0002:0005d991       __cexit                    0048c991 f   ucrtd:ucrtbased.dll
 0002:0005d997       __c_exit                   0048c997 f   ucrtd:ucrtbased.dll
 0002:0005d99d       __register_thread_local_exe_atexit_callback 0048c99d f   ucrtd:ucrtbased.dll
 0002:0005d9a3       __configthreadlocale       0048c9a3 f   ucrtd:ucrtbased.dll
 0002:0005d9a9       __set_new_mode             0048c9a9 f   ucrtd:ucrtbased.dll
 0002:0005d9af       ___p__commode              0048c9af f   ucrtd:ucrtbased.dll
 0002:0005d9b5       __except1                  0048c9b5 f   ucrtd:ucrtbased.dll
 0002:0005d9bb       __seh_filter_dll           0048c9bb f   ucrtd:ucrtbased.dll
 0002:0005d9c1       __initialize_onexit_table  0048c9c1 f   ucrtd:ucrtbased.dll
 0002:0005d9c7       __register_onexit_function 0048c9c7 f   ucrtd:ucrtbased.dll
 0002:0005d9cd       __execute_onexit_table     0048c9cd f   ucrtd:ucrtbased.dll
 0002:0005d9d3       __crt_atexit               0048c9d3 f   ucrtd:ucrtbased.dll
 0002:0005d9d9       __crt_at_quick_exit        0048c9d9 f   ucrtd:ucrtbased.dll
 0002:0005d9df       __controlfp_s              0048c9df f   ucrtd:ucrtbased.dll
 0002:0005d9e5       _terminate                 0048c9e5 f   ucrtd:ucrtbased.dll
 0002:0005d9f0       ___vcrt_initialize         0048c9f0 f   MSVCRTD:ucrt_stubs.obj
 0002:0005d9f0       ___acrt_initialize         0048c9f0 f   MSVCRTD:ucrt_stubs.obj
 0002:0005d9f0       ___scrt_stub_for_acrt_initialize 0048c9f0 f   MSVCRTD:ucrt_stubs.obj
 0002:0005da00       ___scrt_stub_for_acrt_thread_attach 0048ca00 f   MSVCRTD:ucrt_stubs.obj
 0002:0005da00       ___vcrt_thread_attach      0048ca00 f   MSVCRTD:ucrt_stubs.obj
 0002:0005da00       ___acrt_thread_attach      0048ca00 f   MSVCRTD:ucrt_stubs.obj
 0002:0005da10       ___scrt_stub_for_acrt_thread_detach 0048ca10 f   MSVCRTD:ucrt_stubs.obj
 0002:0005da10       ___acrt_thread_detach      0048ca10 f   MSVCRTD:ucrt_stubs.obj
 0002:0005da10       ___vcrt_thread_detach      0048ca10 f   MSVCRTD:ucrt_stubs.obj
 0002:0005da20       ___acrt_uninitialize       0048ca20 f   MSVCRTD:ucrt_stubs.obj
 0002:0005da20       ___scrt_stub_for_acrt_uninitialize 0048ca20 f   MSVCRTD:ucrt_stubs.obj
 0002:0005da20       ___vcrt_uninitialize       0048ca20 f   MSVCRTD:ucrt_stubs.obj
 0002:0005da30       ___acrt_uninitialize_critical 0048ca30 f   MSVCRTD:ucrt_stubs.obj
 0002:0005da30       ___vcrt_uninitialize_critical 0048ca30 f   MSVCRTD:ucrt_stubs.obj
 0002:0005da30       ___scrt_stub_for_acrt_uninitialize_critical 0048ca30 f   MSVCRTD:ucrt_stubs.obj
 0002:0005da40       __is_c_termination_complete 0048ca40 f   MSVCRTD:ucrt_stubs.obj
 0002:0005da40       ___scrt_stub_for_is_c_termination_complete 0048ca40 f   MSVCRTD:ucrt_stubs.obj
 0003:00000000       ___xc_a                    00490000     MSVCRTD:initializers.obj
 0003:00000208       ___xc_z                    00490208     MSVCRTD:initializers.obj
 0003:0000030c       ___xi_a                    0049030c     MSVCRTD:initializers.obj
 0003:00000618       ___xi_z                    00490618     MSVCRTD:initializers.obj
 0003:0000071c       ___xp_a                    0049071c     MSVCRTD:initializers.obj
 0003:00000820       ___xp_z                    00490820     MSVCRTD:initializers.obj
 0003:00000924       ___xt_a                    00490924     MSVCRTD:initializers.obj
 0003:00000a28       ___xt_z                    00490a28     MSVCRTD:initializers.obj
 0003:00000b30       ??_C@_1HO@DHEIMHMF@?$AAd?$AA?3?$AA?2?$AAp?$AAj?$AAs?$AAi?$AAp?$AA?2?$AAp?$AAj?$AAp?$AAr?$AAo?$AAj@ 00490b30     pjmedia-audiodev-i386-win32-vc8-debug-dynamic:audiodev.obj
 0003:00000bc8       ??_C@_1CK@CNMBOKKG@?$AAs?$AAt?$AAa?$AAt?$AAu?$AAs?$AA?5?$AA?$DN?$AA?$DN?$AA?5?$AAP?$AAJ?$AA_?$AAS?$AAU@ 00490bc8     pjmedia-audiodev-i386-win32-vc8-debug-dynamic:audiodev.obj
 0003:00000c74       ??_C@_0DC@MHBBCDGM@Unspecified?5audio?5device?5error?5@ 00490c74     pjmedia-audiodev-i386-win32-vc8-debug-dynamic:errno.obj
 0003:00000cb0       ??_C@_0DG@FEDKLOFB@Unknown?5error?5from?5audio?5driver@ 00490cb0     pjmedia-audiodev-i386-win32-vc8-debug-dynamic:errno.obj
 0003:00000cf0       ??_C@_0DE@DOHCBKFK@Audio?5subsystem?5not?5initialized@ 00490cf0     pjmedia-audiodev-i386-win32-vc8-debug-dynamic:errno.obj
 0003:00000d30       ??_C@_0CL@NCBJPCNF@Invalid?5audio?5device?5?$CIPJMEDIA_E@ 00490d30     pjmedia-audiodev-i386-win32-vc8-debug-dynamic:errno.obj
 0003:00000d64       ??_C@_0CM@LOPLLMHO@Found?5no?5audio?5devices?5?$CIPJMEDIA@ 00490d64     pjmedia-audiodev-i386-win32-vc8-debug-dynamic:errno.obj
 0003:00000d98       ??_C@_0DM@DPDKGMIE@Unable?5to?5find?5default?5audio?5de@ 00490d98     pjmedia-audiodev-i386-win32-vc8-debug-dynamic:errno.obj
 0003:00000de0       ??_C@_0CP@JIPJOIMB@Audio?5device?5not?5ready?5?$CIPJMEDIA@ 00490de0     pjmedia-audiodev-i386-win32-vc8-debug-dynamic:errno.obj
 0003:00000e18       ??_C@_0DO@NMIGLFFA@Invalid?5or?5unsupported?5audio?5ca@ 00490e18     pjmedia-audiodev-i386-win32-vc8-debug-dynamic:errno.obj
 0003:00000e68       ??_C@_0ED@PLJALPOA@Invalid?5or?5unsupported?5audio?5de@ 00490e68     pjmedia-audiodev-i386-win32-vc8-debug-dynamic:errno.obj
 0003:00000eb8       ??_C@_0DM@JKDJGBNG@Bad?5or?5invalid?5audio?5device?5for@ 00490eb8     pjmedia-audiodev-i386-win32-vc8-debug-dynamic:errno.obj
 0003:00000f00       ??_C@_0DN@BLAJILEA@Invalid?5audio?5device?5sample?5for@ 00490f00     pjmedia-audiodev-i386-win32-vc8-debug-dynamic:errno.obj
 0003:00000f4c       ??_C@_0DE@LJJGJIEF@Bad?5audio?5latency?5setting?5?$CIPJME@ 00490f4c     pjmedia-audiodev-i386-win32-vc8-debug-dynamic:errno.obj
 0003:00000f8c       ??_C@_0BJ@GMHLEOAL@MMSYSTEM?5native?5error?5?$CFd@ 00490f8c     pjmedia-audiodev-i386-win32-vc8-debug-dynamic:errno.obj
 0003:00000fac       ??_C@_0CC@MFOJNIAN@Unknown?5pjmedia?9audiodev?5error?5@ 00490fac     pjmedia-audiodev-i386-win32-vc8-debug-dynamic:errno.obj
 0003:00000fd4       ??_C@_09OFDCJLJM@WMME?5base@ 00490fd4     pjmedia-audiodev-i386-win32-vc8-debug-dynamic:wmme_dev.obj
 0003:00000fe0       ??_C@_0M@KBHHDDLP@Wave?5mapper@ 00490fe0     pjmedia-audiodev-i386-win32-vc8-debug-dynamic:wmme_dev.obj
 0003:00000ff0       ??_C@_04CPNMDOAK@WMME@     00490ff0     pjmedia-audiodev-i386-win32-vc8-debug-dynamic:wmme_dev.obj
 0003:00000ff8       ??_C@_0BB@EOKKHGLD@WMME?5initialized@ 00490ff8     pjmedia-audiodev-i386-win32-vc8-debug-dynamic:wmme_dev.obj
 0003:0000100c       ??_C@_0L@HHCCMOGO@wmme_dev?4c@ 0049100c     pjmedia-audiodev-i386-win32-vc8-debug-dynamic:wmme_dev.obj
 0003:0000101c       ??_C@_0BM@OMJMEAMB@WMME?5found?5no?5sound?5devices@ 0049101c     pjmedia-audiodev-i386-win32-vc8-debug-dynamic:wmme_dev.obj
 0003:00001040       ??_C@_11LOCGONAA@@         00491040     pjmedia-audiodev-i386-win32-vc8-debug-dynamic:wmme_dev.obj
 0003:00001044       ??_C@_0BH@GEMAAOCL@WMME?5found?5?$CFd?5devices?3@ 00491044     pjmedia-audiodev-i386-win32-vc8-debug-dynamic:wmme_dev.obj
 0003:00001060       ??_C@_0CA@NLJGEGOG@?5dev_id?5?$CFd?3?5?$CFs?5?5?$CIin?$DN?$CFd?0?5out?$DN?$CFd?$CJ@ 00491060     pjmedia-audiodev-i386-win32-vc8-debug-dynamic:wmme_dev.obj
 0003:00001088       ??_C@_1HO@GFKECFAC@?$AAd?$AA?3?$AA?2?$AAp?$AAj?$AAs?$AAi?$AAp?$AA?2?$AAp?$AAj?$AAp?$AAr?$AAo?$AAj@ 00491088     pjmedia-audiodev-i386-win32-vc8-debug-dynamic:wmme_dev.obj
 0003:00001120       ??_C@_1CM@DCIMFEME@?$AAi?$AAn?$AAd?$AAe?$AAx?$AA?5?$AA?$DM?$AA?5?$AAw?$AAf?$AA?9?$AA?$DO?$AAd?$AAe?$AAv@ 00491120     pjmedia-audiodev-i386-win32-vc8-debug-dynamic:wmme_dev.obj
 0003:00001154       ??_C@_03CCLNCNJA@PCM@      00491154     pjmedia-audiodev-i386-win32-vc8-debug-dynamic:wmme_dev.obj
 0003:00001158       ??_C@_1EE@KABDJHEG@?$AAp?$AAr?$AAm?$AA?9?$AA?$DO?$AAp?$AAl?$AAa?$AAy?$AA_?$AAi?$AAd?$AA?5?$AA?$DM?$AA?5@ 00491158     pjmedia-audiodev-i386-win32-vc8-debug-dynamic:wmme_dev.obj
 0003:000011b0       ??_C@_0HB@MKIBCFPJ@?5WaveAPI?5Sound?5player?5?$CC?$CFs?$CC?5init@ 004911b0     pjmedia-audiodev-i386-win32-vc8-debug-dynamic:wmme_dev.obj
 0003:00001238       ??_C@_1EC@CICBGNKJ@?$AAp?$AAr?$AAm?$AA?9?$AA?$DO?$AAr?$AAe?$AAc?$AA_?$AAi?$AAd?$AA?5?$AA?$DM?$AA?5?$AA?$CI@ 00491238     pjmedia-audiodev-i386-win32-vc8-debug-dynamic:wmme_dev.obj
 0003:00001288       ??_C@_0HD@PIICIPL@?5WaveAPI?5Sound?5recorder?5?$CC?$CFs?$CC?5in@ 00491288     pjmedia-audiodev-i386-win32-vc8-debug-dynamic:wmme_dev.obj
 0003:00001314       ??_C@_0BJ@JGIOJGMH@Frame?5type?5not?5supported@ 00491314     pjmedia-audiodev-i386-win32-vc8-debug-dynamic:wmme_dev.obj
 0003:00001334       ??_C@_1DI@LANCDOGM@?$AA?$CB?$AA?$CC?$AAF?$AAr?$AAa?$AAm?$AAe?$AA?5?$AAt?$AAy?$AAp?$AAe?$AA?5?$AAn?$AAo@ 00491334     pjmedia-audiodev-i386-win32-vc8-debug-dynamic:wmme_dev.obj
 0003:00001378       ??_C@_0BI@BEJPJEBJ@WMME?3?5thread?5stopping?4?4@ 00491378     pjmedia-audiodev-i386-win32-vc8-debug-dynamic:wmme_dev.obj
 0003:00001394       ??_C@_08MOOOBPLB@wmme?9dev@ 00491394     pjmedia-audiodev-i386-win32-vc8-debug-dynamic:wmme_dev.obj
 0003:000013a0       ??_C@_1CI@KPEGEECM@?$AAp?$AAo?$AAo?$AAl?$AA?5?$AA?$CB?$AA?$DN?$AA?5?$AA?$CI?$AA?$CI?$AAv?$AAo?$AAi?$AAd?$AA?5@ 004913a0     pjmedia-audiodev-i386-win32-vc8-debug-dynamic:wmme_dev.obj
 0003:000013d0       ??_C@_04ODOGNMHC@wmme@     004913d0     pjmedia-audiodev-i386-win32-vc8-debug-dynamic:wmme_dev.obj
 0003:000013d8       ??_C@_1BG@DEEBDKCH@?$AAs?$AAt?$AAr?$AAm?$AA?5?$AA?$CG?$AA?$CG?$AA?5?$AAp?$AAi@ 004913d8     pjmedia-audiodev-i386-win32-vc8-debug-dynamic:wmme_dev.obj
 0003:000013f4       ??_C@_1BE@IKBALJHE@?$AAs?$AA?5?$AA?$CG?$AA?$CG?$AA?5?$AAp?$AAv?$AAa?$AAl@ 004913f4     pjmedia-audiodev-i386-win32-vc8-debug-dynamic:wmme_dev.obj
 0003:0000140c       ??_C@_0BN@MNACKNIN@WMME?5playback?5stream?5started@ 0049140c     pjmedia-audiodev-i386-win32-vc8-debug-dynamic:wmme_dev.obj
 0003:00001430       ??_C@_0BM@NKDLICNM@WMME?5capture?5stream?5started@ 00491430     pjmedia-audiodev-i386-win32-vc8-debug-dynamic:wmme_dev.obj
 0003:00001454       ??_C@_1CM@EEPLMOAE@?$AAs?$AAt?$AAr?$AAe?$AAa?$AAm?$AA?5?$AA?$CB?$AA?$DN?$AA?5?$AA?$CI?$AA?$CI?$AAv?$AAo?$AAi@ 00491454     pjmedia-audiodev-i386-win32-vc8-debug-dynamic:wmme_dev.obj
 0003:00001488       ??_C@_0BN@FMJNHCPG@Stopped?5WMME?5playback?5stream@ 00491488     pjmedia-audiodev-i386-win32-vc8-debug-dynamic:wmme_dev.obj
 0003:000014ac       ??_C@_0BM@KCHDOGNE@Stopped?5WMME?5capture?5stream@ 004914ac     pjmedia-audiodev-i386-win32-vc8-debug-dynamic:wmme_dev.obj
 0003:000014d0       ??_C@_1GE@LGDOAAMD@?$AAd?$AA?3?$AA?2?$AAp?$AAj?$AAs?$AAi?$AAp?$AA?2?$AAp?$AAj?$AAp?$AAr?$AAo?$AAj@ 004914d0     pjmedia-i386-win32-vc8-debug-dynamic:port.obj
 0003:00001548       ??_C@_1BM@GBCEPKLE@?$AAp?$AAo?$AAr?$AAt?$AA?5?$AA?$CG?$AA?$CG?$AA?5?$AAf?$AAr?$AAa?$AAm?$AAe@ 00491548     pjmedia-i386-win32-vc8-debug-dynamic:port.obj
 0003:0000156c       ??_C@_19EBEADLAH@?$AAp?$AAo?$AAr?$AAt@ 0049156c     pjmedia-i386-win32-vc8-debug-dynamic:port.obj
 0003:000015b4       ??_C@_02BBAPPCCJ@IN@       004915b4     pjmedia-i386-win32-vc8-debug-dynamic:endpoint.obj
 0003:000015b8       ??_C@_03OPDBOKBD@IP4@      004915b8     pjmedia-i386-win32-vc8-debug-dynamic:endpoint.obj
 0003:000015bc       ??_C@_03NNAHIIJB@IP6@      004915bc     pjmedia-i386-win32-vc8-debug-dynamic:endpoint.obj
 0003:000015c0       ??_C@_07OEHJJJKF@RTP?1AVP@ 004915c0     pjmedia-i386-win32-vc8-debug-dynamic:endpoint.obj
 0003:000015cc       ??_C@_07HDFHIMAJ@pjmedia@  004915cc     pjmedia-i386-win32-vc8-debug-dynamic:endpoint.obj
 0003:000015d8       ??_C@_08LMCBNPPN@sendrecv@ 004915d8     pjmedia-i386-win32-vc8-debug-dynamic:endpoint.obj
 0003:000015e8       ??_C@_1GM@ODKJJIIE@?$AAd?$AA?3?$AA?2?$AAp?$AAj?$AAs?$AAi?$AAp?$AA?2?$AAp?$AAj?$AAp?$AAr?$AAo?$AAj@ 004915e8     pjmedia-i386-win32-vc8-debug-dynamic:endpoint.obj
 0003:0000166c       ??_C@_1BM@OGBIIDDA@?$AAp?$AAf?$AA?5?$AA?$CG?$AA?$CG?$AA?5?$AAp?$AA_?$AAe?$AAn?$AAd?$AAp?$AAt@ 0049166c     pjmedia-i386-win32-vc8-debug-dynamic:endpoint.obj
 0003:00001690       ??_C@_1CC@JIGJPFHP@?$AAw?$AAo?$AAr?$AAk?$AAe?$AAr?$AA_?$AAc?$AAn?$AAt?$AA?5?$AA?$DM?$AA?$DN?$AA?5?$AA1@ 00491690     pjmedia-i386-win32-vc8-debug-dynamic:endpoint.obj
 0003:000016b8       ??_C@_07LBNDIDNE@med?9ept@ 004916b8     pjmedia-i386-win32-vc8-debug-dynamic:endpoint.obj
 0003:000016c8       ??_C@_0EL@BIFHLACC@Warning?3?5no?5worker?5thread?5is?5cr@ 004916c8     pjmedia-i386-win32-vc8-debug-dynamic:endpoint.obj
 0003:00001724       ??_C@_0L@DLFDMOGF@endpoint?4c@ 00491724     pjmedia-i386-win32-vc8-debug-dynamic:endpoint.obj
 0003:00001734       ??_C@_05CECBHAPI@media@    00491734     pjmedia-i386-win32-vc8-debug-dynamic:endpoint.obj
 0003:0000173c       ??_C@_1M@EACLICAA@?$AAe?$AAn?$AAd?$AAp?$AAt@ 0049173c     pjmedia-i386-win32-vc8-debug-dynamic:endpoint.obj
 0003:0000174c       ??_C@_1DE@FPNJNJGM@?$AAi?$AAn?$AAd?$AAe?$AAx?$AA?5?$AA?$DM?$AA?5?$AAe?$AAn?$AAd?$AAp?$AAt?$AA?9?$AA?$DO@ 0049174c     pjmedia-i386-win32-vc8-debug-dynamic:endpoint.obj
 0003:0000178c       ??_C@_1CK@LGNMMEDO@?$AAe?$AAn?$AAd?$AAp?$AAt?$AA?5?$AA?$CB?$AA?$DN?$AA?5?$AA?$CI?$AA?$CI?$AAv?$AAo?$AAi?$AAd@ 0049178c     pjmedia-i386-win32-vc8-debug-dynamic:endpoint.obj
 0003:000017c0       ??_C@_1JE@HCLFLOKE@?$AAa?$AAd?$AAd?$AAr?$AA?9?$AA?$DO?$AAa?$AAd?$AAd?$AAr?$AA?4?$AAs?$AAa?$AA_?$AAf@ 004917c0     pjmedia-i386-win32-vc8-debug-dynamic:endpoint.obj
 0003:00001874       ??_C@_05KNIAAKIP@audio@    00491874     pjmedia-i386-win32-vc8-debug-dynamic:endpoint.obj
 0003:00001880       ??_C@_1EC@FHIDABHP@?$AAe?$AAn?$AAd?$AAp?$AAt?$AA?9?$AA?$DO?$AAc?$AAo?$AAd?$AAe?$AAc?$AA_?$AAm?$AAg@ 00491880     pjmedia-i386-win32-vc8-debug-dynamic:endpoint.obj
 0003:000018d0       ??_C@_1DK@OFJDILED@?$AAc?$AAo?$AAd?$AAe?$AAc?$AA_?$AAi?$AAn?$AAf?$AAo?$AA?9?$AA?$DO?$AAc?$AAh?$AAa@ 004918d0     pjmedia-i386-win32-vc8-debug-dynamic:endpoint.obj
 0003:00001915       ??_C@_00CNPNBAHC@@         00491915     pjmedia-i386-win32-vc8-debug-dynamic:endpoint.obj
 0003:00001918       ??_C@_02DPKJAMEF@?$CFd@    00491918     pjmedia-i386-win32-vc8-debug-dynamic:endpoint.obj
 0003:0000191c       ??_C@_01CLKCMJKC@?5@       0049191c     pjmedia-i386-win32-vc8-debug-dynamic:endpoint.obj
 0003:00001920       ??_C@_01ICJEACDI@?$DL@     00491920     pjmedia-i386-win32-vc8-debug-dynamic:endpoint.obj
 0003:00001924       ??_C@_09IKOEDHAN@?$CF?4?$CKs?$DN?$CF?4?$CKs@ 00491924     pjmedia-i386-win32-vc8-debug-dynamic:endpoint.obj
 0003:00001930       ??_C@_04EBNJJJJI@?$CF?4?$CKs@ 00491930     pjmedia-i386-win32-vc8-debug-dynamic:endpoint.obj
 0003:00001938       ??_C@_04JKCEBMKL@fmtp@     00491938     pjmedia-i386-win32-vc8-debug-dynamic:endpoint.obj
 0003:00001940       ??_C@_02KCBIGJIH@96@       00491940     pjmedia-i386-win32-vc8-debug-dynamic:endpoint.obj
 0003:00001944       ??_C@_06NPGDLJKE@rtpmap@   00491944     pjmedia-i386-win32-vc8-debug-dynamic:endpoint.obj
 0003:0000194c       ??_C@_0BI@MJDIOLFC@96?5telephone?9event?18000@ 0049194c     pjmedia-i386-win32-vc8-debug-dynamic:endpoint.obj
 0003:00001968       ??_C@_07JDIMCMCJ@96?50?916@ 00491968     pjmedia-i386-win32-vc8-debug-dynamic:endpoint.obj
 0003:00001974       ??_C@_04PCJMJPDO@TIAS@     00491974     pjmedia-i386-win32-vc8-debug-dynamic:endpoint.obj
 0003:0000197c       ??_C@_1CO@HNJEPJHN@?$AAe?$AAn?$AAd?$AAp?$AAt?$AA?5?$AA?$CG?$AA?$CG?$AA?5?$AAp?$AAo?$AAo?$AAl?$AA?5?$AA?$CG@ 0049197c     pjmedia-i386-win32-vc8-debug-dynamic:endpoint.obj
 0003:000019b4       ??_C@_01JOAMLHOP@?9@       004919b4     pjmedia-i386-win32-vc8-debug-dynamic:endpoint.obj
 0003:000019b8       ??_C@_0BH@FKKILFGM@Invalid?5address?5family@ 004919b8     pjmedia-i386-win32-vc8-debug-dynamic:endpoint.obj
 0003:000019d4       ??_C@_1DE@IHJPNLLP@?$AA?$CB?$AA?$CC?$AAI?$AAn?$AAv?$AAa?$AAl?$AAi?$AAd?$AA?5?$AAa?$AAd?$AAd?$AAr?$AAe@ 004919d4     pjmedia-i386-win32-vc8-debug-dynamic:endpoint.obj
 0003:00001a18       ??_C@_1EK@OMFKIODI@?$AAe?$AAn?$AAd?$AAp?$AAt?$AA?5?$AA?$CG?$AA?$CG?$AA?5?$AAp?$AAo?$AAo?$AAl?$AA?5?$AA?$CG@ 00491a18     pjmedia-i386-win32-vc8-debug-dynamic:endpoint.obj
 0003:00001a70       ??_C@_1CA@OOFGDMNP@?$AAs?$AAt?$AAr?$AAe?$AAa?$AAm?$AA_?$AAc?$AAn?$AAt?$AA?5?$AA?$DM?$AA?5?$AA1?$AA6@ 00491a70     pjmedia-i386-win32-vc8-debug-dynamic:endpoint.obj
 0003:00001a98       ??_C@_06NJDNEAKN@?$CFd?4?$CFdK@ 00491a98     pjmedia-i386-win32-vc8-debug-dynamic:endpoint.obj
 0003:00001aa0       ??_C@_08LMNIIOKA@?$CFd?4?$CF02dM@ 00491aa0     pjmedia-i386-win32-vc8-debug-dynamic:endpoint.obj
 0003:00001aac       ??_C@_0BO@DJCACKHJ@Dumping?5PJMEDIA?5capabilities?3@ 00491aac     pjmedia-i386-win32-vc8-debug-dynamic:endpoint.obj
 0003:00001ad0       ??_C@_0BP@LIKCCMEP@?5?9error?3?5failed?5to?5enum?5codecs@ 00491ad0     pjmedia-i386-win32-vc8-debug-dynamic:endpoint.obj
 0003:00001af8       ??_C@_0CH@IFCBLLJF@?5?5Total?5number?5of?5installed?5cod@ 00491af8     pjmedia-i386-win32-vc8-debug-dynamic:endpoint.obj
 0003:00001b28       ??_C@_05KKCMAPLJ@Audio@    00491b28     pjmedia-i386-win32-vc8-debug-dynamic:endpoint.obj
 0003:00001b30       ??_C@_05BIPFLOHN@Video@    00491b30     pjmedia-i386-win32-vc8-debug-dynamic:endpoint.obj
 0003:00001b38       ??_C@_0N@DGOCBNGP@Unknown?5type@ 00491b38     pjmedia-i386-win32-vc8-debug-dynamic:endpoint.obj
 0003:00001b48       ??_C@_09FOKECCNG@?5disabled@ 00491b48     pjmedia-i386-win32-vc8-debug-dynamic:endpoint.obj
 0003:00001b54       ??_C@_05FDNGLLBB@?5penh@   00491b54     pjmedia-i386-win32-vc8-debug-dynamic:endpoint.obj
 0003:00001b5c       ??_C@_04JMDOINFK@?5plc@    00491b5c     pjmedia-i386-win32-vc8-debug-dynamic:endpoint.obj
 0003:00001b64       ??_C@_04LJHKGEEB@?5cng@    00491b64     pjmedia-i386-win32-vc8-debug-dynamic:endpoint.obj
 0003:00001b6c       ??_C@_04POMMNHBC@?5vad@    00491b6c     pjmedia-i386-win32-vc8-debug-dynamic:endpoint.obj
 0003:00001b78       ??_C@_0EA@ILGHOPII@?5?5?5?$CFs?5codec?5?$CD?$CF2d?3?5pt?$DN?$CFd?5?$CI?$CF?4?$CKs?5?$EA@ 00491b78     pjmedia-i386-win32-vc8-debug-dynamic:endpoint.obj
 0003:00001bc4       ??_C@_1BM@MOILAMIP@?$AAe?$AAn?$AAd?$AAp?$AAt?$AA?5?$AA?$CG?$AA?$CG?$AA?5?$AAf?$AAu?$AAn?$AAc@ 00491bc4     pjmedia-i386-win32-vc8-debug-dynamic:endpoint.obj
 0003:00001be8       ??_C@_1HA@MKCLEMED@?$AAd?$AA?3?$AA?2?$AAp?$AAj?$AAs?$AAi?$AAp?$AA?2?$AAp?$AAj?$AAp?$AAr?$AAo?$AAj@ 00491be8     pjmedia-i386-win32-vc8-debug-dynamic:sound_port.obj
 0003:00001c70       ??_C@_1DK@BPIBFMDG@?$AAf?$AAr?$AAa?$AAm?$AAe?$AA?9?$AA?$DO?$AAs?$AAi?$AAz?$AAe?$AA?5?$AA?$DN?$AA?$DN?$AA?5@ 00491c70     pjmedia-i386-win32-vc8-debug-dynamic:sound_port.obj
 0003:00001cb8       ??_C@_0N@COEOBFOD@EC?5activated@ 00491cb8     pjmedia-i386-win32-vc8-debug-dynamic:sound_port.obj
 0003:00001cc8       ??_C@_0N@GOCHBLLA@sound_port?4c@ 00491cc8     pjmedia-i386-win32-vc8-debug-dynamic:sound_port.obj
 0003:00001cd8       ??_C@_0CD@IGHBIGGN@EC?5suspended?5because?5of?5inactiv@ 00491cd8     pjmedia-i386-win32-vc8-debug-dynamic:sound_port.obj
 0003:00001d08       ??_C@_1PO@CCAOEAOP@?$AAs?$AAn?$AAd?$AA_?$AAp?$AAo?$AAr?$AAt?$AA?9?$AA?$DO?$AAd?$AAi?$AAr?$AA?5?$AA?$DN@ 00491d08     pjmedia-i386-win32-vc8-debug-dynamic:sound_port.obj
 0003:00001e38       ??_C@_0CB@KICGINBD@AEC?5tail?5is?5set?5to?5default?5?$CFu?5m@ 00491e38     pjmedia-i386-win32-vc8-debug-dynamic:sound_port.obj
 0003:00001e60       ??_C@_1CM@BIKCNKDB@?$AAp?$AAo?$AAo?$AAl?$AA?5?$AA?$CG?$AA?$CG?$AA?5?$AAp?$AAr?$AAm?$AA?5?$AA?$CG?$AA?$CG?$AA?5@ 00491e60     pjmedia-i386-win32-vc8-debug-dynamic:sound_port.obj
 0003:00001e94       ??_C@_1BC@CEGCGLHF@?$AAs?$AAn?$AAd?$AA_?$AAp?$AAo?$AAr?$AAt@ 00491e94     pjmedia-i386-win32-vc8-debug-dynamic:sound_port.obj
 0003:00001eb0       ??_C@_1HE@IFPGECAN@?$AAs?$AAn?$AAd?$AA_?$AAp?$AAo?$AAr?$AAt?$AA?5?$AA?$CG?$AA?$CG?$AA?5?$AAs?$AAn?$AAd@ 00491eb0     pjmedia-i386-win32-vc8-debug-dynamic:sound_port.obj
 0003:00001f3c       ??_C@_0DJ@PNINHBGM@pjmedia_snd_port_set_ec?$CI?$CJ?5ignor@ 00491f3c     pjmedia-i386-win32-vc8-debug-dynamic:sound_port.obj
 0003:00001f80       ??_C@_1EK@LIAAKOAG@?$AAp?$AAr?$AAm?$AA?4?$AAe?$AAx?$AAt?$AA_?$AAf?$AAm?$AAt?$AA?4?$AAi?$AAd?$AA?5@ 00491f80     pjmedia-i386-win32-vc8-debug-dynamic:sound_port.obj
 0003:00001fd8       ??_C@_0DB@KDEIEFDK@Echo?5canceller?5is?5now?5disabled?5@ 00491fd8     pjmedia-i386-win32-vc8-debug-dynamic:sound_port.obj
 0003:00002014       ??_C@_1CK@BEAOABFN@?$AAs?$AAn?$AAd?$AA_?$AAp?$AAo?$AAr?$AAt?$AA?5?$AA?$CG?$AA?$CG?$AA?5?$AAp?$AA_?$AAl@ 00492014     pjmedia-i386-win32-vc8-debug-dynamic:sound_port.obj
 0003:00002048       ??_C@_1CC@EOMLAJEE@?$AAs?$AAn?$AAd?$AA_?$AAp?$AAo?$AAr?$AAt?$AA?5?$AA?$CG?$AA?$CG?$AA?5?$AAp?$AAo?$AAr@ 00492048     pjmedia-i386-win32-vc8-debug-dynamic:sound_port.obj
 0003:00002070       ??_C@_1GM@PCJFCKBP@?$AAd?$AA?3?$AA?2?$AAp?$AAj?$AAs?$AAi?$AAp?$AA?2?$AAp?$AAj?$AAp?$AAr?$AAo?$AAj@ 00492070     pjmedia-i386-win32-vc8-debug-dynamic:stereo_port.obj
 0003:000020f8       ??_C@_1KO@ECNAHDIA@?$AAp?$AAi?$AAa?$AA?9?$AA?$DO?$AAf?$AAm?$AAt?$AA?4?$AAt?$AAy?$AAp?$AAe?$AA?$DN?$AA?$DN@ 004920f8     pjmedia-i386-win32-vc8-debug-dynamic:stereo_port.obj
 0003:000021c8       ??_C@_1HA@HHLGNMHJ@?$AAd?$AA?3?$AA?2?$AAp?$AAj?$AAs?$AAi?$AAp?$AA?2?$AAp?$AAj?$AAp?$AAr?$AAo?$AAj@ 004921c8     pjmedia-i386-win32-vc8-debug-dynamic:stereo_port.obj
 0003:00002250       ??_C@_1KG@DNAFAJCM@?$AAm?$AAo?$AAn?$AAo?$AA?5?$AA?$CG?$AA?$CG?$AA?5?$AAm?$AAu?$AAl?$AAt?$AAi?$AA?5?$AA?$CG@ 00492250     pjmedia-i386-win32-vc8-debug-dynamic:stereo_port.obj
 0003:00002318       ??_C@_1GI@LPPECBFA@?$AAm?$AAo?$AAn?$AAo?$AA?5?$AA?$CG?$AA?$CG?$AA?5?$AAm?$AAu?$AAl?$AAt?$AAi?$AA?5?$AA?$CG@ 00492318     pjmedia-i386-win32-vc8-debug-dynamic:stereo_port.obj
 0003:00002394       ??_C@_1BK@KDKCCGFK@?$AAo?$AAp?$AAt?$AAi?$AAo?$AAn?$AAs?$AA?5?$AA?$DN?$AA?$DN?$AA?5?$AA0@ 00492394     pjmedia-i386-win32-vc8-debug-dynamic:stereo_port.obj
 0003:000023b4       ??_C@_06BDDNELGJ@stereo@   004923b4     pjmedia-i386-win32-vc8-debug-dynamic:stereo_port.obj
 0003:000023c0       ??_C@_1HC@OEAHLJKB@?$AAd?$AA?3?$AA?2?$AAp?$AAj?$AAs?$AAi?$AAp?$AA?2?$AAp?$AAj?$AAp?$AAr?$AAo?$AAj@ 004923c0     pjmedia-i386-win32-vc8-debug-dynamic:stereo_port.obj
 0003:00002448       ??_C@_1FG@ENBNJPFM@?$AAp?$AAo?$AAo?$AAl?$AA?5?$AA?$CG?$AA?$CG?$AA?5?$AAd?$AAn?$AA_?$AAp?$AAo?$AAr?$AAt@ 00492448     pjmedia-i386-win32-vc8-debug-dynamic:stereo_port.obj
 0003:000024b0       ??_C@_1EO@GAIDILJF@?$AAP?$AAJ?$AAM?$AAE?$AAD?$AAI?$AAA?$AA_?$AAP?$AAI?$AAA?$AA_?$AAB?$AAI?$AAT@ 004924b0     pjmedia-i386-win32-vc8-debug-dynamic:stereo_port.obj
 0003:00002510       ??_C@_1OO@LFCNNECC@?$AA?$CI?$AA?$CI?$AAP?$AAJ?$AAM?$AAE?$AAD?$AAI?$AAA?$AA_?$AAP?$AAI?$AAA?$AA_?$AAC@ 00492510     pjmedia-i386-win32-vc8-debug-dynamic:stereo_port.obj
 0003:00002630       ??_C@_1CK@FGJANDN@?$AAs?$AAp?$AAo?$AAr?$AAt?$AA?5?$AA?$CB?$AA?$DN?$AA?5?$AA?$CI?$AA?$CI?$AAv?$AAo?$AAi?$AAd@ 00492630     pjmedia-i386-win32-vc8-debug-dynamic:stereo_port.obj
 0003:00002664       ??_C@_04DAMGJPCA@file@     00492664     pjmedia-i386-win32-vc8-debug-dynamic:wav_player.obj
 0003:00002670       ??_C@_1HA@MCPEKFEE@?$AAd?$AA?3?$AA?2?$AAp?$AAj?$AAs?$AAi?$AAp?$AA?2?$AAp?$AAj?$AAp?$AAr?$AAo?$AAj@ 00492670     pjmedia-i386-win32-vc8-debug-dynamic:wav_player.obj
 0003:000026f8       ??_C@_1DG@FDMGAKIN@?$AAp?$AAo?$AAo?$AAl?$AA?5?$AA?$CG?$AA?$CG?$AA?5?$AAf?$AAi?$AAl?$AAe?$AAn?$AAa?$AAm@ 004926f8     pjmedia-i386-win32-vc8-debug-dynamic:wav_player.obj
 0003:00002738       ??_C@_0DH@CJCCJAOK@actual?5value?$HMexpected?5riff?$DN?$CFx?$HM?$CF@ 00492738     pjmedia-i386-win32-vc8-debug-dynamic:wav_player.obj
 0003:0000277c       ??_C@_0N@EAJPAIGO@wav_player?4c@ 0049277c     pjmedia-i386-win32-vc8-debug-dynamic:wav_player.obj
 0003:00002790       ??_C@_0EO@KJDBHFL@File?5player?5?8?$CF?4?$CKs?8?5created?3?5sam@ 00492790     pjmedia-i386-win32-vc8-debug-dynamic:wav_player.obj
 0003:000027f0       ??_C@_1BK@KPAMJEJL@?$AAp?$AAo?$AAr?$AAt?$AA?5?$AA?$CG?$AA?$CG?$AA?5?$AAi?$AAn?$AAf?$AAo@ 004927f0     pjmedia-i386-win32-vc8-debug-dynamic:wav_player.obj
 0003:00002810       ??_C@_1HK@BCCPIGPD@?$AAp?$AAo?$AAr?$AAt?$AA?9?$AA?$DO?$AAi?$AAn?$AAf?$AAo?$AA?4?$AAs?$AAi?$AAg?$AAn@ 00492810     pjmedia-i386-win32-vc8-debug-dynamic:wav_player.obj
 0003:000028a4       ??_C@_0BD@PMBBCNLP@Unsupported?5format@ 004928a4     pjmedia-i386-win32-vc8-debug-dynamic:wav_player.obj
 0003:000028bc       ??_C@_1CM@NIPCCNIC@?$AA?$CB?$AA?$CC?$AAU?$AAn?$AAs?$AAu?$AAp?$AAp?$AAo?$AAr?$AAt?$AAe?$AAd?$AA?5?$AAf@ 004928bc     pjmedia-i386-win32-vc8-debug-dynamic:wav_player.obj
 0003:000028f0       ??_C@_1DA@PHGKDLFF@?$AAb?$AAy?$AAt?$AAe?$AAs?$AA?5?$AA?$DM?$AA?5?$AAf?$AAp?$AAo?$AAr?$AAt?$AA?9?$AA?$DO@ 004928f0     pjmedia-i386-win32-vc8-debug-dynamic:wav_player.obj
 0003:00002930       ??_C@_1IG@EHNGAPHE@?$AAf?$AAp?$AAo?$AAr?$AAt?$AA?9?$AA?$DO?$AAb?$AAa?$AAs?$AAe?$AA?4?$AAi?$AAn?$AAf@ 00492930     pjmedia-i386-win32-vc8-debug-dynamic:wav_player.obj
 0003:000029d0       ??_C@_1DM@GNICMNHP@?$AAf?$AAr?$AAa?$AAm?$AAe?$AA?9?$AA?$DO?$AAs?$AAi?$AAz?$AAe?$AA?5?$AA?$DM?$AA?$DN?$AA?5@ 004929d0     pjmedia-i386-win32-vc8-debug-dynamic:wav_player.obj
 0003:00002a18       ??_C@_0BD@LPPPNKOC@File?5port?5?$CF?4?$CKs?5EOF@ 00492a18     pjmedia-i386-win32-vc8-debug-dynamic:wav_player.obj
 0003:00002a30       ??_C@_0BL@OHCCHMIC@File?5port?5?$CF?4?$CKs?5rewinding?4?4@ 00492a30     pjmedia-i386-win32-vc8-debug-dynamic:wav_player.obj
 0003:00002a50       ??_C@_1LG@MPLAFCEO@?$AAf?$AAp?$AAo?$AAr?$AAt?$AA?9?$AA?$DO?$AAf?$AAm?$AAt?$AA_?$AAt?$AAa?$AAg?$AA?5@ 00492a50     pjmedia-i386-win32-vc8-debug-dynamic:wav_player.obj
 0003:00002b30       ??_C@_1IE@MIFKIGFC@?$AAt?$AAh?$AAi?$AAs?$AA_?$AAp?$AAo?$AAr?$AAt?$AA?9?$AA?$DO?$AAi?$AAn?$AAf?$AAo@ 00492b30     pjmedia-i386-win32-vc8-debug-dynamic:wav_player.obj
 0003:00002bd0       ??_C@_1HA@EIIJHIMN@?$AAd?$AA?3?$AA?2?$AAp?$AAj?$AAs?$AAi?$AAp?$AA?2?$AAp?$AAj?$AAp?$AAr?$AAo?$AAj@ 00492bd0     pjmedia-i386-win32-vc8-debug-dynamic:wav_writer.obj
 0003:00002c58       ??_C@_1CM@FGHFKMMF@?$AAb?$AAi?$AAt?$AAs?$AA_?$AAp?$AAe?$AAr?$AA_?$AAs?$AAa?$AAm?$AAp?$AAl?$AAe@ 00492c58     pjmedia-i386-win32-vc8-debug-dynamic:wav_writer.obj
 0003:00002c8c       ??_C@_1CK@FOBDPJMG@?$AAf?$AAp?$AAo?$AAr?$AAt?$AA?5?$AA?$CB?$AA?$DN?$AA?5?$AA?$CI?$AA?$CI?$AAv?$AAo?$AAi?$AAd@ 00492c8c     pjmedia-i386-win32-vc8-debug-dynamic:wav_writer.obj
 0003:00002cc0       ??_C@_1HC@HGLCJBHK@?$AAf?$AAp?$AAo?$AAr?$AAt?$AA?9?$AA?$DO?$AAb?$AAu?$AAf?$AAs?$AAi?$AAz?$AAe?$AA?5@ 00492cc0     pjmedia-i386-win32-vc8-debug-dynamic:wav_writer.obj
 0003:00002d48       ??_C@_0DH@EDIEAILI@File?5writer?5?8?$CF?4?$CKs?8?5created?3?5sam@ 00492d48     pjmedia-i386-win32-vc8-debug-dynamic:wav_writer.obj
 0003:00002d8c       ??_C@_0N@MCLOBLAH@wav_writer?4c@ 00492d8c     pjmedia-i386-win32-vc8-debug-dynamic:wav_writer.obj
 0003:00002da0       ??_C@_1HK@PCOOEIFM@?$AAp?$AAo?$AAr?$AAt?$AA?9?$AA?$DO?$AAi?$AAn?$AAf?$AAo?$AA?4?$AAs?$AAi?$AAg?$AAn@ 00492da0     pjmedia-i386-win32-vc8-debug-dynamic:wav_writer.obj
 0003:00002e34       ??_C@_1BG@LGJCGAEO@?$AAp?$AAo?$AAr?$AAt?$AA?5?$AA?$CG?$AA?$CG?$AA?5?$AAc?$AAb@ 00492e34     pjmedia-i386-win32-vc8-debug-dynamic:wav_writer.obj
 0003:00002e50       ??_C@_1HA@DLDPHCKI@?$AAf?$AAp?$AAo?$AAr?$AAt?$AA?9?$AA?$DO?$AAw?$AAr?$AAi?$AAt?$AAe?$AAp?$AAo?$AAs@ 00492e50     pjmedia-i386-win32-vc8-debug-dynamic:wav_writer.obj
 0003:00002ed8       ??_C@_07GBKCPIDJ@ext?9fmt@ 00492ed8     pjmedia-i386-win32-vc8-debug-dynamic:audiodev.obj
 0003:00002ee4       ??_C@_0BI@GGHCECPI@Extended?1non?9PCM?5format@ 00492ee4     pjmedia-i386-win32-vc8-debug-dynamic:audiodev.obj
 0003:00002f00       ??_C@_0L@IKNMBADD@latency?9in@ 00492f00     pjmedia-i386-win32-vc8-debug-dynamic:audiodev.obj
 0003:00002f10       ??_C@_0CC@LIGOHOJN@Input?5latency?1buffer?5size?5setti@ 00492f10     pjmedia-i386-win32-vc8-debug-dynamic:audiodev.obj
 0003:00002f38       ??_C@_0M@MBBBBCLJ@latency?9out@ 00492f38     pjmedia-i386-win32-vc8-debug-dynamic:audiodev.obj
 0003:00002f48       ??_C@_0CD@GAINMBC@Output?5latency?1buffer?5size?5sett@ 00492f48     pjmedia-i386-win32-vc8-debug-dynamic:audiodev.obj
 0003:00002f74       ??_C@_06KGGLCDDG@vol?9in@  00492f74     pjmedia-i386-win32-vc8-debug-dynamic:audiodev.obj
 0003:00002f7c       ??_C@_0BF@CCEKOJAN@Input?5volume?5setting@ 00492f7c     pjmedia-i386-win32-vc8-debug-dynamic:audiodev.obj
 0003:00002f98       ??_C@_07LBFHFBAF@vol?9out@ 00492f98     pjmedia-i386-win32-vc8-debug-dynamic:audiodev.obj
 0003:00002fa4       ??_C@_0BG@IBEHJHAD@Output?5volume?5setting@ 00492fa4     pjmedia-i386-win32-vc8-debug-dynamic:audiodev.obj
 0003:00002fc0       ??_C@_08BPNDLGG@meter?9in@ 00492fc0     pjmedia-i386-win32-vc8-debug-dynamic:audiodev.obj
 0003:00002fcc       ??_C@_0M@NCGIGNPG@Input?5meter@ 00492fcc     pjmedia-i386-win32-vc8-debug-dynamic:audiodev.obj
 0003:00002fdc       ??_C@_09NKJLJGOJ@meter?9out@ 00492fdc     pjmedia-i386-win32-vc8-debug-dynamic:audiodev.obj
 0003:00002fe8       ??_C@_0N@GBEOEOEP@Output?5meter@ 00492fe8     pjmedia-i386-win32-vc8-debug-dynamic:audiodev.obj
 0003:00002ff8       ??_C@_08FPHJDLBG@route?9in@ 00492ff8     pjmedia-i386-win32-vc8-debug-dynamic:audiodev.obj
 0003:00003004       ??_C@_0O@JDPFDDM@Input?5routing@ 00493004     pjmedia-i386-win32-vc8-debug-dynamic:audiodev.obj
 0003:00003014       ??_C@_09IKMAGDNF@route?9out@ 00493014     pjmedia-i386-win32-vc8-debug-dynamic:audiodev.obj
 0003:00003020       ??_C@_0P@JOFPIEJJ@Output?5routing@ 00493020     pjmedia-i386-win32-vc8-debug-dynamic:audiodev.obj
 0003:00003034       ??_C@_03FNONIBCK@aec@      00493034     pjmedia-i386-win32-vc8-debug-dynamic:audiodev.obj
 0003:00003038       ??_C@_0BM@HPDLGLFJ@Accoustic?5echo?5cancellation@ 00493038     pjmedia-i386-win32-vc8-debug-dynamic:audiodev.obj
 0003:0000305c       ??_C@_08MKAPJCJE@aec?9tail@ 0049305c     pjmedia-i386-win32-vc8-debug-dynamic:audiodev.obj
 0003:00003068       ??_C@_0BM@PBLLADJD@Tail?5length?5setting?5for?5AEC@ 00493068     pjmedia-i386-win32-vc8-debug-dynamic:audiodev.obj
 0003:0000308c       ??_C@_03NIGLNABH@vad@      0049308c     pjmedia-i386-win32-vc8-debug-dynamic:audiodev.obj
 0003:00003090       ??_C@_0BJ@PEELNNPF@Voice?5activity?5detection@ 00493090     pjmedia-i386-win32-vc8-debug-dynamic:audiodev.obj
 0003:000030b0       ??_C@_03JPNNGDEE@cng@      004930b0     pjmedia-i386-win32-vc8-debug-dynamic:audiodev.obj
 0003:000030b4       ??_C@_0BJ@MNDOFJGN@Comfort?5noise?5generation@ 004930b4     pjmedia-i386-win32-vc8-debug-dynamic:audiodev.obj
 0003:000030d4       ??_C@_03NOPFEPFL@plg@      004930d4     pjmedia-i386-win32-vc8-debug-dynamic:audiodev.obj
 0003:000030d8       ??_C@_0BI@OMEMKBHH@Packet?5loss?5concealment@ 004930d8     pjmedia-i386-win32-vc8-debug-dynamic:audiodev.obj
 0003:000030f8       ??_C@_0EF@NLCNMHAD@?$CFd?5device?$CIs?$CJ?5cannot?5be?5register@ 004930f8     pjmedia-i386-win32-vc8-debug-dynamic:audiodev.obj
 0003:0000314c       ??_C@_0L@FGHHAHLM@audiodev?4c@ 0049314c     pjmedia-i386-win32-vc8-debug-dynamic:audiodev.obj
 0003:0000315c       ??_C@_02HHFHKOHM@?$DP?$DP@ 0049315c     pjmedia-i386-win32-vc8-debug-dynamic:audiodev.obj
 0003:00003160       ??_C@_0CF@NNKJIABC@Unable?5to?5refresh?5device?5list?5f@ 00493160     pjmedia-i386-win32-vc8-debug-dynamic:audiodev.obj
 0003:00003190       ??_C@_1GM@HCIKPGPN@?$AAd?$AA?3?$AA?2?$AAp?$AAj?$AAs?$AAi?$AAp?$AA?2?$AAp?$AAj?$AAp?$AAr?$AAo?$AAj@ 00493190     pjmedia-i386-win32-vc8-debug-dynamic:audiodev.obj
 0003:00003214       ??_C@_1DE@BIILPEEH@?$AAa?$AAu?$AAd?$AA_?$AAs?$AAu?$AAb?$AAs?$AAy?$AAs?$AA?4?$AAd?$AAr?$AAv?$AA?$FL@ 00493214     pjmedia-i386-win32-vc8-debug-dynamic:audiodev.obj
 0003:00003258       ??_C@_1GG@CMJIPMBM@?$AA?$CK?$AAi?$AAd?$AA?$DO?$AA?$DN?$AA0?$AA?5?$AA?$CG?$AA?$CG?$AA?5?$AA?$CK?$AAi?$AAd?$AA?$DM?$AA?$CI@ 00493258     pjmedia-i386-win32-vc8-debug-dynamic:audiodev.obj
 0003:000032d8       ??_C@_1EI@NEALAIDF@?$AAi?$AAn?$AAf?$AAo?$AA?5?$AA?$CG?$AA?$CG?$AA?5?$AAi?$AAd?$AA?$CB?$AA?$DN?$AAP?$AAJ?$AAM@ 004932d8     pjmedia-i386-win32-vc8-debug-dynamic:audiodev.obj
 0003:00003330       ??_C@_1BM@DPBJELLN@?$AAa?$AAu?$AAd?$AA_?$AAs?$AAu?$AAb?$AAs?$AAy?$AAs?$AA?4?$AAp?$AAf@ 00493330     pjmedia-i386-win32-vc8-debug-dynamic:audiodev.obj
 0003:00003354       ??_C@_1DG@KGHCCJGJ@?$AAd?$AAr?$AAv?$AA_?$AAn?$AAa?$AAm?$AAe?$AA?5?$AA?$CG?$AA?$CG?$AA?5?$AAd?$AAe?$AAv@ 00493354     pjmedia-i386-win32-vc8-debug-dynamic:audiodev.obj
 0003:00003398       ??_C@_1EK@DJOOKBNF@?$AAp?$AAa?$AAr?$AAa?$AAm?$AA?5?$AA?$CG?$AA?$CG?$AA?5?$AAi?$AAd?$AA?$CB?$AA?$DN?$AAP?$AAJ@ 00493398     pjmedia-i386-win32-vc8-debug-dynamic:audiodev.obj
 0003:000033f0       ??_C@_1DM@JABAMPOD@?$AAp?$AAr?$AAm?$AA?5?$AA?$CG?$AA?$CG?$AA?5?$AAp?$AAr?$AAm?$AA?9?$AA?$DO?$AAd?$AAi?$AAr@ 004933f0     pjmedia-i386-win32-vc8-debug-dynamic:audiodev.obj
 0003:00003438       ??_C@_1NE@LCIHHDJA@?$AAp?$AAr?$AAm?$AA?9?$AA?$DO?$AAd?$AAi?$AAr?$AA?$DN?$AA?$DN?$AAP?$AAJ?$AAM?$AAE?$AAD@ 00493438     pjmedia-i386-win32-vc8-debug-dynamic:audiodev.obj
 0003:00003538       ??_C@_1CC@LOOLMMAJ@?$AAf?$AA?5?$AA?$CB?$AA?$DN?$AA?5?$AA?$CI?$AA?$CI?$AAv?$AAo?$AAi?$AAd?$AA?5?$AA?$CK?$AA?$CJ?$AA0@ 00493538     pjmedia-i386-win32-vc8-debug-dynamic:audiodev.obj
 0003:00003560       ??_C@_1IC@DBCNJHMM@?$AA?$CI?$AAp?$AAa?$AAr?$AAa?$AAm?$AA?4?$AAd?$AAi?$AAr?$AA?5?$AA?$CB?$AA?$DN?$AA?5?$AAP@ 00493560     pjmedia-i386-win32-vc8-debug-dynamic:audiodev.obj
 0003:000035fc       ??_C@_1BM@GLEMCIF@?$AAs?$AAt?$AAr?$AAm?$AA?5?$AA?$CG?$AA?$CG?$AA?5?$AAp?$AAa?$AAr?$AAa?$AAm@ 004935fc     pjmedia-i386-win32-vc8-debug-dynamic:audiodev.obj
 0003:00003620       ??_C@_0BM@PHKCDOOL@Invalid?5audio?5format?5detail@ 00493620     pjmedia-i386-win32-vc8-debug-dynamic:format.obj
 0003:00003648       ??_C@_1GI@LLKLCDGI@?$AAd?$AA?3?$AA?2?$AAp?$AAj?$AAs?$AAi?$AAp?$AA?2?$AAp?$AAj?$AAp?$AAr?$AAo?$AAj@ 00493648     pjmedia-i386-win32-vc8-debug-dynamic:format.obj
 0003:000036c8       ??_C@_1GA@PHLNNING@?$AA?$CB?$AAa?$AAs?$AAs?$AAe?$AAr?$AAt?$AA_?$AAv?$AAa?$AAl?$AAi?$AAd?$AA?5?$AA?$HM@ 004936c8     pjmedia-i386-win32-vc8-debug-dynamic:format.obj
 0003:00003740       ??_C@_1GG@CMLMIMHG@?$AAd?$AA?3?$AA?2?$AAp?$AAj?$AAs?$AAi?$AAp?$AA?2?$AAp?$AAj?$AAp?$AAr?$AAo?$AAj@ 00493740     pjmedia-i386-win32-vc8-debug-dynamic:codec.obj
 0003:000037bc       ??_C@_1BI@BKNDIBIA@?$AAp?$AAo?$AAo?$AAl?$AA?5?$AA?$CG?$AA?$CG?$AA?5?$AAs?$AAr?$AAc@ 004937bc     pjmedia-i386-win32-vc8-debug-dynamic:codec.obj
 0003:000037d8       ??_C@_1BE@KDGOHEJD@?$AAm?$AAg?$AAr?$AA?5?$AA?$CG?$AA?$CG?$AA?5?$AAp?$AAf@ 004937d8     pjmedia-i386-win32-vc8-debug-dynamic:codec.obj
 0003:000037f0       ??_C@_09GLMNEMC@codec?9mgr@ 004937f0     pjmedia-i386-win32-vc8-debug-dynamic:codec.obj
 0003:000037fc       ??_C@_17FPEMCAJ@?$AAm?$AAg?$AAr@ 004937fc     pjmedia-i386-win32-vc8-debug-dynamic:codec.obj
 0003:00003808       ??_C@_1DO@EEIIFHKJ@?$AAm?$AAg?$AAr?$AA?9?$AA?$DO?$AAc?$AAo?$AAd?$AAe?$AAc?$AA_?$AAd?$AAe?$AAs?$AAc@ 00493808     pjmedia-i386-win32-vc8-debug-dynamic:codec.obj
 0003:00003854       ??_C@_1BO@BNPCENCC@?$AAm?$AAg?$AAr?$AA?5?$AA?$CG?$AA?$CG?$AA?5?$AAf?$AAa?$AAc?$AAt?$AAo?$AAr?$AAy@ 00493854     pjmedia-i386-win32-vc8-debug-dynamic:codec.obj
 0003:00003878       ??_C@_1EI@LPEKDADD@?$AAf?$AAa?$AAc?$AAt?$AAo?$AAr?$AAy?$AA?9?$AA?$DO?$AAo?$AAp?$AA?9?$AA?$DO?$AAd?$AAe@ 00493878     pjmedia-i386-win32-vc8-debug-dynamic:codec.obj
 0003:000038d0       ??_C@_1CO@FACHMPOK@?$AAm?$AAg?$AAr?$AA?5?$AA?$CG?$AA?$CG?$AA?5?$AAc?$AAo?$AAu?$AAn?$AAt?$AA?5?$AA?$CG?$AA?$CG@ 004938d0     pjmedia-i386-win32-vc8-debug-dynamic:codec.obj
 0003:00003908       ??_C@_1EE@JECMOLIN@?$AAm?$AAg?$AAr?$AA?5?$AA?$CG?$AA?$CG?$AA?5?$AAp?$AA_?$AAi?$AAn?$AAf?$AAo?$AA?5?$AA?$CG@ 00493908     pjmedia-i386-win32-vc8-debug-dynamic:codec.obj
 0003:0000395c       ??_C@_1CM@NHECEOC@?$AAi?$AAn?$AAf?$AAo?$AA?5?$AA?$CG?$AA?$CG?$AA?5?$AAi?$AAd?$AA?5?$AA?$CG?$AA?$CG?$AA?5?$AAm@ 0049395c     pjmedia-i386-win32-vc8-debug-dynamic:codec.obj
 0003:00003990       ??_C@_0L@MMBOMEDE@?$CF?4?$CKs?1?$CFu?1?$CFu@ 00493990     pjmedia-i386-win32-vc8-debug-dynamic:codec.obj
 0003:000039a0       ??_C@_1EG@PNDDPIBP@?$AAm?$AAg?$AAr?$AA?5?$AA?$CG?$AA?$CG?$AA?5?$AAc?$AAo?$AAd?$AAe?$AAc?$AA_?$AAi?$AAd@ 004939a0     pjmedia-i386-win32-vc8-debug-dynamic:codec.obj
 0003:000039f4       ??_C@_1CA@FGAKAPCG@?$AAm?$AAg?$AAr?$AA?5?$AA?$CG?$AA?$CG?$AA?5?$AAc?$AAo?$AAd?$AAe?$AAc?$AA_?$AAi?$AAd@ 004939f4     pjmedia-i386-win32-vc8-debug-dynamic:codec.obj
 0003:00003a1c       ??_C@_1CO@PLEMIHIG@?$AAm?$AAg?$AAr?$AA?5?$AA?$CG?$AA?$CG?$AA?5?$AAi?$AAn?$AAf?$AAo?$AA?5?$AA?$CG?$AA?$CG?$AA?5@ 00493a1c     pjmedia-i386-win32-vc8-debug-dynamic:codec.obj
 0003:00003a54       ??_C@_1CK@EGILOIOM@?$AAm?$AAg?$AAr?$AA?5?$AA?$CG?$AA?$CG?$AA?5?$AAi?$AAn?$AAf?$AAo?$AA?5?$AA?$CG?$AA?$CG?$AA?5@ 00493a54     pjmedia-i386-win32-vc8-debug-dynamic:codec.obj
 0003:00003a88       ??_C@_1DC@MPIDFLIE@?$AAc?$AAo?$AAd?$AAe?$AAc?$AA_?$AAd?$AAe?$AAs?$AAc?$AA?9?$AA?$DO?$AAp?$AAa?$AAr@ 00493a88     pjmedia-i386-win32-vc8-debug-dynamic:codec.obj
 0003:00003ac4       ??_C@_1BI@PNBKIADI@?$AAm?$AAg?$AAr?$AA?5?$AA?$CG?$AA?$CG?$AA?5?$AAi?$AAn?$AAf?$AAo@ 00493ac4     pjmedia-i386-win32-vc8-debug-dynamic:codec.obj
 0003:00003ae0       ??_C@_1DA@EFFFDKKD@?$AAc?$AAo?$AAd?$AAe?$AAc?$AA_?$AAd?$AAe?$AAs?$AAc?$AA?9?$AA?$DO?$AAp?$AAa?$AAr@ 00493ae0     pjmedia-i386-win32-vc8-debug-dynamic:codec.obj
 0003:00003b1c       ??_C@_1BK@DFPPDNGI@?$AAm?$AAg?$AAr?$AA?5?$AA?$CG?$AA?$CG?$AA?5?$AAc?$AAo?$AAd?$AAe?$AAc@ 00493b1c     pjmedia-i386-win32-vc8-debug-dynamic:codec.obj
 0003:00003b3c       ??_C@_0BC@KMLOGCBL@?$CB?$CD$?$CF?$CG?8?$CK?$CL?9?4?$FO_?$GA?$HL?$HM?$HN?$HO@ 00493b3c     pjmedia-i386-win32-vc8-debug-dynamic:sdp.obj
 0003:00003b58       ??_C@_1GC@CFCJDFC@?$AAd?$AA?3?$AA?2?$AAp?$AAj?$AAs?$AAi?$AAp?$AA?2?$AAp?$AAj?$AAp?$AAr?$AAo?$AAj@ 00493b58     pjmedia-i386-win32-vc8-debug-dynamic:sdp.obj
 0003:00003bd0       ??_C@_1BK@LHKKGLPP@?$AAp?$AAo?$AAo?$AAl?$AA?5?$AA?$CG?$AA?$CG?$AA?5?$AAn?$AAa?$AAm?$AAe@ 00493bd0     pjmedia-i386-win32-vc8-debug-dynamic:sdp.obj
 0003:00003bf0       ??_C@_1BI@CECNPHHM@?$AAp?$AAo?$AAo?$AAl?$AA?5?$AA?$CG?$AA?$CG?$AA?5?$AAr?$AAh?$AAs@ 00493bf0     pjmedia-i386-win32-vc8-debug-dynamic:sdp.obj
 0003:00003c0c       ??_C@_1CI@FGGAOBNE@?$AAc?$AAo?$AAu?$AAn?$AAt?$AA?5?$AA?$DM?$AA?$DN?$AA?5?$AA?$CI?$AA3?$AA2?$AA?$CK?$AA2?$AA?5@ 00493c0c     pjmedia-i386-win32-vc8-debug-dynamic:sdp.obj
 0003:00003c3c       ??_C@_1DI@HJCFDDCH@?$AAc?$AAo?$AAu?$AAn?$AAt?$AA?5?$AA?$CG?$AA?$CG?$AA?5?$AAa?$AAt?$AAt?$AAr?$AA_?$AAa@ 00493c3c     pjmedia-i386-win32-vc8-debug-dynamic:sdp.obj
 0003:00003c80       ??_C@_1CI@HFMGJFMC@?$AA?$CK?$AAc?$AAo?$AAu?$AAn?$AAt?$AA?5?$AA?$DM?$AA?5?$AA?$CI?$AA3?$AA2?$AA?$CK?$AA2?$AA?5@ 00493c80     pjmedia-i386-win32-vc8-debug-dynamic:sdp.obj
 0003:00003cb0       ??_C@_1DI@FFGCGLJA@?$AAc?$AAo?$AAu?$AAn?$AAt?$AA?5?$AA?$CG?$AA?$CG?$AA?5?$AAa?$AAt?$AAt?$AAr?$AA_?$AAa@ 00493cb0     pjmedia-i386-win32-vc8-debug-dynamic:sdp.obj
 0003:00003cf4       ??_C@_1CK@ONBGBNGI@?$AA?$CK?$AAc?$AAo?$AAu?$AAn?$AAt?$AA?5?$AA?$DM?$AA?$DN?$AA?5?$AA?$CI?$AA3?$AA2?$AA?$CK?$AA2@ 00493cf4     pjmedia-i386-win32-vc8-debug-dynamic:sdp.obj
 0003:00003d28       ??_C@_1EK@FJKEMOIA@?$AAp?$AAj?$AA_?$AAs?$AAt?$AAr?$AAc?$AAm?$AAp?$AA2?$AA?$CI?$AA?$CG?$AAa?$AAt?$AAt@ 00493d28     pjmedia-i386-win32-vc8-debug-dynamic:sdp.obj
 0003:00003d80       ??_C@_0BB@FMMFANH@Shouldn?8t?5happen@ 00493d80     pjmedia-i386-win32-vc8-debug-dynamic:sdp.obj
 0003:00003d94       ??_C@_1CI@KMDGDPGJ@?$AA?$CB?$AA?$CC?$AAS?$AAh?$AAo?$AAu?$AAl?$AAd?$AAn?$AA?8?$AAt?$AA?5?$AAh?$AAa?$AAp@ 00493d94     pjmedia-i386-win32-vc8-debug-dynamic:sdp.obj
 0003:00003dc8       ??_C@_1EG@MKFCNOBN@?$AAp?$AAj?$AA_?$AAs?$AAt?$AAr?$AAc?$AAm?$AAp?$AA2?$AA?$CI?$AA?$CG?$AAa?$AAt?$AAt@ 00493dc8     pjmedia-i386-win32-vc8-debug-dynamic:sdp.obj
 0003:00003e1c       ??_C@_04DLDMIAAJ@rtcp@     00493e1c     pjmedia-i386-win32-vc8-debug-dynamic:sdp.obj
 0003:00003e28       ??_C@_1EG@KJAHBMHP@?$AAp?$AAj?$AA_?$AAs?$AAt?$AAr?$AAc?$AAm?$AAp?$AA2?$AA?$CI?$AA?$CG?$AAa?$AAt?$AAt@ 00493e28     pjmedia-i386-win32-vc8-debug-dynamic:sdp.obj
 0003:00003e7c       ??_C@_05PGDJPCOI@?1?5?7?$AN?6@ 00493e7c     pjmedia-i386-win32-vc8-debug-dynamic:sdp.obj
 0003:00003e84       ??_C@_0N@PKDMIJBK@?$CFu?5IN?5IP4?5?$CFs@ 00493e84     pjmedia-i386-win32-vc8-debug-dynamic:sdp.obj
 0003:00003e94       ??_C@_0N@IAPMNKHK@?$CFu?5IN?5IP6?5?$CFs@ 00493e94     pjmedia-i386-win32-vc8-debug-dynamic:sdp.obj
 0003:00003ea4       ??_C@_0BL@ILIKGEFL@Unsupported?5address?5family@ 00493ea4     pjmedia-i386-win32-vc8-debug-dynamic:sdp.obj
 0003:00003ec4       ??_C@_1DM@IJIBEIIG@?$AA?$CB?$AA?$CC?$AAU?$AAn?$AAs?$AAu?$AAp?$AAp?$AAo?$AAr?$AAt?$AAe?$AAd?$AA?5?$AAa@ 00493ec4     pjmedia-i386-win32-vc8-debug-dynamic:sdp.obj
 0003:00003f0c       ??_C@_04OHIABJNF@ssrc@     00493f0c     pjmedia-i386-win32-vc8-debug-dynamic:sdp.obj
 0003:00003f18       ??_C@_1EG@HPNCJLOF@?$AAp?$AAj?$AA_?$AAs?$AAt?$AAr?$AAc?$AAm?$AAp?$AA2?$AA?$CI?$AA?$CG?$AAa?$AAt?$AAt@ 00493f18     pjmedia-i386-win32-vc8-debug-dynamic:sdp.obj
 0003:00003f6c       ??_C@_05DNEALNHD@cname@    00493f6c     pjmedia-i386-win32-vc8-debug-dynamic:sdp.obj
 0003:00003f74       ??_C@_0O@LDHNMJDJ@?$CFd?5cname?3?$CF?4?$CKs@ 00493f74     pjmedia-i386-win32-vc8-debug-dynamic:sdp.obj
 0003:00003f84       ??_C@_1DC@MOOEGOAE@?$AAp?$AAo?$AAo?$AAl?$AA?5?$AA?$CG?$AA?$CG?$AA?5?$AAa?$AAt?$AAt?$AAr?$AA?5?$AA?$CG?$AA?$CG@ 00493f84     pjmedia-i386-win32-vc8-debug-dynamic:sdp.obj
 0003:00003fc0       ??_C@_1BE@LGFCOKD@?$AA?$CK?$AAp?$AA_?$AAr?$AAt?$AAp?$AAm?$AAa?$AAp@ 00493fc0     pjmedia-i386-win32-vc8-debug-dynamic:sdp.obj
 0003:00003fd8       ??_C@_1DC@EIKIHHHP@?$AAp?$AAo?$AAo?$AAl?$AA?5?$AA?$CG?$AA?$CG?$AA?5?$AAr?$AAt?$AAp?$AAm?$AAa?$AAp?$AA?5@ 00493fd8     pjmedia-i386-win32-vc8-debug-dynamic:sdp.obj
 0003:00004018       ??_C@_1FI@PEPMJPO@?$AAr?$AAt?$AAp?$AAm?$AAa?$AAp?$AA?9?$AA?$DO?$AAe?$AAn?$AAc?$AA_?$AAn?$AAa?$AAm@ 00494018     pjmedia-i386-win32-vc8-debug-dynamic:sdp.obj
 0003:00004084       ??_C@_1CI@EPAHAEGD@?$AAa?$AAt?$AAt?$AAr?$AA?5?$AA?$CB?$AA?$DN?$AA?5?$AA?$CI?$AA?$CI?$AAv?$AAo?$AAi?$AAd?$AA?5@ 00494084     pjmedia-i386-win32-vc8-debug-dynamic:sdp.obj
 0003:000040b4       ??_C@_01KMDKNFGN@?1@       004940b4     pjmedia-i386-win32-vc8-debug-dynamic:sdp.obj
 0003:000040b8       ??_C@_0BD@HEFIBNKB@?$CF?4?$CKs?5?$CF?4?$CKs?1?$CFu?$CFs?$CF?4?$CKs@ 004940b8     pjmedia-i386-win32-vc8-debug-dynamic:sdp.obj
 0003:000040d0       ??_C@_0BD@NGNJPLJA@c?$DN?$CF?4?$CKs?5?$CF?4?$CKs?5?$CF?4?$CKs?$AN?6@ 004940d0     pjmedia-i386-win32-vc8-debug-dynamic:sdp.obj
 0003:000040e8       ??_C@_1CC@CMAOLAKC@?$AAm?$AA?5?$AA?$CB?$AA?$DN?$AA?5?$AA?$CI?$AA?$CI?$AAv?$AAo?$AAi?$AAd?$AA?5?$AA?$CK?$AA?$CJ?$AA0@ 004940e8     pjmedia-i386-win32-vc8-debug-dynamic:sdp.obj
 0003:00004110       ??_C@_1CO@IELLMBJI@?$AAm?$AA?9?$AA?$DO?$AAc?$AAo?$AAn?$AAn?$AA?5?$AA?$CB?$AA?$DN?$AA?5?$AA?$CI?$AA?$CI?$AAv?$AAo@ 00494110     pjmedia-i386-win32-vc8-debug-dynamic:sdp.obj
 0003:00004148       ??_C@_1DG@MEBEIEJJ@?$AAm?$AA?9?$AA?$DO?$AAb?$AAa?$AAn?$AAd?$AAw?$AA?$FL?$AAi?$AA?$FN?$AA?5?$AA?$CB?$AA?$DN?$AA?5@ 00494148     pjmedia-i386-win32-vc8-debug-dynamic:sdp.obj
 0003:00004188       ??_C@_1DE@GHMIPEL@?$AAm?$AA?9?$AA?$DO?$AAa?$AAt?$AAt?$AAr?$AA?$FL?$AAi?$AA?$FN?$AA?5?$AA?$CB?$AA?$DN?$AA?5?$AA?$CI@ 00494188     pjmedia-i386-win32-vc8-debug-dynamic:sdp.obj
 0003:000041c8       ??_C@_1BE@DGPNFPKO@?$AAm?$AA?5?$AA?$CG?$AA?$CG?$AA?5?$AAn?$AAa?$AAm?$AAe@ 004941c8     pjmedia-i386-win32-vc8-debug-dynamic:sdp.obj
 0003:000041e0       ??_C@_05MIOLEPMP@v?$DN0?$AN?6@ 004941e0     pjmedia-i386-win32-vc8-debug-dynamic:sdp.obj
 0003:000041e8       ??_C@_04HHCDBDLF@?5?7?$AN?6@ 004941e8     pjmedia-i386-win32-vc8-debug-dynamic:sdp.obj
 0003:000041f0       ??_C@_02PCIJFNDE@?$AN?6@   004941f0     pjmedia-i386-win32-vc8-debug-dynamic:sdp.obj
 0003:000041f4       ??_C@_0DG@FMMLOIKL@Error?5adding?5SDP?5media?5format?5?$CF@ 004941f4     pjmedia-i386-win32-vc8-debug-dynamic:sdp.obj
 0003:00004234       ??_C@_05LIAFADKM@sdp?4c@   00494234     pjmedia-i386-win32-vc8-debug-dynamic:sdp.obj
 0003:0000423c       ??_C@_08INHMCBAE@inactive@ 0049423c     pjmedia-i386-win32-vc8-debug-dynamic:sdp.obj
 0003:00004248       ??_C@_08HPJEFADN@sendonly@ 00494248     pjmedia-i386-win32-vc8-debug-dynamic:sdp.obj
 0003:00004254       ??_C@_08EHCGIGCO@recvonly@ 00494254     pjmedia-i386-win32-vc8-debug-dynamic:sdp.obj
 0003:00004260       ??_C@_1CO@HBFFMPPN@?$AAs?$AAe?$AAs?$AAs?$AAi?$AAo?$AAn?$AA?5?$AA?$CB?$AA?$DN?$AA?5?$AA?$CI?$AA?$CI?$AAv?$AAo@ 00494260     pjmedia-i386-win32-vc8-debug-dynamic:sdp.obj
 0003:00004298       ??_C@_0DD@EJNOLNM@Error?5adding?5media?5attribute?0?5a@ 00494298     pjmedia-i386-win32-vc8-debug-dynamic:sdp.obj
 0003:000042d8       ??_C@_0DF@GDECOCN@Error?5adding?5session?5attribute?0@ 004942d8     pjmedia-i386-win32-vc8-debug-dynamic:sdp.obj
 0003:00004318       ??_C@_0CF@NCOGEPJF@Error?5adding?5media?0?5media?5is?5ig@ 00494318     pjmedia-i386-win32-vc8-debug-dynamic:sdp.obj
 0003:00004344       ??_C@_0DD@FDBIEIFP@Error?5adding?5media?5bandwidth?5in@ 00494344     pjmedia-i386-win32-vc8-debug-dynamic:sdp.obj
 0003:00004384       ??_C@_0DF@FBLBINKO@Error?5adding?5session?5bandwidth?5@ 00494384     pjmedia-i386-win32-vc8-debug-dynamic:sdp.obj
 0003:000043c4       ??_C@_0CI@CAFHMKHI@Error?5parsing?5SDP?5in?5line?5?$CFd?5co@ 004943c4     pjmedia-i386-win32-vc8-debug-dynamic:sdp.obj
 0003:000043f4       ??_C@_1DK@FGCOIPPN@?$AAc?$AAt?$AAx?$AA?4?$AAl?$AAa?$AAs?$AAt?$AA_?$AAe?$AAr?$AAr?$AAo?$AAr?$AA?5@ 004943f4     pjmedia-i386-win32-vc8-debug-dynamic:sdp.obj
 0003:0000443c       ??_C@_1CI@HOBAFJIC@?$AAs?$AAe?$AAs?$AAs?$AA?5?$AA?$CB?$AA?$DN?$AA?5?$AA?$CI?$AA?$CI?$AAv?$AAo?$AAi?$AAd?$AA?5@ 0049443c     pjmedia-i386-win32-vc8-debug-dynamic:sdp.obj
 0003:0000446c       ??_C@_1DE@KFDBFPOJ@?$AAs?$AAe?$AAs?$AAs?$AA?9?$AA?$DO?$AAc?$AAo?$AAn?$AAn?$AA?5?$AA?$CB?$AA?$DN?$AA?5?$AA?$CI@ 0049446c     pjmedia-i386-win32-vc8-debug-dynamic:sdp.obj
 0003:000044ac       ??_C@_15LFLBLBBH@?$AAt?$AAp@ 004944ac     pjmedia-i386-win32-vc8-debug-dynamic:sdp.obj
 0003:000044b4       ??_C@_03GOLBDMPC@RTP@      004944b4     pjmedia-i386-win32-vc8-debug-dynamic:sdp.obj
 0003:000044b8       ??_C@_03CPJJBAON@AVP@      004944b8     pjmedia-i386-win32-vc8-debug-dynamic:sdp.obj
 0003:000044bc       ??_C@_04LHEMINPH@SAVP@     004944bc     pjmedia-i386-win32-vc8-debug-dynamic:sdp.obj
 0003:000044c4       ??_C@_04HILHOPFG@AVPF@     004944c4     pjmedia-i386-win32-vc8-debug-dynamic:sdp.obj
 0003:000044cc       ??_C@_05IFENMDLB@SAVPF@    004944cc     pjmedia-i386-win32-vc8-debug-dynamic:sdp.obj
 0003:000044d4       ??_C@_03OPEAKHDL@UDP@      004944d4     pjmedia-i386-win32-vc8-debug-dynamic:sdp.obj
 0003:000044d8       ??_C@_0N@IFKNLCBO@TLS?1RTP?1SAVP@ 004944d8     pjmedia-i386-win32-vc8-debug-dynamic:sdp.obj
 0003:000044e8       ??_C@_0O@FMKJHIFC@TLS?1RTP?1SAVPF@ 004944e8     pjmedia-i386-win32-vc8-debug-dynamic:sdp.obj
 0003:000044f8       ??_C@_13BHPHAPDN@?$AAm@    004944f8     pjmedia-i386-win32-vc8-debug-dynamic:sdp.obj
 0003:000048f0       ??_C@_0CK@HBHLALIF@Unspecified?5PJMEDIA?5error?5?$CIPJME@ 004948f0     pjmedia-i386-win32-vc8-debug-dynamic:errno.obj
 0003:00004924       ??_C@_0CM@KFAONKNJ@Invalid?5SDP?5descriptor?5?$CIPJMEDIA@ 00494924     pjmedia-i386-win32-vc8-debug-dynamic:errno.obj
 0003:00004958       ??_C@_0CO@ONPCFICA@Invalid?5SDP?5version?5line?5?$CIPJMED@ 00494958     pjmedia-i386-win32-vc8-debug-dynamic:errno.obj
 0003:00004990       ??_C@_0DA@DIKNJOEJ@Invalid?5SDP?5origin?5line?5?$CIPJMEDI@ 00494990     pjmedia-i386-win32-vc8-debug-dynamic:errno.obj
 0003:000049cc       ??_C@_0CM@DLEAGODI@Invalid?5SDP?5time?5line?5?$CIPJMEDIA_@ 004949cc     pjmedia-i386-win32-vc8-debug-dynamic:errno.obj
 0003:00004a00       ??_C@_0DF@HNDCDPJF@SDP?5name?1subject?5line?5is?5empty?5@ 00494a00     pjmedia-i386-win32-vc8-debug-dynamic:errno.obj
 0003:00004a40       ??_C@_0DC@KNNPDHKA@Invalid?5SDP?5connection?5line?5?$CIPJ@ 00494a40     pjmedia-i386-win32-vc8-debug-dynamic:errno.obj
 0003:00004a7c       ??_C@_0DM@NEDHCJGL@Missing?5SDP?5connection?5info?5lin@ 00494a7c     pjmedia-i386-win32-vc8-debug-dynamic:errno.obj
 0003:00004ac4       ??_C@_0CN@JHLMEODJ@Invalid?5SDP?5attributes?5?$CIPJMEDIA@ 00494ac4     pjmedia-i386-win32-vc8-debug-dynamic:errno.obj
 0003:00004afc       ??_C@_0DF@BJAALDOM@Invalid?5SDP?5rtpmap?5attribute?5?$CIP@ 00494afc     pjmedia-i386-win32-vc8-debug-dynamic:errno.obj
 0003:00004b3c       ??_C@_0DL@HCOGNPAF@SDP?5rtpmap?5attribute?5too?5long?5?$CI@ 00494b3c     pjmedia-i386-win32-vc8-debug-dynamic:errno.obj
 0003:00004b88       ??_C@_0EJ@IDNJACOO@Missing?5SDP?5rtpmap?5for?5dynamic?5@ 00494b88     pjmedia-i386-win32-vc8-debug-dynamic:errno.obj
 0003:00004be0       ??_C@_0CO@DIKFNJOF@Invalid?5SDP?5media?5line?5?$CIPJMEDIA@ 00494be0     pjmedia-i386-win32-vc8-debug-dynamic:errno.obj
 0003:00004c18       ??_C@_0DN@GADAENKO@No?5SDP?5payload?5format?5in?5the?5me@ 00494c18     pjmedia-i386-win32-vc8-debug-dynamic:errno.obj
 0003:00004c64       ??_C@_0DL@KAILPDC@Invalid?5SDP?5payload?5type?5in?5med@ 00494c64     pjmedia-i386-win32-vc8-debug-dynamic:errno.obj
 0003:00004cac       ??_C@_0DB@BJCACDID@Invalid?5SDP?5fmtp?5attribute?5?$CIPJM@ 00494cac     pjmedia-i386-win32-vc8-debug-dynamic:errno.obj
 0003:00004ce8       ??_C@_0DB@GFBENNMO@Invalid?5SDP?5rtcp?5attribute?5?$CIPJM@ 00494ce8     pjmedia-i386-win32-vc8-debug-dynamic:errno.obj
 0003:00004d24       ??_C@_0DM@JFGCNJLM@Invalid?5SDP?5media?5transport?5pro@ 00494d24     pjmedia-i386-win32-vc8-debug-dynamic:errno.obj
 0003:00004d6c       ??_C@_0DH@PCNCDMKM@Invalid?5SDP?5bandwidth?5info?5line@ 00494d6c     pjmedia-i386-win32-vc8-debug-dynamic:errno.obj
 0003:00004db0       ??_C@_0DB@POLJHCKE@Invalid?5SDP?5ssrc?5attribute?5?$CIPJM@ 00494db0     pjmedia-i386-win32-vc8-debug-dynamic:errno.obj
 0003:00004df0       ??_C@_0EF@CJNFLCEL@Invalid?5SDP?5negotiator?5state?5fo@ 00494df0     pjmedia-i386-win32-vc8-debug-dynamic:errno.obj
 0003:00004e48       ??_C@_0ED@IFOJJHNO@No?5initial?5local?5SDP?5in?5SDP?5neg@ 00494e48     pjmedia-i386-win32-vc8-debug-dynamic:errno.obj
 0003:00004e98       ??_C@_0DL@MFMHOMBE@No?5active?5SDP?5in?5SDP?5negotiator@ 00494e98     pjmedia-i386-win32-vc8-debug-dynamic:errno.obj
 0003:00004ee0       ??_C@_0DN@JGPGLEOH@No?5current?5local?1remote?5offer?1a@ 00494ee0     pjmedia-i386-win32-vc8-debug-dynamic:errno.obj
 0003:00004f30       ??_C@_0EE@BLNHOMNC@SDP?5media?5count?5mismatch?5in?5off@ 00494f30     pjmedia-i386-win32-vc8-debug-dynamic:errno.obj
 0003:00004f88       ??_C@_0EG@MJOIPNIH@SDP?5media?5type?5mismatch?5in?5offe@ 00494f88     pjmedia-i386-win32-vc8-debug-dynamic:errno.obj
 0003:00004fe0       ??_C@_0EN@OPFCIOMP@SDP?5media?5transport?5type?5mismat@ 00494fe0     pjmedia-i386-win32-vc8-debug-dynamic:errno.obj
 0003:00005040       ??_C@_0ED@NGHPALDD@No?5common?5SDP?5media?5payload?5in?5@ 00495040     pjmedia-i386-win32-vc8-debug-dynamic:errno.obj
 0003:00005090       ??_C@_0ED@HELGJJGO@No?5active?5media?5stream?5after?5ne@ 00495090     pjmedia-i386-win32-vc8-debug-dynamic:errno.obj
 0003:000050e0       ??_C@_0DP@KIMEPBPF@No?5suitable?5codec?5for?5remote?5of@ 004950e0     pjmedia-i386-win32-vc8-debug-dynamic:errno.obj
 0003:00005130       ??_C@_0EM@LLMPLGCO@No?5suitable?5telephone?9event?5for@ 00495130     pjmedia-i386-win32-vc8-debug-dynamic:errno.obj
 0003:00005190       ??_C@_0EK@LPNBCGHG@No?5suitable?5answer?5for?5unknown?5@ 00495190     pjmedia-i386-win32-vc8-debug-dynamic:errno.obj
 0003:000051e8       ??_C@_0DM@JMBBJEKO@SDP?5media?5descriptor?5not?5equal?5@ 004951e8     pjmedia-i386-win32-vc8-debug-dynamic:errno.obj
 0003:00005230       ??_C@_0ED@KAALGBMF@Port?5in?5SDP?5media?5descriptor?5no@ 00495230     pjmedia-i386-win32-vc8-debug-dynamic:errno.obj
 0003:00005280       ??_C@_0EJ@FJOJLJDF@Transport?5in?5SDP?5media?5descript@ 00495280     pjmedia-i386-win32-vc8-debug-dynamic:errno.obj
 0003:000052d8       ??_C@_0EH@FMIFCFBA@Format?5in?5SDP?5media?5descriptor?5@ 004952d8     pjmedia-i386-win32-vc8-debug-dynamic:errno.obj
 0003:00005330       ??_C@_0DK@MAHAOAHF@SDP?5connection?5line?5not?5equal?5?$CI@ 00495330     pjmedia-i386-win32-vc8-debug-dynamic:errno.obj
 0003:00005378       ??_C@_0DF@HHCJAGLJ@SDP?5attributes?5not?5equal?5?$CIPJMED@ 00495378     pjmedia-i386-win32-vc8-debug-dynamic:errno.obj
 0003:000053b8       ??_C@_0DJ@GGABIHGL@SDP?5media?5direction?5not?5equal?5?$CI@ 004953b8     pjmedia-i386-win32-vc8-debug-dynamic:errno.obj
 0003:000053fc       ??_C@_0DJ@FFGHKCEG@SDP?5fmtp?5attribute?5not?5equal?5?$CIP@ 004953fc     pjmedia-i386-win32-vc8-debug-dynamic:errno.obj
 0003:00005440       ??_C@_0DN@HLKACHFN@SDP?5rtpmap?5attribute?5not?5equal?5@ 00495440     pjmedia-i386-win32-vc8-debug-dynamic:errno.obj
 0003:0000548c       ??_C@_0DN@EALGPLFN@SDP?5session?5descriptor?5not?5equa@ 0049548c     pjmedia-i386-win32-vc8-debug-dynamic:errno.obj
 0003:000054d8       ??_C@_0DI@BLKBMMGO@SDP?5origin?5line?5not?5equal?5?$CIPJME@ 004954d8     pjmedia-i386-win32-vc8-debug-dynamic:errno.obj
 0003:0000551c       ??_C@_0DM@HCOBINN@SDP?5name?1subject?5line?5not?5equal@ 0049551c     pjmedia-i386-win32-vc8-debug-dynamic:errno.obj
 0003:00005564       ??_C@_0DE@PFJJJNGL@SDP?5time?5line?5not?5equal?5?$CIPJMEDI@ 00495564     pjmedia-i386-win32-vc8-debug-dynamic:errno.obj
 0003:000055a4       ??_C@_0CP@ODMIIAEN@Unsupported?5media?5codec?5?$CIPJMEDI@ 004955a4     pjmedia-i386-win32-vc8-debug-dynamic:errno.obj
 0003:000055dc       ??_C@_0DG@KJBEJCIE@Codec?5internal?5creation?5error?5?$CI@ 004955dc     pjmedia-i386-win32-vc8-debug-dynamic:errno.obj
 0003:0000561c       ??_C@_0DG@FOGENKNL@Codec?5frame?5is?5too?5short?5?$CIPJMED@ 0049561c     pjmedia-i386-win32-vc8-debug-dynamic:errno.obj
 0003:0000565c       ??_C@_0DE@OLKJHMCL@PCM?5frame?5is?5too?5short?5?$CIPJMEDIA@ 0049565c     pjmedia-i386-win32-vc8-debug-dynamic:errno.obj
 0003:0000569c       ??_C@_0DF@JDAOLAOM@Invalid?5codec?5frame?5length?5?$CIPJM@ 0049569c     pjmedia-i386-win32-vc8-debug-dynamic:errno.obj
 0003:000056dc       ??_C@_0DG@LLBBCNCG@Invalid?5PCM?5frame?5length?5?$CIPJMED@ 004956dc     pjmedia-i386-win32-vc8-debug-dynamic:errno.obj
 0003:0000571c       ??_C@_0DG@EKMGLMFL@Invalid?5codec?5mode?5?$CIno?5fmtp?$DP?$CJ?5?$CI@ 0049571c     pjmedia-i386-win32-vc8-debug-dynamic:errno.obj
 0003:0000575c       ??_C@_0DJ@NJFBGAOC@Bad?5or?5corrupted?5bitstream?5?$CIPJM@ 0049575c     pjmedia-i386-win32-vc8-debug-dynamic:errno.obj
 0003:000057a0       ??_C@_0DH@KOBKDDJI@Invalid?5remote?5media?5?$CIIP?$CJ?5addre@ 004957a0     pjmedia-i386-win32-vc8-debug-dynamic:errno.obj
 0003:000057e4       ??_C@_0DM@GBJMMNCF@Asymetric?5media?5codec?5is?5not?5su@ 004957e4     pjmedia-i386-win32-vc8-debug-dynamic:errno.obj
 0003:0000582c       ??_C@_0DA@DKJJFGPE@Invalid?5media?5payload?5type?5?$CIPJM@ 0049582c     pjmedia-i386-win32-vc8-debug-dynamic:errno.obj
 0003:00005868       ??_C@_0DN@IGGOEBDI@Missing?5rtpmap?5in?5media?5descrip@ 00495868     pjmedia-i386-win32-vc8-debug-dynamic:errno.obj
 0003:000058b4       ??_C@_0CO@MJBLNMMI@Invalid?5media?5type?5?$CIPJMEDIA_EIN@ 004958b4     pjmedia-i386-win32-vc8-debug-dynamic:errno.obj
 0003:000058ec       ??_C@_0DF@NNKPPHHC@Remote?5does?5not?5support?5DTMF?5?$CIP@ 004958ec     pjmedia-i386-win32-vc8-debug-dynamic:errno.obj
 0003:0000592c       ??_C@_0CJ@ECIKMCPH@Invalid?5DTMF?5digit?5?$CIPJMEDIA_RTP@ 0049592c     pjmedia-i386-win32-vc8-debug-dynamic:errno.obj
 0003:00005960       ??_C@_0DN@EHCPFJJN@Remote?5does?5not?5support?5RFC?5283@ 00495960     pjmedia-i386-win32-vc8-debug-dynamic:errno.obj
 0003:000059ac       ??_C@_0BN@LMCOIKH@Bad?5format?5?$CIPJMEDIA_EBADFMT?$CJ@ 004959ac     pjmedia-i386-win32-vc8-debug-dynamic:errno.obj
 0003:000059d0       ??_C@_0DB@GBKLBGPK@Unsupported?5media?5type?5?$CIPJMEDIA@ 004959d0     pjmedia-i386-win32-vc8-debug-dynamic:errno.obj
 0003:00005a0c       ??_C@_0CI@KDAMKHEL@Invalid?5RTP?5packet?5?$CIPJMEDIA_RTP@ 00495a0c     pjmedia-i386-win32-vc8-debug-dynamic:errno.obj
 0003:00005a3c       ??_C@_0DL@KLDJIJLI@Invalid?5RTP?5packing?5?$CIinternal?5e@ 00495a3c     pjmedia-i386-win32-vc8-debug-dynamic:errno.obj
 0003:00005a84       ??_C@_0CJ@NGKNCMFA@Invalid?5RTP?5version?5?$CIPJMEDIA_RT@ 00495a84     pjmedia-i386-win32-vc8-debug-dynamic:errno.obj
 0003:00005ab8       ??_C@_0DC@PFPAEINL@RTP?5packet?5SSRC?5id?5mismatch?5?$CIPJ@ 00495ab8     pjmedia-i386-win32-vc8-debug-dynamic:errno.obj
 0003:00005af4       ??_C@_0DF@KDOADJLK@RTP?5packet?5payload?5type?5mismatc@ 00495af4     pjmedia-i386-win32-vc8-debug-dynamic:errno.obj
 0003:00005b34       ??_C@_0CP@OBFABIAL@Invalid?5RTP?5packet?5length?5?$CIPJME@ 00495b34     pjmedia-i386-win32-vc8-debug-dynamic:errno.obj
 0003:00005b6c       ??_C@_0DB@HLHLKEBJ@RTP?5session?5restarted?5?$CIPJMEDIA_@ 00495b6c     pjmedia-i386-win32-vc8-debug-dynamic:errno.obj
 0003:00005ba8       ??_C@_0DG@OPPFJBGL@RTP?5session?5in?5probation?5?$CIPJMED@ 00495ba8     pjmedia-i386-win32-vc8-debug-dynamic:errno.obj
 0003:00005be8       ??_C@_0DI@LFLLIJCB@Bad?5sequence?5number?5in?5RTP?5pack@ 00495be8     pjmedia-i386-win32-vc8-debug-dynamic:errno.obj
 0003:00005c30       ??_C@_0EE@PHAAOPAG@RTP?5media?5port?5destination?5is?5n@ 00495c30     pjmedia-i386-win32-vc8-debug-dynamic:errno.obj
 0003:00005c84       ??_C@_0CO@BFKJOFNE@RTP?5is?5not?5configured?5?$CIPJMEDIA_@ 00495c84     pjmedia-i386-win32-vc8-debug-dynamic:errno.obj
 0003:00005cbc       ??_C@_0DI@MEKDIPIO@Media?5ports?5are?5not?5compatible?5@ 00495cbc     pjmedia-i386-win32-vc8-debug-dynamic:errno.obj
 0003:00005d00       ??_C@_0EA@EJPEOGMK@Media?5ports?5have?5incompatible?5c@ 00495d00     pjmedia-i386-win32-vc8-debug-dynamic:errno.obj
 0003:00005d50       ??_C@_0EL@KOIIKBFP@Media?5ports?5have?5incompatible?5s@ 00495d50     pjmedia-i386-win32-vc8-debug-dynamic:errno.obj
 0003:00005dac       ??_C@_0DL@FLCJCEPI@Media?5ports?5have?5incompatible?5m@ 00495dac     pjmedia-i386-win32-vc8-debug-dynamic:errno.obj
 0003:00005df8       ??_C@_0EA@CDICINEI@Media?5ports?5have?5incompatible?5b@ 00495df8     pjmedia-i386-win32-vc8-debug-dynamic:errno.obj
 0003:00005e48       ??_C@_0EB@DHIDGGBD@Media?5ports?5have?5incompatible?5b@ 00495e48     pjmedia-i386-win32-vc8-debug-dynamic:errno.obj
 0003:00005e98       ??_C@_0EG@FBPNENMF@Media?5ports?5have?5incompatible?5n@ 00495e98     pjmedia-i386-win32-vc8-debug-dynamic:errno.obj
 0003:00005eec       ??_C@_0CO@CKCFJDML@Not?5a?5valid?5WAVE?5file?5?$CIPJMEDIA_@ 00495eec     pjmedia-i386-win32-vc8-debug-dynamic:errno.obj
 0003:00005f24       ??_C@_0DD@FKNCKLNB@Unsupported?5WAVE?5file?5format?5?$CIP@ 00495f24     pjmedia-i386-win32-vc8-debug-dynamic:errno.obj
 0003:00005f64       ??_C@_0CM@HKHLDPDN@WAVE?5file?5too?5short?5?$CIPJMEDIA_EW@ 00495f64     pjmedia-i386-win32-vc8-debug-dynamic:errno.obj
 0003:00005f98       ??_C@_0DP@HHAKLPGE@Sound?5frame?5too?5large?5for?5file?5@ 00495f98     pjmedia-i386-win32-vc8-debug-dynamic:errno.obj
 0003:00005fe4       ??_C@_0CK@EMOCNCPF@Unsupported?5AVI?5file?5?$CIPJMEDIA_E@ 00495fe4     pjmedia-i386-win32-vc8-debug-dynamic:errno.obj
 0003:00006018       ??_C@_0DF@PKIKHNPA@No?5suitable?5sound?5capture?5devic@ 00496018     pjmedia-i386-win32-vc8-debug-dynamic:errno.obj
 0003:00006058       ??_C@_0DH@NACBPKOD@No?5suitable?5sound?5playback?5devi@ 00496058     pjmedia-i386-win32-vc8-debug-dynamic:errno.obj
 0003:0000609c       ??_C@_0CO@FCJGKBG@Invalid?5sound?5device?5ID?5?$CIPJMEDI@ 0049609c     pjmedia-i386-win32-vc8-debug-dynamic:errno.obj
 0003:000060d8       ??_C@_0EB@GAMOPGD@Invalid?5sample?5format?5for?5sound@ 004960d8     pjmedia-i386-win32-vc8-debug-dynamic:errno.obj
 0003:00006128       ??_C@_0FA@HAKEALMK@SRTP?5crypto?9suite?5name?5not?5matc@ 00496128     pjmedia-i386-win32-vc8-debug-dynamic:errno.obj
 0003:00006188       ??_C@_0EF@DCMAHBDI@Invalid?5SRTP?5key?5length?5for?5spe@ 00496188     pjmedia-i386-win32-vc8-debug-dynamic:errno.obj
 0003:000061dc       ??_C@_0DL@BINEGGLM@Unsupported?5SRTP?5crypto?9suite?5?$CI@ 004961dc     pjmedia-i386-win32-vc8-debug-dynamic:errno.obj
 0003:00006224       ??_C@_0DP@DNDEFJI@SRTP?5SDP?5contains?5ambigue?5answe@ 00496224     pjmedia-i386-win32-vc8-debug-dynamic:errno.obj
 0003:00006270       ??_C@_0DL@PPDCJAFI@Duplicated?5SRTP?5crypto?5tag?5?$CIPJM@ 00496270     pjmedia-i386-win32-vc8-debug-dynamic:errno.obj
 0003:000062b8       ??_C@_0DK@EIEPDNB@Invalid?5SRTP?5crypto?5attribute?5?$CI@ 004962b8     pjmedia-i386-win32-vc8-debug-dynamic:errno.obj
 0003:00006300       ??_C@_0DH@JABOECDK@Invalid?5SRTP?5crypto?5tag?5?$CIPJMEDI@ 00496300     pjmedia-i386-win32-vc8-debug-dynamic:errno.obj
 0003:00006348       ??_C@_0EE@HKDIFKLN@Invalid?5SDP?5media?5transport?5for@ 00496348     pjmedia-i386-win32-vc8-debug-dynamic:errno.obj
 0003:0000639c       ??_C@_0DM@OPHJDJCK@SRTP?5crypto?5attribute?5required?5@ 0049639c     pjmedia-i386-win32-vc8-debug-dynamic:errno.obj
 0003:000063e8       ??_C@_0EO@MOMMHEEA@Secure?5transport?5required?5in?5SD@ 004963e8     pjmedia-i386-win32-vc8-debug-dynamic:errno.obj
 0003:00006448       ??_C@_0EK@HIIDIBOJ@SRTP?5parameters?5negotiation?5sti@ 00496448     pjmedia-i386-win32-vc8-debug-dynamic:errno.obj
 0003:000064a0       ??_C@_0EM@HBHPHIDH@No?5matching?5SRTP?5crypto?9suite?5a@ 004964a0     pjmedia-i386-win32-vc8-debug-dynamic:errno.obj
 0003:00006500       ??_C@_0EN@OKMMPCBN@No?5certificate?5supplied?5by?5peer@ 00496500     pjmedia-i386-win32-vc8-debug-dynamic:errno.obj
 0003:00006560       ??_C@_0FM@DHHDFBCG@Fingerprint?5from?5signalling?5not@ 00496560     pjmedia-i386-win32-vc8-debug-dynamic:errno.obj
 0003:000065d0       ??_C@_0DE@BIABFNHJ@Fingerprint?5not?5found?5?$CIPJMEDIA_@ 004965d0     pjmedia-i386-win32-vc8-debug-dynamic:errno.obj
 0003:00006610       ??_C@_0BJ@JGEGOKIK@Unknown?5pjmedia?5error?5?$CFd@ 00496610     pjmedia-i386-win32-vc8-debug-dynamic:errno.obj
 0003:00006630       ??_C@_1HE@JDPKGLMH@?$AAd?$AA?3?$AA?2?$AAp?$AAj?$AAs?$AAi?$AAp?$AA?2?$AAp?$AAj?$AAp?$AAr?$AAo?$AAj@ 00496630     pjmedia-i386-win32-vc8-debug-dynamic:clock_thread.obj
 0003:000066bc       ??_C@_1BC@OKOOGDDL@?$AAc?$AAl?$AAo?$AAc?$AAk?$AAs?$AAr?$AAc@ 004966bc     pjmedia-i386-win32-vc8-debug-dynamic:clock_thread.obj
 0003:000066d4       ??_C@_1CM@CDDALEGD@?$AAc?$AAl?$AAo?$AAc?$AAk?$AAs?$AAr?$AAc?$AA?5?$AA?$CG?$AA?$CG?$AA?5?$AAt?$AAi?$AAm@ 004966d4     pjmedia-i386-win32-vc8-debug-dynamic:clock_thread.obj
 0003:00006708       ??_C@_1HK@BBHFBAFG@?$AAp?$AAo?$AAo?$AAl?$AA?5?$AA?$CG?$AA?$CG?$AA?5?$AAp?$AAa?$AAr?$AAa?$AAm?$AA?9?$AA?$DO@ 00496708     pjmedia-i386-win32-vc8-debug-dynamic:clock_thread.obj
 0003:0000679c       ??_C@_07FCABJMLC@clock?$CFp@ 0049679c     pjmedia-i386-win32-vc8-debug-dynamic:clock_thread.obj
 0003:000067a8       ??_C@_05DDECJJKE@clock@    004967a8     pjmedia-i386-win32-vc8-debug-dynamic:clock_thread.obj
 0003:000067b0       ??_C@_1CK@BJCBDCJE@?$AAc?$AAl?$AAo?$AAc?$AAk?$AA?5?$AA?$CB?$AA?$DN?$AA?5?$AA?$CI?$AA?$CI?$AAv?$AAo?$AAi?$AAd@ 004967b0     pjmedia-i386-win32-vc8-debug-dynamic:clock_thread.obj
 0003:000067e8       ??_C@_1FO@IBOFFBE@?$AA?$CI?$AAc?$AAl?$AAo?$AAc?$AAk?$AA?9?$AA?$DO?$AAo?$AAp?$AAt?$AAi?$AAo?$AAn?$AAs@ 004967e8     pjmedia-i386-win32-vc8-debug-dynamic:clock_thread.obj
 0003:00006858       ??_C@_1BO@DDGJPOEI@?$AAc?$AAl?$AAo?$AAc?$AAk?$AA?9?$AA?$DO?$AAr?$AAu?$AAn?$AAn?$AAi?$AAn?$AAg@ 00496858     pjmedia-i386-win32-vc8-debug-dynamic:clock_thread.obj
 0003:0000687c       ??_C@_0BA@LPBIANE@Echo?5suppressor@ 0049687c     pjmedia-i386-win32-vc8-debug-dynamic:echo_common.obj
 0003:00006890       ??_C@_03FABGEMFG@AEC@      00496890     pjmedia-i386-win32-vc8-debug-dynamic:echo_common.obj
 0003:00006894       ??_C@_04FACFFFMP@ec?$CFp@  00496894     pjmedia-i386-win32-vc8-debug-dynamic:echo_common.obj
 0003:000068a0       ??_C@_1HC@KLPAIIMM@?$AAd?$AA?3?$AA?2?$AAp?$AAj?$AAs?$AAi?$AAp?$AA?2?$AAp?$AAj?$AAp?$AAr?$AAo?$AAj@ 004968a0     pjmedia-i386-win32-vc8-debug-dynamic:echo_common.obj
 0003:00006928       ??_C@_1FI@FDLBNAL@?$AA?$CB?$AAe?$AAc?$AA?9?$AA?$DO?$AAo?$AAp?$AA?9?$AA?$DO?$AAe?$AAc?$AA_?$AAc?$AAa?$AAp@ 00496928     pjmedia-i386-win32-vc8-debug-dynamic:echo_common.obj
 0003:00006994       ??_C@_0M@KMDBLPFK@Creating?5?$CFs@ 00496994     pjmedia-i386-win32-vc8-debug-dynamic:echo_common.obj
 0003:000069a8       ??_C@_0FO@FCNNBEFH@?$CFs?5created?0?5clock_rate?$DN?$CFd?0?5chan@ 004969a8     pjmedia-i386-win32-vc8-debug-dynamic:echo_common.obj
 0003:00006a18       ??_C@_0BM@HOHFIKPJ@Latency?5bufferring?5complete@ 00496a18     pjmedia-i386-win32-vc8-debug-dynamic:echo_common.obj
 0003:00006a3c       ??_C@_0O@DBBHABPM@Prefetching?4?4@ 00496a3c     pjmedia-i386-win32-vc8-debug-dynamic:echo_common.obj
 0003:00006a4c       ??_C@_0DF@ENONGENO@No?5frame?5from?5delay?5buffer?4?5Thi@ 00496a4c     pjmedia-i386-win32-vc8-debug-dynamic:echo_common.obj
 0003:00006a90       _pjmedia_linear2ulaw_tab   00496a90     pjmedia-i386-win32-vc8-debug-dynamic:alaw_ulaw_table.obj
 0003:0000aa90       _pjmedia_linear2alaw_tab   0049aa90     pjmedia-i386-win32-vc8-debug-dynamic:alaw_ulaw_table.obj
 0003:0000ea90       _pjmedia_ulaw2linear_tab   0049ea90     pjmedia-i386-win32-vc8-debug-dynamic:alaw_ulaw_table.obj
 0003:0000ec90       _pjmedia_alaw2linear_tab   0049ec90     pjmedia-i386-win32-vc8-debug-dynamic:alaw_ulaw_table.obj
 0003:00010914       ??_C@_08MPIAKENM@RTP?1SAVP@ 004a0914     pjmedia-i386-win32-vc8-debug-dynamic:transport_srtp.obj
 0003:00010920       ??_C@_06LAEHEPPF@crypto@   004a0920     pjmedia-i386-win32-vc8-debug-dynamic:transport_srtp.obj
 0003:00010928       ??_C@_04HIBGFPH@NULL@      004a0928     pjmedia-i386-win32-vc8-debug-dynamic:transport_srtp.obj
 0003:00010930       ??_C@_0BI@FCCBBIDC@AES_256_CM_HMAC_SHA1_80@ 004a0930     pjmedia-i386-win32-vc8-debug-dynamic:transport_srtp.obj
 0003:0001094c       ??_C@_0BI@GMECJFFB@AES_256_CM_HMAC_SHA1_32@ 004a094c     pjmedia-i386-win32-vc8-debug-dynamic:transport_srtp.obj
 0003:00010968       ??_C@_0BI@OADHPNHF@AES_CM_128_HMAC_SHA1_80@ 004a0968     pjmedia-i386-win32-vc8-debug-dynamic:transport_srtp.obj
 0003:00010984       ??_C@_0BI@NOFEHABG@AES_CM_128_HMAC_SHA1_32@ 004a0984     pjmedia-i386-win32-vc8-debug-dynamic:transport_srtp.obj
 0003:000109a0       ??_C@_02MFDMBIJM@ok@       004a09a0     pjmedia-i386-win32-vc8-debug-dynamic:transport_srtp.obj
 0003:000109a4       ??_C@_0BE@KFOIPNMM@unspecified?5failure@ 004a09a4     pjmedia-i386-win32-vc8-debug-dynamic:transport_srtp.obj
 0003:000109bc       ??_C@_0BG@LENPEKHL@unsupported?5parameter@ 004a09bc     pjmedia-i386-win32-vc8-debug-dynamic:transport_srtp.obj
 0003:000109d8       ??_C@_0BJ@DGLNBGGB@couldn?8t?5allocate?5memory@ 004a09d8     pjmedia-i386-win32-vc8-debug-dynamic:transport_srtp.obj
 0003:000109f8       ??_C@_0BN@LJIJFBAJ@couldn?8t?5deallocate?5properly@ 004a09f8     pjmedia-i386-win32-vc8-debug-dynamic:transport_srtp.obj
 0003:00010a1c       ??_C@_0BE@KBPICNEA@couldn?8t?5initialize@ 004a0a1c     pjmedia-i386-win32-vc8-debug-dynamic:transport_srtp.obj
 0003:00010a34       ??_C@_0CI@FEPPFOBO@can?8t?5process?5as?5much?5data?5as?5r@ 004a0a34     pjmedia-i386-win32-vc8-debug-dynamic:transport_srtp.obj
 0003:00010a64       ??_C@_0BH@DJJHFLDI@authentication?5failure@ 004a0a64     pjmedia-i386-win32-vc8-debug-dynamic:transport_srtp.obj
 0003:00010a80       ??_C@_0P@MHOCHBCE@cipher?5failure@ 004a0a80     pjmedia-i386-win32-vc8-debug-dynamic:transport_srtp.obj
 0003:00010a94       ??_C@_0CA@LIFPFHJ@replay?5check?5failed?5?$CIbad?5index?$CJ@ 004a0a94     pjmedia-i386-win32-vc8-debug-dynamic:transport_srtp.obj
 0003:00010abc       ??_C@_0CE@GCMJOMFK@replay?5check?5failed?5?$CIindex?5too?5@ 004a0abc     pjmedia-i386-win32-vc8-debug-dynamic:transport_srtp.obj
 0003:00010ae8       ??_C@_0BO@KLFALCF@algorithm?5failed?5test?5routine@ 004a0ae8     pjmedia-i386-win32-vc8-debug-dynamic:transport_srtp.obj
 0003:00010b0c       ??_C@_0BG@JKFIFBMN@unsupported?5operation@ 004a0b0c     pjmedia-i386-win32-vc8-debug-dynamic:transport_srtp.obj
 0003:00010b28       ??_C@_0BN@PDJKDLOF@no?5appropriate?5context?5found@ 004a0b28     pjmedia-i386-win32-vc8-debug-dynamic:transport_srtp.obj
 0003:00010b4c       ??_C@_0CF@DOHHPHGD@unable?5to?5perform?5desired?5valid@ 004a0b4c     pjmedia-i386-win32-vc8-debug-dynamic:transport_srtp.obj
 0003:00010b78       ??_C@_0BH@NKHPNDDN@can?8t?5use?5key?5any?5more@ 004a0b78     pjmedia-i386-win32-vc8-debug-dynamic:transport_srtp.obj
 0003:00010b94       ??_C@_0BH@CDHGOGDE@error?5in?5use?5of?5socket@ 004a0b94     pjmedia-i386-win32-vc8-debug-dynamic:transport_srtp.obj
 0003:00010bb0       ??_C@_0BL@DJFHEKEC@error?5in?5use?5POSIX?5signals@ 004a0bb0     pjmedia-i386-win32-vc8-debug-dynamic:transport_srtp.obj
 0003:00010bd0       ??_C@_0BD@HFMCMINA@nonce?5check?5failed@ 004a0bd0     pjmedia-i386-win32-vc8-debug-dynamic:transport_srtp.obj
 0003:00010be8       ??_C@_0BD@FCFDDPHP@couldn?8t?5read?5data@ 004a0be8     pjmedia-i386-win32-vc8-debug-dynamic:transport_srtp.obj
 0003:00010c00       ??_C@_0BE@PIHIJLHG@couldn?8t?5write?5data@ 004a0c00     pjmedia-i386-win32-vc8-debug-dynamic:transport_srtp.obj
 0003:00010c18       ??_C@_0BD@PIIFGNCP@error?5pasring?5data@ 004a0c18     pjmedia-i386-win32-vc8-debug-dynamic:transport_srtp.obj
 0003:00010c30       ??_C@_0BE@FFKLLGEP@error?5encoding?5data@ 004a0c30     pjmedia-i386-win32-vc8-debug-dynamic:transport_srtp.obj
 0003:00010c48       ??_C@_0BN@OEPMNKMP@error?5while?5using?5semaphores@ 004a0c48     pjmedia-i386-win32-vc8-debug-dynamic:transport_srtp.obj
 0003:00010c6c       ??_C@_0BI@JNCDFEKK@error?5while?5using?5pfkey@ 004a0c6c     pjmedia-i386-win32-vc8-debug-dynamic:transport_srtp.obj
 0003:00010c88       ??_C@_0BJ@BOBCJFAN@Unknown?5libsrtp?5error?5?$CFd@ 004a0c88     pjmedia-i386-win32-vc8-debug-dynamic:transport_srtp.obj
 0003:00010ca8       ??_C@_04HJOFNBFH@sdes@     004a0ca8     pjmedia-i386-win32-vc8-debug-dynamic:transport_srtp.obj
 0003:00010cb0       ??_C@_0BJ@FEOOEBIC@SRTP?5keying?5SDES?5created@ 004a0cb0     pjmedia-i386-win32-vc8-debug-dynamic:transport_srtp.obj
 0003:00010cd0       ??_C@_1IC@OBJGFNPB@?$AAd?$AA?3?$AA?2?$AAp?$AAj?$AAs?$AAi?$AAp?$AA?2?$AAp?$AAj?$AAp?$AAr?$AAo?$AAj@ 004a0cd0     pjmedia-i386-win32-vc8-debug-dynamic:transport_srtp.obj
 0003:00010d70       ??_C@_1FI@GEJKNFC@?$AA1?$AA2?$AA8?$AA?5?$AA?$DO?$AA?$DN?$AA?5?$AAc?$AAr?$AAy?$AAp?$AAt?$AAo?$AA_?$AAs@ 004a0d70     pjmedia-i386-win32-vc8-debug-dynamic:transport_srtp.obj
 0003:00010de0       ??_C@_0EB@EJGHAKCH@Warning?3?5simple?5random?5generato@ 004a0de0     pjmedia-i386-win32-vc8-debug-dynamic:transport_srtp.obj
 0003:00010e30       ??_C@_0BB@HGEADDBB@transport_srtp?4c@ 004a0e30     pjmedia-i386-win32-vc8-debug-dynamic:transport_srtp.obj
 0003:00010e44       ??_C@_0CE@BAIPFCEP@Failed?5encoding?5plain?5key?5to?5ba@ 004a0e44     pjmedia-i386-win32-vc8-debug-dynamic:transport_srtp.obj
 0003:00010e70       ??_C@_1GM@GMFMOBNN@?$AA?$CK?$AAb?$AAu?$AAf?$AAf?$AAe?$AAr?$AA_?$AAl?$AAe?$AAn?$AA?5?$AA?$DO?$AA?$DN?$AA?5@ 004a0e70     pjmedia-i386-win32-vc8-debug-dynamic:transport_srtp.obj
 0003:00010ef4       ??_C@_0BA@OGAKIHAO@?$CFd?5?$CFs?5inline?3?$CFs@ 004a0ef4     pjmedia-i386-win32-vc8-debug-dynamic:transport_srtp.obj
 0003:00010f08       ??_C@_0BP@IBJNGPHO@Attribute?5crypto?5expecting?5tag@ 004a0f08     pjmedia-i386-win32-vc8-debug-dynamic:transport_srtp.obj
 0003:00010f30       ??_C@_0CI@IIDGBGP@Attribute?5crypto?5expecting?5cryp@ 004a0f30     pjmedia-i386-win32-vc8-debug-dynamic:transport_srtp.obj
 0003:00010f60       ??_C@_02LMMGGCAJ@?3?5@     004a0f60     pjmedia-i386-win32-vc8-debug-dynamic:transport_srtp.obj
 0003:00010f64       ??_C@_0CG@JCJFEHFF@Attribute?5crypto?5expecting?5key?5@ 004a0f64     pjmedia-i386-win32-vc8-debug-dynamic:transport_srtp.obj
 0003:00010f94       ??_C@_06OGMBMJA@inline@    004a0f94     pjmedia-i386-win32-vc8-debug-dynamic:transport_srtp.obj
 0003:00010f9c       ??_C@_0DC@FIGAPMKM@Attribute?5crypto?5key?5method?5?8?$CF?4@ 004a0f9c     pjmedia-i386-win32-vc8-debug-dynamic:transport_srtp.obj
 0003:00010fd8       ??_C@_02MINBJDHL@?$HM?5@   004a0fd8     pjmedia-i386-win32-vc8-debug-dynamic:transport_srtp.obj
 0003:00010fdc       ??_C@_0BP@FKKPLPLE@Attribute?5crypto?5expecting?5key@ 004a0fdc     pjmedia-i386-win32-vc8-debug-dynamic:transport_srtp.obj
 0003:00011004       ??_C@_0N@FJKIJMGM@Key?5too?5long@ 004a1004     pjmedia-i386-win32-vc8-debug-dynamic:transport_srtp.obj
 0003:00011014       ??_C@_0CH@PPONEAL@Failed?5decoding?5crypto?5key?5from@ 004a1014     pjmedia-i386-win32-vc8-debug-dynamic:transport_srtp.obj
 0003:00011044       ??_C@_1CI@PICKKBLK@?$AAs?$AAd?$AAp?$AA_?$AAr?$AAe?$AAm?$AAo?$AAt?$AAe?$AA?5?$AA?$CG?$AA?$CG?$AA?5?$AAm@ 004a1044     pjmedia-i386-win32-vc8-debug-dynamic:transport_srtp.obj
 0003:00011074       ??_C@_0CB@KJOFGAC@Failed?5to?5initialize?5libsrtp?3?5?$CF@ 004a1074     pjmedia-i386-win32-vc8-debug-dynamic:transport_srtp.obj
 0003:0001109c       ??_C@_0CD@JOBKHEBK@Failed?5to?5register?5libsrtp?5dein@ 004a109c     pjmedia-i386-win32-vc8-debug-dynamic:transport_srtp.obj
 0003:000110c8       ??_C@_0CD@EDFIBBCB@Failed?5to?5deinitialize?5libsrtp?3@ 004a10c8     pjmedia-i386-win32-vc8-debug-dynamic:transport_srtp.obj
 0003:000110f8       ??_C@_1HI@KFDBMJLM@?$AAd?$AA?3?$AA?2?$AAp?$AAj?$AAs?$AAi?$AAp?$AA?2?$AAp?$AAj?$AAp?$AAr?$AAo?$AAj@ 004a10f8     pjmedia-i386-win32-vc8-debug-dynamic:transport_srtp.obj
 0003:00011188       ??_C@_17HMGJKIIL@?$AAo?$AAp?$AAt@ 004a1188     pjmedia-i386-win32-vc8-debug-dynamic:transport_srtp.obj
 0003:00011194       ??_C@_1CA@IDGAABII@?$AAc?$AAo?$AAu?$AAn?$AAt?$AA?5?$AA?$CG?$AA?$CG?$AA?5?$AAc?$AAr?$AAy?$AAp?$AAt?$AAo@ 004a1194     pjmedia-i386-win32-vc8-debug-dynamic:transport_srtp.obj
 0003:000111bc       ??_C@_1CA@MMLEDINP@?$AAc?$AAo?$AAu?$AAn?$AAt?$AA?5?$AA?$CG?$AA?$CG?$AA?5?$AAk?$AAe?$AAy?$AAi?$AAn?$AAg@ 004a11bc     pjmedia-i386-win32-vc8-debug-dynamic:transport_srtp.obj
 0003:000111e4       ??_C@_1CI@IBFHDBIO@?$AAe?$AAn?$AAd?$AAp?$AAt?$AA?5?$AA?$CG?$AA?$CG?$AA?5?$AAt?$AAp?$AA?5?$AA?$CG?$AA?$CG?$AA?5@ 004a11e4     pjmedia-i386-win32-vc8-debug-dynamic:transport_srtp.obj
 0003:00011214       ??_C@_06IPCNFNJD@srtp?$CFp@ 004a1214     pjmedia-i386-win32-vc8-debug-dynamic:transport_srtp.obj
 0003:0001121c       ??_C@_1BO@OBDHBCGG@?$AAt?$AAp?$AA?5?$AA?$CG?$AA?$CG?$AA?5?$AAt?$AAx?$AA?5?$AA?$CG?$AA?$CG?$AA?5?$AAr?$AAx@ 004a121c     pjmedia-i386-win32-vc8-debug-dynamic:transport_srtp.obj
 0003:00011240       ??_C@_0BB@JENPEJDI@?9?9key?5too?5long?9?9@ 004a1240     pjmedia-i386-win32-vc8-debug-dynamic:transport_srtp.obj
 0003:00011254       ??_C@_0O@LPFLKIMI@TX?3?5?$CFs?5key?$DN?$CFs@ 004a1254     pjmedia-i386-win32-vc8-debug-dynamic:transport_srtp.obj
 0003:00011264       ??_C@_05EPPOHEBK@?5auth@   004a1264     pjmedia-i386-win32-vc8-debug-dynamic:transport_srtp.obj
 0003:0001126c       ??_C@_04PIHNPOJJ@?5enc@    004a126c     pjmedia-i386-win32-vc8-debug-dynamic:transport_srtp.obj
 0003:00011274       ??_C@_0BA@BONGIHBG@TX?3?5disable?$CFs?$CFs@ 004a1274     pjmedia-i386-win32-vc8-debug-dynamic:transport_srtp.obj
 0003:00011288       ??_C@_0O@EHJJODHO@RX?3?5?$CFs?5key?$DN?$CFs@ 004a1288     pjmedia-i386-win32-vc8-debug-dynamic:transport_srtp.obj
 0003:00011298       ??_C@_0BA@ENEHOOPC@RX?3?5disable?$CFs?$CFs@ 004a1298     pjmedia-i386-win32-vc8-debug-dynamic:transport_srtp.obj
 0003:000112ac       ??_C@_19BEPCNALE@?$AAs?$AAr?$AAt?$AAp@ 004a12ac     pjmedia-i386-win32-vc8-debug-dynamic:transport_srtp.obj
 0003:000112b8       ??_C@_0CG@KDAPJFOB@Failed?5to?5dealloc?5RX?5SRTP?5conte@ 004a12b8     pjmedia-i386-win32-vc8-debug-dynamic:transport_srtp.obj
 0003:000112e8       ??_C@_0CG@CHCMAIDE@Failed?5to?5dealloc?5TX?5SRTP?5conte@ 004a12e8     pjmedia-i386-win32-vc8-debug-dynamic:transport_srtp.obj
 0003:00011318       ??_C@_0BA@CMIKGIPP@SRTP?5not?5active@ 004a1318     pjmedia-i386-win32-vc8-debug-dynamic:transport_srtp.obj
 0003:0001132c       ??_C@_04LFNPDDCP@SDES@     004a132c     pjmedia-i386-win32-vc8-debug-dynamic:transport_srtp.obj
 0003:00011334       ??_C@_09LMBOLLED@DTLS?9SRTP@ 004a1334     pjmedia-i386-win32-vc8-debug-dynamic:transport_srtp.obj
 0003:00011340       ??_C@_0CD@NFEKFFAL@SRTP?5started?0?5keying?$DN?$CFs?0?5crypto@ 004a1340     pjmedia-i386-win32-vc8-debug-dynamic:transport_srtp.obj
 0003:0001136c       ??_C@_1BG@EOJHKJHM@?$AAt?$AAp?$AA?5?$AA?$CG?$AA?$CG?$AA?5?$AAi?$AAn?$AAf?$AAo@ 004a136c     pjmedia-i386-win32-vc8-debug-dynamic:transport_srtp.obj
 0003:00011388       ??_C@_1DI@NHMPMOHF@?$AAi?$AAn?$AAf?$AAo?$AA?9?$AA?$DO?$AAs?$AAp?$AAe?$AAc?$AAi?$AAf?$AAi?$AAc?$AA_@ 004a1388     pjmedia-i386-win32-vc8-debug-dynamic:transport_srtp.obj
 0003:000113cc       ??_C@_1BI@EHINJOLO@?$AAt?$AAp?$AA?5?$AA?$CG?$AA?$CG?$AA?5?$AAp?$AAa?$AAr?$AAa?$AAm@ 004a13cc     pjmedia-i386-win32-vc8-debug-dynamic:transport_srtp.obj
 0003:000113e8       ??_C@_1DM@LJGMPJIE@?$AA?$CI?$AA?$CI?$AA?$CI?$AAp?$AAj?$AA_?$AAs?$AAs?$AAi?$AAz?$AAe?$AA_?$AAt?$AA?$CJ?$AAp@ 004a13e8     pjmedia-i386-win32-vc8-debug-dynamic:transport_srtp.obj
 0003:00011430       ??_C@_0BP@CAGNCNCA@Failed?5to?5restart?5SRTP?0?5err?$DN?$CFs@ 004a1430     pjmedia-i386-win32-vc8-debug-dynamic:transport_srtp.obj
 0003:00011458       ??_C@_0CO@EDHKLEPP@Failed?5to?5unprotect?5SRTP?0?5pkt?5s@ 004a1458     pjmedia-i386-win32-vc8-debug-dynamic:transport_srtp.obj
 0003:00011490       ??_C@_0CP@OAIPELPD@Failed?5to?5unprotect?5SRTCP?0?5pkt?5@ 004a1490     pjmedia-i386-win32-vc8-debug-dynamic:transport_srtp.obj
 0003:000114c8       ??_C@_1DI@FKNKINIE@?$AAt?$AAp?$AA?5?$AA?$CG?$AA?$CG?$AA?5?$AAs?$AAd?$AAp?$AA_?$AAp?$AAo?$AAo?$AAl?$AA?5@ 004a14c8     pjmedia-i386-win32-vc8-debug-dynamic:transport_srtp.obj
 0003:0001150c       ??_C@_1CM@ECNFEDDH@?$AAs?$AAr?$AAt?$AAp?$AA?9?$AA?$DO?$AAk?$AAe?$AAy?$AAi?$AAn?$AAg?$AA_?$AAc?$AAn@ 004a150c     pjmedia-i386-win32-vc8-debug-dynamic:transport_srtp.obj
 0003:00011540       ??_C@_0BL@LHHEAKNJ@SRTP?5uses?5keying?5method?5?$CFs@ 004a1540     pjmedia-i386-win32-vc8-debug-dynamic:transport_srtp.obj
 0003:00011560       ??_C@_1CM@KNBHCIAJ@?$AAs?$AAr?$AAt?$AAp?$AA?9?$AA?$DO?$AAk?$AAe?$AAy?$AAi?$AAn?$AAg?$AA_?$AAc?$AAn@ 004a1560     pjmedia-i386-win32-vc8-debug-dynamic:transport_srtp.obj
 0003:00011594       ??_C@_0CN@IMPBKLBH@SRTP?5failed?5stop?5underlying?5med@ 004a1594     pjmedia-i386-win32-vc8-debug-dynamic:transport_srtp.obj
 0003:000115cc       ??_C@_1DE@DOJDHBHH@?$AAt?$AAp?$AA?5?$AA?$CG?$AA?$CG?$AA?5?$AAp?$AAk?$AAt?$AA?5?$AA?$CG?$AA?$CG?$AA?5?$AA?$CI?$AA?$CK@ 004a15cc     pjmedia-i386-win32-vc8-debug-dynamic:transport_srtp.obj
 0003:0001160c       ??_C@_1CK@KNFDBKGE@?$AAs?$AAr?$AAt?$AAp?$AA?9?$AA?$DO?$AAs?$AAe?$AAs?$AAs?$AAi?$AAo?$AAn?$AA_?$AAi@ 004a160c     pjmedia-i386-win32-vc8-debug-dynamic:transport_srtp.obj
 0003:00011640       ??_C@_1HG@COPKMGHE@?$AAd?$AA?3?$AA?2?$AAp?$AAj?$AAs?$AAi?$AAp?$AA?2?$AAp?$AAj?$AAp?$AAr?$AAo?$AAj@ 004a1640     pjmedia-i386-win32-vc8-debug-dynamic:echo_suppress.obj
 0003:000116d0       ??_C@_1FI@MAGEJIAJ@?$AAs?$AAa?$AAm?$AAp?$AAl?$AAe?$AAs?$AA_?$AAp?$AAe?$AAr?$AA_?$AAf?$AAr?$AAa@ 004a16d0     pjmedia-i386-win32-vc8-debug-dynamic:echo_suppress.obj
 0003:0001173c       ??_C@_0CK@GILFEPIK@Echo?5suppressor?5soft?5reset?4?5Re?9@ 004a173c     pjmedia-i386-win32-vc8-debug-dynamic:echo_suppress.obj
 0003:00011770       ??_C@_0BA@GIJBCBML@echo_suppress?4c@ 004a1770     pjmedia-i386-win32-vc8-debug-dynamic:echo_suppress.obj
 0003:00011784       ??_C@_1CM@DHJONFKH@?$AAe?$AAc?$AA?9?$AA?$DO?$AAt?$AAm?$AAp?$AA_?$AAf?$AAa?$AAc?$AAt?$AAo?$AAr?$AA?$FL@ 004a1784     pjmedia-i386-win32-vc8-debug-dynamic:echo_suppress.obj
 0003:000117b8       ??_C@_0FL@JMGHEEIK@Echo?5suppressor?5updated?5at?5t?$DN?$CF0@ 004a17b8     pjmedia-i386-win32-vc8-debug-dynamic:echo_suppress.obj
 0003:00011828       ??_C@_0FK@NODMKGEL@Echo?5suppressor?5learning?5done?5a@ 004a1828     pjmedia-i386-win32-vc8-debug-dynamic:echo_suppress.obj
 0003:00011894       ??_C@_17GIJBGODF@?$AAN?$AA?$DO?$AA0@ 004a1894     pjmedia-i386-win32-vc8-debug-dynamic:echo_suppress.obj
 0003:000118a0       ??_C@_0CC@OBLDMFND@Echo?5suppressor?5residue?5?$DN?5?$CFd?4?$CF0@ 004a18a0     pjmedia-i386-win32-vc8-debug-dynamic:echo_suppress.obj
 0003:000118c8       __real@3f800000            004a18c8     pjmedia-i386-win32-vc8-debug-dynamic:echo_suppress.obj
 0003:000118cc       __real@40000000            004a18cc     pjmedia-i386-win32-vc8-debug-dynamic:echo_suppress.obj
 0003:000118d0       __real@4004000000000000    004a18d0     pjmedia-i386-win32-vc8-debug-dynamic:echo_suppress.obj
 0003:000118dc       __real@40400000            004a18dc     pjmedia-i386-win32-vc8-debug-dynamic:echo_suppress.obj
 0003:000118e0       __real@41980000            004a18e0     pjmedia-i386-win32-vc8-debug-dynamic:echo_suppress.obj
 0003:000118e4       __real@41a00000            004a18e4     pjmedia-i386-win32-vc8-debug-dynamic:echo_suppress.obj
 0003:000118e8       __real@447a0000            004a18e8     pjmedia-i386-win32-vc8-debug-dynamic:echo_suppress.obj
 0003:000118ec       __real@7efffff8            004a18ec     pjmedia-i386-win32-vc8-debug-dynamic:echo_suppress.obj
 0003:000118f0       __xmm@41f00000000000000000000000000000 004a18f0     pjmedia-i386-win32-vc8-debug-dynamic:echo_suppress.obj
 0003:00011910       __xmm@80000000800000008000000080000000 004a1910     pjmedia-i386-win32-vc8-debug-dynamic:echo_suppress.obj
 0003:00011928       ??_C@_1HA@JMDDJAOA@?$AAd?$AA?3?$AA?2?$AAp?$AAj?$AAs?$AAi?$AAp?$AA?2?$AAp?$AAj?$AAp?$AAr?$AAo?$AAj@ 004a1928     pjmedia-i386-win32-vc8-debug-dynamic:echo_speex.obj
 0003:000119b0       ??_C@_1CI@PJIDEBKE@?$AAe?$AAc?$AAh?$AAo?$AA?5?$AA?$CB?$AA?$DN?$AA?5?$AA?$CI?$AA?$CI?$AAv?$AAo?$AAi?$AAd?$AA?5@ 004a19b0     pjmedia-i386-win32-vc8-debug-dynamic:echo_speex.obj
 0003:000119e0       ??_C@_0EK@HDJKCMHE@Multichannel?5EC?5is?5not?5supporte@ 004a19e0     pjmedia-i386-win32-vc8-debug-dynamic:echo_speex.obj
 0003:00011a38       ??_C@_0N@MOFPDDJO@echo_speex?4c@ 004a1a38     pjmedia-i386-win32-vc8-debug-dynamic:echo_speex.obj
 0003:00011a48       ??_C@_1DO@OECGDPCF@?$AAe?$AAc?$AAh?$AAo?$AA?9?$AA?$DO?$AAt?$AAm?$AAp?$AA_?$AAf?$AAr?$AAa?$AAm?$AAe@ 004a1a48     pjmedia-i386-win32-vc8-debug-dynamic:echo_speex.obj
 0003:00011a94       ??_C@_1CI@KLAOEAOO@?$AAe?$AAc?$AAh?$AAo?$AA?5?$AA?$CG?$AA?$CG?$AA?5?$AAe?$AAc?$AAh?$AAo?$AA?9?$AA?$DO?$AAs@ 004a1a94     pjmedia-i386-win32-vc8-debug-dynamic:echo_speex.obj
 0003:00011ac8       ??_C@_1IG@KBIFAHBP@?$AAe?$AAc?$AAh?$AAo?$AA?5?$AA?$CG?$AA?$CG?$AA?5?$AAr?$AAe?$AAc?$AA_?$AAf?$AAr?$AAm@ 004a1ac8     pjmedia-i386-win32-vc8-debug-dynamic:echo_speex.obj
 0003:00011b68       ??_C@_1CC@MPNLLOCM@?$AAe?$AAc?$AAh?$AAo?$AA?5?$AA?$CG?$AA?$CG?$AA?5?$AAp?$AAl?$AAa?$AAy?$AA_?$AAf?$AAr@ 004a1b68     pjmedia-i386-win32-vc8-debug-dynamic:echo_speex.obj
 0003:00011b90       ??_C@_1CA@BNCIIIAN@?$AAe?$AAc?$AAh?$AAo?$AA?5?$AA?$CG?$AA?$CG?$AA?5?$AAr?$AAe?$AAc?$AA_?$AAf?$AAr?$AAm@ 004a1b90     pjmedia-i386-win32-vc8-debug-dynamic:echo_speex.obj
 0003:00011bb8       ??_C@_1GM@JHNPPJKC@?$AAd?$AA?3?$AA?2?$AAp?$AAj?$AAs?$AAi?$AAp?$AA?2?$AAp?$AAj?$AAp?$AAr?$AAo?$AAj@ 004a1bb8     pjmedia-i386-win32-vc8-debug-dynamic:delaybuf.obj
 0003:00011c40       ??_C@_1IA@DDDBCBDL@?$AAp?$AAo?$AAo?$AAl?$AA?5?$AA?$CG?$AA?$CG?$AA?5?$AAs?$AAa?$AAm?$AAp?$AAl?$AAe?$AAs@ 004a1c40     pjmedia-i386-win32-vc8-debug-dynamic:delaybuf.obj
 0003:00011cdc       ??_C@_08LLMLEOE@delaybuf@  004a1cdc     pjmedia-i386-win32-vc8-debug-dynamic:delaybuf.obj
 0003:00011ce8       ??_C@_0BP@CKANIKAH@Using?5delay?5buffer?5with?5WSOLA?4@ 004a1ce8     pjmedia-i386-win32-vc8-debug-dynamic:delaybuf.obj
 0003:00011d10       ??_C@_0CA@BKBNPCON@Using?5simple?5FIFO?5delay?5buffer?4@ 004a1d10     pjmedia-i386-win32-vc8-debug-dynamic:delaybuf.obj
 0003:00011d38       ??_C@_13EPJEBPGL@?$AAb@    004a1d38     pjmedia-i386-win32-vc8-debug-dynamic:delaybuf.obj
 0003:00011d40       ??_C@_1HA@CEPCLGKM@?$AAb?$AA?5?$AA?$CG?$AA?$CG?$AA?5?$AAe?$AAr?$AAa?$AAs?$AAe?$AA_?$AAc?$AAn?$AAt?$AA?5@ 004a1d40     pjmedia-i386-win32-vc8-debug-dynamic:delaybuf.obj
 0003:00011dc8       ??_C@_0BP@JJBHJNOO@?$CFd?5samples?5reduced?0?5buf_cnt?$DN?$CFd@ 004a1dc8     pjmedia-i386-win32-vc8-debug-dynamic:delaybuf.obj
 0003:00011df0       ??_C@_0DA@FPCBOFHC@Buffer?5size?5adjusted?5from?5?$CFd?5to@ 004a1df0     pjmedia-i386-win32-vc8-debug-dynamic:delaybuf.obj
 0003:00011e2c       ??_C@_1BG@GKFLCPLJ@?$AAb?$AA?5?$AA?$CG?$AA?$CG?$AA?5?$AAf?$AAr?$AAa?$AAm?$AAe@ 004a1e2c     pjmedia-i386-win32-vc8-debug-dynamic:delaybuf.obj
 0003:00011e48       ??_C@_0CD@DJOCKALK@Shrinking?5failed?5or?5insufficien@ 004a1e48     pjmedia-i386-win32-vc8-debug-dynamic:delaybuf.obj
 0003:00011e74       ??_C@_0CJ@KJHKGIAO@?$CFsDropping?5?$CFd?5eldest?5samples?0?5b@ 004a1e74     pjmedia-i386-win32-vc8-debug-dynamic:delaybuf.obj
 0003:00011ea8       ??_C@_0CN@FEOJBHHF@Underflow?0?5buf_cnt?$DN?$CFd?0?5will?5gen@ 004a1ea8     pjmedia-i386-win32-vc8-debug-dynamic:delaybuf.obj
 0003:00011ee0       ??_C@_0CC@NNEAKFHB@Error?5generating?5frame?0?5status?$DN@ 004a1ee0     pjmedia-i386-win32-vc8-debug-dynamic:delaybuf.obj
 0003:00011f08       ??_C@_0BG@OCJPAJA@Delay?5buffer?5is?5reset@ 004a1f08     pjmedia-i386-win32-vc8-debug-dynamic:delaybuf.obj
 0003:00011f28       ??_C@_1HA@FNLGLCNA@?$AAd?$AA?3?$AA?2?$AAp?$AAj?$AAs?$AAi?$AAp?$AA?2?$AAp?$AAj?$AAp?$AAr?$AAo?$AAj@ 004a1f28     pjmedia-i386-win32-vc8-debug-dynamic:silencedet.obj
 0003:00011fb0       ??_C@_1BK@JPOKJPGF@?$AAp?$AAo?$AAo?$AAl?$AA?5?$AA?$CG?$AA?$CG?$AA?5?$AAp?$AA_?$AAs?$AAd@ 004a1fb0     pjmedia-i386-win32-vc8-debug-dynamic:silencedet.obj
 0003:00011fd0       ??_C@_04CCFCAPFE@sd?$CFp@  004a1fd0     pjmedia-i386-win32-vc8-debug-dynamic:silencedet.obj
 0003:00011fd8       ??_C@_1BG@LLODMODC@?$AAs?$AAd?$AA?5?$AA?$CG?$AA?$CG?$AA?5?$AAn?$AAa?$AAm?$AAe@ 004a1fd8     pjmedia-i386-win32-vc8-debug-dynamic:silencedet.obj
 0003:00011ff4       ??_C@_15HHMPEBGH@?$AAs?$AAd@ 004a1ff4     pjmedia-i386-win32-vc8-debug-dynamic:silencedet.obj
 0003:00011ffc       ??_C@_0CJ@FEGDIEOD@Re?9adjust?5threshold?5?$CIin?5talk?5bu@ 004a1ffc     pjmedia-i386-win32-vc8-debug-dynamic:silencedet.obj
 0003:00012030       ??_C@_0N@GGOMHLHN@silencedet?4c@ 004a2030     pjmedia-i386-win32-vc8-debug-dynamic:silencedet.obj
 0003:00012040       ??_C@_0CM@HFHDPICL@Starting?5talk?5burst?5?$CIlevel?$DN?$CFd?5t@ 004a2040     pjmedia-i386-win32-vc8-debug-dynamic:silencedet.obj
 0003:00012074       ??_C@_13COJANIEC@?$AA0@    004a2074     pjmedia-i386-win32-vc8-debug-dynamic:silencedet.obj
 0003:00012078       ??_C@_0CG@DGOMOKAK@Re?9adjust?5threshold?5?$CIin?5silence@ 004a2078     pjmedia-i386-win32-vc8-debug-dynamic:silencedet.obj
 0003:000120a8       ??_C@_0CJ@HMFIAFFP@Starting?5silence?5?$CIlevel?$DN?$CFd?5thre@ 004a20a8     pjmedia-i386-win32-vc8-debug-dynamic:silencedet.obj
 0003:000120e0       ??_C@_1GG@JNEPNLJH@?$AAd?$AA?3?$AA?2?$AAp?$AAj?$AAs?$AAi?$AAp?$AA?2?$AAp?$AAj?$AAp?$AAr?$AAo?$AAj@ 004a20e0     pjmedia-i386-win32-vc8-debug-dynamic:wsola.obj
 0003:00012160       ??_C@_1GG@IAKBIPBK@?$AAp?$AAo?$AAo?$AAl?$AA?5?$AA?$CG?$AA?$CG?$AA?5?$AAc?$AAl?$AAo?$AAc?$AAk?$AA_?$AAr@ 004a2160     pjmedia-i386-win32-vc8-debug-dynamic:wsola.obj
 0003:000121dc       ??_C@_1CI@CPJHFBDP@?$AAc?$AAl?$AAo?$AAc?$AAk?$AA_?$AAr?$AAa?$AAt?$AAe?$AA?5?$AA?$DM?$AA?$DN?$AA?5?$AA6@ 004a21dc     pjmedia-i386-win32-vc8-debug-dynamic:wsola.obj
 0003:0001220c       ??_C@_1DO@HNOJLLOB@?$AAs?$AAa?$AAm?$AAp?$AAl?$AAe?$AAs?$AA_?$AAp?$AAe?$AAr?$AA_?$AAf?$AAr?$AAa@ 004a220c     pjmedia-i386-win32-vc8-debug-dynamic:wsola.obj
 0003:00012258       ??_C@_1CE@HKIMEAPL@?$AAc?$AAh?$AAa?$AAn?$AAn?$AAe?$AAl?$AA_?$AAc?$AAo?$AAu?$AAn?$AAt?$AA?5?$AA?$DO@ 004a2258     pjmedia-i386-win32-vc8-debug-dynamic:wsola.obj
 0003:00012284       ??_C@_0BO@PBEKEGBF@Failed?5to?5create?5circular?5buf@ 004a2284     pjmedia-i386-win32-vc8-debug-dynamic:wsola.obj
 0003:000122a8       ??_C@_07LLDBJGIC@wsola?4c@ 004a22a8     pjmedia-i386-win32-vc8-debug-dynamic:wsola.obj
 0003:000122b8       ??_C@_1FC@ONNECCLI@?$AAw?$AAs?$AAo?$AAl?$AAa?$AA?9?$AA?$DO?$AAt?$AAe?$AAm?$AAp?$AAl?$AA_?$AAs?$AAi@ 004a22b8     pjmedia-i386-win32-vc8-debug-dynamic:wsola.obj
 0003:0001231c       ??_C@_1M@DMOBICCA@?$AAw?$AAs?$AAo?$AAl?$AAa@ 004a231c     pjmedia-i386-win32-vc8-debug-dynamic:wsola.obj
 0003:0001232c       ??_C@_1CI@POPKIGC@?$AAw?$AAs?$AAo?$AAl?$AAa?$AA?5?$AA?$CG?$AA?$CG?$AA?5?$AAo?$AAp?$AAt?$AAi?$AAo?$AAn@ 004a232c     pjmedia-i386-win32-vc8-debug-dynamic:wsola.obj
 0003:0001235c       ??_C@_0CD@BICDEMGJ@WSOLA?5buffer?5size?5may?5be?5to?5sma@ 004a235c     pjmedia-i386-win32-vc8-debug-dynamic:wsola.obj
 0003:00012388       ??_C@_1EM@MPJCGMLC@?$AA?$CB?$AA?$CC?$AAW?$AAS?$AAO?$AAL?$AAA?$AA?5?$AAb?$AAu?$AAf?$AAf?$AAe?$AAr?$AA?5@ 004a2388     pjmedia-i386-win32-vc8-debug-dynamic:wsola.obj
 0003:000123e8       ??_C@_1EK@EPLDJPJP@?$AAw?$AAs?$AAo?$AAl?$AAa?$AA?5?$AA?$CG?$AA?$CG?$AA?5?$AAb?$AAu?$AAf?$AA1?$AA?5?$AA?$CG@ 004a23e8     pjmedia-i386-win32-vc8-debug-dynamic:wsola.obj
 0003:00012440       ??_C@_1BC@NPKJGPLM@?$AA?$CK?$AAd?$AAe?$AAl?$AA_?$AAc?$AAn?$AAt@ 004a2440     pjmedia-i386-win32-vc8-debug-dynamic:wsola.obj
 0003:00012458       ??_C@_19KJFIAAFN@?$AAb?$AAu?$AAf?$AA2@ 004a2458     pjmedia-i386-win32-vc8-debug-dynamic:wsola.obj
 0003:00012464       ??_C@_0BJ@IJOBNPHA@WSOLA?5need?5erase?5buffer?$CB@ 004a2464     pjmedia-i386-win32-vc8-debug-dynamic:wsola.obj
 0003:00012484       ??_C@_1DI@CFNECNLA@?$AA?$CB?$AA?$CC?$AAW?$AAS?$AAO?$AAL?$AAA?$AA?5?$AAn?$AAe?$AAe?$AAd?$AA?5?$AAe?$AAr@ 004a2484     pjmedia-i386-win32-vc8-debug-dynamic:wsola.obj
 0003:000124c8       __real@00000000            004a24c8     pjmedia-i386-win32-vc8-debug-dynamic:wsola.obj
 0003:000124d0       __real@3fe0000000000000    004a24d0     pjmedia-i386-win32-vc8-debug-dynamic:wsola.obj
 0003:000124e0       __real@3ff0000000000000    004a24e0     pjmedia-i386-win32-vc8-debug-dynamic:wsola.obj
 0003:000124f0       __real@3ff8000000000000    004a24f0     pjmedia-i386-win32-vc8-debug-dynamic:wsola.obj
 0003:00012500       __real@401921fb54442d18    004a2500     pjmedia-i386-win32-vc8-debug-dynamic:wsola.obj
 0003:0001250c       ??_C@_02BAABKJLB@?9?9@     004a250c     pjlib-util-i386-win32-vc8-debug-dynamic:getopt.obj
 0003:00012510       ??_C@_1HG@CFBMDHO@?$AAd?$AA?3?$AA?2?$AAp?$AAj?$AAs?$AAi?$AAp?$AA?2?$AAp?$AAj?$AAp?$AAr?$AAo?$AAj@ 004a2510     pjlib-util-i386-win32-vc8-debug-dynamic:scanner.obj
 0003:000125a0       ??_C@_1BG@BNCNGJJK@?$AAc?$AAs?$AAt?$AAa?$AAr?$AAt?$AA?5?$AA?$DO?$AA?5?$AA0@ 004a25a0     pjlib-util-i386-win32-vc8-debug-dynamic:scanner.obj
 0003:000125bc       ??_C@_0DL@LHIPNDIG@d?3?2pjsip?2pjproject?92?48?2pjlib?9ut@ 004a25bc     pjlib-util-i386-win32-vc8-debug-dynamic:scanner.obj
 0003:00012604       ??_C@_1DA@FEHFDNDH@?$AAp?$AAj?$AA_?$AAc?$AAi?$AAs?$AA_?$AAm?$AAa?$AAt?$AAc?$AAh?$AA?$CI?$AAs?$AAp@ 004a2604     pjlib-util-i386-win32-vc8-debug-dynamic:scanner.obj
 0003:00012640       ??_C@_1DE@FFIKCEEP@?$AAp?$AAj?$AA_?$AAc?$AAi?$AAs?$AA_?$AAm?$AAa?$AAt?$AAc?$AAh?$AA?$CI?$AAs?$AAp@ 004a2640     pjlib-util-i386-win32-vc8-debug-dynamic:scanner.obj
 0003:00012680       ??_C@_1BE@DNGPADLB@?$AAq?$AAs?$AAi?$AAz?$AAe?$AA?5?$AA?$DO?$AA?5?$AA0@ 004a2680     pjlib-util-i386-win32-vc8-debug-dynamic:scanner.obj
 0003:000126e8       ??_C@_1HE@IMCCMEJN@?$AAd?$AA?3?$AA?2?$AAp?$AAj?$AAs?$AAi?$AAp?$AA?2?$AAp?$AAj?$AAp?$AAr?$AAo?$AAj@ 004a26e8     pjlib-util-i386-win32-vc8-debug-dynamic:base64.obj
 0003:00012774       ??_C@_1DG@FBBIODPK@?$AAi?$AAn?$AAp?$AAu?$AAt?$AA?5?$AA?$CG?$AA?$CG?$AA?5?$AAo?$AAu?$AAt?$AAp?$AAu?$AAt@ 004a2774     pjlib-util-i386-win32-vc8-debug-dynamic:base64.obj
 0003:000127b8       ??_C@_1EC@PACNHEMO@?$AA?$CK?$AAo?$AAu?$AAt?$AA_?$AAl?$AAe?$AAn?$AA?5?$AA?$DO?$AA?$DN?$AA?5?$AA?$CI?$AAi?$AAn@ 004a27b8     pjlib-util-i386-win32-vc8-debug-dynamic:base64.obj
 0003:00012808       ??_C@_1DA@PGJCBFEE@?$AAi?$AAn?$AAp?$AAu?$AAt?$AA?5?$AA?$CG?$AA?$CG?$AA?5?$AAo?$AAu?$AAt?$AA?5?$AA?$CG?$AA?$CG@ 004a2808     pjlib-util-i386-win32-vc8-debug-dynamic:base64.obj
 0003:00012844       ??_C@_1DE@FJIMPKJC@?$AA?$CK?$AAo?$AAu?$AAt?$AA_?$AAl?$AAe?$AAn?$AA?5?$AA?$DO?$AA?$DN?$AA?5?$AA?$CI?$AAl?$AAe@ 004a2844     pjlib-util-i386-win32-vc8-debug-dynamic:base64.obj
 0003:00012884       ??_C@_1BM@KLMFDCDD@?$AAj?$AA?5?$AA?$DM?$AA?$DN?$AA?5?$AA?$CK?$AAo?$AAu?$AAt?$AA_?$AAl?$AAe?$AAn@ 004a2884     pjlib-util-i386-win32-vc8-debug-dynamic:base64.obj
 0003:000128a8       ??_C@_04IFCNACLH@pj?$CFp@  004a28a8     pjlib-i386-win32-vc8-debug-dynamic:os_core_win32.obj
 0003:000128b0       ??_C@_0BA@NGJFHJA@PJLIB?1No?5memory@ 004a28b0     pjlib-i386-win32-vc8-debug-dynamic:os_core_win32.obj
 0003:000128c8       ??_C@_1GI@NLIDAGMB@?$AAd?$AA?3?$AA?2?$AAp?$AAj?$AAs?$AAi?$AAp?$AA?2?$AAp?$AAj?$AAp?$AAr?$AAo?$AAj@ 004a28c8     pjlib-i386-win32-vc8-debug-dynamic:os_core_win32.obj
 0003:00012944       ??_C@_1CC@OPMEMEDD@?$AAi?$AAn?$AAi?$AAt?$AAi?$AAa?$AAl?$AAi?$AAz?$AAe?$AAd?$AA?5?$AA?$DN?$AA?$DN?$AA?5@ 004a2944     pjlib-i386-win32-vc8-debug-dynamic:os_core_win32.obj
 0003:0001296c       ??_C@_0BP@NGEKBPIB@pjlib?5?$CFs?5for?5win32?5initialized@ 004a296c     pjlib-i386-win32-vc8-debug-dynamic:os_core_win32.obj
 0003:00012994       ??_C@_0BA@FNCACAIG@os_core_win32?4c@ 004a2994     pjlib-i386-win32-vc8-debug-dynamic:os_core_win32.obj
 0003:000129a8       ??_C@_1CA@HCJBFJFA@?$AAi?$AAn?$AAi?$AAt?$AAi?$AAa?$AAl?$AAi?$AAz?$AAe?$AAd?$AA?5?$AA?$DO?$AA?5?$AA0@ 004a29a8     pjlib-i386-win32-vc8-debug-dynamic:os_core_win32.obj
 0003:000129d0       ??_C@_0CI@EAKIIBBA@Main?5thread?5stack?5max?5usage?$DN?$CFu?5@ 004a29d0     pjlib-i386-win32-vc8-debug-dynamic:os_core_win32.obj
 0003:00012a00       ??_C@_0DE@FMBDMABK@d?3?2pjsip?2pjproject?92?48?2pjlib?2sr@ 004a2a00     pjlib-i386-win32-vc8-debug-dynamic:os_core_win32.obj
 0003:00012a40       ??_C@_1O@OOICOHEB@?$AAt?$AAh?$AAr?$AAe?$AAa?$AAd@ 004a2a40     pjlib-i386-win32-vc8-debug-dynamic:os_core_win32.obj
 0003:00012a50       ??_C@_1DA@EPDLFMNN@?$AAp?$AAr?$AAi?$AAo?$AA?$DO?$AA?$DN?$AA?$CI?$AA?9?$AA1?$AA5?$AA?$CJ?$AA?5?$AA?$CG?$AA?$CG?$AA?5@ 004a2a50     pjlib-i386-win32-vc8-debug-dynamic:os_core_win32.obj
 0003:00012a8c       ??_C@_0CA@KDDLBGGI@Not?5enough?5pj_thread_desc?5size?$CB@ 004a2a8c     pjlib-i386-win32-vc8-debug-dynamic:os_core_win32.obj
 0003:00012ab8       ??_C@_1EG@HCJPCAON@?$AA?$CB?$AA?$CC?$AAN?$AAo?$AAt?$AA?5?$AAe?$AAn?$AAo?$AAu?$AAg?$AAh?$AA?5?$AAp?$AAj@ 004a2ab8     pjlib-i386-win32-vc8-debug-dynamic:os_core_win32.obj
 0003:00012b0c       ??_C@_05KHEDLION@thr?$CFp@ 004a2b0c     pjlib-i386-win32-vc8-debug-dynamic:os_core_win32.obj
 0003:00012b14       ??_C@_0CC@JLGHEGJO@TLS?5is?5not?5set?5?$CIpj_init?$CI?$CJ?5error@ 004a2b14     pjlib-i386-win32-vc8-debug-dynamic:os_core_win32.obj
 0003:00012b40       ??_C@_1EK@KGMDGLFJ@?$AA?$CB?$AA?$CC?$AAT?$AAL?$AAS?$AA?5?$AAi?$AAs?$AA?5?$AAn?$AAo?$AAt?$AA?5?$AAs?$AAe@ 004a2b40     pjlib-i386-win32-vc8-debug-dynamic:os_core_win32.obj
 0003:00012b98       ??_C@_0CD@GPHECFNA@Thread?5stack?5max?5usage?$DN?$CFu?5by?5?$CFs@ 004a2b98     pjlib-i386-win32-vc8-debug-dynamic:os_core_win32.obj
 0003:00012bc4       ??_C@_1DG@GPPEEMGI@?$AAp?$AAo?$AAo?$AAl?$AA?5?$AA?$CG?$AA?$CG?$AA?5?$AAp?$AAr?$AAo?$AAc?$AA?5?$AA?$CG?$AA?$CG@ 004a2bc4     pjlib-i386-win32-vc8-debug-dynamic:os_core_win32.obj
 0003:00012c04       ??_C@_13LFIEIAHP@?$AAp@    004a2c04     pjlib-i386-win32-vc8-debug-dynamic:os_core_win32.obj
 0003:00012c08       ??_C@_0IN@DGHJHPPL@Calling?5pjlib?5from?5unknown?1exte@ 004a2c08     pjlib-i386-win32-vc8-debug-dynamic:os_core_win32.obj
 0003:00012cb8       ??_C@_1BCM@LMJGLOKF@?$AA?$CB?$AA?$CC?$AAC?$AAa?$AAl?$AAl?$AAi?$AAn?$AAg?$AA?5?$AAp?$AAj?$AAl?$AAi?$AAb@ 004a2cb8     pjlib-i386-win32-vc8-debug-dynamic:os_core_win32.obj
 0003:00012e20       ??_C@_0BC@GDBGMOLB@STACK?5OVERFLOW?$CB?$CB?5@ 004a2e20     pjlib-i386-win32-vc8-debug-dynamic:os_core_win32.obj
 0003:00012e38       ??_C@_1HC@CNEMGLGB@?$AA?$CC?$AAS?$AAT?$AAA?$AAC?$AAK?$AA?5?$AAO?$AAV?$AAE?$AAR?$AAF?$AAL?$AAO?$AAW@ 004a2e38     pjlib-i386-win32-vc8-debug-dynamic:os_core_win32.obj
 0003:00012ec0       ??_C@_17PCHMAMGJ@?$AAv?$AAa?$AAr@ 004a2ec0     pjlib-i386-win32-vc8-debug-dynamic:os_core_win32.obj
 0003:00012ecc       ??_C@_1BG@PPEGLHPH@?$AAa?$AAt?$AAo?$AAm?$AAi?$AAc?$AA_?$AAv?$AAa?$AAr@ 004a2ecc     pjlib-i386-win32-vc8-debug-dynamic:os_core_win32.obj
 0003:00012ee8       ??_C@_1CK@HHDJMMIF@?$AAi?$AAn?$AAd?$AAe?$AAx?$AA?5?$AA?$CB?$AA?$DN?$AA?5?$AA?$CI?$AA?$CI?$AAv?$AAo?$AAi?$AAd@ 004a2ee8     pjlib-i386-win32-vc8-debug-dynamic:os_core_win32.obj
 0003:00012f1c       ??_C@_05EJDHHBFJ@mtx?$CFp@ 004a2f1c     pjlib-i386-win32-vc8-debug-dynamic:os_core_win32.obj
 0003:00012f24       ??_C@_1CE@MHFMCIAM@?$AAp?$AAo?$AAo?$AAl?$AA?5?$AA?$CG?$AA?$CG?$AA?5?$AAm?$AAu?$AAt?$AAe?$AAx?$AA_?$AAp@ 004a2f24     pjlib-i386-win32-vc8-debug-dynamic:os_core_win32.obj
 0003:00012f50       ??_C@_1M@PMBPJDFK@?$AAm?$AAu?$AAt?$AAe?$AAx@ 004a2f50     pjlib-i386-win32-vc8-debug-dynamic:os_core_win32.obj
 0003:00012f60       ??_C@_1EC@GCIAJGPL@?$AAm?$AAu?$AAt?$AAe?$AAx?$AA?9?$AA?$DO?$AAo?$AAw?$AAn?$AAe?$AAr?$AA?5?$AA?$DN?$AA?$DN@ 004a2f60     pjlib-i386-win32-vc8-debug-dynamic:os_core_win32.obj
 0003:00012fb0       ??_C@_1GC@PJJPAHKO@?$AAd?$AA?3?$AA?2?$AAp?$AAj?$AAs?$AAi?$AAp?$AA?2?$AAp?$AAj?$AAp?$AAr?$AAo?$AAj@ 004a2fb0     pjlib-i386-win32-vc8-debug-dynamic:os_core_win32.obj
 0003:00013028       ??_C@_1CA@LHAPCNHN@?$AAp?$AAo?$AAo?$AAl?$AA?5?$AA?$CG?$AA?$CG?$AA?5?$AAp?$AA_?$AAm?$AAu?$AAt?$AAe?$AAx@ 004a3028     pjlib-i386-win32-vc8-debug-dynamic:os_core_win32.obj
 0003:00013050       ??_C@_0BP@HDILOBIG@This?5pretty?5much?5is?5unexpected@ 004a3050     pjlib-i386-win32-vc8-debug-dynamic:os_core_win32.obj
 0003:00013078       ??_C@_1EE@FBNPIAAA@?$AA?$CB?$AA?$CC?$AAT?$AAh?$AAi?$AAs?$AA?5?$AAp?$AAr?$AAe?$AAt?$AAt?$AAy?$AA?5?$AAm@ 004a3078     pjlib-i386-win32-vc8-debug-dynamic:os_core_win32.obj
 0003:000130d0       ??_C@_1EE@JKGKFCJM@?$AAm?$AAu?$AAt?$AAe?$AAx?$AA?9?$AA?$DO?$AAr?$AAe?$AAa?$AAd?$AAe?$AAr?$AA_?$AAc@ 004a30d0     pjlib-i386-win32-vc8-debug-dynamic:os_core_win32.obj
 0003:00013124       ??_C@_1DC@HENDGEDB@?$AAm?$AAu?$AAt?$AAe?$AAx?$AA?9?$AA?$DO?$AAr?$AAe?$AAa?$AAd?$AAe?$AAr?$AA_?$AAc@ 004a3124     pjlib-i386-win32-vc8-debug-dynamic:os_core_win32.obj
 0003:00013160       ??_C@_1DC@HACGLEAM@?$AAm?$AAu?$AAt?$AAe?$AAx?$AA?9?$AA?$DO?$AAr?$AAe?$AAa?$AAd?$AAe?$AAr?$AA_?$AAc@ 004a3160     pjlib-i386-win32-vc8-debug-dynamic:os_core_win32.obj
 0003:0001319c       ??_C@_1CA@JMCEKLBJ@?$AAp?$AAo?$AAo?$AAl?$AA?5?$AA?$CG?$AA?$CG?$AA?5?$AAs?$AAe?$AAm?$AA_?$AAp?$AAt?$AAr@ 004a319c     pjlib-i386-win32-vc8-debug-dynamic:os_core_win32.obj
 0003:000131c4       ??_C@_05EKKMALCN@sem?$CFp@ 004a31c4     pjlib-i386-win32-vc8-debug-dynamic:os_core_win32.obj
 0003:000131cc       ??_C@_17CJHHAHNC@?$AAs?$AAe?$AAm@ 004a31cc     pjlib-i386-win32-vc8-debug-dynamic:os_core_win32.obj
 0003:000131d8       ??_C@_1CE@LCHMPKLP@?$AAp?$AAo?$AAo?$AAl?$AA?5?$AA?$CG?$AA?$CG?$AA?5?$AAe?$AAv?$AAe?$AAn?$AAt?$AA_?$AAp@ 004a31d8     pjlib-i386-win32-vc8-debug-dynamic:os_core_win32.obj
 0003:00013204       ??_C@_05JFHCBPOM@evt?$CFp@ 004a3204     pjlib-i386-win32-vc8-debug-dynamic:os_core_win32.obj
 0003:0001320c       ??_C@_1M@IBCECAGJ@?$AAe?$AAv?$AAe?$AAn?$AAt@ 004a320c     pjlib-i386-win32-vc8-debug-dynamic:os_core_win32.obj
 0003:00013308       ??_C@_0BM@FLPPOGAG@Unknown?5Error?5?$CIPJ_EUNKNOWN?$CJ@ 004a3308     pjlib-i386-win32-vc8-debug-dynamic:errno.obj
 0003:0001332c       ??_C@_0CA@DCLOOJGD@Pending?5operation?5?$CIPJ_EPENDING?$CJ@ 004a332c     pjlib-i386-win32-vc8-debug-dynamic:errno.obj
 0003:00013354       ??_C@_0CO@GABEOAFF@Too?5many?5connecting?5sockets?5?$CIPJ@ 004a3354     pjlib-i386-win32-vc8-debug-dynamic:errno.obj
 0003:0001338c       ??_C@_0CG@CBCJBJGD@Invalid?5value?5or?5argument?5?$CIPJ_E@ 004a338c     pjlib-i386-win32-vc8-debug-dynamic:errno.obj
 0003:000133bc       ??_C@_0CA@GJABNEKD@Name?5too?5long?5?$CIPJ_ENAMETOOLONG?$CJ@ 004a33bc     pjlib-i386-win32-vc8-debug-dynamic:errno.obj
 0003:000133e4       ??_C@_0BJ@JNKLPII@Not?5found?5?$CIPJ_ENOTFOUND?$CJ@ 004a33e4     pjlib-i386-win32-vc8-debug-dynamic:errno.obj
 0003:00013404       ??_C@_0BO@GOLCMJKK@Not?5enough?5memory?5?$CIPJ_ENOMEM?$CJ@ 004a3404     pjlib-i386-win32-vc8-debug-dynamic:errno.obj
 0003:00013428       ??_C@_0BI@HHGDCAID@BUG?5DETECTED?$CB?5?$CIPJ_EBUG?$CJ@ 004a3428     pjlib-i386-win32-vc8-debug-dynamic:errno.obj
 0003:00013444       ??_C@_0CD@JOGIDHPJ@Operation?5timed?5out?5?$CIPJ_ETIMEDO@ 004a3444     pjlib-i386-win32-vc8-debug-dynamic:errno.obj
 0003:00013470       ??_C@_0DF@MIFNAIHL@Too?5many?5objects?5of?5the?5specifi@ 004a3470     pjlib-i386-win32-vc8-debug-dynamic:errno.obj
 0003:000134b0       ??_C@_0BK@OMPILOH@Object?5is?5busy?5?$CIPJ_EBUSY?$CJ@ 004a34b0     pjlib-i386-win32-vc8-debug-dynamic:errno.obj
 0003:000134d0       ??_C@_0CP@BAIBJOJE@Option?1operation?5is?5not?5support@ 004a34d0     pjlib-i386-win32-vc8-debug-dynamic:errno.obj
 0003:00013508       ??_C@_0CC@OEEEEEML@Invalid?5operation?5?$CIPJ_EINVALIDO@ 004a3508     pjlib-i386-win32-vc8-debug-dynamic:errno.obj
 0003:00013530       ??_C@_0CE@KDDMJLGF@Operation?5cancelled?5?$CIPJ_ECANCEL@ 004a3530     pjlib-i386-win32-vc8-debug-dynamic:errno.obj
 0003:0001355c       ??_C@_0CD@LODOFNLC@Object?5already?5exists?5?$CIPJ_EEXIS@ 004a355c     pjlib-i386-win32-vc8-debug-dynamic:errno.obj
 0003:00013588       ??_C@_0BG@GMBDFNLN@End?5of?5file?5?$CIPJ_EEOF?$CJ@ 004a3588     pjlib-i386-win32-vc8-debug-dynamic:errno.obj
 0003:000135a4       ??_C@_0BN@PCCNBFLN@Size?5is?5too?5big?5?$CIPJ_ETOOBIG?$CJ@ 004a35a4     pjlib-i386-win32-vc8-debug-dynamic:errno.obj
 0003:000135c8       ??_C@_0DB@FDCHLEID@gethostbyname?$CI?$CJ?5has?5returned?5er@ 004a35c8     pjlib-i386-win32-vc8-debug-dynamic:errno.obj
 0003:00013604       ??_C@_0CB@MGGLJMNO@Size?5is?5too?5short?5?$CIPJ_ETOOSMALL@ 004a3604     pjlib-i386-win32-vc8-debug-dynamic:errno.obj
 0003:0001362c       ??_C@_0BG@NBDJGAFI@Ignored?5?$CIPJ_EIGNORED?$CJ@ 004a362c     pjlib-i386-win32-vc8-debug-dynamic:errno.obj
 0003:00013648       ??_C@_0CH@OGOOBJBE@IPv6?5is?5not?5supported?5?$CIPJ_EIPV6@ 004a3648     pjlib-i386-win32-vc8-debug-dynamic:errno.obj
 0003:00013678       ??_C@_0CK@DJAHHNOI@Unsupported?5address?5family?5?$CIPJ_@ 004a3678     pjlib-i386-win32-vc8-debug-dynamic:errno.obj
 0003:000136ac       ??_C@_0CD@PDGCJOJH@Object?5no?5longer?5exists?5?$CIPJ_EGO@ 004a36ac     pjlib-i386-win32-vc8-debug-dynamic:errno.obj
 0003:000136d8       ??_C@_0CI@LBHALONI@Socket?5is?5in?5bad?5state?5?$CIPJ_ESOC@ 004a36d8     pjlib-i386-win32-vc8-debug-dynamic:errno.obj
 0003:00013708       ??_C@_0BH@ONDLFCEA@Unknown?5pjlib?5error?5?$CFd@ 004a3708     pjlib-i386-win32-vc8-debug-dynamic:errno.obj
 0003:00013728       ??_C@_1FI@GNMHFBCM@?$AAd?$AA?3?$AA?2?$AAp?$AAj?$AAs?$AAi?$AAp?$AA?2?$AAp?$AAj?$AAp?$AAr?$AAo?$AAj@ 004a3728     pjlib-i386-win32-vc8-debug-dynamic:errno.obj
 0003:00013794       ??_C@_1CI@LKNPLGGB@?$AAs?$AAt?$AAa?$AAr?$AAt?$AA?5?$AA?$CG?$AA?$CG?$AA?5?$AAs?$AAp?$AAa?$AAc?$AAe?$AA?5@ 004a3794     pjlib-i386-win32-vc8-debug-dynamic:errno.obj
 0003:000137c8       ??_C@_1HO@NFELGIHB@?$AAe?$AAr?$AAr?$AA_?$AAm?$AAs?$AAg?$AA_?$AAh?$AAn?$AAd?$AA_?$AAc?$AAn?$AAt@ 004a37c8     pjlib-i386-win32-vc8-debug-dynamic:errno.obj
 0003:00013860       ??_C@_1FK@DLNOOHBD@?$AAs?$AAt?$AAa?$AAr?$AAt?$AA?5?$AA?$DO?$AA?$DN?$AA?5?$AA?$CI?$AA?$CI?$AA?$CI?$AA2?$AA0?$AA0@ 004a3860     pjlib-i386-win32-vc8-debug-dynamic:errno.obj
 0003:000138cc       ??_C@_1BO@OJPHOMAD@?$AAb?$AAu?$AAf?$AA?5?$AA?$CG?$AA?$CG?$AA?5?$AAb?$AAu?$AAf?$AAs?$AAi?$AAz?$AAe@ 004a38cc     pjlib-i386-win32-vc8-debug-dynamic:errno.obj
 0003:000138f0       ??_C@_07PBILKAFL@Success@  004a38f0     pjlib-i386-win32-vc8-debug-dynamic:errno.obj
 0003:000138fc       ??_C@_0BB@BIKLJNJD@Unknown?5error?5?$CFd@ 004a38fc     pjlib-i386-win32-vc8-debug-dynamic:errno.obj
 0003:00013910       ??_C@_05NAOIJFC@Error@     004a3910     pjlib-i386-win32-vc8-debug-dynamic:errno.obj
 0003:00013918       ??_C@_06DJHOIPC@?$CFs?3?5?$CFs@ 004a3918     pjlib-i386-win32-vc8-debug-dynamic:errno.obj
 0003:00013920       ??_C@_0CL@HKMFJDGH@d?3?2pjsip?2pjproject?92?48?2pjlib?2sr@ 004a3920     pjlib-i386-win32-vc8-debug-dynamic:pool.obj
 0003:00013958       ??_C@_1FG@GMGKLKGP@?$AAd?$AA?3?$AA?2?$AAp?$AAj?$AAs?$AAi?$AAp?$AA?2?$AAp?$AAj?$AAp?$AAr?$AAo?$AAj@ 004a3958     pjlib-i386-win32-vc8-debug-dynamic:pool.obj
 0003:000139c0       ??_C@_1DM@GJMPJMCP@?$AAs?$AAi?$AAz?$AAe?$AA?5?$AA?$DO?$AA?$DN?$AA?5?$AAs?$AAi?$AAz?$AAe?$AAo?$AAf?$AA?$CI@ 004a39c0     pjlib-i386-win32-vc8-debug-dynamic:pool.obj
 0003:00013a08       ??_C@_1CC@EAFADDBO@?$AAp?$AA?5?$AA?$CB?$AA?$DN?$AA?5?$AA?$CI?$AA?$CI?$AAv?$AAo?$AAi?$AAd?$AA?5?$AA?$CK?$AA?$CJ?$AA0@ 004a3a08     pjlib-i386-win32-vc8-debug-dynamic:pool.obj
 0003:00013a30       ??_C@_1HA@KHKDBJOJ@?$AAi?$AAn?$AAi?$AAt?$AAi?$AAa?$AAl?$AA_?$AAs?$AAi?$AAz?$AAe?$AA?5?$AA?$DO?$AA?$DN@ 004a3a30     pjlib-i386-win32-vc8-debug-dynamic:pool.obj
 0003:00013ab8       ??_C@_0DD@LHMLAEOO@d?3?2pjsip?2pjproject?92?48?2pjlib?2sr@ 004a3ab8     pjlib-i386-win32-vc8-debug-dynamic:pool_caching.obj
 0003:00013af8       ??_C@_0M@IGFPEOLJ@cachingpool@ 004a3af8     pjlib-i386-win32-vc8-debug-dynamic:pool_caching.obj
 0003:00013b08       ??_C@_0DD@ECGDPCBA@Pool?5is?5not?5released?5by?5applica@ 004a3b08     pjlib-i386-win32-vc8-debug-dynamic:pool_caching.obj
 0003:00013b48       ??_C@_1GG@HHHDEONL@?$AAd?$AA?3?$AA?2?$AAp?$AAj?$AAs?$AAi?$AAp?$AA?2?$AAp?$AAj?$AAp?$AAr?$AAo?$AAj@ 004a3b48     pjlib-i386-win32-vc8-debug-dynamic:pool_caching.obj
 0003:00013bc4       ??_C@_1BG@FEHIFIBG@?$AAp?$AAf?$AA?5?$AA?$CG?$AA?$CG?$AA?5?$AAp?$AAo?$AAo?$AAl@ 004a3bc4     pjlib-i386-win32-vc8-debug-dynamic:pool_caching.obj
 0003:00013be0       ??_C@_19PJIDINHE@?$AAi?$AA?$DM?$AA1?$AA6@ 004a3be0     pjlib-i386-win32-vc8-debug-dynamic:pool_caching.obj
 0003:00013bec       ??_C@_0BH@BBPHJKOA@?5Dumping?5caching?5pool?3@ 004a3bec     pjlib-i386-win32-vc8-debug-dynamic:pool_caching.obj
 0003:00013c08       ??_C@_08COPEICHG@cachpool@ 004a3c08     pjlib-i386-win32-vc8-debug-dynamic:pool_caching.obj
 0003:00013c14       ??_C@_0CN@DOKPIIOH@?5?5?5Capacity?$DN?$CFu?0?5max_capacity?$DN?$CFu@ 004a3c14     pjlib-i386-win32-vc8-debug-dynamic:pool_caching.obj
 0003:00013c4c       ??_C@_0BM@IDLDGCC@?5?5Dumping?5all?5active?5pools?3@ 004a3c4c     pjlib-i386-win32-vc8-debug-dynamic:pool_caching.obj
 0003:00013c70       ??_C@_0CA@MMLIKIEG@?5?5?5?$CF16s?3?5?$CF8d?5of?5?$CF8d?5?$CI?$CFd?$CF?$CF?$CJ?5used@ 004a3c70     pjlib-i386-win32-vc8-debug-dynamic:pool_caching.obj
 0003:00013c98       ??_C@_0CB@GKBJPDKG@?5?5Total?5?$CF9d?5of?5?$CF9d?5?$CI?$CFd?5?$CF?$CF?$CJ?5used@ 004a3c98     pjlib-i386-win32-vc8-debug-dynamic:pool_caching.obj
 0003:00013cc0       ??_C@_06DDFOEFIF@FATAL?3@  004a3cc0     pjlib-i386-win32-vc8-debug-dynamic:log.obj
 0003:00013cc8       ??_C@_06PONDCDME@ERROR?3@  004a3cc8     pjlib-i386-win32-vc8-debug-dynamic:log.obj
 0003:00013cd0       ??_C@_06OHJPOJDB@?5WARN?3@ 004a3cd0     pjlib-i386-win32-vc8-debug-dynamic:log.obj
 0003:00013cd8       ??_C@_06ICKKLHPE@?5INFO?3@ 004a3cd8     pjlib-i386-win32-vc8-debug-dynamic:log.obj
 0003:00013ce0       ??_C@_06DNOFLLB@DEBUG?3@   004a3ce0     pjlib-i386-win32-vc8-debug-dynamic:log.obj
 0003:00013ce8       ??_C@_06ELIFFDKB@TRACE?3@  004a3ce8     pjlib-i386-win32-vc8-debug-dynamic:log.obj
 0003:00013cf0       ??_C@_06HGKAKJPG@DETRC?3@  004a3cf0     pjlib-i386-win32-vc8-debug-dynamic:log.obj
 0003:00013cf8       ??_C@_03KOEHGMDN@Sun@      004a3cf8     pjlib-i386-win32-vc8-debug-dynamic:log.obj
 0003:00013cfc       ??_C@_03PDAGKDH@Mon@       004a3cfc     pjlib-i386-win32-vc8-debug-dynamic:log.obj
 0003:00013d00       ??_C@_03NAGEINEP@Tue@      004a3d00     pjlib-i386-win32-vc8-debug-dynamic:log.obj
 0003:00013d04       ??_C@_03MHOMLAJA@Wed@      004a3d04     pjlib-i386-win32-vc8-debug-dynamic:log.obj
 0003:00013d08       ??_C@_03IOFIKPDN@Thu@      004a3d08     pjlib-i386-win32-vc8-debug-dynamic:log.obj
 0003:00013d0c       ??_C@_03IDIOELNC@Fri@      004a3d0c     pjlib-i386-win32-vc8-debug-dynamic:log.obj
 0003:00013d10       ??_C@_03FEFJNEK@Sat@       004a3d10     pjlib-i386-win32-vc8-debug-dynamic:log.obj
 0003:00013d14       ??_C@_0CK@PMBLHNIA@d?3?2pjsip?2pjproject?92?48?2pjlib?2sr@ 004a3d14     pjlib-i386-win32-vc8-debug-dynamic:log.obj
 0003:00013d48       ??_C@_0BO@BGMDCDKP@?$DMlogging?5error?3?5msg?5too?5long?$DO@ 004a3d48     pjlib-i386-win32-vc8-debug-dynamic:log.obj
 0003:00013d6c       ??_C@_0DJ@NPDLGDNP@d?3?2pjsip?2pjproject?92?48?2pjlib?2sr@ 004a3d6c     pjlib-i386-win32-vc8-debug-dynamic:pool_policy_malloc.obj
 0003:00013db0       ??_C@_0BB@JCEFLFJE@0123456789abcdef@ 004a3db0     pjlib-i386-win32-vc8-debug-dynamic:string.obj
 0003:00013dc8       ??_C@_1GG@FCNGCDIF@?$AAd?$AA?3?$AA?2?$AAp?$AAj?$AAs?$AAi?$AAp?$AA?2?$AAp?$AAj?$AAp?$AAr?$AAo?$AAj@ 004a3dc8     pjlib-i386-win32-vc8-debug-dynamic:string.obj
 0003:00013e44       ??_C@_1BC@EFNPFECE@?$AAm?$AAa?$AAx?$AA?5?$AA?$DO?$AA?$DN?$AA?5?$AA0@ 004a3e44     pjlib-i386-win32-vc8-debug-dynamic:string.obj
 0003:00013e5c       ??_C@_1BA@DIEGFNCJ@?$AAm?$AAa?$AAx?$AA?5?$AA?$DO?$AA?5?$AA0@ 004a3e5c     pjlib-i386-win32-vc8-debug-dynamic:string.obj
 0003:00013e70       ??_C@_0CN@KGLAKEMO@d?3?2pjsip?2pjproject?92?48?2pjlib?2sr@ 004a3e70     pjlib-i386-win32-vc8-debug-dynamic:string.obj
 0003:00013ea8       ??_C@_0BB@CEONGONL@Unsupported?5base@ 004a3ea8     pjlib-i386-win32-vc8-debug-dynamic:string.obj
 0003:00013ec0       ??_C@_1FK@GBMOPEFK@?$AAd?$AA?3?$AA?2?$AAp?$AAj?$AAs?$AAi?$AAp?$AA?2?$AAp?$AAj?$AAp?$AAr?$AAo?$AAj@ 004a3ec0     pjlib-i386-win32-vc8-debug-dynamic:string.obj
 0003:00013f2c       ??_C@_1CI@NFHHBACP@?$AA?$CB?$AA?$CC?$AAU?$AAn?$AAs?$AAu?$AAp?$AAp?$AAo?$AAr?$AAt?$AAe?$AAd?$AA?5?$AAb@ 004a3f2c     pjlib-i386-win32-vc8-debug-dynamic:string.obj
 0003:00013f5c       __real@41200000            004a3f5c     pjlib-i386-win32-vc8-debug-dynamic:string.obj
 0003:00014140       ??_C@_0CD@FNMHLHMI@Interrupted?5system?5call?5?$CIWSAEIN@ 004a4140     pjlib-i386-win32-vc8-debug-dynamic:os_error_win32.obj
 0003:0001416c       ??_C@_0BL@OKPDNKLH@Bad?5file?5number?5?$CIWSAEBADF?$CJ@ 004a416c     pjlib-i386-win32-vc8-debug-dynamic:os_error_win32.obj
 0003:0001418c       ??_C@_0BO@BMBEEPBP@Permission?5denied?5?$CIWSAEACCES?$CJ@ 004a418c     pjlib-i386-win32-vc8-debug-dynamic:os_error_win32.obj
 0003:000141b0       ??_C@_0BI@LAKHPJJ@Bad?5address?5?$CIWSAEFAULT?$CJ@ 004a41b0     pjlib-i386-win32-vc8-debug-dynamic:os_error_win32.obj
 0003:000141cc       ??_C@_0BN@FEIDINKH@Invalid?5argument?5?$CIWSAEINVAL?$CJ@ 004a41cc     pjlib-i386-win32-vc8-debug-dynamic:os_error_win32.obj
 0003:000141f0       ??_C@_0CC@HMKKNDGL@Too?5many?5open?5sockets?5?$CIWSAEMFIL@ 004a41f0     pjlib-i386-win32-vc8-debug-dynamic:os_error_win32.obj
 0003:00014218       ??_C@_0CH@GCPPFMGM@Operation?5would?5block?5?$CIWSAEWOUL@ 004a4218     pjlib-i386-win32-vc8-debug-dynamic:os_error_win32.obj
 0003:00014248       ??_C@_0CL@DKGHEPCD@Operation?5now?5in?5progress?5?$CIWSAE@ 004a4248     pjlib-i386-win32-vc8-debug-dynamic:os_error_win32.obj
 0003:0001427c       ??_C@_0CM@BEMCBKDH@Operation?5already?5in?5progress?5?$CI@ 004a427c     pjlib-i386-win32-vc8-debug-dynamic:os_error_win32.obj
 0003:000142b0       ??_C@_0CN@PAFKDEBN@Socket?5operation?5on?5non?9socket?5@ 004a42b0     pjlib-i386-win32-vc8-debug-dynamic:os_error_win32.obj
 0003:000142e8       ??_C@_0CP@HCDICECK@Destination?5address?5required?5?$CIW@ 004a42e8     pjlib-i386-win32-vc8-debug-dynamic:os_error_win32.obj
 0003:00014320       ??_C@_0BP@LNFPBFEK@Message?5too?5long?5?$CIWSAEMSGSIZE?$CJ@ 004a4320     pjlib-i386-win32-vc8-debug-dynamic:os_error_win32.obj
 0003:00014348       ??_C@_0CP@MMIMIEMF@Protocol?5wrong?5type?5for?5socket?5@ 004a4348     pjlib-i386-win32-vc8-debug-dynamic:os_error_win32.obj
 0003:00014380       ??_C@_0CF@HNFLHOHA@Bad?5protocol?5option?5?$CIWSAENOPROT@ 004a4380     pjlib-i386-win32-vc8-debug-dynamic:os_error_win32.obj
 0003:000143ac       ??_C@_0CM@HPGHEHCE@Protocol?5not?5supported?5?$CIWSAEPRO@ 004a43ac     pjlib-i386-win32-vc8-debug-dynamic:os_error_win32.obj
 0003:000143e0       ??_C@_0CP@JLBNHCOL@Socket?5type?5not?5supported?5?$CIWSAE@ 004a43e0     pjlib-i386-win32-vc8-debug-dynamic:os_error_win32.obj
 0003:00014418       ??_C@_0DC@GJMFANID@Operation?5not?5supported?5on?5sock@ 004a4418     pjlib-i386-win32-vc8-debug-dynamic:os_error_win32.obj
 0003:00014454       ??_C@_0DA@GFNBENIG@Protocol?5family?5not?5supported?5?$CI@ 004a4454     pjlib-i386-win32-vc8-debug-dynamic:os_error_win32.obj
 0003:00014490       ??_C@_0CP@MMKHGIFC@Address?5family?5not?5supported?5?$CIW@ 004a4490     pjlib-i386-win32-vc8-debug-dynamic:os_error_win32.obj
 0003:000144c8       ??_C@_0CH@OCKNFBKE@Address?5already?5in?5use?5?$CIWSAEADD@ 004a44c8     pjlib-i386-win32-vc8-debug-dynamic:os_error_win32.obj
 0003:000144f8       ??_C@_0DC@FJJPJPOD@Can?8t?5assign?5requested?5address?5@ 004a44f8     pjlib-i386-win32-vc8-debug-dynamic:os_error_win32.obj
 0003:00014534       ??_C@_0BO@IICKDHLJ@Network?5is?5down?5?$CIWSAENETDOWN?$CJ@ 004a4534     pjlib-i386-win32-vc8-debug-dynamic:os_error_win32.obj
 0003:00014558       ??_C@_0CI@NKJAACME@Network?5is?5unreachable?5?$CIWSAENET@ 004a4558     pjlib-i386-win32-vc8-debug-dynamic:os_error_win32.obj
 0003:00014588       ??_C@_0CE@LJEEEFEC@Net?5connection?5reset?5?$CIWSAENETRE@ 004a4588     pjlib-i386-win32-vc8-debug-dynamic:os_error_win32.obj
 0003:000145b4       ??_C@_0DD@PGDIHOBG@Software?5caused?5connection?5abor@ 004a45b4     pjlib-i386-win32-vc8-debug-dynamic:os_error_win32.obj
 0003:000145f4       ??_C@_0CJ@PJHCFAAN@Connection?5reset?5by?5peer?5?$CIWSAEC@ 004a45f4     pjlib-i386-win32-vc8-debug-dynamic:os_error_win32.obj
 0003:00014628       ??_C@_0CH@EKNGIMKN@No?5buffer?5space?5available?5?$CIWSAE@ 004a4628     pjlib-i386-win32-vc8-debug-dynamic:os_error_win32.obj
 0003:00014658       ??_C@_0CJ@JOPBNNOD@Socket?5is?5already?5connected?5?$CIWS@ 004a4658     pjlib-i386-win32-vc8-debug-dynamic:os_error_win32.obj
 0003:0001468c       ??_C@_0CG@CECDMHLL@Socket?5is?5not?5connected?5?$CIWSAENO@ 004a468c     pjlib-i386-win32-vc8-debug-dynamic:os_error_win32.obj
 0003:000146bc       ??_C@_0DA@JGJMJPNM@Can?8t?5send?5after?5socket?5shutdow@ 004a46bc     pjlib-i386-win32-vc8-debug-dynamic:os_error_win32.obj
 0003:000146f8       ??_C@_0DE@CAILNFFE@Too?5many?5references?0?5can?8t?5spli@ 004a46f8     pjlib-i386-win32-vc8-debug-dynamic:os_error_win32.obj
 0003:00014738       ??_C@_0CE@IIKHBGF@Connection?5timed?5out?5?$CIWSAETIMED@ 004a4738     pjlib-i386-win32-vc8-debug-dynamic:os_error_win32.obj
 0003:00014764       ??_C@_0CF@JMKFBJH@Connection?5refused?5?$CIWSAECONNREF@ 004a4764     pjlib-i386-win32-vc8-debug-dynamic:os_error_win32.obj
 0003:00014790       ??_C@_0CN@FCKBNFMB@Too?5many?5levels?5of?5symbolic?5lin@ 004a4790     pjlib-i386-win32-vc8-debug-dynamic:os_error_win32.obj
 0003:000147c8       ??_C@_0CF@MOFKOMBB@File?5name?5too?5long?5?$CIWSAENAMETOO@ 004a47c8     pjlib-i386-win32-vc8-debug-dynamic:os_error_win32.obj
 0003:000147f4       ??_C@_0BM@NCJCEEDP@Host?5is?5down?5?$CIWSAEHOSTDOWN?$CJ@ 004a47f4     pjlib-i386-win32-vc8-debug-dynamic:os_error_win32.obj
 0003:00014818       ??_C@_0CD@ECJOJHBH@No?5route?5to?5host?5?$CIWSAEHOSTUNREA@ 004a4818     pjlib-i386-win32-vc8-debug-dynamic:os_error_win32.obj
 0003:00014844       ??_C@_0CD@NEFLEHEG@Directory?5not?5empty?5?$CIWSAENOTEMP@ 004a4844     pjlib-i386-win32-vc8-debug-dynamic:os_error_win32.obj
 0003:00014870       ??_C@_0CB@GPCGLHOJ@Too?5many?5processes?5?$CIWSAEPROCLIM@ 004a4870     pjlib-i386-win32-vc8-debug-dynamic:os_error_win32.obj
 0003:00014898       ??_C@_0BL@IGHJMJKO@Too?5many?5users?5?$CIWSAEUSERS?$CJ@ 004a4898     pjlib-i386-win32-vc8-debug-dynamic:os_error_win32.obj
 0003:000148b8       ??_C@_0CA@MIOFDKMA@Disc?5quota?5exceeded?5?$CIWSAEDQUOT?$CJ@ 004a48b8     pjlib-i386-win32-vc8-debug-dynamic:os_error_win32.obj
 0003:000148e0       ??_C@_0CC@IMLIDHNH@Stale?5NFS?5file?5handle?5?$CIWSAESTAL@ 004a48e0     pjlib-i386-win32-vc8-debug-dynamic:os_error_win32.obj
 0003:00014908       ??_C@_0CP@MLAFGPOA@Too?5many?5levels?5of?5remote?5in?5pa@ 004a4908     pjlib-i386-win32-vc8-debug-dynamic:os_error_win32.obj
 0003:00014940       ??_C@_0CP@IBAEMKGH@Network?5system?5is?5unavailable?5?$CI@ 004a4940     pjlib-i386-win32-vc8-debug-dynamic:os_error_win32.obj
 0003:00014978       ??_C@_0DC@BLAKHMMJ@Winsock?5version?5out?5of?5range?5?$CIW@ 004a4978     pjlib-i386-win32-vc8-debug-dynamic:os_error_win32.obj
 0003:000149b4       ??_C@_0CO@HPDHHDHA@WSAStartup?5not?5yet?5called?5?$CIWSAN@ 004a49b4     pjlib-i386-win32-vc8-debug-dynamic:os_error_win32.obj
 0003:000149ec       ??_C@_0CL@GFDHEKLB@Graceful?5shutdown?5in?5progress?5?$CI@ 004a49ec     pjlib-i386-win32-vc8-debug-dynamic:os_error_win32.obj
 0003:00014a20       ??_C@_0CD@OEALOMDH@Host?5not?5found?5?$CIWSAHOST_NOT_FOU@ 004a4a20     pjlib-i386-win32-vc8-debug-dynamic:os_error_win32.obj
 0003:00014a4c       ??_C@_0DB@KFPHELLI@No?5host?5data?5of?5that?5type?5was?5f@ 004a4a4c     pjlib-i386-win32-vc8-debug-dynamic:os_error_win32.obj
 0003:00014a88       ??_C@_1GK@CCFKEIHC@?$AAd?$AA?3?$AA?2?$AAp?$AAj?$AAs?$AAi?$AAp?$AA?2?$AAp?$AAj?$AAp?$AAr?$AAo?$AAj@ 004a4a88     pjlib-i386-win32-vc8-debug-dynamic:os_error_win32.obj
 0003:00014b08       ??_C@_1CG@MKDKEIKM@?$AAb?$AAu?$AAf?$AA?5?$AA?$CB?$AA?$DN?$AA?5?$AA?$CI?$AA?$CI?$AAv?$AAo?$AAi?$AAd?$AA?5?$AA?$CK@ 004a4b08     pjlib-i386-win32-vc8-debug-dynamic:os_error_win32.obj
 0003:00014b38       ??_C@_1BK@KKHIEKEI@?$AAb?$AAu?$AAf?$AAs?$AAi?$AAz?$AAe?$AA?5?$AA?$DO?$AA?$DN?$AA?5?$AA0@ 004a4b38     pjlib-i386-win32-vc8-debug-dynamic:os_error_win32.obj
 0003:00014b58       ??_C@_0BE@JPHLLAEM@Win32?5error?5code?5?$CFu@ 004a4b58     pjlib-i386-win32-vc8-debug-dynamic:os_error_win32.obj
 0003:00014b70       ??_C@_01OHGJGJJP@?$FL@     004a4b70     pjlib-i386-win32-vc8-debug-dynamic:sock_common.obj
 0003:00014b74       ??_C@_01LBDDMOBJ@?$FN@     004a4b74     pjlib-i386-win32-vc8-debug-dynamic:sock_common.obj
 0003:00014b78       ??_C@_03HODKBCIO@?3?$CFd@  004a4b78     pjlib-i386-win32-vc8-debug-dynamic:sock_common.obj
 0003:00014b7c       ??_C@_08KJEDNCKC@?$CFs?$CFs?$CFs?$CFs@ 004a4b7c     pjlib-i386-win32-vc8-debug-dynamic:sock_common.obj
 0003:00014b88       ??_C@_0DC@FCBHBCDO@d?3?2pjsip?2pjproject?92?48?2pjlib?2sr@ 004a4b88     pjlib-i386-win32-vc8-debug-dynamic:sock_common.obj
 0003:00014bc8       ??_C@_1GE@GCMOEHFJ@?$AAd?$AA?3?$AA?2?$AAp?$AAj?$AAs?$AAi?$AAp?$AA?2?$AAp?$AAj?$AAp?$AAr?$AAo?$AAj@ 004a4bc8     pjlib-i386-win32-vc8-debug-dynamic:sock_common.obj
 0003:00014c40       ??_C@_1EI@LMAIDKEG@?$AA?$CB?$AAs?$AAt?$AAr?$AA_?$AAa?$AAd?$AAd?$AAr?$AA?5?$AA?$HM?$AA?$HM?$AA?5?$AAs?$AAt@ 004a4c40     pjlib-i386-win32-vc8-debug-dynamic:sock_common.obj
 0003:00014c98       ??_C@_1CA@EINGOHHA@?$AAa?$AAf?$AA?$DN?$AA?$DN?$AAP?$AAJ?$AA_?$AAA?$AAF?$AA_?$AAI?$AAN?$AAE?$AAT?$AA6@ 004a4c98     pjlib-i386-win32-vc8-debug-dynamic:sock_common.obj
 0003:00014cc0       ??_C@_19CEKCHDNN@?$AAa?$AAd?$AAd?$AAr@ 004a4cc0     pjlib-i386-win32-vc8-debug-dynamic:sock_common.obj
 0003:00014cd0       ??_C@_1II@IEDNCJLG@?$AAa?$AA?9?$AA?$DO?$AAa?$AAd?$AAd?$AAr?$AA?4?$AAs?$AAa?$AA_?$AAf?$AAa?$AAm?$AAi@ 004a4cd0     pjlib-i386-win32-vc8-debug-dynamic:sock_common.obj
 0003:00014d74       ??_C@_1BG@CKELPDKC@?$AAs?$AAr?$AAc?$AA?5?$AA?$CG?$AA?$CG?$AA?5?$AAd?$AAs?$AAt@ 004a4d74     pjlib-i386-win32-vc8-debug-dynamic:sock_common.obj
 0003:00014d90       ??_C@_1EE@BHODCNOF@?$AAa?$AAf?$AA?$DN?$AA?$DN?$AAP?$AAJ?$AA_?$AAA?$AAF?$AA_?$AAI?$AAN?$AAE?$AAT?$AA?5@ 004a4d90     pjlib-i386-win32-vc8-debug-dynamic:sock_common.obj
 0003:00014de8       ??_C@_1LE@BCBAMGPH@?$AA?$CI?$AAa?$AAf?$AA?$DN?$AA?$DN?$AAP?$AAJ?$AA_?$AAA?$AAF?$AA_?$AAI?$AAN?$AAE?$AAT@ 004a4de8     pjlib-i386-win32-vc8-debug-dynamic:sock_common.obj
 0003:00014ec0       ??_C@_1GM@GCDHCLKA@?$AAa?$AAf?$AA?$DN?$AA?$DN?$AAP?$AAJ?$AA_?$AAA?$AAF?$AA_?$AAU?$AAN?$AAS?$AAP?$AAE@ 004a4ec0     pjlib-i386-win32-vc8-debug-dynamic:sock_common.obj
 0003:00014f48       ??_C@_1FK@OKOAJPPE@?$AAa?$AAi?$AA?4?$AAa?$AAi?$AA_?$AAa?$AAd?$AAd?$AAr?$AA?4?$AAa?$AAd?$AAd?$AAr@ 004a4f48     pjlib-i386-win32-vc8-debug-dynamic:sock_common.obj
 0003:00014fb4       ??_C@_07EBPGIHEF@1?41?41?41@ 004a4fb4     pjlib-i386-win32-vc8-debug-dynamic:sock_common.obj
 0003:00014fc0       ??_C@_04NFKLOGOF@1?3?31@   004a4fc0     pjlib-i386-win32-vc8-debug-dynamic:sock_common.obj
 0003:00014fc8       ??_C@_1MI@MLDCCECM@?$AAs?$AAo?$AAc?$AAk?$AAf?$AAd?$AA?5?$AA?$CB?$AA?$DN?$AA?5?$AA?$CI?$AA?9?$AA1?$AA?$CJ?$AA?5@ 004a4fc8     pjlib-i386-win32-vc8-debug-dynamic:sock_common.obj
 0003:000150b8       ??_C@_0M@HMJLLIPA@?$CFs?$CF?4?$CKs?$CFs?3?$CFd@ 004a50b8     pjlib-i386-win32-vc8-debug-dynamic:sock_common.obj
 0003:000150c8       ??_C@_08JLADFOFK@?$CFs?$CF?4?$CKs?$CFs@ 004a50c8     pjlib-i386-win32-vc8-debug-dynamic:sock_common.obj
 0003:000150d8       ??_C@_1HC@FJDBECCA@?$AAd?$AA?3?$AA?2?$AAp?$AAj?$AAs?$AAi?$AAp?$AA?2?$AAp?$AAj?$AAp?$AAr?$AAo?$AAj@ 004a50d8     pjlib-i386-win32-vc8-debug-dynamic:ioqueue_select.obj
 0003:00015160       ??_C@_1CA@KCHPHKDA@?$AAi?$AAo?$AAq?$AAu?$AAe?$AAu?$AAe?$AA?5?$AA?$CG?$AA?$CG?$AA?5?$AAl?$AAo?$AAc?$AAk@ 004a5160     pjlib-i386-win32-vc8-debug-dynamic:ioqueue_select.obj
 0003:00015188       ??_C@_1CI@INOOPFAE@?$AAk?$AAe?$AAy?$AA?9?$AA?$DO?$AAr?$AAe?$AAf?$AA_?$AAc?$AAo?$AAu?$AAn?$AAt?$AA?5@ 004a5188     pjlib-i386-win32-vc8-debug-dynamic:ioqueue_select.obj
 0003:000151b8       ??_C@_1CG@DEMIAMFE@?$AAk?$AAe?$AAy?$AA?5?$AA?$CB?$AA?$DN?$AA?5?$AA?$CI?$AA?$CI?$AAv?$AAo?$AAi?$AAd?$AA?5?$AA?$CK@ 004a51b8     pjlib-i386-win32-vc8-debug-dynamic:ioqueue_select.obj
 0003:000151e8       ??_C@_17FJFCONIE@?$AAk?$AAe?$AAy@ 004a51e8     pjlib-i386-win32-vc8-debug-dynamic:ioqueue_select.obj
 0003:000151f4       ??_C@_0BI@NKJLJNEF@Invalid?5operation?5type?$CB@ 004a51f4     pjlib-i386-win32-vc8-debug-dynamic:ioqueue_select.obj
 0003:00015210       ??_C@_1DG@KDBMKDML@?$AA?$CB?$AA?$CC?$AAI?$AAn?$AAv?$AAa?$AAl?$AAi?$AAd?$AA?5?$AAo?$AAp?$AAe?$AAr?$AAa@ 004a5210     pjlib-i386-win32-vc8-debug-dynamic:ioqueue_select.obj
 0003:00015250       ??_C@_1BI@EKGFNMKL@?$AAs?$AAe?$AAn?$AAd?$AA_?$AAr?$AAc?$AA?5?$AA?$DO?$AA?5?$AA0@ 004a5250     pjlib-i386-win32-vc8-debug-dynamic:ioqueue_select.obj
 0003:00015270       ??_C@_1EE@CNIDBBIK@?$AAr?$AAe?$AAa?$AAd?$AA_?$AAo?$AAp?$AA?9?$AA?$DO?$AAo?$AAp?$AA?5?$AA?$DN?$AA?$DN?$AA?5@ 004a5270     pjlib-i386-win32-vc8-debug-dynamic:ioqueue_select.obj
 0003:000152c8       ??_C@_1EE@GPIKMDPH@?$AAk?$AAe?$AAy?$AA?5?$AA?$CG?$AA?$CG?$AA?5?$AAo?$AAp?$AA_?$AAk?$AAe?$AAy?$AA?5?$AA?$CG@ 004a52c8     pjlib-i386-win32-vc8-debug-dynamic:ioqueue_select.obj
 0003:0001531c       ??_C@_0DJ@IJGBOMPN@d?3?2pjsip?2pjproject?92?48?2pjlib?2sr@ 004a531c     pjlib-i386-win32-vc8-debug-dynamic:ioqueue_select.obj
 0003:00015360       ??_C@_1EA@PBLBPGMH@?$AAk?$AAe?$AAy?$AA?5?$AA?$CG?$AA?$CG?$AA?5?$AAo?$AAp?$AA_?$AAk?$AAe?$AAy?$AA?5?$AA?$CG@ 004a5360     pjlib-i386-win32-vc8-debug-dynamic:ioqueue_select.obj
 0003:000153b0       ??_C@_1EO@LGPBHJKN@?$AAa?$AAd?$AAd?$AAr?$AAl?$AAe?$AAn?$AA?5?$AA?$DM?$AA?$DN?$AA?5?$AA?$CI?$AAi?$AAn?$AAt@ 004a53b0     pjlib-i386-win32-vc8-debug-dynamic:ioqueue_select.obj
 0003:00015410       ??_C@_1DE@IAHNELBK@?$AAk?$AAe?$AAy?$AA?5?$AA?$CG?$AA?$CG?$AA?5?$AAo?$AAp?$AA_?$AAk?$AAe?$AAy?$AA?5?$AA?$CG@ 004a5410     pjlib-i386-win32-vc8-debug-dynamic:ioqueue_select.obj
 0003:00015450       ??_C@_1CO@PMKELHLG@?$AAk?$AAe?$AAy?$AA?5?$AA?$CG?$AA?$CG?$AA?5?$AAa?$AAd?$AAd?$AAr?$AA?5?$AA?$CG?$AA?$CG?$AA?5@ 004a5450     pjlib-i386-win32-vc8-debug-dynamic:ioqueue_select.obj
 0003:00015488       ??_C@_1CO@FLGLFEIC@?$AAi?$AAo?$AAq?$AAu?$AAe?$AAu?$AAe?$AA?5?$AA?$CB?$AA?$DN?$AA?5?$AA?$CI?$AA?$CI?$AAv?$AAo@ 004a5488     pjlib-i386-win32-vc8-debug-dynamic:ioqueue_select.obj
 0003:000154c0       ??_C@_1BG@HNKGLEIM@?$AAa?$AAl?$AAl?$AAo?$AAw?$AA?5?$AA?$HM?$AA?$HM?$AA?5?$AA1@ 004a54c0     pjlib-i386-win32-vc8-debug-dynamic:ioqueue_select.obj
 0003:000154dc       ??_C@_06LGNCCACI@select@   004a54dc     pjlib-i386-win32-vc8-debug-dynamic:ioqueue_select.obj
 0003:000154e8       ??_C@_1GK@MGPLOADN@?$AAd?$AA?3?$AA?2?$AAp?$AAj?$AAs?$AAi?$AAp?$AA?2?$AAp?$AAj?$AAp?$AAr?$AAo?$AAj@ 004a54e8     pjlib-i386-win32-vc8-debug-dynamic:ioqueue_select.obj
 0003:00015568       ??_C@_1KA@LNOEPJNH@?$AAp?$AAo?$AAo?$AAl?$AA?5?$AA?$CB?$AA?$DN?$AA?5?$AA?$CI?$AA?$CI?$AAv?$AAo?$AAi?$AAd?$AA?5@ 004a5568     pjlib-i386-win32-vc8-debug-dynamic:ioqueue_select.obj
 0003:00015628       ??_C@_05LIJONKFG@ioq?$CFp@ 004a5628     pjlib-i386-win32-vc8-debug-dynamic:ioqueue_select.obj
 0003:00015630       ??_C@_0CA@IMDCINDN@select?$CI?$CJ?5I?1O?5Queue?5created?5?$CI?$CFp?$CJ@ 004a5630     pjlib-i386-win32-vc8-debug-dynamic:ioqueue_select.obj
 0003:00015658       ??_C@_05PHKAINEA@pjlib@    004a5658     pjlib-i386-win32-vc8-debug-dynamic:ioqueue_select.obj
 0003:00015660       ??_C@_1BA@ENKELKPH@?$AAi?$AAo?$AAq?$AAu?$AAe?$AAu?$AAe@ 004a5660     pjlib-i386-win32-vc8-debug-dynamic:ioqueue_select.obj
 0003:00015678       ??_C@_1FO@PPHPABF@?$AAp?$AAo?$AAo?$AAl?$AA?5?$AA?$CG?$AA?$CG?$AA?5?$AAi?$AAo?$AAq?$AAu?$AAe?$AAu?$AAe@ 004a5678     pjlib-i386-win32-vc8-debug-dynamic:ioqueue_select.obj
 0003:000156e8       ??_C@_0FI@FLNGAOFF@Failed?5to?5register?5socket?5to?5io@ 004a56e8     pjlib-i386-win32-vc8-debug-dynamic:ioqueue_select.obj
 0003:00015758       ??_C@_1EI@PJMCDAJH@?$AA?$CB?$AAp?$AAj?$AA_?$AAl?$AAi?$AAs?$AAt?$AA_?$AAe?$AAm?$AAp?$AAt?$AAy?$AA?$CI@ 004a5758     pjlib-i386-win32-vc8-debug-dynamic:ioqueue_select.obj
 0003:000157b0       ??_C@_1CE@KOHBIHOL@?$AAk?$AAe?$AAy?$AA?9?$AA?$DO?$AAc?$AAl?$AAo?$AAs?$AAi?$AAn?$AAg?$AA?5?$AA?$DN?$AA?$DN@ 004a57b0     pjlib-i386-win32-vc8-debug-dynamic:ioqueue_select.obj
 0003:000157dc       ??_C@_0CJ@NPMLHLI@Bad?5ioqueue?5count?5in?5key?5unregi@ 004a57dc     pjlib-i386-win32-vc8-debug-dynamic:ioqueue_select.obj
 0003:00015810       ??_C@_1FI@CFFJHCOI@?$AA?$CB?$AA?$CC?$AAB?$AAa?$AAd?$AA?5?$AAi?$AAo?$AAq?$AAu?$AAe?$AAu?$AAe?$AA?5?$AAc@ 004a5810     pjlib-i386-win32-vc8-debug-dynamic:ioqueue_select.obj
 0003:0001587c       ??_C@_0L@CAJCIPAG@ioq_select@ 004a587c     pjlib-i386-win32-vc8-debug-dynamic:ioqueue_select.obj
 0003:0001588c       ??_C@_1CA@OBALMACM@?$AAh?$AA?9?$AA?$DO?$AAc?$AAl?$AAo?$AAs?$AAi?$AAn?$AAg?$AA?5?$AA?$CB?$AA?$DN?$AA?5?$AA0@ 004a588c     pjlib-i386-win32-vc8-debug-dynamic:ioqueue_select.obj
 0003:000158b4       ??_C@_0P@KEHJHANK@Invalid?5event?$CB@ 004a58b4     pjlib-i386-win32-vc8-debug-dynamic:ioqueue_select.obj
 0003:000158c8       ??_C@_1CE@KOLKIPFK@?$AA?$CB?$AA?$CC?$AAI?$AAn?$AAv?$AAa?$AAl?$AAi?$AAd?$AA?5?$AAe?$AAv?$AAe?$AAn?$AAt@ 004a58c8     pjlib-i386-win32-vc8-debug-dynamic:ioqueue_select.obj
 0003:000158f4       _PJ_AF_UNSPEC              004a58f4     pjlib-i386-win32-vc8-debug-dynamic:sock_bsd.obj
 0003:000158f8       _PJ_AF_UNIX                004a58f8     pjlib-i386-win32-vc8-debug-dynamic:sock_bsd.obj
 0003:000158fc       _PJ_AF_INET                004a58fc     pjlib-i386-win32-vc8-debug-dynamic:sock_bsd.obj
 0003:00015900       _PJ_AF_INET6               004a5900     pjlib-i386-win32-vc8-debug-dynamic:sock_bsd.obj
 0003:00015904       _PJ_AF_PACKET              004a5904     pjlib-i386-win32-vc8-debug-dynamic:sock_bsd.obj
 0003:00015908       _PJ_AF_IRDA                004a5908     pjlib-i386-win32-vc8-debug-dynamic:sock_bsd.obj
 0003:0001590c       _PJ_SOCK_STREAM            004a590c     pjlib-i386-win32-vc8-debug-dynamic:sock_bsd.obj
 0003:00015910       _PJ_SOCK_DGRAM             004a5910     pjlib-i386-win32-vc8-debug-dynamic:sock_bsd.obj
 0003:00015914       _PJ_SOCK_RAW               004a5914     pjlib-i386-win32-vc8-debug-dynamic:sock_bsd.obj
 0003:00015918       _PJ_SOCK_RDM               004a5918     pjlib-i386-win32-vc8-debug-dynamic:sock_bsd.obj
 0003:0001591c       _PJ_SOL_SOCKET             004a591c     pjlib-i386-win32-vc8-debug-dynamic:sock_bsd.obj
 0003:00015920       _PJ_SOL_IP                 004a5920     pjlib-i386-win32-vc8-debug-dynamic:sock_bsd.obj
 0003:00015924       _PJ_SOL_TCP                004a5924     pjlib-i386-win32-vc8-debug-dynamic:sock_bsd.obj
 0003:00015928       _PJ_SOL_UDP                004a5928     pjlib-i386-win32-vc8-debug-dynamic:sock_bsd.obj
 0003:0001592c       _PJ_SOL_IPV6               004a592c     pjlib-i386-win32-vc8-debug-dynamic:sock_bsd.obj
 0003:00015930       _PJ_IP_TOS                 004a5930     pjlib-i386-win32-vc8-debug-dynamic:sock_bsd.obj
 0003:00015934       _PJ_IPTOS_LOWDELAY         004a5934     pjlib-i386-win32-vc8-debug-dynamic:sock_bsd.obj
 0003:00015938       _PJ_IPTOS_THROUGHPUT       004a5938     pjlib-i386-win32-vc8-debug-dynamic:sock_bsd.obj
 0003:0001593c       _PJ_IPTOS_RELIABILITY      004a593c     pjlib-i386-win32-vc8-debug-dynamic:sock_bsd.obj
 0003:00015940       _PJ_IPTOS_MINCOST          004a5940     pjlib-i386-win32-vc8-debug-dynamic:sock_bsd.obj
 0003:00015944       _PJ_IPV6_TCLASS            004a5944     pjlib-i386-win32-vc8-debug-dynamic:sock_bsd.obj
 0003:00015948       _PJ_SO_TYPE                004a5948     pjlib-i386-win32-vc8-debug-dynamic:sock_bsd.obj
 0003:0001594c       _PJ_SO_RCVBUF              004a594c     pjlib-i386-win32-vc8-debug-dynamic:sock_bsd.obj
 0003:00015950       _PJ_SO_SNDBUF              004a5950     pjlib-i386-win32-vc8-debug-dynamic:sock_bsd.obj
 0003:00015954       _PJ_TCP_NODELAY            004a5954     pjlib-i386-win32-vc8-debug-dynamic:sock_bsd.obj
 0003:00015958       _PJ_SO_REUSEADDR           004a5958     pjlib-i386-win32-vc8-debug-dynamic:sock_bsd.obj
 0003:0001595c       _PJ_SO_NOSIGPIPE           004a595c     pjlib-i386-win32-vc8-debug-dynamic:sock_bsd.obj
 0003:00015960       _PJ_SO_PRIORITY            004a5960     pjlib-i386-win32-vc8-debug-dynamic:sock_bsd.obj
 0003:00015964       _PJ_IP_MULTICAST_IF        004a5964     pjlib-i386-win32-vc8-debug-dynamic:sock_bsd.obj
 0003:00015968       _PJ_IP_MULTICAST_TTL       004a5968     pjlib-i386-win32-vc8-debug-dynamic:sock_bsd.obj
 0003:0001596c       _PJ_IP_MULTICAST_LOOP      004a596c     pjlib-i386-win32-vc8-debug-dynamic:sock_bsd.obj
 0003:00015970       _PJ_IP_ADD_MEMBERSHIP      004a5970     pjlib-i386-win32-vc8-debug-dynamic:sock_bsd.obj
 0003:00015974       _PJ_IP_DROP_MEMBERSHIP     004a5974     pjlib-i386-win32-vc8-debug-dynamic:sock_bsd.obj
 0003:00015978       _PJ_MSG_OOB                004a5978     pjlib-i386-win32-vc8-debug-dynamic:sock_bsd.obj
 0003:0001597c       _PJ_MSG_PEEK               004a597c     pjlib-i386-win32-vc8-debug-dynamic:sock_bsd.obj
 0003:00015980       _PJ_MSG_DONTROUTE          004a5980     pjlib-i386-win32-vc8-debug-dynamic:sock_bsd.obj
 0003:000159a0       ??_C@_1FO@BBDEIKJL@?$AAd?$AA?3?$AA?2?$AAp?$AAj?$AAs?$AAi?$AAp?$AA?2?$AAp?$AAj?$AAp?$AAr?$AAo?$AAj@ 004a59a0     pjlib-i386-win32-vc8-debug-dynamic:sock_bsd.obj
 0003:00015a10       ??_C@_1CM@OEECOBPG@?$AAc?$AAp?$AA?5?$AA?$CG?$AA?$CG?$AA?5?$AAc?$AAp?$AA?9?$AA?$DO?$AAs?$AAl?$AAe?$AAn?$AA?5@ 004a5a10     pjlib-i386-win32-vc8-debug-dynamic:sock_bsd.obj
 0003:00015a44       ??_C@_1DA@NIAFCNGJ@?$AAs?$AAr?$AAc?$AA?5?$AA?$CG?$AA?$CG?$AA?5?$AAs?$AAr?$AAc?$AA?9?$AA?$DO?$AAs?$AAl?$AAe@ 004a5a44     pjlib-i386-win32-vc8-debug-dynamic:sock_bsd.obj
 0003:00015a80       ??_C@_1CG@FCIAPMOJ@?$AAs?$AAr?$AAc?$AA?5?$AA?$CG?$AA?$CG?$AA?5?$AAd?$AAs?$AAt?$AA?5?$AA?$CG?$AA?$CG?$AA?5?$AAs@ 004a5a80     pjlib-i386-win32-vc8-debug-dynamic:sock_bsd.obj
 0003:00015ab0       ??_C@_0CP@NNJMEPMJ@d?3?2pjsip?2pjproject?92?48?2pjlib?2sr@ 004a5ab0     pjlib-i386-win32-vc8-debug-dynamic:sock_bsd.obj
 0003:00015ae8       ??_C@_1CE@CHKBIEBK@?$AAs?$AAo?$AAc?$AAk?$AA?$CB?$AA?$DN?$AA?$CI?$AA?$CI?$AAv?$AAo?$AAi?$AAd?$AA?5?$AA?$CK?$AA?$CJ@ 004a5ae8     pjlib-i386-win32-vc8-debug-dynamic:sock_bsd.obj
 0003:00015b18       ??_C@_1FO@NFJOCODB@?$AAa?$AAd?$AAd?$AAr?$AA?5?$AA?$CG?$AA?$CG?$AA?5?$AAl?$AAe?$AAn?$AA?5?$AA?$DO?$AA?$DN?$AA?5@ 004a5b18     pjlib-i386-win32-vc8-debug-dynamic:sock_bsd.obj
 0003:00015b88       ??_C@_17JOFJILLL@?$AAl?$AAe?$AAn@ 004a5b88     pjlib-i386-win32-vc8-debug-dynamic:sock_bsd.obj
 0003:00015b94       ??_C@_1BG@KIOEFHJP@?$AAb?$AAu?$AAf?$AA?5?$AA?$CG?$AA?$CG?$AA?5?$AAl?$AAe?$AAn@ 004a5b94     pjlib-i386-win32-vc8-debug-dynamic:sock_bsd.obj
 0003:00015bb0       ??_C@_1CC@JEHODAPI@?$AAo?$AAp?$AAt?$AAv?$AAa?$AAl?$AA?5?$AA?$CG?$AA?$CG?$AA?5?$AAo?$AAp?$AAt?$AAl?$AAe@ 004a5bb0     pjlib-i386-win32-vc8-debug-dynamic:sock_bsd.obj
 0003:00015bd8       ??_C@_1O@FEMBPDGM@?$AAp?$AAa?$AAr?$AAa?$AAm?$AAs@ 004a5bd8     pjlib-i386-win32-vc8-debug-dynamic:sock_bsd.obj
 0003:00015be8       ??_C@_0CE@IJGJDCPP@Warning?3?5error?5applying?5sock?5op@ 004a5be8     pjlib-i386-win32-vc8-debug-dynamic:sock_bsd.obj
 0003:00015c14       ??_C@_0L@NNKPLKFK@sock_bsd?4c@ 004a5c14     pjlib-i386-win32-vc8-debug-dynamic:sock_bsd.obj
 0003:00015c24       ??_C@_1CO@HPOGKJKP@?$AAn?$AAe?$AAw?$AAs?$AAo?$AAc?$AAk?$AA?5?$AA?$CB?$AA?$DN?$AA?5?$AA?$CI?$AA?$CI?$AAv?$AAo@ 004a5c24     pjlib-i386-win32-vc8-debug-dynamic:sock_bsd.obj
 0003:00015c60       ??_C@_1HA@CENCFIMC@?$AAd?$AA?3?$AA?2?$AAp?$AAj?$AAs?$AAi?$AAp?$AA?2?$AAp?$AAj?$AAp?$AAr?$AAo?$AAj@ 004a5c60     pjlib-i386-win32-vc8-debug-dynamic:file_access_win32.obj
 0003:00015ce8       ??_C@_1DA@HKABCAPK@?$AAf?$AAi?$AAl?$AAe?$AAn?$AAa?$AAm?$AAe?$AA?5?$AA?$CB?$AA?$DN?$AA?5?$AA?$CI?$AA?$CI?$AAv@ 004a5ce8     pjlib-i386-win32-vc8-debug-dynamic:file_access_win32.obj
 0003:00015d28       ??_C@_1FK@FNKPHKMJ@?$AAo?$AAl?$AAd?$AAn?$AAa?$AAm?$AAe?$AA?$CB?$AA?$DN?$AA?$CI?$AA?$CI?$AAv?$AAo?$AAi?$AAd@ 004a5d28     pjlib-i386-win32-vc8-debug-dynamic:file_access_win32.obj
 0003:00015d98       ??_C@_1FG@CEPDPGNF@?$AAf?$AAi?$AAl?$AAe?$AAn?$AAa?$AAm?$AAe?$AA?$CB?$AA?$DN?$AA?$CI?$AA?$CI?$AAv?$AAo?$AAi@ 004a5d98     pjlib-i386-win32-vc8-debug-dynamic:file_access_win32.obj
 0003:00015e00       ??_C@_1GI@BGJCJLLC@?$AAd?$AA?3?$AA?2?$AAp?$AAj?$AAs?$AAi?$AAp?$AA?2?$AAp?$AAj?$AAp?$AAr?$AAo?$AAj@ 004a5e00     pjlib-i386-win32-vc8-debug-dynamic:file_io_win32.obj
 0003:00015e7c       ??_C@_1CM@MJBFNBMA@?$AAp?$AAa?$AAt?$AAh?$AAn?$AAa?$AAm?$AAe?$AA?$CB?$AA?$DN?$AA?$CI?$AA?$CI?$AAv?$AAo?$AAi@ 004a5e7c     pjlib-i386-win32-vc8-debug-dynamic:file_io_win32.obj
 0003:00015eb0       ??_C@_0BI@LPOELMPF@Invalid?5file?5open?5flags@ 004a5eb0     pjlib-i386-win32-vc8-debug-dynamic:file_io_win32.obj
 0003:00015ecc       ??_C@_1DG@DCHEFIEL@?$AA?$CB?$AA?$CC?$AAI?$AAn?$AAv?$AAa?$AAl?$AAi?$AAd?$AA?5?$AAf?$AAi?$AAl?$AAe?$AA?5@ 004a5ecc     pjlib-i386-win32-vc8-debug-dynamic:file_io_win32.obj
 0003:00015f0c       ??_C@_0BO@DKHJKGGI@Invalid?5whence?5in?5file_setpos@ 004a5f0c     pjlib-i386-win32-vc8-debug-dynamic:file_io_win32.obj
 0003:00015f30       ??_C@_1EC@LGNMFIKH@?$AA?$CB?$AA?$CC?$AAI?$AAn?$AAv?$AAa?$AAl?$AAi?$AAd?$AA?5?$AAw?$AAh?$AAe?$AAn?$AAc@ 004a5f30     pjlib-i386-win32-vc8-debug-dynamic:file_io_win32.obj
 0003:00015f80       ??_C@_1FI@PCCJHOIK@?$AAd?$AA?3?$AA?2?$AAp?$AAj?$AAs?$AAi?$AAp?$AA?2?$AAp?$AAj?$AAp?$AAr?$AAo?$AAj@ 004a5f80     pjlib-i386-win32-vc8-debug-dynamic:array.obj
 0003:00015fec       ??_C@_1BG@OJJHGIJH@?$AAc?$AAo?$AAu?$AAn?$AAt?$AA?5?$AA?$CB?$AA?$DN?$AA?5?$AA0@ 004a5fec     pjlib-i386-win32-vc8-debug-dynamic:array.obj
 0003:00016008       ??_C@_0CD@KFHCCJFN@?$CB?$CB?$CBFATAL?3?5unhandled?5exception?5?$CF@ 004a6008     pjlib-i386-win32-vc8-debug-dynamic:except.obj
 0003:00016034       ??_C@_08PDFMOJIE@except?4c@ 004a6034     pjlib-i386-win32-vc8-debug-dynamic:except.obj
 0003:00016040       ??_C@_1FK@NDNHNAAH@?$AAd?$AA?3?$AA?2?$AAp?$AAj?$AAs?$AAi?$AAp?$AA?2?$AAp?$AAj?$AAp?$AAr?$AAo?$AAj@ 004a6040     pjlib-i386-win32-vc8-debug-dynamic:except.obj
 0003:000160ac       ??_C@_1CO@MDLDAOGN@?$AAh?$AAa?$AAn?$AAd?$AAl?$AAe?$AAr?$AA?5?$AA?$CB?$AA?$DN?$AA?5?$AA?$CI?$AA?$CI?$AAv?$AAo@ 004a60ac     pjlib-i386-win32-vc8-debug-dynamic:except.obj
 0003:000160e4       ??_C@_1CM@CIICDJMC@?$AAt?$AAh?$AAr?$AAe?$AAa?$AAd?$AA_?$AAl?$AAo?$AAc?$AAa?$AAl?$AA_?$AAi?$AAd@ 004a60e4     pjlib-i386-win32-vc8-debug-dynamic:except.obj
 0003:00016118       ??_C@_1BM@OONEPGEP@?$AAi?$AAd?$AA?$DO?$AA0?$AA?5?$AA?$CG?$AA?$CG?$AA?5?$AAi?$AAd?$AA?$DM?$AA1?$AA6@ 004a6118     pjlib-i386-win32-vc8-debug-dynamic:except.obj
 0003:0001613c       ??_C@_0N@GJOLEKJC@?$DMInvalid?5ID?$DO@ 004a613c     pjlib-i386-win32-vc8-debug-dynamic:except.obj
 0003:0001614c       ??_C@_0N@LJPLLMIL@exception?5?$CFd@ 004a614c     pjlib-i386-win32-vc8-debug-dynamic:except.obj
 0003:00016160       ??_C@_1FG@DANEPOLJ@?$AAd?$AA?3?$AA?2?$AAp?$AAj?$AAs?$AAi?$AAp?$AA?2?$AAp?$AAj?$AAp?$AAr?$AAo?$AAj@ 004a6160     pjlib-i386-win32-vc8-debug-dynamic:lock.obj
 0003:000161c8       ??_C@_1BK@HMAALPLD@?$AAp?$AAo?$AAo?$AAl?$AA?5?$AA?$CG?$AA?$CG?$AA?5?$AAl?$AAo?$AAc?$AAk@ 004a61c8     pjlib-i386-win32-vc8-debug-dynamic:lock.obj
 0003:000161e8       ??_C@_19LMCCMMJG@?$AAl?$AAo?$AAc?$AAk@ 004a61e8     pjlib-i386-win32-vc8-debug-dynamic:lock.obj
 0003:000161f4       ??_C@_1CI@EGCMNLMJ@?$AAl?$AAo?$AAc?$AAk?$AA?5?$AA?$CB?$AA?$DN?$AA?5?$AA?$CI?$AA?$CI?$AAv?$AAo?$AAi?$AAd?$AA?5@ 004a61f4     pjlib-i386-win32-vc8-debug-dynamic:lock.obj
 0003:00016228       ??_C@_1EC@BAIJMPOD@?$AAg?$AAl?$AAo?$AAc?$AAk?$AA?9?$AA?$DO?$AAo?$AAw?$AAn?$AAe?$AAr?$AA?5?$AA?$DN?$AA?$DN@ 004a6228     pjlib-i386-win32-vc8-debug-dynamic:lock.obj
 0003:00016278       ??_C@_1CK@GIKHEGPF@?$AAg?$AAl?$AAo?$AAc?$AAk?$AA?9?$AA?$DO?$AAo?$AAw?$AAn?$AAe?$AAr?$AA_?$AAc?$AAn@ 004a6278     pjlib-i386-win32-vc8-debug-dynamic:lock.obj
 0003:000162b0       ??_C@_1EE@CPEFOKMM@?$AAp?$AAj?$AA_?$AAa?$AAt?$AAo?$AAm?$AAi?$AAc?$AA_?$AAg?$AAe?$AAt?$AA?$CI?$AAg@ 004a62b0     pjlib-i386-win32-vc8-debug-dynamic:lock.obj
 0003:00016304       ??_C@_1CG@FLJIPPJO@?$AAp?$AAo?$AAo?$AAl?$AA?5?$AA?$CG?$AA?$CG?$AA?5?$AAp?$AA_?$AAg?$AAr?$AAp?$AA_?$AAl@ 004a6304     pjlib-i386-win32-vc8-debug-dynamic:lock.obj
 0003:00016334       ??_C@_06HALIBNKJ@glck?$CFp@ 004a6334     pjlib-i386-win32-vc8-debug-dynamic:lock.obj
 0003:0001633c       ??_C@_1BA@ELFKFCPF@?$AAc?$AAn?$AAt?$AA?5?$AA?$DO?$AA?5?$AA0@ 004a633c     pjlib-i386-win32-vc8-debug-dynamic:lock.obj
 0003:00016350       ??_C@_0BL@IKAPFLNO@Group?5lock?5?$CFp?0?5ref_cnt?$DN?$CFd?4@ 004a6350     pjlib-i386-win32-vc8-debug-dynamic:lock.obj
 0003:00016370       ??_C@_06JJJBJFIO@lock?4c@  004a6370     pjlib-i386-win32-vc8-debug-dynamic:lock.obj
 0003:00016378       __real@0000000000000000    004a6378     pjlib-i386-win32-vc8-debug-dynamic:os_timestamp_common.obj
 0003:00016388       __real@408f400000000000    004a6388     pjlib-i386-win32-vc8-debug-dynamic:os_timestamp_common.obj
 0003:00016398       __real@412e848000000000    004a6398     pjlib-i386-win32-vc8-debug-dynamic:os_timestamp_common.obj
 0003:000163a8       __real@41cdcd6500000000    004a63a8     pjlib-i386-win32-vc8-debug-dynamic:os_timestamp_common.obj
 0003:000163b4       ??_C@_0CL@CPIEOCGB@d?3?2pjsip?2pjproject?92?48?2pjlib?2sr@ 004a63b4     pjlib-i386-win32-vc8-debug-dynamic:rand.obj
 0003:000163e8       _PJ_GUID_STRING_LENGTH     004a63e8     pjlib-i386-win32-vc8-debug-dynamic:guid_win32.obj
 0003:000163ec       ??_C@_0DB@LMMCJAJB@d?3?2pjsip?2pjproject?92?48?2pjlib?2sr@ 004a63ec     pjlib-i386-win32-vc8-debug-dynamic:guid_win32.obj
 0003:00016428       ??_C@_08DOCHLGNA@config?4c@ 004a6428     pjlib-i386-win32-vc8-debug-dynamic:config.obj
 0003:00016434       ??_C@_03KBNFMHNI@2?48@     004a6434     pjlib-i386-win32-vc8-debug-dynamic:config.obj
 0003:00016438       ??_C@_0BO@LAKNEFOB@PJLIB?5?$CIc?$CJ2008?92016?5Teluu?5Inc?4@ 004a6438     pjlib-i386-win32-vc8-debug-dynamic:config.obj
 0003:0001645c       ??_C@_0BI@GDBJIAMF@Dumping?5configurations?3@ 004a645c     pjlib-i386-win32-vc8-debug-dynamic:config.obj
 0003:00016478       ??_C@_0CA@JHFFEGGP@?5PJ_VERSION?5?5?5?5?5?5?5?5?5?5?5?5?5?5?5?5?3?5?$CFs@ 004a6478     pjlib-i386-win32-vc8-debug-dynamic:config.obj
 0003:000164a0       ??_C@_04OMAFGPMM@i386@     004a64a0     pjlib-i386-win32-vc8-debug-dynamic:config.obj
 0003:000164a8       ??_C@_0CA@NCEBBBBA@?5PJ_M_NAME?5?5?5?5?5?5?5?5?5?5?5?5?5?5?5?5?5?3?5?$CFs@ 004a64a8     pjlib-i386-win32-vc8-debug-dynamic:config.obj
 0003:000164d0       ??_C@_0CA@KOLEBPNK@?5PJ_HAS_PENTIUM?5?5?5?5?5?5?5?5?5?5?5?5?3?5?$CFd@ 004a64d0     pjlib-i386-win32-vc8-debug-dynamic:config.obj
 0003:000164f8       ??_C@_05NMJMPJJB@win32@    004a64f8     pjlib-i386-win32-vc8-debug-dynamic:config.obj
 0003:00016500       ??_C@_0CA@GPBHGDBG@?5PJ_OS_NAME?5?5?5?5?5?5?5?5?5?5?5?5?5?5?5?5?3?5?$CFs@ 004a6500     pjlib-i386-win32-vc8-debug-dynamic:config.obj
 0003:00016528       ??_C@_04DPFJJIOK@msvc@     004a6528     pjlib-i386-win32-vc8-debug-dynamic:config.obj
 0003:00016530       ??_C@_0CJ@BAKBAPNO@?5PJ_CC_NAME?1VER_?$CI1?02?03?$CJ?5?5?5?5?3?5?$CFs@ 004a6530     pjlib-i386-win32-vc8-debug-dynamic:config.obj
 0003:00016564       ??_C@_0O@KEGGAHLA@little?9endian@ 004a6564     pjlib-i386-win32-vc8-debug-dynamic:config.obj
 0003:00016574       ??_C@_0CA@CNKKKLLD@?5PJ_IS_?$CIBIG?1LITTLE?$CJ_ENDIAN?5?3?5?$CFs@ 004a6574     pjlib-i386-win32-vc8-debug-dynamic:config.obj
 0003:0001659c       ??_C@_0CA@GGBFPJFC@?5PJ_HAS_INT64?5?5?5?5?5?5?5?5?5?5?5?5?5?5?3?5?$CFd@ 004a659c     pjlib-i386-win32-vc8-debug-dynamic:config.obj
 0003:000165c4       ??_C@_0CA@LMENGBAP@?5PJ_HAS_FLOATING_POINT?5?5?5?5?5?3?5?$CFd@ 004a65c4     pjlib-i386-win32-vc8-debug-dynamic:config.obj
 0003:000165ec       ??_C@_0CA@NBBHLDIH@?5PJ_DEBUG?5?5?5?5?5?5?5?5?5?5?5?5?5?5?5?5?5?5?3?5?$CFd@ 004a65ec     pjlib-i386-win32-vc8-debug-dynamic:config.obj
 0003:00016614       ??_C@_0CA@PKIHIMKF@?5PJ_FUNCTIONS_ARE_INLINED?5?5?3?5?$CFd@ 004a6614     pjlib-i386-win32-vc8-debug-dynamic:config.obj
 0003:0001663c       ??_C@_0CA@GEBJAONH@?5PJ_LOG_MAX_LEVEL?5?5?5?5?5?5?5?5?5?5?3?5?$CFd@ 004a663c     pjlib-i386-win32-vc8-debug-dynamic:config.obj
 0003:00016664       ??_C@_0CA@JKBDOCPB@?5PJ_LOG_MAX_SIZE?5?5?5?5?5?5?5?5?5?5?5?3?5?$CFd@ 004a6664     pjlib-i386-win32-vc8-debug-dynamic:config.obj
 0003:0001668c       ??_C@_0CA@LNDGNGPB@?5PJ_LOG_USE_STACK_BUFFER?5?5?5?3?5?$CFd@ 004a668c     pjlib-i386-win32-vc8-debug-dynamic:config.obj
 0003:000166b4       ??_C@_0CA@HLGIANHB@?5PJ_POOL_DEBUG?5?5?5?5?5?5?5?5?5?5?5?5?5?3?5?$CFd@ 004a66b4     pjlib-i386-win32-vc8-debug-dynamic:config.obj
 0003:000166dc       ??_C@_0CA@JFMEIGNB@?5PJ_HAS_POOL_ALT_API?5?5?5?5?5?5?5?3?5?$CFd@ 004a66dc     pjlib-i386-win32-vc8-debug-dynamic:config.obj
 0003:00016704       ??_C@_0CA@PHJFINJO@?5PJ_HAS_TCP?5?5?5?5?5?5?5?5?5?5?5?5?5?5?5?5?3?5?$CFd@ 004a6704     pjlib-i386-win32-vc8-debug-dynamic:config.obj
 0003:0001672c       ??_C@_0CA@IJPJLFMD@?5PJ_MAX_HOSTNAME?5?5?5?5?5?5?5?5?5?5?5?3?5?$CFd@ 004a672c     pjlib-i386-win32-vc8-debug-dynamic:config.obj
 0003:00016754       ??_C@_0CA@IFEKDPPK@?5ioqueue?5type?5?5?5?5?5?5?5?5?5?5?5?5?5?5?3?5?$CFs@ 004a6754     pjlib-i386-win32-vc8-debug-dynamic:config.obj
 0003:0001677c       ??_C@_0CA@MFIGELPB@?5PJ_IOQUEUE_MAX_HANDLES?5?5?5?5?3?5?$CFd@ 004a677c     pjlib-i386-win32-vc8-debug-dynamic:config.obj
 0003:000167a4       ??_C@_0CA@EOIHPMGI@?5PJ_IOQUEUE_HAS_SAFE_UNREG?5?3?5?$CFd@ 004a67a4     pjlib-i386-win32-vc8-debug-dynamic:config.obj
 0003:000167cc       ??_C@_0CA@KKPKMEKG@?5PJ_HAS_THREADS?5?5?5?5?5?5?5?5?5?5?5?5?3?5?$CFd@ 004a67cc     pjlib-i386-win32-vc8-debug-dynamic:config.obj
 0003:000167f4       ??_C@_0CA@MDECAGDJ@?5PJ_HAS_SEMAPHORE?5?5?5?5?5?5?5?5?5?5?3?5?$CFd@ 004a67f4     pjlib-i386-win32-vc8-debug-dynamic:config.obj
 0003:0001681c       ??_C@_0CA@PPJIFE@?5PJ_HAS_EVENT_OBJ?5?5?5?5?5?5?5?5?5?5?3?5?$CFd@ 004a681c     pjlib-i386-win32-vc8-debug-dynamic:config.obj
 0003:00016844       ??_C@_0CA@HDOPKKCK@?5PJ_ENABLE_EXTRA_CHECK?5?5?5?5?5?3?5?$CFd@ 004a6844     pjlib-i386-win32-vc8-debug-dynamic:config.obj
 0003:0001686c       ??_C@_0CA@KBIPPCDM@?5PJ_HAS_EXCEPTION_NAMES?5?5?5?5?3?5?$CFd@ 004a686c     pjlib-i386-win32-vc8-debug-dynamic:config.obj
 0003:00016894       ??_C@_0CA@PDHBELMF@?5PJ_MAX_EXCEPTION_ID?5?5?5?5?5?5?5?3?5?$CFd@ 004a6894     pjlib-i386-win32-vc8-debug-dynamic:config.obj
 0003:000168bc       ??_C@_0CA@JCLOPIAE@?5PJ_EXCEPTION_USE_WIN32_SEH?3?5?$CFd@ 004a68bc     pjlib-i386-win32-vc8-debug-dynamic:config.obj
 0003:000168e4       ??_C@_0CA@ELABDFDK@?5PJ_TIMESTAMP_USE_RDTSC?3?5?5?5?3?5?$CFd@ 004a68e4     pjlib-i386-win32-vc8-debug-dynamic:config.obj
 0003:0001690c       ??_C@_0CA@KNFEOAMF@?5PJ_OS_HAS_CHECK_STACK?5?5?5?5?5?3?5?$CFd@ 004a690c     pjlib-i386-win32-vc8-debug-dynamic:config.obj
 0003:00016934       ??_C@_0CA@HPFADEMC@?5PJ_HAS_HIGH_RES_TIMER?5?5?5?5?5?3?5?$CFd@ 004a6934     pjlib-i386-win32-vc8-debug-dynamic:config.obj
 0003:0001695c       ??_C@_0CA@KGPMHLO@?5PJ_HAS_IPV6?5?5?5?5?5?5?5?5?5?5?5?5?5?5?5?3?5?$CFd@ 004a695c     pjlib-i386-win32-vc8-debug-dynamic:config.obj
 0003:00016988       ??_C@_1FO@IGHHNBJO@?$AAd?$AA?3?$AA?2?$AAp?$AAj?$AAs?$AAi?$AAp?$AA?2?$AAp?$AAj?$AAp?$AAr?$AAo?$AAj@ 004a6988     pjlib-i386-win32-vc8-debug-dynamic:pool_buf.obj
 0003:000169f8       ??_C@_1CI@HJOGHDAN@?$AAs?$AAi?$AAz?$AAe?$AA?5?$AA?$DM?$AA?$DN?$AA?5?$AAp?$AAa?$AAr?$AAa?$AAm?$AA?9?$AA?$DO@ 004a69f8     pjlib-i386-win32-vc8-debug-dynamic:pool_buf.obj
 0003:00016a28       ??_C@_1BI@BGGDHCPA@?$AAb?$AAu?$AAf?$AA?5?$AA?$CG?$AA?$CG?$AA?5?$AAs?$AAi?$AAz?$AAe@ 004a6a28     pjlib-i386-win32-vc8-debug-dynamic:pool_buf.obj
 0003:00016a44       ??_C@_0DI@DHEDKGDI@d?3?2pjsip?2pjproject?92?48?2pjlib?2sr@ 004a6a44     pjlib-i386-win32-vc8-debug-dynamic:log_writer_stdout.obj
 0003:00016a88       ??_C@_02DKCKIIND@?$CFs@    004a6a88     pjlib-i386-win32-vc8-debug-dynamic:log_writer_stdout.obj
 0003:00016a8c       ??_C@_08PFPBFMIL@IpHlpApi@ 004a6a8c     pjlib-i386-win32-vc8-debug-dynamic:ip_helper_win32.obj
 0003:00016a98       ??_C@_0P@PMIJPFPM@GetIpAddrTable@ 004a6a98     pjlib-i386-win32-vc8-debug-dynamic:ip_helper_win32.obj
 0003:00016aac       ??_C@_0BF@LHFCIIHE@GetAdaptersAddresses@ 004a6aac     pjlib-i386-win32-vc8-debug-dynamic:ip_helper_win32.obj
 0003:00016ac8       ??_C@_0L@BLHMKEDC@GetIfEntry@ 004a6ac8     pjlib-i386-win32-vc8-debug-dynamic:ip_helper_win32.obj
 0003:00016ad8       ??_C@_0BC@MNHJPEOP@GetIpForwardTable@ 004a6ad8     pjlib-i386-win32-vc8-debug-dynamic:ip_helper_win32.obj
 0003:00016af0       ??_C@_1GM@CPLHLII@?$AAd?$AA?3?$AA?2?$AAp?$AAj?$AAs?$AAi?$AAp?$AA?2?$AAp?$AAj?$AAp?$AAr?$AAo?$AAj@ 004a6af0     pjlib-i386-win32-vc8-debug-dynamic:ip_helper_win32.obj
 0003:00016b74       ??_C@_1BK@HGDCMKGI@?$AAp?$AA_?$AAc?$AAn?$AAt?$AA?5?$AA?$CG?$AA?$CG?$AA?5?$AAi?$AAf?$AAs@ 004a6b74     pjlib-i386-win32-vc8-debug-dynamic:ip_helper_win32.obj
 0003:00016b94       ??_C@_1CA@PNMIBKCD@?$AAp?$AA_?$AAc?$AAn?$AAt?$AA?5?$AA?$CG?$AA?$CG?$AA?5?$AAr?$AAo?$AAu?$AAt?$AAe?$AAs@ 004a6b94     pjlib-i386-win32-vc8-debug-dynamic:ip_helper_win32.obj
 0003:00016bc0       ??_C@_1GO@MLKBIBD@?$AAd?$AA?3?$AA?2?$AAp?$AAj?$AAs?$AAi?$AAp?$AA?2?$AAp?$AAj?$AAp?$AAr?$AAo?$AAj@ 004a6bc0     pjlib-i386-win32-vc8-debug-dynamic:addr_resolv_sock.obj
 0003:00016c48       ??_C@_1EI@LHIOBFFM@?$AAh?$AAo?$AAs?$AAt?$AAn?$AAa?$AAm?$AAe?$AA?5?$AA?$CG?$AA?$CG?$AA?5?$AAh?$AAo?$AAs@ 004a6c48     pjlib-i386-win32-vc8-debug-dynamic:addr_resolv_sock.obj
 0003:00016ca0       ??_C@_1CA@LMDHKGAC@?$AAc?$AAo?$AAu?$AAn?$AAt?$AA?5?$AA?$CG?$AA?$CG?$AA?5?$AA?$CK?$AAc?$AAo?$AAu?$AAn?$AAt@ 004a6ca0     pjlib-i386-win32-vc8-debug-dynamic:addr_resolv_sock.obj
 0003:00016cc8       ??_C@_0CM@KDINLFNB@d?3?2pjsip?2pjproject?92?48?2pjlib?2sr@ 004a6cc8     pjlib-i386-win32-vc8-debug-dynamic:types.obj
 0003:00016cfc       ??_C@_0DC@NPGHJPKE@d?3?2pjsip?2pjproject?92?48?2pjlib?2sr@ 004a6cfc     pjlib-i386-win32-vc8-debug-dynamic:sock_select.obj
 0003:00016d58       ??_C@_0EJ@GHABDNKB@No?5playback?5frame?5available?5?$CIyo@ 004a6d58     libspeex-i386-win32-vc8-debug-dynamic:mdf.obj
 0003:00016db0       ??_C@_0M@FDFEAFGN@warning?3?5?$CFs@ 004a6db0     libspeex-i386-win32-vc8-debug-dynamic:mdf.obj
 0003:00016dc0       ??_C@_05JPFLDMPI@speex@    004a6dc0     libspeex-i386-win32-vc8-debug-dynamic:mdf.obj
 0003:00016dc8       ??_C@_0CF@JGKBANKE@internal?5playback?5buffer?5corrup@ 004a6dc8     libspeex-i386-win32-vc8-debug-dynamic:mdf.obj
 0003:00016df4       ??_C@_0BP@HJHBOHLA@discarded?5first?5playback?5frame@ 004a6df4     libspeex-i386-win32-vc8-debug-dynamic:mdf.obj
 0003:00016e20       ??_C@_0EF@JCPCCFEP@Auto?9filling?5the?5buffer?5?$CIyour?5a@ 004a6e20     libspeex-i386-win32-vc8-debug-dynamic:mdf.obj
 0003:00016e78       ??_C@_0EN@KMLFENGK@Had?5to?5discard?5a?5playback?5frame@ 004a6e78     libspeex-i386-win32-vc8-debug-dynamic:mdf.obj
 0003:00016ed8       ??_C@_0FP@LGAMLFHE@The?5echo?5canceller?5started?5acti@ 004a6ed8     libspeex-i386-win32-vc8-debug-dynamic:mdf.obj
 0003:00016f4c       ??_C@_0CB@DEGFPNC@Unknown?5speex_echo_ctl?5request?3@ 004a6f4c     libspeex-i386-win32-vc8-debug-dynamic:mdf.obj
 0003:00016f74       ??_C@_0BA@JHIGFAJK@warning?3?5?$CFs?3?5?$CFd@ 004a6f74     libspeex-i386-win32-vc8-debug-dynamic:mdf.obj
 0003:00016f88       __real@3cf5c28f            004a6f88     libspeex-i386-win32-vc8-debug-dynamic:mdf.obj
 0003:00016f8c       __real@3dcccccd            004a6f8c     libspeex-i386-win32-vc8-debug-dynamic:mdf.obj
 0003:00016f90       __real@3e19999a            004a6f90     libspeex-i386-win32-vc8-debug-dynamic:mdf.obj
 0003:00016f94       __real@3e800000            004a6f94     libspeex-i386-win32-vc8-debug-dynamic:mdf.obj
 0003:00016f98       __real@3ecccccd            004a6f98     libspeex-i386-win32-vc8-debug-dynamic:mdf.obj
 0003:00016f9c       __real@3f000000            004a6f9c     libspeex-i386-win32-vc8-debug-dynamic:mdf.obj
 0003:00016fa0       __real@3f19999a            004a6fa0     libspeex-i386-win32-vc8-debug-dynamic:mdf.obj
 0003:00016fa8       __real@3f1a36e2eb1c432d    004a6fa8     libspeex-i386-win32-vc8-debug-dynamic:mdf.obj
 0003:00016fb4       __real@3f333333            004a6fb4     libspeex-i386-win32-vc8-debug-dynamic:mdf.obj
 0003:00016fb8       __real@3f4ccccd            004a6fb8     libspeex-i386-win32-vc8-debug-dynamic:mdf.obj
 0003:00016fbc       __real@3f59999a            004a6fbc     libspeex-i386-win32-vc8-debug-dynamic:mdf.obj
 0003:00016fc0       __real@3f666666            004a6fc0     libspeex-i386-win32-vc8-debug-dynamic:mdf.obj
 0003:00016fc4       __real@3f7b645a            004a6fc4     libspeex-i386-win32-vc8-debug-dynamic:mdf.obj
 0003:00016fc8       __real@3f7d70a4            004a6fc8     libspeex-i386-win32-vc8-debug-dynamic:mdf.obj
 0003:00016fcc       __real@3f7df3b6            004a6fcc     libspeex-i386-win32-vc8-debug-dynamic:mdf.obj
 0003:00016fd0       __real@3fd0000000000000    004a6fd0     libspeex-i386-win32-vc8-debug-dynamic:mdf.obj
 0003:00016fe0       __real@3fd3333333333333    004a6fe0     libspeex-i386-win32-vc8-debug-dynamic:mdf.obj
 0003:00016ff0       __real@3fd6666666666666    004a6ff0     libspeex-i386-win32-vc8-debug-dynamic:mdf.obj
 0003:00017000       __real@3fe6666666666666    004a7000     libspeex-i386-win32-vc8-debug-dynamic:mdf.obj
 0003:00017010       __real@4008000000000000    004a7010     libspeex-i386-win32-vc8-debug-dynamic:mdf.obj
 0003:0001701c       __real@4019999a            004a701c     libspeex-i386-win32-vc8-debug-dynamic:mdf.obj
 0003:00017020       __real@42c80000            004a7020     libspeex-i386-win32-vc8-debug-dynamic:mdf.obj
 0003:00017024       __real@461c4000            004a7024     libspeex-i386-win32-vc8-debug-dynamic:mdf.obj
 0003:00017028       __real@467ffc00            004a7028     libspeex-i386-win32-vc8-debug-dynamic:mdf.obj
 0003:0001702c       __real@46fffe00            004a702c     libspeex-i386-win32-vc8-debug-dynamic:mdf.obj
 0003:00017030       __real@c7000000            004a7030     libspeex-i386-win32-vc8-debug-dynamic:mdf.obj
 0003:0001709c       ??_C@_0DP@GLHJBLIP@The?5VAD?5has?5been?5replaced?5by?5a?5@ 004a709c     libspeex-i386-win32-vc8-debug-dynamic:preprocess.obj
 0003:000170e8       ??_C@_0CH@BPNBAON@Unknown?5speex_preprocess_ctl?5re@ 004a70e8     libspeex-i386-win32-vc8-debug-dynamic:preprocess.obj
 0003:00017118       __real@26901d7d            004a7118     libspeex-i386-win32-vc8-debug-dynamic:preprocess.obj
 0003:0001711c       __real@38d1b717            004a711c     libspeex-i386-win32-vc8-debug-dynamic:preprocess.obj
 0003:00017120       __real@3a83126f            004a7120     libspeex-i386-win32-vc8-debug-dynamic:preprocess.obj
 0003:00017124       __real@3c23d70a            004a7124     libspeex-i386-win32-vc8-debug-dynamic:preprocess.obj
 0003:00017128       __real@3d4ccccd            004a7128     libspeex-i386-win32-vc8-debug-dynamic:preprocess.obj
 0003:0001712c       __real@3d99999a            004a712c     libspeex-i386-win32-vc8-debug-dynamic:preprocess.obj
 0003:00017130       __real@3debc947            004a7130     libspeex-i386-win32-vc8-debug-dynamic:preprocess.obj
 0003:00017134       __real@3e4bc6a8            004a7134     libspeex-i386-win32-vc8-debug-dynamic:preprocess.obj
 0003:00017138       __real@3e4ccccd            004a7138     libspeex-i386-win32-vc8-debug-dynamic:preprocess.obj
 0003:0001713c       __real@3e6bc8e2            004a713c     libspeex-i386-win32-vc8-debug-dynamic:preprocess.obj
 0003:00017140       __real@3e99999a            004a7140     libspeex-i386-win32-vc8-debug-dynamic:preprocess.obj
 0003:00017144       __real@3eaa7efa            004a7144     libspeex-i386-win32-vc8-debug-dynamic:preprocess.obj
 0003:00017148       __real@3eb33333            004a7148     libspeex-i386-win32-vc8-debug-dynamic:preprocess.obj
 0003:0001714c       __real@3f63d70a            004a714c     libspeex-i386-win32-vc8-debug-dynamic:preprocess.obj
 0003:00017150       __real@3f6624dd            004a7150     libspeex-i386-win32-vc8-debug-dynamic:preprocess.obj
 0003:00017154       __real@3f733333            004a7154     libspeex-i386-win32-vc8-debug-dynamic:preprocess.obj
 0003:00017158       __real@3f9eb851eb851eb8    004a7158     libspeex-i386-win32-vc8-debug-dynamic:preprocess.obj
 0003:00017164       __real@3fa2cdb8            004a7164     libspeex-i386-win32-vc8-debug-dynamic:preprocess.obj
 0003:00017168       __real@3fc096bb98c7e282    004a7168     libspeex-i386-win32-vc8-debug-dynamic:preprocess.obj
 0003:00017178       __real@3fc999999999999a    004a7178     libspeex-i386-win32-vc8-debug-dynamic:preprocess.obj
 0003:00017188       __real@3fe75c2900000000    004a7188     libspeex-i386-win32-vc8-debug-dynamic:preprocess.obj
 0003:00017198       __real@3ff61adea8000000    004a7198     libspeex-i386-win32-vc8-debug-dynamic:preprocess.obj
 0003:000171a8       __real@3ff921fb54442d18    004a71a8     libspeex-i386-win32-vc8-debug-dynamic:preprocess.obj
 0003:000171b8       __real@4014000000000000    004a71b8     libspeex-i386-win32-vc8-debug-dynamic:preprocess.obj
 0003:000171c8       __real@40215f212d773190    004a71c8     libspeex-i386-win32-vc8-debug-dynamic:preprocess.obj
 0003:000171d4       __real@40800000            004a71d4     libspeex-i386-win32-vc8-debug-dynamic:preprocess.obj
 0003:000171d8       __real@41f00000            004a71d8     libspeex-i386-win32-vc8-debug-dynamic:preprocess.obj
 0003:000171dc       __real@456d8000            004a71dc     libspeex-i386-win32-vc8-debug-dynamic:preprocess.obj
 0003:000171e0       __real@45fa0000            004a71e0     libspeex-i386-win32-vc8-debug-dynamic:preprocess.obj
 0003:000171e4       __real@467a0000            004a71e4     libspeex-i386-win32-vc8-debug-dynamic:preprocess.obj
 0003:000171e8       __real@46dac000            004a71e8     libspeex-i386-win32-vc8-debug-dynamic:preprocess.obj
 0003:000171ec       __real@47000000            004a71ec     libspeex-i386-win32-vc8-debug-dynamic:preprocess.obj
 0003:000171f0       __real@495bba00            004a71f0     libspeex-i386-win32-vc8-debug-dynamic:preprocess.obj
 0003:000171f4       __real@4e6e6b28            004a71f4     libspeex-i386-win32-vc8-debug-dynamic:preprocess.obj
 0003:000171f8       __real@bf000000            004a71f8     libspeex-i386-win32-vc8-debug-dynamic:preprocess.obj
 0003:00017200       __real@bfc99999a0000000    004a7200     libspeex-i386-win32-vc8-debug-dynamic:preprocess.obj
 0003:00017210       __real@c0126bb98c000000    004a7210     libspeex-i386-win32-vc8-debug-dynamic:preprocess.obj
 0003:0001721c       ??_C@_0CA@EIAGMGLH@FFT?5should?5not?5be?5done?5in?9place@ 004a721c     libspeex-i386-win32-vc8-debug-dynamic:fftwrap.obj
 0003:00017244       __real@329ee9ee            004a7244     libspeex-i386-win32-vc8-debug-dynamic:filterbank.obj
 0003:00017248       __real@3a41fc8f            004a7248     libspeex-i386-win32-vc8-debug-dynamic:filterbank.obj
 0003:0001724c       __real@3eaed289            004a724c     libspeex-i386-win32-vc8-debug-dynamic:filterbank.obj
 0003:00017250       __real@3f004dfd            004a7250     libspeex-i386-win32-vc8-debug-dynamic:filterbank.obj
 0003:00017258       __real@4001eb8520000000    004a7258     libspeex-i386-win32-vc8-debug-dynamic:filterbank.obj
 0003:00017268       __real@402a333340000000    004a7268     libspeex-i386-win32-vc8-debug-dynamic:filterbank.obj
 0003:00017274       ??_C@_04DKFOEDJA@srtp@     004a7274     libsrtp-i386-win32-vc8-debug-dynamic:srtp.obj
 0003:0001727c       ??_C@_0O@MPMBEIB@libsrtp?52?41?40@ 004a727c     libsrtp-i386-win32-vc8-debug-dynamic:srtp.obj
 0003:0001728c       ??_C@_08OANCNLAH@?$CFu?4?$CFu?4?$CFu@ 004a728c     libsrtp-i386-win32-vc8-debug-dynamic:srtp.obj
 0003:00017298       ??_C@_05NMHMKLEC@2?41?40@  004a7298     libsrtp-i386-win32-vc8-debug-dynamic:srtp.obj
 0003:000172a0       ??_C@_0CD@KFGKPJOG@?$CFs?3?5cloning?5stream?5?$CISSRC?3?50x?$CF08@ 004a72a0     libsrtp-i386-win32-vc8-debug-dynamic:srtp.obj
 0003:000172cc       ??_C@_0BG@DDGAJBGL@?$CFs?3?5srtp?5key?5len?3?5?$CFd?6@ 004a72cc     libsrtp-i386-win32-vc8-debug-dynamic:srtp.obj
 0003:000172e8       ??_C@_0BH@DGNFCKJN@?$CFs?3?5srtcp?5key?5len?3?5?$CFd?6@ 004a72e8     libsrtp-i386-win32-vc8-debug-dynamic:srtp.obj
 0003:00017304       ??_C@_0BG@DMEGGANK@?$CFs?3?5base?5key?5len?3?5?$CFd?6@ 004a7304     libsrtp-i386-win32-vc8-debug-dynamic:srtp.obj
 0003:00017320       ??_C@_0BF@HLIACONN@?$CFs?3?5kdf?5key?5len?3?5?$CFd?6@ 004a7320     libsrtp-i386-win32-vc8-debug-dynamic:srtp.obj
 0003:0001733c       ??_C@_0BG@BGKGMHMB@?$CFs?3?5rtp?5salt?5len?3?5?$CFd?6@ 004a733c     libsrtp-i386-win32-vc8-debug-dynamic:srtp.obj
 0003:00017358       ??_C@_0BE@PGOGLMMP@?$CFs?3?5cipher?5key?3?5?$CFs?6@ 004a7358     libsrtp-i386-win32-vc8-debug-dynamic:srtp.obj
 0003:00017370       ??_C@_0CN@BDCDAMHJ@?$CFs?3?5found?5rtp_salt_len?5?$DO?50?0?5gen@ 004a7370     libsrtp-i386-win32-vc8-debug-dynamic:srtp.obj
 0003:000173a8       ??_C@_0BF@GHNDNNEA@?$CFs?3?5cipher?5salt?3?5?$CFs?6@ 004a73a8     libsrtp-i386-win32-vc8-debug-dynamic:srtp.obj
 0003:000173c4       ??_C@_0BP@LJKEDGBP@?$CFs?3?5extensions?5cipher?5key?3?5?$CFs?6@ 004a73c4     libsrtp-i386-win32-vc8-debug-dynamic:srtp.obj
 0003:000173ec       ??_C@_0DF@NJKDAIDN@?$CFs?3?5found?5rtp_xtn_hdr_salt_len?5@ 004a73ec     libsrtp-i386-win32-vc8-debug-dynamic:srtp.obj
 0003:0001742c       ??_C@_0CA@OBEPENBO@?$CFs?3?5extensions?5cipher?5salt?3?5?$CFs?6@ 004a742c     libsrtp-i386-win32-vc8-debug-dynamic:srtp.obj
 0003:00017454       ??_C@_0BE@HGKFNAFC@?$CFs?3?5auth?5key?3?5?5?5?$CFs?6@ 004a7454     libsrtp-i386-win32-vc8-debug-dynamic:srtp.obj
 0003:0001746c       ??_C@_0BH@KOPGGCNO@?$CFs?3?5rtcp?5salt?5len?3?5?$CFd?6@ 004a746c     libsrtp-i386-win32-vc8-debug-dynamic:srtp.obj
 0003:00017488       ??_C@_0DD@DNDBGLG@?$CFs?3?5found?5rtcp_salt_len?5?$DO?50?0?5ge@ 004a7488     libsrtp-i386-win32-vc8-debug-dynamic:srtp.obj
 0003:000174c8       ??_C@_0BJ@KAKGCCMO@?$CFs?3?5rtcp?5cipher?5key?3?5?$CFs?6@ 004a74c8     libsrtp-i386-win32-vc8-debug-dynamic:srtp.obj
 0003:000174e8       ??_C@_0BK@BAICKNEI@?$CFs?3?5rtcp?5cipher?5salt?3?5?$CFs?6@ 004a74e8     libsrtp-i386-win32-vc8-debug-dynamic:srtp.obj
 0003:00017508       ??_C@_0BJ@CAOFEOFD@?$CFs?3?5rtcp?5auth?5key?3?5?5?5?$CFs?6@ 004a7508     libsrtp-i386-win32-vc8-debug-dynamic:srtp.obj
 0003:00017528       ??_C@_0CI@PDNDGOMA@?$CFs?3?5initializing?5stream?5?$CISSRC?3?5@ 004a7528     libsrtp-i386-win32-vc8-debug-dynamic:srtp.obj
 0003:00017558       ??_C@_0BH@GAKJJGLB@srtp?3?5in?5stream?50x?$CFx?3?5@ 004a7558     libsrtp-i386-win32-vc8-debug-dynamic:srtp.obj
 0003:00017574       ??_C@_0BB@PPFALDPP@?7SSRC?5collision?6@ 004a7574     libsrtp-i386-win32-vc8-debug-dynamic:srtp.obj
 0003:00017588       ??_C@_0BP@HOEKLBIN@?7key?5usage?5soft?5limit?5reached?6@ 004a7588     libsrtp-i386-win32-vc8-debug-dynamic:srtp.obj
 0003:000175b0       ??_C@_0BP@KNJIFCF@?7key?5usage?5hard?5limit?5reached?6@ 004a75b0     libsrtp-i386-win32-vc8-debug-dynamic:srtp.obj
 0003:000175d8       ??_C@_0BN@MKCGGAOP@?7packet?5index?5limit?5reached?6@ 004a75d8     libsrtp-i386-win32-vc8-debug-dynamic:srtp.obj
 0003:000175fc       ??_C@_0CE@FFJEPPID@?7unknown?5event?5reported?5to?5hand@ 004a75fc     libsrtp-i386-win32-vc8-debug-dynamic:srtp.obj
 0003:00017628       ??_C@_0BN@IJKEFIPG@?$CFs?3?5Pre?9salted?5RTP?5IV?5?$DN?5?$CFs?6?6@ 004a7628     libsrtp-i386-win32-vc8-debug-dynamic:srtp.obj
 0003:0001764c       ??_C@_0BE@MNMIOELF@?$CFs?3?5RTP?5SALT?5?$DN?5?$CFs?6?6@ 004a764c     libsrtp-i386-win32-vc8-debug-dynamic:srtp.obj
 0003:00017664       ??_C@_0CH@MOHBLIMO@?$CFs?3?5estimated?5u_packet?5index?3?5?$CF@ 004a7664     libsrtp-i386-win32-vc8-debug-dynamic:srtp.obj
 0003:00017694       ??_C@_0CA@OMJPHCHL@?$CFs?3?5function?5srtp_protect_aead?6@ 004a7694     libsrtp-i386-win32-vc8-debug-dynamic:srtp.obj
 0003:000176bc       ??_C@_0CF@PEPHCKJP@?$CFs?3?5estimated?5packet?5index?3?5?$CF01@ 004a76bc     libsrtp-i386-win32-vc8-debug-dynamic:srtp.obj
 0003:000176e8       ??_C@_0CC@KIGABHOG@?$CFs?3?5function?5srtp_unprotect_aea@ 004a76e8     libsrtp-i386-win32-vc8-debug-dynamic:srtp.obj
 0003:00017710       ??_C@_0BL@MADNODBC@?$CFs?3?5function?5srtp_protect?6@ 004a7710     libsrtp-i386-win32-vc8-debug-dynamic:srtp.obj
 0003:00017730       ??_C@_0BK@KLBGMJPP@?$CFs?3?5keystream?5prefix?3?5?$CFs?6@ 004a7730     libsrtp-i386-win32-vc8-debug-dynamic:srtp.obj
 0003:00017750       ??_C@_0BK@GCKOFNLP@?$CFs?3?5srtp?5auth?5tag?3?5?5?5?5?$CFs?6@ 004a7750     libsrtp-i386-win32-vc8-debug-dynamic:srtp.obj
 0003:00017770       ??_C@_0BN@LADOAJPP@?$CFs?3?5function?5srtp_unprotect?6@ 004a7770     libsrtp-i386-win32-vc8-debug-dynamic:srtp.obj
 0003:00017794       ??_C@_0CN@PJAKIEAG@?$CFs?3?5using?5provisional?5stream?5?$CIS@ 004a7794     libsrtp-i386-win32-vc8-debug-dynamic:srtp.obj
 0003:000177cc       ??_C@_0BO@BONEKIBH@?$CFs?3?5computed?5auth?5tag?3?5?5?5?5?$CFs?6@ 004a77cc     libsrtp-i386-win32-vc8-debug-dynamic:srtp.obj
 0003:000177f0       ??_C@_0BO@KMHOFFAA@?$CFs?3?5packet?5auth?5tag?3?5?5?5?5?5?5?$CFs?6@ 004a77f0     libsrtp-i386-win32-vc8-debug-dynamic:srtp.obj
 0003:00017814       ??_C@_0BO@ONKEAFKG@?$CFs?3?5Pre?9salted?5RTCP?5IV?5?$DN?5?$CFs?6?6@ 004a7814     libsrtp-i386-win32-vc8-debug-dynamic:srtp.obj
 0003:00017838       ??_C@_0BF@FLPIMBMP@?$CFs?3?5RTCP?5SALT?5?$DN?5?$CFs?6?6@ 004a7838     libsrtp-i386-win32-vc8-debug-dynamic:srtp.obj
 0003:00017854       ??_C@_0BF@JBCKCIAJ@?$CFs?3?5srtcp?5index?3?5?$CFx?6@ 004a7854     libsrtp-i386-win32-vc8-debug-dynamic:srtp.obj
 0003:00017870       ??_C@_0BL@OBHAKLEH@?$CFs?3?5srtcp?5auth?5tag?3?5?5?5?5?$CFs?6@ 004a7870     libsrtp-i386-win32-vc8-debug-dynamic:srtp.obj
 0003:00017890       ??_C@_0DD@HHOLLDKC@?$CFs?3?5srtcp?5using?5provisional?5str@ 004a7890     libsrtp-i386-win32-vc8-debug-dynamic:srtp.obj
 0003:000178d0       ??_C@_0CC@IMKDPKDI@?$CFs?3?5srtcp?5computed?5tag?3?5?5?5?5?5?5?5?$CF@ 004a78d0     libsrtp-i386-win32-vc8-debug-dynamic:srtp.obj
 0003:000178f8       ??_C@_0CC@GFCANNPL@?$CFs?3?5srtcp?5tag?5from?5packet?3?5?5?5?5?$CF@ 004a78f8     libsrtp-i386-win32-vc8-debug-dynamic:srtp.obj
 0003:00017920       ??_C@_05KNPMOECN@alloc@    004a7920     libsrtp-i386-win32-vc8-debug-dynamic:alloc.obj
 0003:00017928       ??_C@_0BO@KJOGHNGM@?$CFs?3?5?$CIlocation?3?5?$CFp?$CJ?5allocated?6@ 004a7928     libsrtp-i386-win32-vc8-debug-dynamic:alloc.obj
 0003:0001794c       ??_C@_0CN@JJLNACEJ@?$CFs?3?5allocation?5failed?5?$CIasked?5fo@ 004a794c     libsrtp-i386-win32-vc8-debug-dynamic:alloc.obj
 0003:00017984       ??_C@_0BK@BNKOPMHD@?$CFs?3?5?$CIlocation?3?5?$CFp?$CJ?5freed?6@ 004a7984     libsrtp-i386-win32-vc8-debug-dynamic:alloc.obj
 0003:000179a4       ??_C@_07EFAIHJHH@libsrtp@  004a79a4     libsrtp-i386-win32-vc8-debug-dynamic:srtp_err.obj
 0003:000179b0       ??_C@_06KDGDAFPH@cipher@   004a79b0     libsrtp-i386-win32-vc8-debug-dynamic:cipher.obj
 0003:000179b8       ??_C@_0CF@FLDNHEPF@?$CFs?3?5running?5self?9test?5for?5ciphe@ 004a79b8     libsrtp-i386-win32-vc8-debug-dynamic:cipher.obj
 0003:000179e4       ??_C@_0BI@DMHBCEPE@?$CFs?3?5testing?5encryption?6@ 004a79e4     libsrtp-i386-win32-vc8-debug-dynamic:cipher.obj
 0003:00017a00       ??_C@_0BG@IGPMAAHP@?$CFs?3?5plaintext?3?5?5?5?5?$CFs?6@ 004a7a00     libsrtp-i386-win32-vc8-debug-dynamic:cipher.obj
 0003:00017a1c       ??_C@_0P@EJHFDBDM@?$CFs?3?5IV?3?5?5?5?5?$CFs?6@ 004a7a1c     libsrtp-i386-win32-vc8-debug-dynamic:cipher.obj
 0003:00017a30       ??_C@_0BA@PIMALHJP@?$CFs?3?5AAD?3?5?5?5?5?$CFs?6@ 004a7a30     libsrtp-i386-win32-vc8-debug-dynamic:cipher.obj
 0003:00017a44       ??_C@_0BG@LLNGMAPJ@?$CFs?3?5ciphertext?3?5?5?5?$CFs?6@ 004a7a44     libsrtp-i386-win32-vc8-debug-dynamic:cipher.obj
 0003:00017a60       ??_C@_0BJ@ECBNBHJB@?$CFs?3?5test?5case?5?$CFd?5failed?6@ 004a7a60     libsrtp-i386-win32-vc8-debug-dynamic:cipher.obj
 0003:00017a80       ??_C@_0BK@FFAGFACF@?$CFs?3?5?$CIfailure?5at?5byte?5?$CFd?$CJ?6@ 004a7a80     libsrtp-i386-win32-vc8-debug-dynamic:cipher.obj
 0003:00017aa0       ??_C@_0BE@FJOCDNKP@?$CFs?3?5c?5computed?3?5?$CFs?6@ 004a7aa0     libsrtp-i386-win32-vc8-debug-dynamic:cipher.obj
 0003:00017ab8       ??_C@_0BE@PPCKDKP@?$CFs?3?5c?5expected?3?5?$CFs?6@ 004a7ab8     libsrtp-i386-win32-vc8-debug-dynamic:cipher.obj
 0003:00017ad0       ??_C@_0BI@IEPFOPNP@?$CFs?3?5testing?5decryption?6@ 004a7ad0     libsrtp-i386-win32-vc8-debug-dynamic:cipher.obj
 0003:00017aec       ??_C@_0BH@EDJDPICD@?$CFs?3?5ciphertext?3?5?5?5?5?$CFs?6@ 004a7aec     libsrtp-i386-win32-vc8-debug-dynamic:cipher.obj
 0003:00017b08       ??_C@_0BF@GOBFCCEB@?$CFs?3?5plaintext?3?5?5?5?$CFs?6@ 004a7b08     libsrtp-i386-win32-vc8-debug-dynamic:cipher.obj
 0003:00017b24       ??_C@_0BE@JGANLHMD@?$CFs?3?5p?5computed?3?5?$CFs?6@ 004a7b24     libsrtp-i386-win32-vc8-debug-dynamic:cipher.obj
 0003:00017b3c       ??_C@_0BE@MABNCJMD@?$CFs?3?5p?5expected?3?5?$CFs?6@ 004a7b3c     libsrtp-i386-win32-vc8-debug-dynamic:cipher.obj
 0003:00017b54       ??_C@_0CB@OOAIJLO@?$CFs?3?5random?5plaintext?5length?5?$CFd?6@ 004a7b54     libsrtp-i386-win32-vc8-debug-dynamic:cipher.obj
 0003:00017b7c       ??_C@_0BG@NMIIDDNI@?$CFs?3?5plaintext?$FL2?$FN?3?5?$CFs?6@ 004a7b7c     libsrtp-i386-win32-vc8-debug-dynamic:cipher.obj
 0003:00017b98       ??_C@_0CA@EAJGEBOP@?$CFs?3?5random?5test?5case?5?$CFd?5failed?6@ 004a7b98     libsrtp-i386-win32-vc8-debug-dynamic:cipher.obj
 0003:00017bc0       ??_C@_09EJIBOKIO@auth?5func@ 004a7bc0     libsrtp-i386-win32-vc8-debug-dynamic:auth.obj
 0003:00017bcc       ??_C@_0CM@DFOPKAOA@?$CFs?3?5running?5self?9test?5for?5auth?5@ 004a7bcc     libsrtp-i386-win32-vc8-debug-dynamic:auth.obj
 0003:00017c00       ??_C@_0N@OIMPEMMJ@?$CFs?3?5key?3?5?$CFs?6@ 004a7c00     libsrtp-i386-win32-vc8-debug-dynamic:auth.obj
 0003:00017c10       ??_C@_0O@NBGEFCOD@?$CFs?3?5data?3?5?$CFs?6@ 004a7c10     libsrtp-i386-win32-vc8-debug-dynamic:auth.obj
 0003:00017c20       ??_C@_0BG@KCOPIALB@?$CFs?3?5tag?5computed?3?5?$CFs?6@ 004a7c20     libsrtp-i386-win32-vc8-debug-dynamic:auth.obj
 0003:00017c3c       ??_C@_0BG@PEPPBOLB@?$CFs?3?5tag?5expected?3?5?$CFs?6@ 004a7c3c     libsrtp-i386-win32-vc8-debug-dynamic:auth.obj
 0003:00017c58       ??_C@_0BO@CKPEGHKK@?$CFs?3?5?5?5?$CImismatch?5at?5octet?5?$CFd?$CJ?6@ 004a7c58     libsrtp-i386-win32-vc8-debug-dynamic:auth.obj
 0003:00017c7c       ??_C@_0O@MIKIJNFL@crypto?5kernel@ 004a7c7c     libsrtp-i386-win32-vc8-debug-dynamic:crypto_kernel.obj
 0003:00017c8c       ??_C@_0M@FNOFIMGM@cipher?3?5?$CFs?6@ 004a7c8c     libsrtp-i386-win32-vc8-debug-dynamic:crypto_kernel.obj
 0003:00017c9c       ??_C@_0O@CJBDENN@?5?5self?9test?3?5@ 004a7c9c     libsrtp-i386-win32-vc8-debug-dynamic:crypto_kernel.obj
 0003:00017cac       ??_C@_0BL@HPMBNDJK@failed?5with?5error?5code?5?$CFd?6@ 004a7cac     libsrtp-i386-win32-vc8-debug-dynamic:crypto_kernel.obj
 0003:00017ccc       ??_C@_07JBEBJPGA@passed?6@ 004a7ccc     libsrtp-i386-win32-vc8-debug-dynamic:crypto_kernel.obj
 0003:00017cd8       ??_C@_0P@CJMMEABE@auth?5func?3?5?$CFs?6@ 004a7cd8     libsrtp-i386-win32-vc8-debug-dynamic:crypto_kernel.obj
 0003:00017cec       ??_C@_0BH@NLMDBEPJ@debug?5modules?5loaded?3?6@ 004a7cec     libsrtp-i386-win32-vc8-debug-dynamic:crypto_kernel.obj
 0003:00017d08       ??_C@_05NMIPNJMJ@?5?5?$CFs?5@ 004a7d08     libsrtp-i386-win32-vc8-debug-dynamic:crypto_kernel.obj
 0003:00017d10       ??_C@_05KICKCMEO@?$CIon?$CJ?6@ 004a7d10     libsrtp-i386-win32-vc8-debug-dynamic:crypto_kernel.obj
 0003:00017d18       ??_C@_06KCCPFFCC@?$CIoff?$CJ?6@ 004a7d18     libsrtp-i386-win32-vc8-debug-dynamic:crypto_kernel.obj
 0003:00017d20       ??_C@_0CC@DLGHEHKN@?$CFs?3?5freeing?5memory?5for?5cipher?5?$CF@ 004a7d20     libsrtp-i386-win32-vc8-debug-dynamic:crypto_kernel.obj
 0003:00017d48       ??_C@_0CK@KGHAAPIM@?$CFs?3?5freeing?5memory?5for?5authenti@ 004a7d48     libsrtp-i386-win32-vc8-debug-dynamic:crypto_kernel.obj
 0003:00017d7c       ??_C@_0CI@MFBGGOG@?$CFs?3?5freeing?5memory?5for?5debug?5mo@ 004a7d7c     libsrtp-i386-win32-vc8-debug-dynamic:crypto_kernel.obj
 0003:00017dac       ??_C@_0BE@ICAFLID@?$CFs?3?5EKT?5not?5in?5use?6@ 004a7dac     libsrtp-i386-win32-vc8-debug-dynamic:ekt.obj
 0003:00017dc4       ??_C@_0BK@CMOOGLJH@?$CFs?3?5writing?5EKT?5EMK?3?5?$CFs?0?6@ 004a7dc4     libsrtp-i386-win32-vc8-debug-dynamic:ekt.obj
 0003:00017de4       ??_C@_0BK@BEIPMCDF@?$CFs?3?5writing?5EKT?5ROC?3?5?$CFs?0?6@ 004a7de4     libsrtp-i386-win32-vc8-debug-dynamic:ekt.obj
 0003:00017e04       ??_C@_0BK@BKDABMJO@?$CFs?3?5writing?5EKT?5ISN?3?5?$CFs?0?6@ 004a7e04     libsrtp-i386-win32-vc8-debug-dynamic:ekt.obj
 0003:00017e24       ??_C@_0BK@BJPEDIGD@?$CFs?3?5writing?5EKT?5SPI?3?5?$CFs?0?6@ 004a7e24     libsrtp-i386-win32-vc8-debug-dynamic:ekt.obj
 0003:00017e44       ??_C@_09LCMAEBCF@stat?5test@ 004a7e44     libsrtp-i386-win32-vc8-debug-dynamic:stat.obj
 0003:00017e50       ??_C@_0BD@GAOMHCBM@?$CFs?3?5bit?5count?3?5?$CFd?6@ 004a7e50     libsrtp-i386-win32-vc8-debug-dynamic:stat.obj
 0003:00017e68       ??_C@_0BF@CHHGEAGD@?$CFs?3?5poker?5test?3?5?$CFf?6?6@ 004a7e68     libsrtp-i386-win32-vc8-debug-dynamic:stat.obj
 0003:00017e84       ??_C@_0BC@IAPCEOOF@?$CFs?3?5?$DO25?5runs?3?5?$CFd?6@ 004a7e84     libsrtp-i386-win32-vc8-debug-dynamic:stat.obj
 0003:00017e9c       ??_C@_0BC@NJGIDECN@?$CFs?3?5?$DO25?5gaps?3?5?$CFd?6@ 004a7e9c     libsrtp-i386-win32-vc8-debug-dynamic:stat.obj
 0003:00017eb4       ??_C@_0BG@GPAHHCLO@?$CFs?3?5?$DO25?5runs?5?$CI2?$CJ?3?5?$CFd?6@ 004a7eb4     libsrtp-i386-win32-vc8-debug-dynamic:stat.obj
 0003:00017ed0       ??_C@_0BG@BMIBNCBB@?$CFs?3?5?$DO25?5gaps?5?$CI2?$CJ?3?5?$CFd?6@ 004a7ed0     libsrtp-i386-win32-vc8-debug-dynamic:stat.obj
 0003:00017eec       ??_C@_0P@POGGHKML@?$CFs?3?5runs?5test?6@ 004a7eec     libsrtp-i386-win32-vc8-debug-dynamic:stat.obj
 0003:00017f00       ??_C@_0BC@KILFBMLF@?$CFs?3?5?5?5runs?$FL?$FN?3?5?$CFd?6@ 004a7f00     libsrtp-i386-win32-vc8-debug-dynamic:stat.obj
 0003:00017f18       ??_C@_0BC@BLEGIAEL@?$CFs?3?5?5?5gaps?$FL?$FN?3?5?$CFd?6@ 004a7f18     libsrtp-i386-win32-vc8-debug-dynamic:stat.obj
 0003:00017f30       __real@3f6a36e2eb1c432d    004a7f30     libsrtp-i386-win32-vc8-debug-dynamic:stat.obj
 0003:00017f40       __real@400147ae147ae148    004a7f40     libsrtp-i386-win32-vc8-debug-dynamic:stat.obj
 0003:00017f50       __real@404715c28f5c28f6    004a7f50     libsrtp-i386-win32-vc8-debug-dynamic:stat.obj
 0003:00017f60       __real@40b3880000000000    004a7f60     libsrtp-i386-win32-vc8-debug-dynamic:stat.obj
 0003:00017fa4       _srtp_null_cipher          004a7fa4     libsrtp-i386-win32-vc8-debug-dynamic:null_cipher.obj
 0003:00017fe4       ??_C@_0CK@DAFEFAPH@?$CFs?3?5allocating?5cipher?5with?5key?5@ 004a7fe4     libsrtp-i386-win32-vc8-debug-dynamic:null_cipher.obj
 0003:00018018       ??_C@_0BO@HCJFKKEE@?$CFs?3?5initializing?5null?5cipher?6@ 004a8018     libsrtp-i386-win32-vc8-debug-dynamic:null_cipher.obj
 0003:0001803c       ??_C@_07MPIJGLIA@aes?5icm@ 004a803c     libsrtp-i386-win32-vc8-debug-dynamic:aes_icm.obj
 0003:00018048       _srtp_aes_icm_128          004a8048     libsrtp-i386-win32-vc8-debug-dynamic:aes_icm.obj
 0003:00018074       _srtp_aes_icm_256          004a8074     libsrtp-i386-win32-vc8-debug-dynamic:aes_icm.obj
 0003:00018264       ??_C@_0O@GFBJNBAD@?$CFs?3?5key?3?5?5?$CFs?6@ 004a8264     libsrtp-i386-win32-vc8-debug-dynamic:aes_icm.obj
 0003:00018274       ??_C@_0BA@ILFEGDEM@?$CFs?3?5offset?3?5?$CFs?6@ 004a8274     libsrtp-i386-win32-vc8-debug-dynamic:aes_icm.obj
 0003:00018288       ??_C@_0BE@ECIFEEKH@?$CFs?3?5setting?5iv?3?5?$CFs?6@ 004a8288     libsrtp-i386-win32-vc8-debug-dynamic:aes_icm.obj
 0003:000182a0       ??_C@_0BF@OAOEHNDM@?$CFs?3?5set_counter?3?5?$CFs?6@ 004a82a0     libsrtp-i386-win32-vc8-debug-dynamic:aes_icm.obj
 0003:000182bc       ??_C@_0BE@ENJPOLAG@?$CFs?3?5counter?3?5?5?5?5?$CFs?6@ 004a82bc     libsrtp-i386-win32-vc8-debug-dynamic:aes_icm.obj
 0003:000182d4       ??_C@_0BE@ILCAEFF@?$CFs?3?5ciphertext?3?5?$CFs?6@ 004a82d4     libsrtp-i386-win32-vc8-debug-dynamic:aes_icm.obj
 0003:000182ec       ??_C@_0BF@BLBMMINO@?$CFs?3?5block?5index?3?5?$CFd?6@ 004a82ec     libsrtp-i386-win32-vc8-debug-dynamic:aes_icm.obj
 0003:00018344       _srtp_null_auth            004a8344     libsrtp-i386-win32-vc8-debug-dynamic:null_auth.obj
 0003:0001837c       ??_C@_0CN@KBEHBKDH@?$CFs?3?5allocating?5auth?5func?5with?5k@ 004a837c     libsrtp-i386-win32-vc8-debug-dynamic:null_auth.obj
 0003:000183b4       ??_C@_0CN@FDNDBNFI@?$CFs?3?5?5?5?5?5?5?5?5?5?5?5?5?5?5?5?5?5?5?5?5?5?5?5?5?5?5?5t@ 004a83b4     libsrtp-i386-win32-vc8-debug-dynamic:null_auth.obj
 0003:000183ec       ??_C@_0L@NBBBLMAJ@hmac?5sha?91@ 004a83ec     libsrtp-i386-win32-vc8-debug-dynamic:hmac.obj
 0003:0001846c       _srtp_hmac                 004a846c     libsrtp-i386-win32-vc8-debug-dynamic:hmac.obj
 0003:000184b0       ??_C@_0O@PJECJPIJ@?$CFs?3?5ipad?3?5?$CFs?6@ 004a84b0     libsrtp-i386-win32-vc8-debug-dynamic:hmac.obj
 0003:000184c0       ??_C@_0P@JHGAOEEF@?$CFs?3?5input?3?5?$CFs?6@ 004a84c0     libsrtp-i386-win32-vc8-debug-dynamic:hmac.obj
 0003:000184d4       ??_C@_0BM@JABNBLDM@?$CFs?3?5intermediate?5state?3?5?$CFs?6@ 004a84d4     libsrtp-i386-win32-vc8-debug-dynamic:hmac.obj
 0003:000184f8       ??_C@_0BA@NKCNJNLN@?$CFs?3?5output?3?5?$CFs?6@ 004a84f8     libsrtp-i386-win32-vc8-debug-dynamic:hmac.obj
 0003:0001addc       ??_C@_05BPJLFPNI@sha?91@   004aaddc     libsrtp-i386-win32-vc8-debug-dynamic:sha1.obj
 0003:0001ade4       ??_C@_0CH@CIFCCFOE@?$CFs?3?5?$CIupdate?$CJ?5running?5srtp_sha1_@ 004aade4     libsrtp-i386-win32-vc8-debug-dynamic:sha1.obj
 0003:0001ae14       ??_C@_0CL@FECLBICF@?$CFs?3?5?$CIupdate?$CJ?5not?5running?5srtp_s@ 004aae14     libsrtp-i386-win32-vc8-debug-dynamic:sha1.obj
 0003:0001ae48       ??_C@_0CG@BBEKCMGE@?$CFs?3?5?$CIfinal?$CJ?5running?5srtp_sha1_c@ 004aae48     libsrtp-i386-win32-vc8-debug-dynamic:sha1.obj
 0003:0001ae78       ??_C@_0CM@HEEFBAKO@?$CFs?3?5?$CIfinal?$CJ?5running?5srtp_sha1_c@ 004aae78     libsrtp-i386-win32-vc8-debug-dynamic:sha1.obj
 0003:0001af98       __load_config_used         004aaf98     MSVCRTD:loadcfg.obj
 0003:0001b68c       ___rtc_iaa                 004ab68c     MSVCRTD:initsect.obj
 0003:0001b790       ___rtc_izz                 004ab790     MSVCRTD:initsect.obj
 0003:0001b894       ___rtc_taa                 004ab894     MSVCRTD:initsect.obj
 0003:0001b998       ___rtc_tzz                 004ab998     MSVCRTD:initsect.obj
 0004:00000e18       ?__LINE__Var@?0??pjmedia_aud_subsys_init@@9@9 004ace18     pjmedia-audiodev-i386-win32-vc8-debug-dynamic:audiodev.obj
 0004:00000e5c       ?__LINE__Var@?0??factory_get_dev_info@@9@9 004ace5c     pjmedia-audiodev-i386-win32-vc8-debug-dynamic:wmme_dev.obj
 0004:00000e60       ?__LINE__Var@?0??factory_default_param@@9@9 004ace60     pjmedia-audiodev-i386-win32-vc8-debug-dynamic:wmme_dev.obj
 0004:00000e64       ?__LINE__Var@?0??init_player_stream@@9@9 004ace64     pjmedia-audiodev-i386-win32-vc8-debug-dynamic:wmme_dev.obj
 0004:00000e68       ?__LINE__Var@?0??init_capture_stream@@9@9 004ace68     pjmedia-audiodev-i386-win32-vc8-debug-dynamic:wmme_dev.obj
 0004:00000e6c       ?__LINE__Var@?0??wmme_dev_thread@@9@9 004ace6c     pjmedia-audiodev-i386-win32-vc8-debug-dynamic:wmme_dev.obj
 0004:00000e70       ?__LINE__Var@?0??factory_create_stream@@9@9 004ace70     pjmedia-audiodev-i386-win32-vc8-debug-dynamic:wmme_dev.obj
 0004:00000e74       ?__LINE__Var@?0??stream_get_param@@9@9 004ace74     pjmedia-audiodev-i386-win32-vc8-debug-dynamic:wmme_dev.obj
 0004:00000e78       ?__LINE__Var@?0??stream_get_cap@@9@9 004ace78     pjmedia-audiodev-i386-win32-vc8-debug-dynamic:wmme_dev.obj
 0004:00000e7c       ?__LINE__Var@?0??stream_set_cap@@9@9 004ace7c     pjmedia-audiodev-i386-win32-vc8-debug-dynamic:wmme_dev.obj
 0004:00000e80       ?__LINE__Var@?0??stream_stop@@9@9 004ace80     pjmedia-audiodev-i386-win32-vc8-debug-dynamic:wmme_dev.obj
 0004:00000e84       ?__LINE__Var@?0??stream_destroy@@9@9 004ace84     pjmedia-audiodev-i386-win32-vc8-debug-dynamic:wmme_dev.obj
 0004:00000e88       ?__LINE__Var@?0??pjmedia_port_get_frame@@9@9 004ace88     pjmedia-i386-win32-vc8-debug-dynamic:port.obj
 0004:00000e8c       ?__LINE__Var@?0??pjmedia_port_put_frame@@9@9 004ace8c     pjmedia-i386-win32-vc8-debug-dynamic:port.obj
 0004:00000e90       ?__LINE__Var@?0??pjmedia_port_destroy@@9@9 004ace90     pjmedia-i386-win32-vc8-debug-dynamic:port.obj
 0004:00000e94       _pjmedia_add_rtpmap_for_static_pt 004ace94     pjmedia-i386-win32-vc8-debug-dynamic:endpoint.obj
 0004:00000e98       _pjmedia_add_bandwidth_tias_in_sdp 004ace98     pjmedia-i386-win32-vc8-debug-dynamic:endpoint.obj
 0004:00000ea0       ?__LINE__Var@?0??pjmedia_endpt_create2@@9@9 004acea0     pjmedia-i386-win32-vc8-debug-dynamic:endpoint.obj
 0004:00000ea4       ?__LINE__Var@?0??pjmedia_endpt_set_flag@@9@9 004acea4     pjmedia-i386-win32-vc8-debug-dynamic:endpoint.obj
 0004:00000ea8       ?__LINE__Var@?0??pjmedia_endpt_get_flag@@9@9 004acea8     pjmedia-i386-win32-vc8-debug-dynamic:endpoint.obj
 0004:00000eac       ?__LINE__Var@?0??pjmedia_endpt_get_ioqueue@@9@9 004aceac     pjmedia-i386-win32-vc8-debug-dynamic:endpoint.obj
 0004:00000eb0       ?__LINE__Var@?0??pjmedia_endpt_get_thread_count@@9@9 004aceb0     pjmedia-i386-win32-vc8-debug-dynamic:endpoint.obj
 0004:00000eb4       ?__LINE__Var@?0??pjmedia_endpt_get_thread@@9@9 004aceb4     pjmedia-i386-win32-vc8-debug-dynamic:endpoint.obj
 0004:00000eb8       ?__LINE__Var@?0??pjmedia_endpt_stop_threads@@9@9 004aceb8     pjmedia-i386-win32-vc8-debug-dynamic:endpoint.obj
 0004:00000ebc       ?__LINE__Var@?0??pjmedia_endpt_create_pool@@9@9 004acebc     pjmedia-i386-win32-vc8-debug-dynamic:endpoint.obj
 0004:00000ec0       ?__LINE__Var@?0??init_sdp_media@@9@9 004acec0     pjmedia-i386-win32-vc8-debug-dynamic:endpoint.obj
 0004:00000ec4       ?__LINE__Var@?0??pjmedia_endpt_create_audio_sdp@@9@9 004acec4     pjmedia-i386-win32-vc8-debug-dynamic:endpoint.obj
 0004:00000ec8       ?__LINE__Var@?0??pjmedia_endpt_create_base_sdp@@9@9 004acec8     pjmedia-i386-win32-vc8-debug-dynamic:endpoint.obj
 0004:00000ecc       ?__LINE__Var@?0??pjmedia_endpt_create_sdp@@9@9 004acecc     pjmedia-i386-win32-vc8-debug-dynamic:endpoint.obj
 0004:00000ed0       ?__LINE__Var@?0??pjmedia_endpt_atexit@@9@9 004aced0     pjmedia-i386-win32-vc8-debug-dynamic:endpoint.obj
 0004:00000ed4       ?__LINE__Var@?0??play_cb@@9@9 004aced4     pjmedia-i386-win32-vc8-debug-dynamic:sound_port.obj
 0004:00000ed8       ?__LINE__Var@?0??start_sound_device@@9@9 004aced8     pjmedia-i386-win32-vc8-debug-dynamic:sound_port.obj
 0004:00000edc       ?__LINE__Var@?0??pjmedia_snd_port_create2@@9@9 004acedc     pjmedia-i386-win32-vc8-debug-dynamic:sound_port.obj
 0004:00000ee0       ?__LINE__Var@?0??pjmedia_snd_port_destroy@@9@9 004acee0     pjmedia-i386-win32-vc8-debug-dynamic:sound_port.obj
 0004:00000ee4       ?__LINE__Var@?0??pjmedia_snd_port_get_snd_stream@@9@9 004acee4     pjmedia-i386-win32-vc8-debug-dynamic:sound_port.obj
 0004:00000ee8       ?__LINE__Var@?0??pjmedia_snd_port_set_ec@@9@9 004acee8     pjmedia-i386-win32-vc8-debug-dynamic:sound_port.obj
 0004:00000eec       ?__LINE__Var@?0??pjmedia_snd_port_get_ec_tail@@9@9 004aceec     pjmedia-i386-win32-vc8-debug-dynamic:sound_port.obj
 0004:00000ef0       ?__LINE__Var@?0??pjmedia_snd_port_connect@@9@9 004acef0     pjmedia-i386-win32-vc8-debug-dynamic:sound_port.obj
 0004:00000ef4       ?__LINE__Var@?0??pjmedia_snd_port_get_port@@9@9 004acef4     pjmedia-i386-win32-vc8-debug-dynamic:sound_port.obj
 0004:00000ef8       ?__LINE__Var@?0??pjmedia_snd_port_disconnect@@9@9 004acef8     pjmedia-i386-win32-vc8-debug-dynamic:sound_port.obj
 0004:00000efc       ?__LINE__Var@?0??PJMEDIA_PIA_SRATE@@9@9 004acefc     pjmedia-i386-win32-vc8-debug-dynamic:stereo_port.obj
 0004:00000f00       ?__LINE__Var@?0??PJMEDIA_PIA_CCNT@@9@9 004acf00     pjmedia-i386-win32-vc8-debug-dynamic:stereo_port.obj
 0004:00000f04       ?__LINE__Var@?0??PJMEDIA_PIA_BITS@@9@9 004acf04     pjmedia-i386-win32-vc8-debug-dynamic:stereo_port.obj
 0004:00000f08       ?__LINE__Var@?0??PJMEDIA_PIA_SPF@@9@9 004acf08     pjmedia-i386-win32-vc8-debug-dynamic:stereo_port.obj
 0004:00000f0c       ?__LINE__Var@?0??PJMEDIA_PIA_AVG_FSZ@@9@9 004acf0c     pjmedia-i386-win32-vc8-debug-dynamic:stereo_port.obj
 0004:00000f10       ?__LINE__Var@?0??pjmedia_convert_channel_nto1@@9@9 004acf10     pjmedia-i386-win32-vc8-debug-dynamic:stereo_port.obj
 0004:00000f14       ?__LINE__Var@?0??pjmedia_convert_channel_1ton@@9@9 004acf14     pjmedia-i386-win32-vc8-debug-dynamic:stereo_port.obj
 0004:00000f18       ?__LINE__Var@?0??pjmedia_stereo_port_create@@9@9 004acf18     pjmedia-i386-win32-vc8-debug-dynamic:stereo_port.obj
 0004:00000f1c       ?__LINE__Var@?0??pjmedia_wav_player_port_create@@9@9 004acf1c     pjmedia-i386-win32-vc8-debug-dynamic:wav_player.obj
 0004:00000f20       ?__LINE__Var@?0??pjmedia_wav_player_get_info@@9@9 004acf20     pjmedia-i386-win32-vc8-debug-dynamic:wav_player.obj
 0004:00000f24       ?__LINE__Var@?0??pjmedia_wav_player_get_len@@9@9 004acf24     pjmedia-i386-win32-vc8-debug-dynamic:wav_player.obj
 0004:00000f28       ?__LINE__Var@?0??pjmedia_wav_player_port_set_pos@@9@9 004acf28     pjmedia-i386-win32-vc8-debug-dynamic:wav_player.obj
 0004:00000f2c       ?__LINE__Var@?0??pjmedia_wav_player_port_get_pos@@9@9 004acf2c     pjmedia-i386-win32-vc8-debug-dynamic:wav_player.obj
 0004:00000f30       ?__LINE__Var@?0??pjmedia_wav_player_set_eof_cb@@9@9 004acf30     pjmedia-i386-win32-vc8-debug-dynamic:wav_player.obj
 0004:00000f34       ?__LINE__Var@?0??file_get_frame@@9@9 004acf34     pjmedia-i386-win32-vc8-debug-dynamic:wav_player.obj
 0004:00000f38       ?__LINE__Var@?0??file_on_destroy@@9@9 004acf38     pjmedia-i386-win32-vc8-debug-dynamic:wav_player.obj
 0004:00000f3c       ?__LINE__Var@?0??pjmedia_wav_writer_port_create@@9@9 004acf3c     pjmedia-i386-win32-vc8-debug-dynamic:wav_writer.obj
 0004:00000f40       ?__LINE__Var@?0??pjmedia_wav_writer_port_get_pos@@9@9 004acf40     pjmedia-i386-win32-vc8-debug-dynamic:wav_writer.obj
 0004:00000f44       ?__LINE__Var@?0??pjmedia_wav_writer_port_set_cb@@9@9 004acf44     pjmedia-i386-win32-vc8-debug-dynamic:wav_writer.obj
 0004:00000f48       ?__LINE__Var@?0??file_put_frame@@9@9 004acf48     pjmedia-i386-win32-vc8-debug-dynamic:wav_writer.obj
 0004:00000fd8       ?__LINE__Var@?0??make_global_index@@9@9 004acfd8     pjmedia-i386-win32-vc8-debug-dynamic:audiodev.obj
 0004:00000fdc       ?__LINE__Var@?0??pjmedia_aud_dev_get_info@@9@9 004acfdc     pjmedia-i386-win32-vc8-debug-dynamic:audiodev.obj
 0004:00000fe0       ?__LINE__Var@?0??pjmedia_aud_dev_lookup@@9@9 004acfe0     pjmedia-i386-win32-vc8-debug-dynamic:audiodev.obj
 0004:00000fe4       ?__LINE__Var@?0??pjmedia_aud_dev_default_param@@9@9 004acfe4     pjmedia-i386-win32-vc8-debug-dynamic:audiodev.obj
 0004:00000fe8       ?__LINE__Var@?0??pjmedia_aud_stream_create@@9@9 004acfe8     pjmedia-i386-win32-vc8-debug-dynamic:audiodev.obj
 0004:00000fec       ?__LINE__Var@?0??pjmedia_aud_stream_get_param@@9@9 004acfec     pjmedia-i386-win32-vc8-debug-dynamic:audiodev.obj
 0004:00000ff0       ?__LINE__Var@?0??pjmedia_format_get_audio_format_detail@@9@9 004acff0     pjmedia-i386-win32-vc8-debug-dynamic:format.obj
 0004:00000ff4       ?__LINE__Var@?0??pjmedia_codec_param_clone@@9@9 004acff4     pjmedia-i386-win32-vc8-debug-dynamic:codec.obj
 0004:00000ff8       ?__LINE__Var@?0??pjmedia_codec_mgr_init@@9@9 004acff8     pjmedia-i386-win32-vc8-debug-dynamic:codec.obj
 0004:00000ffc       ?__LINE__Var@?0??pjmedia_codec_mgr_destroy@@9@9 004acffc     pjmedia-i386-win32-vc8-debug-dynamic:codec.obj
 0004:00001000       ?__LINE__Var@?0??pjmedia_codec_mgr_register_factory@@9@9 004ad000     pjmedia-i386-win32-vc8-debug-dynamic:codec.obj
 0004:00001004       ?__LINE__Var@?0??pjmedia_codec_mgr_unregister_factory@@9@9 004ad004     pjmedia-i386-win32-vc8-debug-dynamic:codec.obj
 0004:00001008       ?__LINE__Var@?0??pjmedia_codec_mgr_enum_codecs@@9@9 004ad008     pjmedia-i386-win32-vc8-debug-dynamic:codec.obj
 0004:0000100c       ?__LINE__Var@?0??pjmedia_codec_mgr_get_codec_info@@9@9 004ad00c     pjmedia-i386-win32-vc8-debug-dynamic:codec.obj
 0004:00001010       ?__LINE__Var@?0??pjmedia_codec_info_to_id@@9@9 004ad010     pjmedia-i386-win32-vc8-debug-dynamic:codec.obj
 0004:00001014       ?__LINE__Var@?0??pjmedia_codec_mgr_find_codecs_by_id@@9@9 004ad014     pjmedia-i386-win32-vc8-debug-dynamic:codec.obj
 0004:00001018       ?__LINE__Var@?0??pjmedia_codec_mgr_set_codec_priority@@9@9 004ad018     pjmedia-i386-win32-vc8-debug-dynamic:codec.obj
 0004:0000101c       ?__LINE__Var@?0??pjmedia_codec_mgr_alloc_codec@@9@9 004ad01c     pjmedia-i386-win32-vc8-debug-dynamic:codec.obj
 0004:00001020       ?__LINE__Var@?0??pjmedia_codec_mgr_get_default_param@@9@9 004ad020     pjmedia-i386-win32-vc8-debug-dynamic:codec.obj
 0004:00001024       ?__LINE__Var@?0??pjmedia_codec_mgr_set_default_param@@9@9 004ad024     pjmedia-i386-win32-vc8-debug-dynamic:codec.obj
 0004:00001028       ?__LINE__Var@?0??pjmedia_codec_mgr_dealloc_codec@@9@9 004ad028     pjmedia-i386-win32-vc8-debug-dynamic:codec.obj
 0004:0000102c       ?__LINE__Var@?0??pjmedia_sdp_attr_create@@9@9 004ad02c     pjmedia-i386-win32-vc8-debug-dynamic:sdp.obj
 0004:00001030       ?__LINE__Var@?0??pjmedia_sdp_attr_clone@@9@9 004ad030     pjmedia-i386-win32-vc8-debug-dynamic:sdp.obj
 0004:00001034       ?__LINE__Var@?0??pjmedia_sdp_attr_find@@9@9 004ad034     pjmedia-i386-win32-vc8-debug-dynamic:sdp.obj
 0004:00001038       ?__LINE__Var@?0??pjmedia_sdp_attr_add@@9@9 004ad038     pjmedia-i386-win32-vc8-debug-dynamic:sdp.obj
 0004:0000103c       ?__LINE__Var@?0??pjmedia_sdp_attr_remove_all@@9@9 004ad03c     pjmedia-i386-win32-vc8-debug-dynamic:sdp.obj
 0004:00001040       ?__LINE__Var@?0??pjmedia_sdp_attr_remove@@9@9 004ad040     pjmedia-i386-win32-vc8-debug-dynamic:sdp.obj
 0004:00001044       ?__LINE__Var@?0??pjmedia_sdp_attr_get_rtpmap@@9@9 004ad044     pjmedia-i386-win32-vc8-debug-dynamic:sdp.obj
 0004:00001048       ?__LINE__Var@?0??pjmedia_sdp_attr_get_fmtp@@9@9 004ad048     pjmedia-i386-win32-vc8-debug-dynamic:sdp.obj
 0004:0000104c       ?__LINE__Var@?0??pjmedia_sdp_attr_get_rtcp@@9@9 004ad04c     pjmedia-i386-win32-vc8-debug-dynamic:sdp.obj
 0004:00001050       ?__LINE__Var@?0??pjmedia_sdp_attr_create_rtcp@@9@9 004ad050     pjmedia-i386-win32-vc8-debug-dynamic:sdp.obj
 0004:00001054       ?__LINE__Var@?0??pjmedia_sdp_attr_get_ssrc@@9@9 004ad054     pjmedia-i386-win32-vc8-debug-dynamic:sdp.obj
 0004:00001058       ?__LINE__Var@?0??pjmedia_sdp_attr_to_rtpmap@@9@9 004ad058     pjmedia-i386-win32-vc8-debug-dynamic:sdp.obj
 0004:0000105c       ?__LINE__Var@?0??pjmedia_sdp_rtpmap_to_attr@@9@9 004ad05c     pjmedia-i386-win32-vc8-debug-dynamic:sdp.obj
 0004:00001060       ?__LINE__Var@?0??pjmedia_sdp_media_clone@@9@9 004ad060     pjmedia-i386-win32-vc8-debug-dynamic:sdp.obj
 0004:00001064       ?__LINE__Var@?0??pjmedia_sdp_media_find_attr@@9@9 004ad064     pjmedia-i386-win32-vc8-debug-dynamic:sdp.obj
 0004:00001068       ?__LINE__Var@?0??pjmedia_sdp_media_find_attr2@@9@9 004ad068     pjmedia-i386-win32-vc8-debug-dynamic:sdp.obj
 0004:0000106c       ?__LINE__Var@?0??pjmedia_sdp_parse@@9@9 004ad06c     pjmedia-i386-win32-vc8-debug-dynamic:sdp.obj
 0004:00001070       ?__LINE__Var@?0??pjmedia_sdp_session_clone@@9@9 004ad070     pjmedia-i386-win32-vc8-debug-dynamic:sdp.obj
 0004:00001074       ?__LINE__Var@?0??pjmedia_sdp_transport_get_proto@@9@9 004ad074     pjmedia-i386-win32-vc8-debug-dynamic:sdp.obj
 0004:00001078       ?__LINE__Var@?0??pjmedia_sdp_media_deactivate@@9@9 004ad078     pjmedia-i386-win32-vc8-debug-dynamic:sdp.obj
 0004:0000107c       ?__LINE__Var@?0??pjmedia_sdp_media_clone_deactivate@@9@9 004ad07c     pjmedia-i386-win32-vc8-debug-dynamic:sdp.obj
 0004:00001080       ?__LINE__Var@?0??pjmedia_clock_src_init@@9@9 004ad080     pjmedia-i386-win32-vc8-debug-dynamic:clock_thread.obj
 0004:00001084       ?__LINE__Var@?0??pjmedia_clock_src_update@@9@9 004ad084     pjmedia-i386-win32-vc8-debug-dynamic:clock_thread.obj
 0004:00001088       ?__LINE__Var@?0??pjmedia_clock_src_get_current_timestamp@@9@9 004ad088     pjmedia-i386-win32-vc8-debug-dynamic:clock_thread.obj
 0004:0000108c       ?__LINE__Var@?0??pjmedia_clock_create2@@9@9 004ad08c     pjmedia-i386-win32-vc8-debug-dynamic:clock_thread.obj
 0004:00001090       ?__LINE__Var@?0??pjmedia_clock_start@@9@9 004ad090     pjmedia-i386-win32-vc8-debug-dynamic:clock_thread.obj
 0004:00001094       ?__LINE__Var@?0??pjmedia_clock_stop@@9@9 004ad094     pjmedia-i386-win32-vc8-debug-dynamic:clock_thread.obj
 0004:00001098       ?__LINE__Var@?0??pjmedia_clock_wait@@9@9 004ad098     pjmedia-i386-win32-vc8-debug-dynamic:clock_thread.obj
 0004:0000109c       ?__LINE__Var@?0??pjmedia_clock_destroy@@9@9 004ad09c     pjmedia-i386-win32-vc8-debug-dynamic:clock_thread.obj
 0004:000010e4       ?__LINE__Var@?0??pjmedia_echo_create2@@9@9 004ad0e4     pjmedia-i386-win32-vc8-debug-dynamic:echo_common.obj
 0004:000012e4       ?__LINE__Var@?0??generate_crypto_attr_value@@9@9 004ad2e4     pjmedia-i386-win32-vc8-debug-dynamic:transport_srtp.obj
 0004:000012e8       ?__LINE__Var@?0??sdes_encode_sdp@@9@9 004ad2e8     pjmedia-i386-win32-vc8-debug-dynamic:transport_srtp.obj
 0004:000012ec       ?__LINE__Var@?0??pjmedia_srtp_setting_default@@9@9 004ad2ec     pjmedia-i386-win32-vc8-debug-dynamic:transport_srtp.obj
 0004:000012f0       ?__LINE__Var@?0??pjmedia_srtp_enum_crypto@@9@9 004ad2f0     pjmedia-i386-win32-vc8-debug-dynamic:transport_srtp.obj
 0004:000012f4       ?__LINE__Var@?0??pjmedia_srtp_enum_keying@@9@9 004ad2f4     pjmedia-i386-win32-vc8-debug-dynamic:transport_srtp.obj
 0004:000012f8       ?__LINE__Var@?0??pjmedia_transport_srtp_create@@9@9 004ad2f8     pjmedia-i386-win32-vc8-debug-dynamic:transport_srtp.obj
 0004:000012fc       ?__LINE__Var@?0??pjmedia_transport_srtp_start@@9@9 004ad2fc     pjmedia-i386-win32-vc8-debug-dynamic:transport_srtp.obj
 0004:00001300       ?__LINE__Var@?0??pjmedia_transport_srtp_stop@@9@9 004ad300     pjmedia-i386-win32-vc8-debug-dynamic:transport_srtp.obj
 0004:00001304       ?__LINE__Var@?0??pjmedia_transport_srtp_get_member@@9@9 004ad304     pjmedia-i386-win32-vc8-debug-dynamic:transport_srtp.obj
 0004:00001308       ?__LINE__Var@?0??transport_get_info@@9@9 004ad308     pjmedia-i386-win32-vc8-debug-dynamic:transport_srtp.obj
 0004:0000130c       ?__LINE__Var@?0??transport_attach2@@9@9 004ad30c     pjmedia-i386-win32-vc8-debug-dynamic:transport_srtp.obj
 0004:00001310       ?__LINE__Var@?0??transport_detach@@9@9 004ad310     pjmedia-i386-win32-vc8-debug-dynamic:transport_srtp.obj
 0004:00001314       ?__LINE__Var@?0??transport_simulate_lost@@9@9 004ad314     pjmedia-i386-win32-vc8-debug-dynamic:transport_srtp.obj
 0004:00001318       ?__LINE__Var@?0??transport_destroy@@9@9 004ad318     pjmedia-i386-win32-vc8-debug-dynamic:transport_srtp.obj
 0004:0000131c       ?__LINE__Var@?0??srtp_rtp_cb@@9@9 004ad31c     pjmedia-i386-win32-vc8-debug-dynamic:transport_srtp.obj
 0004:00001320       ?__LINE__Var@?0??srtp_rtcp_cb@@9@9 004ad320     pjmedia-i386-win32-vc8-debug-dynamic:transport_srtp.obj
 0004:00001324       ?__LINE__Var@?0??transport_media_create@@9@9 004ad324     pjmedia-i386-win32-vc8-debug-dynamic:transport_srtp.obj
 0004:00001328       ?__LINE__Var@?0??transport_encode_sdp@@9@9 004ad328     pjmedia-i386-win32-vc8-debug-dynamic:transport_srtp.obj
 0004:0000132c       ?__LINE__Var@?0??transport_media_start@@9@9 004ad32c     pjmedia-i386-win32-vc8-debug-dynamic:transport_srtp.obj
 0004:00001330       ?__LINE__Var@?0??transport_media_stop@@9@9 004ad330     pjmedia-i386-win32-vc8-debug-dynamic:transport_srtp.obj
 0004:00001334       ?__LINE__Var@?0??pjmedia_transport_srtp_decrypt_pkt@@9@9 004ad334     pjmedia-i386-win32-vc8-debug-dynamic:transport_srtp.obj
 0004:00001338       ?__LINE__Var@?0??echo_supp_create@@9@9 004ad338     pjmedia-i386-win32-vc8-debug-dynamic:echo_suppress.obj
 0004:0000133c       ?__LINE__Var@?0??echo_supp_update@@9@9 004ad33c     pjmedia-i386-win32-vc8-debug-dynamic:echo_suppress.obj
 0004:00001340       ?__LINE__Var@?0??echo_supp_cancel_echo@@9@9 004ad340     pjmedia-i386-win32-vc8-debug-dynamic:echo_suppress.obj
 0004:00001344       ?__LINE__Var@?0??speex_aec_create@@9@9 004ad344     pjmedia-i386-win32-vc8-debug-dynamic:echo_speex.obj
 0004:00001348       ?__LINE__Var@?0??speex_aec_destroy@@9@9 004ad348     pjmedia-i386-win32-vc8-debug-dynamic:echo_speex.obj
 0004:0000134c       ?__LINE__Var@?0??speex_aec_cancel_echo@@9@9 004ad34c     pjmedia-i386-win32-vc8-debug-dynamic:echo_speex.obj
 0004:00001350       ?__LINE__Var@?0??speex_aec_playback@@9@9 004ad350     pjmedia-i386-win32-vc8-debug-dynamic:echo_speex.obj
 0004:00001354       ?__LINE__Var@?0??speex_aec_capture@@9@9 004ad354     pjmedia-i386-win32-vc8-debug-dynamic:echo_speex.obj
 0004:00001358       ?__LINE__Var@?0??pjmedia_delay_buf_create@@9@9 004ad358     pjmedia-i386-win32-vc8-debug-dynamic:delaybuf.obj
 0004:0000135c       ?__LINE__Var@?0??pjmedia_delay_buf_destroy@@9@9 004ad35c     pjmedia-i386-win32-vc8-debug-dynamic:delaybuf.obj
 0004:00001360       ?__LINE__Var@?0??shrink_buffer@@9@9 004ad360     pjmedia-i386-win32-vc8-debug-dynamic:delaybuf.obj
 0004:00001364       ?__LINE__Var@?0??pjmedia_delay_buf_put@@9@9 004ad364     pjmedia-i386-win32-vc8-debug-dynamic:delaybuf.obj
 0004:00001368       ?__LINE__Var@?0??pjmedia_delay_buf_get@@9@9 004ad368     pjmedia-i386-win32-vc8-debug-dynamic:delaybuf.obj
 0004:0000136c       ?__LINE__Var@?0??pjmedia_delay_buf_reset@@9@9 004ad36c     pjmedia-i386-win32-vc8-debug-dynamic:delaybuf.obj
 0004:00001370       ?__LINE__Var@?0??pjmedia_silence_det_create@@9@9 004ad370     pjmedia-i386-win32-vc8-debug-dynamic:silencedet.obj
 0004:00001374       ?__LINE__Var@?0??pjmedia_silence_det_set_name@@9@9 004ad374     pjmedia-i386-win32-vc8-debug-dynamic:silencedet.obj
 0004:00001378       ?__LINE__Var@?0??pjmedia_silence_det_set_adaptive@@9@9 004ad378     pjmedia-i386-win32-vc8-debug-dynamic:silencedet.obj
 0004:0000137c       ?__LINE__Var@?0??pjmedia_silence_det_set_fixed@@9@9 004ad37c     pjmedia-i386-win32-vc8-debug-dynamic:silencedet.obj
 0004:00001380       ?__LINE__Var@?0??pjmedia_silence_det_set_params@@9@9 004ad380     pjmedia-i386-win32-vc8-debug-dynamic:silencedet.obj
 0004:00001384       ?__LINE__Var@?0??pjmedia_silence_det_disable@@9@9 004ad384     pjmedia-i386-win32-vc8-debug-dynamic:silencedet.obj
 0004:00001388       ?__LINE__Var@?0??pjmedia_silence_det_apply@@9@9 004ad388     pjmedia-i386-win32-vc8-debug-dynamic:silencedet.obj
 0004:0000138c       ?__LINE__Var@?0??pjmedia_wsola_create@@9@9 004ad38c     pjmedia-i386-win32-vc8-debug-dynamic:wsola.obj
 0004:00001390       ?__LINE__Var@?0??pjmedia_wsola_set_max_expand@@9@9 004ad390     pjmedia-i386-win32-vc8-debug-dynamic:wsola.obj
 0004:00001394       ?__LINE__Var@?0??pjmedia_wsola_reset@@9@9 004ad394     pjmedia-i386-win32-vc8-debug-dynamic:wsola.obj
 0004:00001398       ?__LINE__Var@?0??expand@@9@9 004ad398     pjmedia-i386-win32-vc8-debug-dynamic:wsola.obj
 0004:0000139c       ?__LINE__Var@?0??pjmedia_wsola_discard@@9@9 004ad39c     pjmedia-i386-win32-vc8-debug-dynamic:wsola.obj
 0004:000013a0       _pj_optind                 004ad3a0     pjlib-util-i386-win32-vc8-debug-dynamic:getopt.obj
 0004:000013a4       _pj_optopt                 004ad3a4     pjlib-util-i386-win32-vc8-debug-dynamic:getopt.obj
 0004:000013ac       ?__LINE__Var@?0??pj_cis_add_range@@9@9 004ad3ac     pjlib-util-i386-win32-vc8-debug-dynamic:scanner.obj
 0004:000013b0       ?__LINE__Var@?0??pj_scan_init@@9@9 004ad3b0     pjlib-util-i386-win32-vc8-debug-dynamic:scanner.obj
 0004:000013b4       ?__LINE__Var@?0??pj_scan_fini@@9@9 004ad3b4     pjlib-util-i386-win32-vc8-debug-dynamic:scanner.obj
 0004:000013b8       ?__LINE__Var@?0??pj_scan_get@@9@9 004ad3b8     pjlib-util-i386-win32-vc8-debug-dynamic:scanner.obj
 0004:000013bc       ?__LINE__Var@?0??pj_scan_get_unescape@@9@9 004ad3bc     pjlib-util-i386-win32-vc8-debug-dynamic:scanner.obj
 0004:000013c0       ?__LINE__Var@?0??pj_scan_get_quotes@@9@9 004ad3c0     pjlib-util-i386-win32-vc8-debug-dynamic:scanner.obj
 0004:000013c4       ?__LINE__Var@?0??pj_base64_encode@@9@9 004ad3c4     pjlib-util-i386-win32-vc8-debug-dynamic:base64.obj
 0004:000013c8       ?__LINE__Var@?0??pj_base64_decode@@9@9 004ad3c8     pjlib-util-i386-win32-vc8-debug-dynamic:base64.obj
 0004:000013d0       ?__LINE__Var@?0??pj_init@@9@9 004ad3d0     pjlib-i386-win32-vc8-debug-dynamic:os_core_win32.obj
 0004:000013d4       ?__LINE__Var@?0??pj_shutdown@@9@9 004ad3d4     pjlib-i386-win32-vc8-debug-dynamic:os_core_win32.obj
 0004:000013d8       ?__LINE__Var@?0??pj_getpid@@9@9 004ad3d8     pjlib-i386-win32-vc8-debug-dynamic:os_core_win32.obj
 0004:000013dc       ?__LINE__Var@?0??pj_thread_set_prio@@9@9 004ad3dc     pjlib-i386-win32-vc8-debug-dynamic:os_core_win32.obj
 0004:000013e0       ?__LINE__Var@?0??pj_thread_get_os_handle@@9@9 004ad3e0     pjlib-i386-win32-vc8-debug-dynamic:os_core_win32.obj
 0004:000013e4       ?__LINE__Var@?0??pj_thread_register@@9@9 004ad3e4     pjlib-i386-win32-vc8-debug-dynamic:os_core_win32.obj
 0004:000013e8       ?__LINE__Var@?0??thread_main@@9@9 004ad3e8     pjlib-i386-win32-vc8-debug-dynamic:os_core_win32.obj
 0004:000013ec       ?__LINE__Var@?0??pj_thread_create@@9@9 004ad3ec     pjlib-i386-win32-vc8-debug-dynamic:os_core_win32.obj
 0004:000013f0       ?__LINE__Var@?0??pj_thread_get_name@@9@9 004ad3f0     pjlib-i386-win32-vc8-debug-dynamic:os_core_win32.obj
 0004:000013f4       ?__LINE__Var@?0??pj_thread_resume@@9@9 004ad3f4     pjlib-i386-win32-vc8-debug-dynamic:os_core_win32.obj
 0004:000013f8       ?__LINE__Var@?0??pj_thread_this@@9@9 004ad3f8     pjlib-i386-win32-vc8-debug-dynamic:os_core_win32.obj
 0004:000013fc       ?__LINE__Var@?0??pj_thread_join@@9@9 004ad3fc     pjlib-i386-win32-vc8-debug-dynamic:os_core_win32.obj
 0004:00001400       ?__LINE__Var@?0??pj_thread_destroy@@9@9 004ad400     pjlib-i386-win32-vc8-debug-dynamic:os_core_win32.obj
 0004:00001404       ?__LINE__Var@?0??pj_thread_sleep@@9@9 004ad404     pjlib-i386-win32-vc8-debug-dynamic:os_core_win32.obj
 0004:00001408       ?__LINE__Var@?0??pj_thread_check_stack@@9@9 004ad408     pjlib-i386-win32-vc8-debug-dynamic:os_core_win32.obj
 0004:0000140c       ?__LINE__Var@?0??pj_thread_get_stack_info@@9@9 004ad40c     pjlib-i386-win32-vc8-debug-dynamic:os_core_win32.obj
 0004:00001410       ?__LINE__Var@?0??pj_atomic_destroy@@9@9 004ad410     pjlib-i386-win32-vc8-debug-dynamic:os_core_win32.obj
 0004:00001414       ?__LINE__Var@?0??pj_atomic_set@@9@9 004ad414     pjlib-i386-win32-vc8-debug-dynamic:os_core_win32.obj
 0004:00001418       ?__LINE__Var@?0??pj_atomic_get@@9@9 004ad418     pjlib-i386-win32-vc8-debug-dynamic:os_core_win32.obj
 0004:0000141c       ?__LINE__Var@?0??pj_atomic_inc_and_get@@9@9 004ad41c     pjlib-i386-win32-vc8-debug-dynamic:os_core_win32.obj
 0004:00001420       ?__LINE__Var@?0??pj_atomic_inc@@9@9 004ad420     pjlib-i386-win32-vc8-debug-dynamic:os_core_win32.obj
 0004:00001424       ?__LINE__Var@?0??pj_atomic_dec_and_get@@9@9 004ad424     pjlib-i386-win32-vc8-debug-dynamic:os_core_win32.obj
 0004:00001428       ?__LINE__Var@?0??pj_atomic_dec@@9@9 004ad428     pjlib-i386-win32-vc8-debug-dynamic:os_core_win32.obj
 0004:0000142c       ?__LINE__Var@?0??pj_atomic_add@@9@9 004ad42c     pjlib-i386-win32-vc8-debug-dynamic:os_core_win32.obj
 0004:00001430       ?__LINE__Var@?0??pj_thread_local_alloc@@9@9 004ad430     pjlib-i386-win32-vc8-debug-dynamic:os_core_win32.obj
 0004:00001434       ?__LINE__Var@?0??pj_thread_local_free@@9@9 004ad434     pjlib-i386-win32-vc8-debug-dynamic:os_core_win32.obj
 0004:00001438       ?__LINE__Var@?0??init_mutex@@9@9 004ad438     pjlib-i386-win32-vc8-debug-dynamic:os_core_win32.obj
 0004:0000143c       ?__LINE__Var@?0??pj_mutex_create@@9@9 004ad43c     pjlib-i386-win32-vc8-debug-dynamic:os_core_win32.obj
 0004:00001440       ?__LINE__Var@?0??pj_mutex_lock@@9@9 004ad440     pjlib-i386-win32-vc8-debug-dynamic:os_core_win32.obj
 0004:00001444       ?__LINE__Var@?0??pj_mutex_unlock@@9@9 004ad444     pjlib-i386-win32-vc8-debug-dynamic:os_core_win32.obj
 0004:00001448       ?__LINE__Var@?0??pj_mutex_trylock@@9@9 004ad448     pjlib-i386-win32-vc8-debug-dynamic:os_core_win32.obj
 0004:0000144c       ?__LINE__Var@?0??pj_mutex_destroy@@9@9 004ad44c     pjlib-i386-win32-vc8-debug-dynamic:os_core_win32.obj
 0004:00001450       ?__LINE__Var@?0??pj_rwmutex_create@@9@9 004ad450     pjlib-i386-win32-vc8-debug-dynamic:os_core_win32.obj
 0004:00001454       ?__LINE__Var@?0??pj_rwmutex_lock_read@@9@9 004ad454     pjlib-i386-win32-vc8-debug-dynamic:os_core_win32.obj
 0004:00001458       ?__LINE__Var@?0??pj_rwmutex_lock_write@@9@9 004ad458     pjlib-i386-win32-vc8-debug-dynamic:os_core_win32.obj
 0004:0000145c       ?__LINE__Var@?0??pj_rwmutex_unlock_read@@9@9 004ad45c     pjlib-i386-win32-vc8-debug-dynamic:os_core_win32.obj
 0004:00001460       ?__LINE__Var@?0??pj_rwmutex_unlock_write@@9@9 004ad460     pjlib-i386-win32-vc8-debug-dynamic:os_core_win32.obj
 0004:00001464       ?__LINE__Var@?0??pj_rwmutex_destroy@@9@9 004ad464     pjlib-i386-win32-vc8-debug-dynamic:os_core_win32.obj
 0004:00001468       ?__LINE__Var@?0??pj_sem_create@@9@9 004ad468     pjlib-i386-win32-vc8-debug-dynamic:os_core_win32.obj
 0004:0000146c       ?__LINE__Var@?0??pj_sem_wait_for@@9@9 004ad46c     pjlib-i386-win32-vc8-debug-dynamic:os_core_win32.obj
 0004:00001470       ?__LINE__Var@?0??pj_sem_wait@@9@9 004ad470     pjlib-i386-win32-vc8-debug-dynamic:os_core_win32.obj
 0004:00001474       ?__LINE__Var@?0??pj_sem_trywait@@9@9 004ad474     pjlib-i386-win32-vc8-debug-dynamic:os_core_win32.obj
 0004:00001478       ?__LINE__Var@?0??pj_sem_post@@9@9 004ad478     pjlib-i386-win32-vc8-debug-dynamic:os_core_win32.obj
 0004:0000147c       ?__LINE__Var@?0??pj_sem_destroy@@9@9 004ad47c     pjlib-i386-win32-vc8-debug-dynamic:os_core_win32.obj
 0004:00001480       ?__LINE__Var@?0??pj_event_create@@9@9 004ad480     pjlib-i386-win32-vc8-debug-dynamic:os_core_win32.obj
 0004:00001484       ?__LINE__Var@?0??pj_event_wait_for@@9@9 004ad484     pjlib-i386-win32-vc8-debug-dynamic:os_core_win32.obj
 0004:00001488       ?__LINE__Var@?0??pj_event_wait@@9@9 004ad488     pjlib-i386-win32-vc8-debug-dynamic:os_core_win32.obj
 0004:0000148c       ?__LINE__Var@?0??pj_event_trywait@@9@9 004ad48c     pjlib-i386-win32-vc8-debug-dynamic:os_core_win32.obj
 0004:00001490       ?__LINE__Var@?0??pj_event_set@@9@9 004ad490     pjlib-i386-win32-vc8-debug-dynamic:os_core_win32.obj
 0004:00001494       ?__LINE__Var@?0??pj_event_pulse@@9@9 004ad494     pjlib-i386-win32-vc8-debug-dynamic:os_core_win32.obj
 0004:00001498       ?__LINE__Var@?0??pj_event_reset@@9@9 004ad498     pjlib-i386-win32-vc8-debug-dynamic:os_core_win32.obj
 0004:0000149c       ?__LINE__Var@?0??pj_event_destroy@@9@9 004ad49c     pjlib-i386-win32-vc8-debug-dynamic:os_core_win32.obj
 0004:000014a0       ?__LINE__Var@?0??pj_term_set_color@@9@9 004ad4a0     pjlib-i386-win32-vc8-debug-dynamic:os_core_win32.obj
 0004:000014a4       ?__LINE__Var@?0??pj_term_get_color@@9@9 004ad4a4     pjlib-i386-win32-vc8-debug-dynamic:os_core_win32.obj
 0004:000014a8       ?__LINE__Var@?0??pj_register_strerror@@9@9 004ad4a8     pjlib-i386-win32-vc8-debug-dynamic:errno.obj
 0004:000014ac       ?__LINE__Var@?0??pj_strerror@@9@9 004ad4ac     pjlib-i386-win32-vc8-debug-dynamic:errno.obj
 0004:000014b0       ?__LINE__Var@?0??pj_pool_create_block@@9@9 004ad4b0     pjlib-i386-win32-vc8-debug-dynamic:pool.obj
 0004:000014b4       ?__LINE__Var@?0??pj_pool_allocate_find@@9@9 004ad4b4     pjlib-i386-win32-vc8-debug-dynamic:pool.obj
 0004:000014b8       ?__LINE__Var@?0??pj_pool_init_int@@9@9 004ad4b8     pjlib-i386-win32-vc8-debug-dynamic:pool.obj
 0004:000014bc       ?__LINE__Var@?0??pj_pool_create_int@@9@9 004ad4bc     pjlib-i386-win32-vc8-debug-dynamic:pool.obj
 0004:000014c0       ?__LINE__Var@?0??reset_pool@@9@9 004ad4c0     pjlib-i386-win32-vc8-debug-dynamic:pool.obj
 0004:00001514       ?__LINE__Var@?0??pj_caching_pool_init@@9@9 004ad514     pjlib-i386-win32-vc8-debug-dynamic:pool_caching.obj
 0004:00001518       ?__LINE__Var@?0??pj_caching_pool_destroy@@9@9 004ad518     pjlib-i386-win32-vc8-debug-dynamic:pool_caching.obj
 0004:0000151c       ?__LINE__Var@?0??cpool_create_pool@@9@9 004ad51c     pjlib-i386-win32-vc8-debug-dynamic:pool_caching.obj
 0004:00001520       ?__LINE__Var@?0??cpool_release_pool@@9@9 004ad520     pjlib-i386-win32-vc8-debug-dynamic:pool_caching.obj
 0004:000015a8       ?__LINE__Var@?0??pj_log@@9@9 004ad5a8     pjlib-i386-win32-vc8-debug-dynamic:log.obj
 0004:000015ac       _pj_pool_factory_default_policy 004ad5ac     pjlib-i386-win32-vc8-debug-dynamic:pool_policy_malloc.obj
 0004:000015c0       ?__LINE__Var@?0??default_block_alloc@@9@9 004ad5c0     pjlib-i386-win32-vc8-debug-dynamic:pool_policy_malloc.obj
 0004:000015c4       ?__LINE__Var@?0??default_block_free@@9@9 004ad5c4     pjlib-i386-win32-vc8-debug-dynamic:pool_policy_malloc.obj
 0004:000015c8       ?__LINE__Var@?0??default_pool_callback@@9@9 004ad5c8     pjlib-i386-win32-vc8-debug-dynamic:pool_policy_malloc.obj
 0004:000015cc       ?__LINE__Var@?0??pj_strncpy@@9@9 004ad5cc     pjlib-i386-win32-vc8-debug-dynamic:string.obj
 0004:000015d0       ?__LINE__Var@?0??pj_strncpy_with_null@@9@9 004ad5d0     pjlib-i386-win32-vc8-debug-dynamic:string.obj
 0004:000015d4       ?__LINE__Var@?0??pj_create_random_string@@9@9 004ad5d4     pjlib-i386-win32-vc8-debug-dynamic:string.obj
 0004:000015d8       ?__LINE__Var@?0??pj_strtol@@9@9 004ad5d8     pjlib-i386-win32-vc8-debug-dynamic:string.obj
 0004:000015dc       ?__LINE__Var@?0??pj_strtol2@@9@9 004ad5dc     pjlib-i386-win32-vc8-debug-dynamic:string.obj
 0004:000015e0       ?__LINE__Var@?0??pj_strtoul@@9@9 004ad5e0     pjlib-i386-win32-vc8-debug-dynamic:string.obj
 0004:000015e4       ?__LINE__Var@?0??pj_strtoul2@@9@9 004ad5e4     pjlib-i386-win32-vc8-debug-dynamic:string.obj
 0004:000015e8       ?__LINE__Var@?0??pj_strtoul3@@9@9 004ad5e8     pjlib-i386-win32-vc8-debug-dynamic:string.obj
 0004:000015ec       ?__LINE__Var@?0??pj_utoa_pad@@9@9 004ad5ec     pjlib-i386-win32-vc8-debug-dynamic:string.obj
 0004:000015f0       ?__LINE__Var@?0??platform_strerror@@9@9 004ad5f0     pjlib-i386-win32-vc8-debug-dynamic:os_error_win32.obj
 0004:000015f4       ?__LINE__Var@?0??pj_sockaddr_in_set_str_addr@@9@9 004ad5f4     pjlib-i386-win32-vc8-debug-dynamic:sock_common.obj
 0004:000015f8       ?__LINE__Var@?0??pj_sockaddr_set_str_addr@@9@9 004ad5f8     pjlib-i386-win32-vc8-debug-dynamic:sock_common.obj
 0004:000015fc       ?__LINE__Var@?0??pj_sockaddr_in_init@@9@9 004ad5fc     pjlib-i386-win32-vc8-debug-dynamic:sock_common.obj
 0004:00001600       ?__LINE__Var@?0??pj_sockaddr_init@@9@9 004ad600     pjlib-i386-win32-vc8-debug-dynamic:sock_common.obj
 0004:00001604       ?__LINE__Var@?0??pj_sockaddr_get_addr@@9@9 004ad604     pjlib-i386-win32-vc8-debug-dynamic:sock_common.obj
 0004:00001608       ?__LINE__Var@?0??pj_sockaddr_get_port@@9@9 004ad608     pjlib-i386-win32-vc8-debug-dynamic:sock_common.obj
 0004:0000160c       ?__LINE__Var@?0??pj_sockaddr_get_addr_len@@9@9 004ad60c     pjlib-i386-win32-vc8-debug-dynamic:sock_common.obj
 0004:00001610       ?__LINE__Var@?0??pj_sockaddr_get_len@@9@9 004ad610     pjlib-i386-win32-vc8-debug-dynamic:sock_common.obj
 0004:00001614       ?__LINE__Var@?0??pj_sockaddr_synthesize@@9@9 004ad614     pjlib-i386-win32-vc8-debug-dynamic:sock_common.obj
 0004:00001618       ?__LINE__Var@?0??pj_sockaddr_set_port@@9@9 004ad618     pjlib-i386-win32-vc8-debug-dynamic:sock_common.obj
 0004:0000161c       ?__LINE__Var@?0??pj_sockaddr_parse2@@9@9 004ad61c     pjlib-i386-win32-vc8-debug-dynamic:sock_common.obj
 0004:00001620       ?__LINE__Var@?0??pj_sockaddr_parse@@9@9 004ad620     pjlib-i386-win32-vc8-debug-dynamic:sock_common.obj
 0004:00001624       ?__LINE__Var@?0??pj_gethostip@@9@9 004ad624     pjlib-i386-win32-vc8-debug-dynamic:sock_common.obj
 0004:00001628       ?__LINE__Var@?0??pj_sock_bind_random@@9@9 004ad628     pjlib-i386-win32-vc8-debug-dynamic:sock_common.obj
 0004:0000162c       ?__LINE__Var@?0??pj_sock_setsockopt_sobuf@@9@9 004ad62c     pjlib-i386-win32-vc8-debug-dynamic:sock_common.obj
 0004:00001630       ?__LINE__Var@?0??pj_ioqueue_set_lock@@9@9 004ad630     pjlib-i386-win32-vc8-debug-dynamic:ioqueue_select.obj
 0004:00001634       ?__LINE__Var@?0??ioqueue_init_key@@9@9 004ad634     pjlib-i386-win32-vc8-debug-dynamic:ioqueue_select.obj
 0004:00001638       ?__LINE__Var@?0??pj_ioqueue_get_user_data@@9@9 004ad638     pjlib-i386-win32-vc8-debug-dynamic:ioqueue_select.obj
 0004:0000163c       ?__LINE__Var@?0??pj_ioqueue_set_user_data@@9@9 004ad63c     pjlib-i386-win32-vc8-debug-dynamic:ioqueue_select.obj
 0004:00001640       ?__LINE__Var@?0??ioqueue_dispatch_write_event@@9@9 004ad640     pjlib-i386-win32-vc8-debug-dynamic:ioqueue_select.obj
 0004:00001644       ?__LINE__Var@?0??ioqueue_dispatch_read_event@@9@9 004ad644     pjlib-i386-win32-vc8-debug-dynamic:ioqueue_select.obj
 0004:00001648       ?__LINE__Var@?0??pj_ioqueue_recv@@9@9 004ad648     pjlib-i386-win32-vc8-debug-dynamic:ioqueue_select.obj
 0004:0000164c       ?__LINE__Var@?0??pj_ioqueue_recvfrom@@9@9 004ad64c     pjlib-i386-win32-vc8-debug-dynamic:ioqueue_select.obj
 0004:00001650       ?__LINE__Var@?0??pj_ioqueue_send@@9@9 004ad650     pjlib-i386-win32-vc8-debug-dynamic:ioqueue_select.obj
 0004:00001654       ?__LINE__Var@?0??pj_ioqueue_sendto@@9@9 004ad654     pjlib-i386-win32-vc8-debug-dynamic:ioqueue_select.obj
 0004:00001658       ?__LINE__Var@?0??pj_ioqueue_accept@@9@9 004ad658     pjlib-i386-win32-vc8-debug-dynamic:ioqueue_select.obj
 0004:0000165c       ?__LINE__Var@?0??pj_ioqueue_connect@@9@9 004ad65c     pjlib-i386-win32-vc8-debug-dynamic:ioqueue_select.obj
 0004:00001660       ?__LINE__Var@?0??pj_ioqueue_set_default_concurrency@@9@9 004ad660     pjlib-i386-win32-vc8-debug-dynamic:ioqueue_select.obj
 0004:00001664       ?__LINE__Var@?0??pj_ioqueue_set_concurrency@@9@9 004ad664     pjlib-i386-win32-vc8-debug-dynamic:ioqueue_select.obj
 0004:00001668       ?__LINE__Var@?0??pj_ioqueue_create@@9@9 004ad668     pjlib-i386-win32-vc8-debug-dynamic:ioqueue_select.obj
 0004:0000166c       ?__LINE__Var@?0??pj_ioqueue_destroy@@9@9 004ad66c     pjlib-i386-win32-vc8-debug-dynamic:ioqueue_select.obj
 0004:00001670       ?__LINE__Var@?0??pj_ioqueue_register_sock2@@9@9 004ad670     pjlib-i386-win32-vc8-debug-dynamic:ioqueue_select.obj
 0004:00001674       ?__LINE__Var@?0??decrement_counter@@9@9 004ad674     pjlib-i386-win32-vc8-debug-dynamic:ioqueue_select.obj
 0004:00001678       ?__LINE__Var@?0??pj_ioqueue_unregister@@9@9 004ad678     pjlib-i386-win32-vc8-debug-dynamic:ioqueue_select.obj
 0004:0000167c       ?__LINE__Var@?0??ioqueue_remove_from_set@@9@9 004ad67c     pjlib-i386-win32-vc8-debug-dynamic:ioqueue_select.obj
 0004:00001680       ?__LINE__Var@?0??ioqueue_add_to_set@@9@9 004ad680     pjlib-i386-win32-vc8-debug-dynamic:ioqueue_select.obj
 0004:00001684       ?__LINE__Var@?0??scan_closing_keys@@9@9 004ad684     pjlib-i386-win32-vc8-debug-dynamic:ioqueue_select.obj
 0004:00001688       ?__LINE__Var@?0??pj_ioqueue_poll@@9@9 004ad688     pjlib-i386-win32-vc8-debug-dynamic:ioqueue_select.obj
 0004:0000168c       ?__LINE__Var@?0??pj_inet_aton@@9@9 004ad68c     pjlib-i386-win32-vc8-debug-dynamic:sock_bsd.obj
 0004:00001690       ?__LINE__Var@?0??pj_inet_pton@@9@9 004ad690     pjlib-i386-win32-vc8-debug-dynamic:sock_bsd.obj
 0004:00001694       ?__LINE__Var@?0??pj_inet_ntop@@9@9 004ad694     pjlib-i386-win32-vc8-debug-dynamic:sock_bsd.obj
 0004:00001698       ?__LINE__Var@?0??pj_gethostname@@9@9 004ad698     pjlib-i386-win32-vc8-debug-dynamic:sock_bsd.obj
 0004:0000169c       ?__LINE__Var@?0??pj_sock_socket@@9@9 004ad69c     pjlib-i386-win32-vc8-debug-dynamic:sock_bsd.obj
 0004:000016a0       ?__LINE__Var@?0??pj_sock_bind@@9@9 004ad6a0     pjlib-i386-win32-vc8-debug-dynamic:sock_bsd.obj
 0004:000016a4       ?__LINE__Var@?0??pj_sock_bind_in@@9@9 004ad6a4     pjlib-i386-win32-vc8-debug-dynamic:sock_bsd.obj
 0004:000016a8       ?__LINE__Var@?0??pj_sock_close@@9@9 004ad6a8     pjlib-i386-win32-vc8-debug-dynamic:sock_bsd.obj
 0004:000016ac       ?__LINE__Var@?0??pj_sock_getpeername@@9@9 004ad6ac     pjlib-i386-win32-vc8-debug-dynamic:sock_bsd.obj
 0004:000016b0       ?__LINE__Var@?0??pj_sock_getsockname@@9@9 004ad6b0     pjlib-i386-win32-vc8-debug-dynamic:sock_bsd.obj
 0004:000016b4       ?__LINE__Var@?0??pj_sock_send@@9@9 004ad6b4     pjlib-i386-win32-vc8-debug-dynamic:sock_bsd.obj
 0004:000016b8       ?__LINE__Var@?0??pj_sock_sendto@@9@9 004ad6b8     pjlib-i386-win32-vc8-debug-dynamic:sock_bsd.obj
 0004:000016bc       ?__LINE__Var@?0??pj_sock_recv@@9@9 004ad6bc     pjlib-i386-win32-vc8-debug-dynamic:sock_bsd.obj
 0004:000016c0       ?__LINE__Var@?0??pj_sock_recvfrom@@9@9 004ad6c0     pjlib-i386-win32-vc8-debug-dynamic:sock_bsd.obj
 0004:000016c4       ?__LINE__Var@?0??pj_sock_getsockopt@@9@9 004ad6c4     pjlib-i386-win32-vc8-debug-dynamic:sock_bsd.obj
 0004:000016c8       ?__LINE__Var@?0??pj_sock_setsockopt@@9@9 004ad6c8     pjlib-i386-win32-vc8-debug-dynamic:sock_bsd.obj
 0004:000016cc       ?__LINE__Var@?0??pj_sock_setsockopt_params@@9@9 004ad6cc     pjlib-i386-win32-vc8-debug-dynamic:sock_bsd.obj
 0004:000016d0       ?__LINE__Var@?0??pj_sock_connect@@9@9 004ad6d0     pjlib-i386-win32-vc8-debug-dynamic:sock_bsd.obj
 0004:000016d4       ?__LINE__Var@?0??pj_sock_shutdown@@9@9 004ad6d4     pjlib-i386-win32-vc8-debug-dynamic:sock_bsd.obj
 0004:000016d8       ?__LINE__Var@?0??pj_sock_listen@@9@9 004ad6d8     pjlib-i386-win32-vc8-debug-dynamic:sock_bsd.obj
 0004:000016dc       ?__LINE__Var@?0??pj_sock_accept@@9@9 004ad6dc     pjlib-i386-win32-vc8-debug-dynamic:sock_bsd.obj
 0004:000016e0       ?__LINE__Var@?0??pj_file_exists@@9@9 004ad6e0     pjlib-i386-win32-vc8-debug-dynamic:file_access_win32.obj
 0004:000016e4       ?__LINE__Var@?0??pj_file_size@@9@9 004ad6e4     pjlib-i386-win32-vc8-debug-dynamic:file_access_win32.obj
 0004:000016e8       ?__LINE__Var@?0??pj_file_delete@@9@9 004ad6e8     pjlib-i386-win32-vc8-debug-dynamic:file_access_win32.obj
 0004:000016ec       ?__LINE__Var@?0??pj_file_move@@9@9 004ad6ec     pjlib-i386-win32-vc8-debug-dynamic:file_access_win32.obj
 0004:000016f0       ?__LINE__Var@?0??pj_file_getstat@@9@9 004ad6f0     pjlib-i386-win32-vc8-debug-dynamic:file_access_win32.obj
 0004:000016f4       ?__LINE__Var@?0??pj_file_open@@9@9 004ad6f4     pjlib-i386-win32-vc8-debug-dynamic:file_io_win32.obj
 0004:000016f8       ?__LINE__Var@?0??pj_file_setpos@@9@9 004ad6f8     pjlib-i386-win32-vc8-debug-dynamic:file_io_win32.obj
 0004:000016fc       ?__LINE__Var@?0??pj_array_erase@@9@9 004ad6fc     pjlib-i386-win32-vc8-debug-dynamic:array.obj
 0004:00001704       ?__LINE__Var@?0??pj_throw_exception_@@9@9 004ad704     pjlib-i386-win32-vc8-debug-dynamic:except.obj
 0004:00001708       ?__LINE__Var@?0??pj_push_exception_handler_@@9@9 004ad708     pjlib-i386-win32-vc8-debug-dynamic:except.obj
 0004:0000170c       ?__LINE__Var@?0??pj_exception_id_free@@9@9 004ad70c     pjlib-i386-win32-vc8-debug-dynamic:except.obj
 0004:00001710       ?__LINE__Var@?0??pj_exception_id_name@@9@9 004ad710     pjlib-i386-win32-vc8-debug-dynamic:except.obj
 0004:0000175c       ?__LINE__Var@?0??create_mutex_lock@@9@9 004ad75c     pjlib-i386-win32-vc8-debug-dynamic:lock.obj
 0004:00001760       ?__LINE__Var@?0??pj_lock_create_null_mutex@@9@9 004ad760     pjlib-i386-win32-vc8-debug-dynamic:lock.obj
 0004:00001764       ?__LINE__Var@?0??pj_lock_create_semaphore@@9@9 004ad764     pjlib-i386-win32-vc8-debug-dynamic:lock.obj
 0004:00001768       ?__LINE__Var@?0??pj_lock_acquire@@9@9 004ad768     pjlib-i386-win32-vc8-debug-dynamic:lock.obj
 0004:0000176c       ?__LINE__Var@?0??pj_lock_tryacquire@@9@9 004ad76c     pjlib-i386-win32-vc8-debug-dynamic:lock.obj
 0004:00001770       ?__LINE__Var@?0??pj_lock_release@@9@9 004ad770     pjlib-i386-win32-vc8-debug-dynamic:lock.obj
 0004:00001774       ?__LINE__Var@?0??pj_lock_destroy@@9@9 004ad774     pjlib-i386-win32-vc8-debug-dynamic:lock.obj
 0004:00001778       ?__LINE__Var@?0??grp_lock_set_owner_thread@@9@9 004ad778     pjlib-i386-win32-vc8-debug-dynamic:lock.obj
 0004:0000177c       ?__LINE__Var@?0??grp_lock_unset_owner_thread@@9@9 004ad77c     pjlib-i386-win32-vc8-debug-dynamic:lock.obj
 0004:00001780       ?__LINE__Var@?0??grp_lock_acquire@@9@9 004ad780     pjlib-i386-win32-vc8-debug-dynamic:lock.obj
 0004:00001784       ?__LINE__Var@?0??grp_lock_tryacquire@@9@9 004ad784     pjlib-i386-win32-vc8-debug-dynamic:lock.obj
 0004:00001788       ?__LINE__Var@?0??pj_grp_lock_create@@9@9 004ad788     pjlib-i386-win32-vc8-debug-dynamic:lock.obj
 0004:0000178c       ?__LINE__Var@?0??grp_lock_dec_ref@@9@9 004ad78c     pjlib-i386-win32-vc8-debug-dynamic:lock.obj
 0004:00001790       ?__LINE__Var@?0??pj_srand@@9@9 004ad790     pjlib-i386-win32-vc8-debug-dynamic:rand.obj
 0004:00001794       ?__LINE__Var@?0??pj_rand@@9@9 004ad794     pjlib-i386-win32-vc8-debug-dynamic:rand.obj
 0004:000017ac       ?__LINE__Var@?0??pj_generate_unique_string@@9@9 004ad7ac     pjlib-i386-win32-vc8-debug-dynamic:guid_win32.obj
 0004:000017b0       _PJ_VERSION                004ad7b0     pjlib-i386-win32-vc8-debug-dynamic:config.obj
 0004:000017c0       ?__LINE__Var@?0??stack_alloc@@9@9 004ad7c0     pjlib-i386-win32-vc8-debug-dynamic:pool_buf.obj
 0004:000017c4       ?__LINE__Var@?0??pj_pool_create_on_buf@@9@9 004ad7c4     pjlib-i386-win32-vc8-debug-dynamic:pool_buf.obj
 0004:000017c8       ?__LINE__Var@?0??pj_log_write@@9@9 004ad7c8     pjlib-i386-win32-vc8-debug-dynamic:log_writer_stdout.obj
 0004:000017cc       ?__LINE__Var@?0??enum_ipv4_interface@@9@9 004ad7cc     pjlib-i386-win32-vc8-debug-dynamic:ip_helper_win32.obj
 0004:000017d0       ?__LINE__Var@?0??pj_enum_ip_interface@@9@9 004ad7d0     pjlib-i386-win32-vc8-debug-dynamic:ip_helper_win32.obj
 0004:000017d4       ?__LINE__Var@?0??pj_enum_ip_route@@9@9 004ad7d4     pjlib-i386-win32-vc8-debug-dynamic:ip_helper_win32.obj
 0004:000017d8       ?__LINE__Var@?0??pj_gethostbyname@@9@9 004ad7d8     pjlib-i386-win32-vc8-debug-dynamic:addr_resolv_sock.obj
 0004:000017dc       ?__LINE__Var@?0??pj_getaddrinfo@@9@9 004ad7dc     pjlib-i386-win32-vc8-debug-dynamic:addr_resolv_sock.obj
 0004:000017e0       ?__LINE__Var@?0??pj_time_val_normalize@@9@9 004ad7e0     pjlib-i386-win32-vc8-debug-dynamic:types.obj
 0004:000017e4       ?__LINE__Var@?0??PJ_FD_ZERO@@9@9 004ad7e4     pjlib-i386-win32-vc8-debug-dynamic:sock_select.obj
 0004:000017e8       ?__LINE__Var@?0??PJ_FD_SET@@9@9 004ad7e8     pjlib-i386-win32-vc8-debug-dynamic:sock_select.obj
 0004:000017ec       ?__LINE__Var@?0??PJ_FD_CLR@@9@9 004ad7ec     pjlib-i386-win32-vc8-debug-dynamic:sock_select.obj
 0004:000017f0       ?__LINE__Var@?0??PJ_FD_ISSET@@9@9 004ad7f0     pjlib-i386-win32-vc8-debug-dynamic:sock_select.obj
 0004:000017f4       ?__LINE__Var@?0??pj_sock_select@@9@9 004ad7f4     pjlib-i386-win32-vc8-debug-dynamic:sock_select.obj
 0004:0000182c       _mod_srtp                  004ad82c     libsrtp-i386-win32-vc8-debug-dynamic:srtp.obj
 0004:0000183c       _mod_alloc                 004ad83c     libsrtp-i386-win32-vc8-debug-dynamic:alloc.obj
 0004:00001848       _octet_weight              004ad848     libsrtp-i386-win32-vc8-debug-dynamic:datatypes.obj
 0004:00001d14       _srtp_mod_cipher           004add14     libsrtp-i386-win32-vc8-debug-dynamic:cipher.obj
 0004:00001d20       _srtp_mod_auth             004add20     libsrtp-i386-win32-vc8-debug-dynamic:auth.obj
 0004:00001d2c       _srtp_mod_crypto_kernel    004add2c     libsrtp-i386-win32-vc8-debug-dynamic:crypto_kernel.obj
 0004:00001d38       _mod_stat                  004add38     libsrtp-i386-win32-vc8-debug-dynamic:stat.obj
 0004:00001d44       _srtp_mod_aes_icm          004add44     libsrtp-i386-win32-vc8-debug-dynamic:aes_icm.obj
 0004:00001d50       _srtp_mod_hmac             004add50     libsrtp-i386-win32-vc8-debug-dynamic:hmac.obj
 0004:00001d5c       _srtp_mod_sha1             004add5c     libsrtp-i386-win32-vc8-debug-dynamic:sha1.obj
 0004:00001d64       _SHA_K0                    004add64     libsrtp-i386-win32-vc8-debug-dynamic:sha1.obj
 0004:00001d68       _SHA_K1                    004add68     libsrtp-i386-win32-vc8-debug-dynamic:sha1.obj
 0004:00001d6c       _SHA_K2                    004add6c     libsrtp-i386-win32-vc8-debug-dynamic:sha1.obj
 0004:00001d70       _SHA_K3                    004add70     libsrtp-i386-win32-vc8-debug-dynamic:sha1.obj
 0004:00001d78       ___security_cookie_complement 004add78     MSVCRTD:gs_cookie.obj
 0004:00001d7c       ___security_cookie         004add7c     MSVCRTD:gs_cookie.obj
 0004:00001d90       __fltused                  004add90     MSVCRTD:fltused.obj
 0004:00001da0       ___scrt_native_dllmain_reason 004adda0     MSVCRTD:utility.obj
 0004:00001da4       ___scrt_default_matherr    004adda4     MSVCRTD:matherr.obj
 0004:00001da8       ___isa_enabled             004adda8     MSVCRTD:cpu_disp.obj
 0004:00001dac       ___scrt_ucrt_dll_is_in_use 004addac     MSVCRTD:ucrt_stubs.obj
 0004:00002afc       _pj_optarg                 004aeafc     pjlib-util-i386-win32-vc8-debug-dynamic:getopt.obj
 0004:00002f68       _err_level                 004aef68     libsrtp-i386-win32-vc8-debug-dynamic:srtp_err.obj
 0004:00002f6c       _crypto_kernel             004aef6c     libsrtp-i386-win32-vc8-debug-dynamic:crypto_kernel.obj
 0004:00003364       ___scrt_current_native_startup_state 004af364     MSVCRTD:utility.obj
 0004:00003368       ___scrt_native_startup_lock 004af368     MSVCRTD:utility.obj
 0004:00003390       ?__type_info_root_node@@3U__type_info_node@@A 004af390     MSVCRTD:tncleanup.obj
 0004:000033a0       ?_OptionsStorage@?1??__local_stdio_printf_options@@9@4_KA 004af3a0     MSVCRTD:default_local_stdio_options.obj
 0004:000033b0       ?_OptionsStorage@?1??__local_stdio_scanf_options@@9@4_KA 004af3b0     MSVCRTD:default_local_stdio_options.obj
 0004:000033bc       ___scrt_debugger_hook_flag 004af3bc     MSVCRTD:utility_desktop.obj
 0004:000033c0       ___isa_available           004af3c0     MSVCRTD:cpu_disp.obj
 0004:000033c4       ___favor                   004af3c4     MSVCRTD:cpu_disp.obj
 0004:000033d0       ?_OptionsStorage@?1??__local_stdio_printf_options@@9@9 004af3d0     <common>
 0004:000033e4       _PJ_NO_MEMORY_EXCEPTION    004af3e4     <common>
 0004:00003400       _bit_string                004af400     <common>
 0004:000038d8       ?_OptionsStorage@?1??__local_stdio_scanf_options@@9@9 004af8d8     <common>
 0004:000038ec       ___dyn_tls_dtor_callback   004af8ec     <common>
 0004:000038f8       ___dyn_tls_init_callback   004af8f8     <common>
 0005:00000000       __imp__FileTimeToLocalFileTime@8 004b0000     kernel32:KERNEL32.dll
 0005:00000004       __imp__GetModuleHandleW@4  004b0004     kernel32:KERNEL32.dll
 0005:00000008       __imp__GetStartupInfoW@4   004b0008     kernel32:KERNEL32.dll
 0005:0000000c       __imp__IsDebuggerPresent@0 004b000c     kernel32:KERNEL32.dll
 0005:00000010       __imp__InitializeSListHead@4 004b0010     kernel32:KERNEL32.dll
 0005:00000014       __imp__GetSystemTimeAsFileTime@4 004b0014     kernel32:KERNEL32.dll
 0005:00000018       __imp__IsProcessorFeaturePresent@4 004b0018     kernel32:KERNEL32.dll
 0005:0000001c       __imp__TerminateProcess@8  004b001c     kernel32:KERNEL32.dll
 0005:00000020       __imp__GetCurrentProcess@0 004b0020     kernel32:KERNEL32.dll
 0005:00000024       __imp__SetUnhandledExceptionFilter@4 004b0024     kernel32:KERNEL32.dll
 0005:00000028       __imp__UnhandledExceptionFilter@4 004b0028     kernel32:KERNEL32.dll
 0005:0000002c       __imp__LoadLibraryA@4      004b002c     kernel32:KERNEL32.dll
 0005:00000030       __imp__GetProcAddress@8    004b0030     kernel32:KERNEL32.dll
 0005:00000034       __imp__FreeLibrary@4       004b0034     kernel32:KERNEL32.dll
 0005:00000038       __imp__QueryPerformanceFrequency@4 004b0038     kernel32:KERNEL32.dll
 0005:0000003c       __imp__QueryPerformanceCounter@4 004b003c     kernel32:KERNEL32.dll
 0005:00000040       __imp__WriteFile@20        004b0040     kernel32:KERNEL32.dll
 0005:00000044       __imp__SetFilePointer@16   004b0044     kernel32:KERNEL32.dll
 0005:00000048       __imp__ReadFile@20         004b0048     kernel32:KERNEL32.dll
 0005:0000004c       __imp__FlushFileBuffers@4  004b004c     kernel32:KERNEL32.dll
 0005:00000050       __imp__MoveFileExA@12      004b0050     kernel32:KERNEL32.dll
 0005:00000054       __imp__GetFileTime@16      004b0054     kernel32:KERNEL32.dll
 0005:00000058       __imp__GetFileSize@8       004b0058     kernel32:KERNEL32.dll
 0005:0000005c       __imp__DeleteFileA@4       004b005c     kernel32:KERNEL32.dll
 0005:00000060       __imp__CreateFileA@28      004b0060     kernel32:KERNEL32.dll
 0005:00000064       __imp__SystemTimeToFileTime@8 004b0064     kernel32:KERNEL32.dll
 0005:00000068       __imp__FileTimeToSystemTime@8 004b0068     kernel32:KERNEL32.dll
 0005:0000006c       __imp__GetLocalTime@4      004b006c     kernel32:KERNEL32.dll
 0005:00000070       __imp__FormatMessageA@28   004b0070     kernel32:KERNEL32.dll
 0005:00000074       __imp__SetLastError@4      004b0074     kernel32:KERNEL32.dll
 0005:00000078       __imp__SetConsoleTextAttribute@8 004b0078     kernel32:KERNEL32.dll
 0005:0000007c       __imp__GetConsoleScreenBufferInfo@8 004b007c     kernel32:KERNEL32.dll
 0005:00000080       __imp__CreateSemaphoreA@16 004b0080     kernel32:KERNEL32.dll
 0005:00000084       __imp__PulseEvent@4        004b0084     kernel32:KERNEL32.dll
 0005:00000088       __imp__TlsFree@4           004b0088     kernel32:KERNEL32.dll
 0005:0000008c       __imp__TlsSetValue@8       004b008c     kernel32:KERNEL32.dll
 0005:00000090       __imp__TlsGetValue@4       004b0090     kernel32:KERNEL32.dll
 0005:00000094       __imp__TlsAlloc@0          004b0094     kernel32:KERNEL32.dll
 0005:00000098       __imp__ResumeThread@4      004b0098     kernel32:KERNEL32.dll
 0005:0000009c       __imp__GetThreadPriority@4 004b009c     kernel32:KERNEL32.dll
 0005:000000a0       __imp__GetCurrentThreadId@0 004b00a0     kernel32:KERNEL32.dll
 0005:000000a4       __imp__CreateThread@24     004b00a4     kernel32:KERNEL32.dll
 0005:000000a8       __imp__GetCurrentProcessId@0 004b00a8     kernel32:KERNEL32.dll
 0005:000000ac       __imp__Sleep@4             004b00ac     kernel32:KERNEL32.dll
 0005:000000b0       __imp__WaitForSingleObject@8 004b00b0     kernel32:KERNEL32.dll
 0005:000000b4       __imp__ReleaseSemaphore@12 004b00b4     kernel32:KERNEL32.dll
 0005:000000b8       __imp__ResetEvent@4        004b00b8     kernel32:KERNEL32.dll
 0005:000000bc       __imp__DeleteCriticalSection@4 004b00bc     kernel32:KERNEL32.dll
 0005:000000c0       __imp__TryEnterCriticalSection@4 004b00c0     kernel32:KERNEL32.dll
 0005:000000c4       __imp__LeaveCriticalSection@4 004b00c4     kernel32:KERNEL32.dll
 0005:000000c8       __imp__EnterCriticalSection@4 004b00c8     kernel32:KERNEL32.dll
 0005:000000cc       __imp__InitializeCriticalSection@4 004b00cc     kernel32:KERNEL32.dll
 0005:000000d0       __imp__GetLastError@0      004b00d0     kernel32:KERNEL32.dll
 0005:000000d4       __imp__GetStdHandle@4      004b00d4     kernel32:KERNEL32.dll
 0005:000000d8       __imp__WaitForMultipleObjects@16 004b00d8     kernel32:KERNEL32.dll
 0005:000000dc       __imp__SetThreadPriority@8 004b00dc     kernel32:KERNEL32.dll
 0005:000000e0       __imp__GetCurrentThread@0  004b00e0     kernel32:KERNEL32.dll
 0005:000000e4       __imp__CreateEventA@16     004b00e4     kernel32:KERNEL32.dll
 0005:000000e8       __imp__SetEvent@4          004b00e8     kernel32:KERNEL32.dll
 0005:000000ec       __imp__CloseHandle@4       004b00ec     kernel32:KERNEL32.dll
 0005:000000f0       \177KERNEL32_NULL_THUNK_DATA 004b00f0     kernel32:KERNEL32.dll
 0005:0000014c       __imp___except_handler4_common 004b014c     vcruntimed:VCRUNTIME140D.dll
 0005:00000150       __imp__memcpy              004b0150     vcruntimed:VCRUNTIME140D.dll
 0005:00000154       __imp__memset              004b0154     vcruntimed:VCRUNTIME140D.dll
 0005:00000158       __imp___setjmp3            004b0158     vcruntimed:VCRUNTIME140D.dll
 0005:0000015c       __imp__memmove             004b015c     vcruntimed:VCRUNTIME140D.dll
 0005:00000160       __imp__memchr              004b0160     vcruntimed:VCRUNTIME140D.dll
 0005:00000164       __imp__strchr              004b0164     vcruntimed:VCRUNTIME140D.dll
 0005:00000168       __imp__memcmp              004b0168     vcruntimed:VCRUNTIME140D.dll
 0005:0000016c       __imp__longjmp             004b016c     vcruntimed:VCRUNTIME140D.dll
 0005:00000170       __imp____std_type_info_destroy_list 004b0170     vcruntimed:VCRUNTIME140D.dll
 0005:00000174       \177VCRUNTIME140D_NULL_THUNK_DATA 004b0174     vcruntimed:VCRUNTIME140D.dll
 0005:000001a8       __imp__waveOutRestart@4    004b01a8     winmm:WINMM.dll
 0005:000001ac       __imp__waveOutPause@4      004b01ac     winmm:WINMM.dll
 0005:000001b0       __imp__waveOutWrite@12     004b01b0     winmm:WINMM.dll
 0005:000001b4       __imp__waveOutUnprepareHeader@12 004b01b4     winmm:WINMM.dll
 0005:000001b8       __imp__waveOutPrepareHeader@12 004b01b8     winmm:WINMM.dll
 0005:000001bc       __imp__waveOutClose@4      004b01bc     winmm:WINMM.dll
 0005:000001c0       __imp__waveOutReset@4      004b01c0     winmm:WINMM.dll
 0005:000001c4       __imp__waveOutSetVolume@8  004b01c4     winmm:WINMM.dll
 0005:000001c8       __imp__waveOutGetVolume@8  004b01c8     winmm:WINMM.dll
 0005:000001cc       __imp__waveOutGetDevCapsA@12 004b01cc     winmm:WINMM.dll
 0005:000001d0       __imp__waveOutGetNumDevs@0 004b01d0     winmm:WINMM.dll
 0005:000001d4       __imp__waveInGetErrorTextA@12 004b01d4     winmm:WINMM.dll
 0005:000001d8       __imp__waveOutGetErrorTextA@12 004b01d8     winmm:WINMM.dll
 0005:000001dc       __imp__waveInGetNumDevs@0  004b01dc     winmm:WINMM.dll
 0005:000001e0       __imp__waveInGetDevCapsA@12 004b01e0     winmm:WINMM.dll
 0005:000001e4       __imp__waveInOpen@24       004b01e4     winmm:WINMM.dll
 0005:000001e8       __imp__waveInClose@4       004b01e8     winmm:WINMM.dll
 0005:000001ec       __imp__waveInPrepareHeader@12 004b01ec     winmm:WINMM.dll
 0005:000001f0       __imp__waveInUnprepareHeader@12 004b01f0     winmm:WINMM.dll
 0005:000001f4       __imp__waveInAddBuffer@12  004b01f4     winmm:WINMM.dll
 0005:000001f8       __imp__waveInStart@4       004b01f8     winmm:WINMM.dll
 0005:000001fc       __imp__waveInStop@4        004b01fc     winmm:WINMM.dll
 0005:00000200       __imp__waveInReset@4       004b0200     winmm:WINMM.dll
 0005:00000204       __imp__waveOutOpen@24      004b0204     winmm:WINMM.dll
 0005:00000208       \177WINMM_NULL_THUNK_DATA  004b0208     winmm:WINMM.dll
 0005:00000244       __imp__send@16             004b0244     ws2_32:WS2_32.dll
 0005:00000248       __imp__select@20           004b0248     ws2_32:WS2_32.dll
 0005:0000024c       __imp__recvfrom@24         004b024c     ws2_32:WS2_32.dll
 0005:00000250       __imp__recv@16             004b0250     ws2_32:WS2_32.dll
 0005:00000254       __imp__ntohs@4             004b0254     ws2_32:WS2_32.dll
 0005:00000258       __imp__ntohl@4             004b0258     ws2_32:WS2_32.dll
 0005:0000025c       __imp__listen@8            004b025c     ws2_32:WS2_32.dll
 0005:00000260       __imp__inet_ntoa@4         004b0260     ws2_32:WS2_32.dll
 0005:00000264       __imp__inet_addr@4         004b0264     ws2_32:WS2_32.dll
 0005:00000268       __imp__htons@4             004b0268     ws2_32:WS2_32.dll
 0005:0000026c       __imp__htonl@4             004b026c     ws2_32:WS2_32.dll
 0005:00000270       __imp__getsockopt@20       004b0270     ws2_32:WS2_32.dll
 0005:00000274       __imp__getsockname@12      004b0274     ws2_32:WS2_32.dll
 0005:00000278       __imp__getpeername@12      004b0278     ws2_32:WS2_32.dll
 0005:0000027c       __imp__connect@12          004b027c     ws2_32:WS2_32.dll
 0005:00000280       __imp__closesocket@4       004b0280     ws2_32:WS2_32.dll
 0005:00000284       __imp__bind@12             004b0284     ws2_32:WS2_32.dll
 0005:00000288       __imp__accept@12           004b0288     ws2_32:WS2_32.dll
 0005:0000028c       __imp__ioctlsocket@12      004b028c     ws2_32:WS2_32.dll
 0005:00000290       __imp__WSASetLastError@4   004b0290     ws2_32:WS2_32.dll
 0005:00000294       __imp__WSAGetLastError@0   004b0294     ws2_32:WS2_32.dll
 0005:00000298       __imp__WSACleanup@0        004b0298     ws2_32:WS2_32.dll
 0005:0000029c       __imp__WSAStartup@8        004b029c     ws2_32:WS2_32.dll
 0005:000002a0       __imp__setsockopt@20       004b02a0     ws2_32:WS2_32.dll
 0005:000002a4       __imp__shutdown@8          004b02a4     ws2_32:WS2_32.dll
 0005:000002a8       __imp__gethostname@8       004b02a8     ws2_32:WS2_32.dll
 0005:000002ac       __imp__WSAIoctl@36         004b02ac     ws2_32:WS2_32.dll
 0005:000002b0       __imp__WSASocketA@24       004b02b0     ws2_32:WS2_32.dll
 0005:000002b4       __imp__WSAAddressToStringA@20 004b02b4     ws2_32:WS2_32.dll
 0005:000002b8       __imp__WSAStringToAddressA@20 004b02b8     ws2_32:WS2_32.dll
 0005:000002bc       __imp__gethostbyname@4     004b02bc     ws2_32:WS2_32.dll
 0005:000002c0       __imp____WSAFDIsSet@8      004b02c0     ws2_32:WS2_32.dll
 0005:000002c4       __imp__sendto@24           004b02c4     ws2_32:WS2_32.dll
 0005:000002c8       \177WS2_32_NULL_THUNK_DATA 004b02c8     ws2_32:WS2_32.dll
 0005:0000030c       __imp__CoCreateGuid@4      004b030c     ole32:ole32.dll
 0005:00000310       \177ole32_NULL_THUNK_DATA  004b0310     ole32:ole32.dll
 0005:0000033c       __imp____acrt_iob_func     004b033c     ucrtd:ucrtbased.dll
 0005:00000340       __imp__fgets               004b0340     ucrtd:ucrtbased.dll
 0005:00000344       __imp__puts                004b0344     ucrtd:ucrtbased.dll
 0005:00000348       __imp____stdio_common_vfprintf 004b0348     ucrtd:ucrtbased.dll
 0005:0000034c       __imp__atoi                004b034c     ucrtd:ucrtbased.dll
 0005:00000350       __imp__strtol              004b0350     ucrtd:ucrtbased.dll
 0005:00000354       __imp___wassert            004b0354     ucrtd:ucrtbased.dll
 0005:00000358       __imp__strlen              004b0358     ucrtd:ucrtbased.dll
 0005:0000035c       __imp____stdio_common_vsprintf 004b035c     ucrtd:ucrtbased.dll
 0005:00000360       __imp__strcpy              004b0360     ucrtd:ucrtbased.dll
 0005:00000364       __imp__strncpy             004b0364     ucrtd:ucrtbased.dll
 0005:00000368       __imp___stricmp            004b0368     ucrtd:ucrtbased.dll
 0005:0000036c       __imp__isdigit             004b036c     ucrtd:ucrtbased.dll
 0005:00000370       __imp__cos                 004b0370     ucrtd:ucrtbased.dll
 0005:00000374       __imp__strcmp              004b0374     ucrtd:ucrtbased.dll
 0005:00000378       __imp__strncmp             004b0378     ucrtd:ucrtbased.dll
 0005:0000037c       __imp__isxdigit            004b037c     ucrtd:ucrtbased.dll
 0005:00000380       __imp___strnicmp           004b0380     ucrtd:ucrtbased.dll
 0005:00000384       __imp__free                004b0384     ucrtd:ucrtbased.dll
 0005:00000388       __imp__malloc              004b0388     ucrtd:ucrtbased.dll
 0005:0000038c       __imp__isspace             004b038c     ucrtd:ucrtbased.dll
 0005:00000390       __imp__fmod                004b0390     ucrtd:ucrtbased.dll
 0005:00000394       __imp__srand               004b0394     ucrtd:ucrtbased.dll
 0005:00000398       __imp__rand                004b0398     ucrtd:ucrtbased.dll
 0005:0000039c       __imp__calloc              004b039c     ucrtd:ucrtbased.dll
 0005:000003a0       __imp__exp                 004b03a0     ucrtd:ucrtbased.dll
 0005:000003a4       __imp__sqrt                004b03a4     ucrtd:ucrtbased.dll
 0005:000003a8       __imp__fabs                004b03a8     ucrtd:ucrtbased.dll
 0005:000003ac       __imp__log                 004b03ac     ucrtd:ucrtbased.dll
 0005:000003b0       __imp__pow                 004b03b0     ucrtd:ucrtbased.dll
 0005:000003b4       __imp__floor               004b03b4     ucrtd:ucrtbased.dll
 0005:000003b8       __imp__atan                004b03b8     ucrtd:ucrtbased.dll
 0005:000003bc       __imp__sin                 004b03bc     ucrtd:ucrtbased.dll
 0005:000003c0       __imp____stdio_common_vsscanf 004b03c0     ucrtd:ucrtbased.dll
 0005:000003c4       __imp__clock               004b03c4     ucrtd:ucrtbased.dll
 0005:000003c8       __imp__exit                004b03c8     ucrtd:ucrtbased.dll
 0005:000003cc       __imp___seh_filter_exe     004b03cc     ucrtd:ucrtbased.dll
 0005:000003d0       __imp___set_app_type       004b03d0     ucrtd:ucrtbased.dll
 0005:000003d4       __imp____setusermatherr    004b03d4     ucrtd:ucrtbased.dll
 0005:000003d8       __imp___configure_narrow_argv 004b03d8     ucrtd:ucrtbased.dll
 0005:000003dc       __imp___initialize_narrow_environment 004b03dc     ucrtd:ucrtbased.dll
 0005:000003e0       __imp___get_initial_narrow_environment 004b03e0     ucrtd:ucrtbased.dll
 0005:000003e4       __imp___initterm           004b03e4     ucrtd:ucrtbased.dll
 0005:000003e8       __imp___initterm_e         004b03e8     ucrtd:ucrtbased.dll
 0005:000003ec       __imp___exit               004b03ec     ucrtd:ucrtbased.dll
 0005:000003f0       __imp___set_fmode          004b03f0     ucrtd:ucrtbased.dll
 0005:000003f4       __imp____p___argc          004b03f4     ucrtd:ucrtbased.dll
 0005:000003f8       __imp____p___argv          004b03f8     ucrtd:ucrtbased.dll
 0005:000003fc       __imp___cexit              004b03fc     ucrtd:ucrtbased.dll
 0005:00000400       __imp___c_exit             004b0400     ucrtd:ucrtbased.dll
 0005:00000404       __imp___register_thread_local_exe_atexit_callback 004b0404     ucrtd:ucrtbased.dll
 0005:00000408       __imp___configthreadlocale 004b0408     ucrtd:ucrtbased.dll
 0005:0000040c       __imp___set_new_mode       004b040c     ucrtd:ucrtbased.dll
 0005:00000410       __imp____p__commode        004b0410     ucrtd:ucrtbased.dll
 0005:00000414       __imp___except1            004b0414     ucrtd:ucrtbased.dll
 0005:00000418       __imp___seh_filter_dll     004b0418     ucrtd:ucrtbased.dll
 0005:0000041c       __imp___initialize_onexit_table 004b041c     ucrtd:ucrtbased.dll
 0005:00000420       __imp___register_onexit_function 004b0420     ucrtd:ucrtbased.dll
 0005:00000424       __imp___execute_onexit_table 004b0424     ucrtd:ucrtbased.dll
 0005:00000428       __imp___crt_atexit         004b0428     ucrtd:ucrtbased.dll
 0005:0000042c       __imp___crt_at_quick_exit  004b042c     ucrtd:ucrtbased.dll
 0005:00000430       __imp___controlfp_s        004b0430     ucrtd:ucrtbased.dll
 0005:00000434       __imp__terminate           004b0434     ucrtd:ucrtbased.dll
 0005:00000438       \177ucrtbased_NULL_THUNK_DATA 004b0438     ucrtd:ucrtbased.dll
 0005:00000494       __IMPORT_DESCRIPTOR_ole32  004b0494     ole32:ole32.dll
 0005:000004a8       __IMPORT_DESCRIPTOR_WS2_32 004b04a8     ws2_32:WS2_32.dll
 0005:000004bc       __IMPORT_DESCRIPTOR_WINMM  004b04bc     winmm:WINMM.dll
 0005:000004d0       __IMPORT_DESCRIPTOR_KERNEL32 004b04d0     kernel32:KERNEL32.dll
 0005:000004e4       __IMPORT_DESCRIPTOR_VCRUNTIME140D 004b04e4     vcruntimed:VCRUNTIME140D.dll
 0005:000004f8       __IMPORT_DESCRIPTOR_ucrtbased 004b04f8     ucrtd:ucrtbased.dll
 0005:0000050c       __NULL_IMPORT_DESCRIPTOR   004b050c     ole32:ole32.dll
 0006:00000000       ___guard_check_icall_fptr  004b2000     MSVCRTD:guard_support.obj

 entry point at        0002:00001310

 Static symbols

 0000:fff49000       .debug$S                   00400000     winmm:WINMM.dll
 0000:fff49000       .debug$S                   00400000     ucrtd:ucrtbased.dll
 0000:fff49000       .debug$S                   00400000     ucrtd:ucrtbased.dll
 0000:fff49000       .debug$S                   00400000     ucrtd:ucrtbased.dll
 0000:fff49000       .debug$S                   00400000     ucrtd:ucrtbased.dll
 0000:fff49000       .debug$S                   00400000     ucrtd:ucrtbased.dll
 0000:fff49000       .debug$S                   00400000     ucrtd:ucrtbased.dll
 0000:fff49000       .debug$S                   00400000     ucrtd:ucrtbased.dll
 0000:fff49000       .debug$S                   00400000     ucrtd:ucrtbased.dll
 0000:fff49000       .debug$S                   00400000     ucrtd:ucrtbased.dll
 0000:fff49000       .debug$S                   00400000     ucrtd:ucrtbased.dll
 0000:fff49000       .debug$S                   00400000     ucrtd:ucrtbased.dll
 0000:fff49000       .debug$S                   00400000     ucrtd:ucrtbased.dll
 0000:fff49000       .debug$S                   00400000     ucrtd:ucrtbased.dll
 0000:fff49000       .debug$S                   00400000     ucrtd:ucrtbased.dll
 0000:fff49000       .debug$S                   00400000     ucrtd:ucrtbased.dll
 0000:fff49000       .debug$S                   00400000     ucrtd:ucrtbased.dll
 0000:fff49000       .debug$S                   00400000     ucrtd:ucrtbased.dll
 0000:fff49000       .debug$S                   00400000     ucrtd:ucrtbased.dll
 0000:fff49000       .debug$S                   00400000     ucrtd:ucrtbased.dll
 0000:fff49000       .debug$S                   00400000     ucrtd:ucrtbased.dll
 0000:fff49000       .debug$S                   00400000     ucrtd:ucrtbased.dll
 0000:fff49000       .debug$S                   00400000     ucrtd:ucrtbased.dll
 0000:fff49000       .debug$S                   00400000     ucrtd:ucrtbased.dll
 0000:fff49000       .debug$S                   00400000     ucrtd:ucrtbased.dll
 0000:fff49000       .debug$S                   00400000     ucrtd:ucrtbased.dll
 0000:fff49000       .debug$S                   00400000     ucrtd:ucrtbased.dll
 0000:fff49000       .debug$S                   00400000     ucrtd:ucrtbased.dll
 0000:fff49000       .debug$S                   00400000     ucrtd:ucrtbased.dll
 0000:fff49000       .debug$S                   00400000     ucrtd:ucrtbased.dll
 0000:fff49000       .debug$S                   00400000     ucrtd:ucrtbased.dll
 0000:fff49000       .debug$S                   00400000     ucrtd:ucrtbased.dll
 0000:fff49000       .debug$S                   00400000     ucrtd:ucrtbased.dll
 0000:fff49000       .debug$S                   00400000     ucrtd:ucrtbased.dll
 0000:fff49000       .debug$S                   00400000     ucrtd:ucrtbased.dll
 0000:fff49000       .debug$S                   00400000     ucrtd:ucrtbased.dll
 0000:fff49000       .debug$S                   00400000     ucrtd:ucrtbased.dll
 0000:fff49000       .debug$S                   00400000     ucrtd:ucrtbased.dll
 0000:fff49000       .debug$S                   00400000     ucrtd:ucrtbased.dll
 0000:fff49000       .debug$S                   00400000     ucrtd:ucrtbased.dll
 0000:fff49000       .debug$S                   00400000     ucrtd:ucrtbased.dll
 0000:fff49000       .debug$S                   00400000     ucrtd:ucrtbased.dll
 0000:fff49000       .debug$S                   00400000     ucrtd:ucrtbased.dll
 0000:fff49000       .debug$S                   00400000     ucrtd:ucrtbased.dll
 0000:fff49000       .debug$S                   00400000     ucrtd:ucrtbased.dll
 0000:fff49000       .debug$S                   00400000     ucrtd:ucrtbased.dll
 0000:fff49000       .debug$S                   00400000     ucrtd:ucrtbased.dll
 0000:fff49000       .debug$S                   00400000     ucrtd:ucrtbased.dll
 0000:fff49000       .debug$S                   00400000     ucrtd:ucrtbased.dll
 0000:fff49000       .debug$S                   00400000     ucrtd:ucrtbased.dll
 0000:fff49000       .debug$S                   00400000     ucrtd:ucrtbased.dll
 0000:fff49000       .debug$S                   00400000     ucrtd:ucrtbased.dll
 0000:fff49000       .debug$S                   00400000     ucrtd:ucrtbased.dll
 0000:fff49000       .debug$S                   00400000     ucrtd:ucrtbased.dll
 0000:fff49000       .debug$S                   00400000     ucrtd:ucrtbased.dll
 0000:fff49000       .debug$S                   00400000     ucrtd:ucrtbased.dll
 0000:fff49000       .debug$S                   00400000     ucrtd:ucrtbased.dll
 0000:fff49000       .debug$S                   00400000     ucrtd:ucrtbased.dll
 0000:fff49000       .debug$S                   00400000     ucrtd:ucrtbased.dll
 0000:fff49000       .debug$S                   00400000     ucrtd:ucrtbased.dll
 0000:fff49000       .debug$S                   00400000     ucrtd:ucrtbased.dll
 0000:fff49000       .debug$S                   00400000     ucrtd:ucrtbased.dll
 0000:fff49000       .debug$S                   00400000     ucrtd:ucrtbased.dll
 0000:fff49000       .debug$S                   00400000     ucrtd:ucrtbased.dll
 0000:fff49000       .debug$S                   00400000     ws2_32:WS2_32.dll
 0000:fff49000       .debug$S                   00400000     vcruntimed:VCRUNTIME140D.dll
 0000:fff49000       .debug$S                   00400000     vcruntimed:VCRUNTIME140D.dll
 0000:fff49000       .debug$S                   00400000     vcruntimed:VCRUNTIME140D.dll
 0000:fff49000       .debug$S                   00400000     vcruntimed:VCRUNTIME140D.dll
 0000:fff49000       .debug$S                   00400000     vcruntimed:VCRUNTIME140D.dll
 0000:fff49000       .debug$S                   00400000     vcruntimed:VCRUNTIME140D.dll
 0000:fff49000       .debug$S                   00400000     vcruntimed:VCRUNTIME140D.dll
 0000:fff49000       .debug$S                   00400000     vcruntimed:VCRUNTIME140D.dll
 0000:fff49000       .debug$S                   00400000     vcruntimed:VCRUNTIME140D.dll
 0000:fff49000       .debug$S                   00400000     vcruntimed:VCRUNTIME140D.dll
 0000:fff49000       .debug$S                   00400000     ws2_32:WS2_32.dll
 0000:fff49000       .debug$S                   00400000     kernel32:KERNEL32.dll
 0000:fff49000       .debug$S                   00400000     kernel32:KERNEL32.dll
 0000:fff49000       .debug$S                   00400000     kernel32:KERNEL32.dll
 0000:fff49000       .debug$S                   00400000     kernel32:KERNEL32.dll
 0000:fff49000       .debug$S                   00400000     kernel32:KERNEL32.dll
 0000:fff49000       .debug$S                   00400000     kernel32:KERNEL32.dll
 0000:fff49000       .debug$S                   00400000     kernel32:KERNEL32.dll
 0000:fff49000       .debug$S                   00400000     kernel32:KERNEL32.dll
 0000:fff49000       .debug$S                   00400000     kernel32:KERNEL32.dll
 0000:fff49000       .debug$S                   00400000     kernel32:KERNEL32.dll
 0000:fff49000       .debug$S                   00400000     kernel32:KERNEL32.dll
 0000:fff49000       .debug$S                   00400000     kernel32:KERNEL32.dll
 0000:fff49000       .debug$S                   00400000     kernel32:KERNEL32.dll
 0000:fff49000       .debug$S                   00400000     kernel32:KERNEL32.dll
 0000:fff49000       .debug$S                   00400000     kernel32:KERNEL32.dll
 0000:fff49000       .debug$S                   00400000     kernel32:KERNEL32.dll
 0000:fff49000       .debug$S                   00400000     kernel32:KERNEL32.dll
 0000:fff49000       .debug$S                   00400000     kernel32:KERNEL32.dll
 0000:fff49000       .debug$S                   00400000     kernel32:KERNEL32.dll
 0000:fff49000       .debug$S                   00400000     kernel32:KERNEL32.dll
 0000:fff49000       .debug$S                   00400000     kernel32:KERNEL32.dll
 0000:fff49000       .debug$S                   00400000     kernel32:KERNEL32.dll
 0000:fff49000       .debug$S                   00400000     kernel32:KERNEL32.dll
 0000:fff49000       .debug$S                   00400000     kernel32:KERNEL32.dll
 0000:fff49000       .debug$S                   00400000     kernel32:KERNEL32.dll
 0000:fff49000       .debug$S                   00400000     kernel32:KERNEL32.dll
 0000:fff49000       .debug$S                   00400000     kernel32:KERNEL32.dll
 0000:fff49000       .debug$S                   00400000     kernel32:KERNEL32.dll
 0000:fff49000       .debug$S                   00400000     kernel32:KERNEL32.dll
 0000:fff49000       .debug$S                   00400000     kernel32:KERNEL32.dll
 0000:fff49000       .debug$S                   00400000     kernel32:KERNEL32.dll
 0000:fff49000       .debug$S                   00400000     kernel32:KERNEL32.dll
 0000:fff49000       .debug$S                   00400000     kernel32:KERNEL32.dll
 0000:fff49000       .debug$S                   00400000     kernel32:KERNEL32.dll
 0000:fff49000       .debug$S                   00400000     kernel32:KERNEL32.dll
 0000:fff49000       .debug$S                   00400000     kernel32:KERNEL32.dll
 0000:fff49000       .debug$S                   00400000     kernel32:KERNEL32.dll
 0000:fff49000       .debug$S                   00400000     kernel32:KERNEL32.dll
 0000:fff49000       .debug$S                   00400000     kernel32:KERNEL32.dll
 0000:fff49000       .debug$S                   00400000     kernel32:KERNEL32.dll
 0000:fff49000       .debug$S                   00400000     kernel32:KERNEL32.dll
 0000:fff49000       .debug$S                   00400000     kernel32:KERNEL32.dll
 0000:fff49000       .debug$S                   00400000     kernel32:KERNEL32.dll
 0000:fff49000       .debug$S                   00400000     kernel32:KERNEL32.dll
 0000:fff49000       .debug$S                   00400000     kernel32:KERNEL32.dll
 0000:fff49000       .debug$S                   00400000     kernel32:KERNEL32.dll
 0000:fff49000       .debug$S                   00400000     kernel32:KERNEL32.dll
 0000:fff49000       .debug$S                   00400000     kernel32:KERNEL32.dll
 0000:fff49000       .debug$S                   00400000     kernel32:KERNEL32.dll
 0000:fff49000       .debug$S                   00400000     kernel32:KERNEL32.dll
 0000:fff49000       .debug$S                   00400000     kernel32:KERNEL32.dll
 0000:fff49000       .debug$S                   00400000     kernel32:KERNEL32.dll
 0000:fff49000       .debug$S                   00400000     kernel32:KERNEL32.dll
 0000:fff49000       .debug$S                   00400000     kernel32:KERNEL32.dll
 0000:fff49000       .debug$S                   00400000     kernel32:KERNEL32.dll
 0000:fff49000       .debug$S                   00400000     kernel32:KERNEL32.dll
 0000:fff49000       .debug$S                   00400000     kernel32:KERNEL32.dll
 0000:fff49000       .debug$S                   00400000     kernel32:KERNEL32.dll
 0000:fff49000       .debug$S                   00400000     kernel32:KERNEL32.dll
 0000:fff49000       .debug$S                   00400000     kernel32:KERNEL32.dll
 0000:fff49000       .debug$S                   00400000     ws2_32:WS2_32.dll
 0000:fff49000       .debug$S                   00400000     winmm:WINMM.dll
 0000:fff49000       .debug$S                   00400000     winmm:WINMM.dll
 0000:fff49000       .debug$S                   00400000     winmm:WINMM.dll
 0000:fff49000       .debug$S                   00400000     winmm:WINMM.dll
 0000:fff49000       .debug$S                   00400000     ws2_32:WS2_32.dll
 0000:fff49000       .debug$S                   00400000     winmm:WINMM.dll
 0000:fff49000       .debug$S                   00400000     winmm:WINMM.dll
 0000:fff49000       .debug$S                   00400000     winmm:WINMM.dll
 0000:fff49000       .debug$S                   00400000     winmm:WINMM.dll
 0000:fff49000       .debug$S                   00400000     winmm:WINMM.dll
 0000:fff49000       .debug$S                   00400000     winmm:WINMM.dll
 0000:fff49000       .debug$S                   00400000     winmm:WINMM.dll
 0000:fff49000       .debug$S                   00400000     winmm:WINMM.dll
 0000:fff49000       .debug$S                   00400000     winmm:WINMM.dll
 0000:fff49000       .debug$S                   00400000     winmm:WINMM.dll
 0000:fff49000       .debug$S                   00400000     winmm:WINMM.dll
 0000:fff49000       .debug$S                   00400000     winmm:WINMM.dll
 0000:fff49000       .debug$S                   00400000     winmm:WINMM.dll
 0000:fff49000       .debug$S                   00400000     winmm:WINMM.dll
 0000:fff49000       .debug$S                   00400000     winmm:WINMM.dll
 0000:fff49000       .debug$S                   00400000     winmm:WINMM.dll
 0000:fff49000       .debug$S                   00400000     winmm:WINMM.dll
 0000:fff49000       .debug$S                   00400000     winmm:WINMM.dll
 0000:fff49000       .debug$S                   00400000     winmm:WINMM.dll
 0000:fff4e000       __guard_fids___guard_icall_checks_enforced 00400000     MSVCRTD:guard_support.obj
 0000:fff4e000       __guard_fids__             00400000     MSVCRTD:guard_support.obj
 0000:fff4e000       __guard_fids___except_handler4 00400000     MSVCRTD:chandler4gs.obj
 0000:fff4e000       __guard_fids____scrt_set_unhandled_exception_filter 00400000     MSVCRTD:utility_desktop.obj
 0000:fff49000       .debug$S                   00400000     ws2_32:WS2_32.dll
 0000:fff49000       .debug$S                   00400000     ws2_32:WS2_32.dll
 0000:fff49000       .debug$S                   00400000     ws2_32:WS2_32.dll
 0000:fff49000       .debug$S                   00400000     ws2_32:WS2_32.dll
 0000:fff49000       .debug$S                   00400000     ws2_32:WS2_32.dll
 0000:fff49000       .debug$S                   00400000     ws2_32:WS2_32.dll
 0000:fff49000       .debug$S                   00400000     ws2_32:WS2_32.dll
 0000:fff49000       .debug$S                   00400000     ws2_32:WS2_32.dll
 0000:fff49000       .debug$S                   00400000     ws2_32:WS2_32.dll
 0000:fff49000       .debug$S                   00400000     ws2_32:WS2_32.dll
 0000:fff49000       .debug$S                   00400000     ws2_32:WS2_32.dll
 0000:fff49000       .debug$S                   00400000     ws2_32:WS2_32.dll
 0000:fff49000       .debug$S                   00400000     ws2_32:WS2_32.dll
 0000:fff49000       .debug$S                   00400000     ws2_32:WS2_32.dll
 0000:fff49000       .debug$S                   00400000     ws2_32:WS2_32.dll
 0000:fff49000       .debug$S                   00400000     ws2_32:WS2_32.dll
 0000:fff49000       .debug$S                   00400000     ws2_32:WS2_32.dll
 0000:fff49000       .debug$S                   00400000     ws2_32:WS2_32.dll
 0000:fff49000       .debug$S                   00400000     ws2_32:WS2_32.dll
 0000:fff49000       .debug$S                   00400000     ws2_32:WS2_32.dll
 0000:fff49000       .debug$S                   00400000     ws2_32:WS2_32.dll
 0000:fff49000       .debug$S                   00400000     ws2_32:WS2_32.dll
 0000:fff49000       .debug$S                   00400000     ws2_32:WS2_32.dll
 0000:fff49000       .debug$S                   00400000     ws2_32:WS2_32.dll
 0000:fff49000       .debug$S                   00400000     ws2_32:WS2_32.dll
 0000:fff49000       .debug$S                   00400000     ws2_32:WS2_32.dll
 0000:fff49000       .debug$S                   00400000     ws2_32:WS2_32.dll
 0000:fff49000       .debug$S                   00400000     ws2_32:WS2_32.dll
 0000:fff49000       .debug$S                   00400000     ole32:ole32.dll
 0000:fff4e000       __guard_fids__             00400000     MSVCRTD:exe_main.obj
 0000:fff4e000       __guard_fids_?pre_c_initialization@@YAHXZ 00400000     MSVCRTD:exe_main.obj
 0000:fff49000       .debug$S                   00400000     ws2_32:WS2_32.dll
 0000:fff4e004       __guard_fids__             00400004     MSVCRTD:exe_main.obj
 0000:fff4e008       __guard_fids__             00400008     MSVCRTD:exe_main.obj
 0002:00002900       _PJMEDIA_PIA_SRATE         00431900 f   stereotest.obj
 0002:00002940       _PJMEDIA_PIA_CCNT          00431940 f   stereotest.obj
 0002:00002980       _PJMEDIA_PIA_BITS          00431980 f   stereotest.obj
 0002:000029c0       _pjmedia_endpt_create      004319c0 f   stereotest.obj
 0002:00002a10       _pjmedia_endpt_destroy     00431a10 f   stereotest.obj
 0002:00002a30       _app_perror                00431a30 f   stereotest.obj
 0002:00002dc8       $LN44                      00431dc8     stereotest.obj
 0002:00002de0       $LN43                      00431de0     stereotest.obj
 0002:00004320       _factory_init              00433320 f   pjmedia-audiodev-i386-win32-vc8-debug-dynamic:wmme_dev.obj
 0002:00004380       _factory_destroy           00433380 f   pjmedia-audiodev-i386-win32-vc8-debug-dynamic:wmme_dev.obj
 0002:000043e0       _factory_refresh           004333e0 f   pjmedia-audiodev-i386-win32-vc8-debug-dynamic:wmme_dev.obj
 0002:00004970       _factory_get_dev_count     00433970 f   pjmedia-audiodev-i386-win32-vc8-debug-dynamic:wmme_dev.obj
 0002:000049a0       _factory_get_dev_info      004339a0 f   pjmedia-audiodev-i386-win32-vc8-debug-dynamic:wmme_dev.obj
 0002:00004a40       _factory_default_param     00433a40 f   pjmedia-audiodev-i386-win32-vc8-debug-dynamic:wmme_dev.obj
 0002:00004c00       _factory_create_stream     00433c00 f   pjmedia-audiodev-i386-win32-vc8-debug-dynamic:wmme_dev.obj
 0002:00005080       _stream_get_param          00434080 f   pjmedia-audiodev-i386-win32-vc8-debug-dynamic:wmme_dev.obj
 0002:00005140       _stream_get_cap            00434140 f   pjmedia-audiodev-i386-win32-vc8-debug-dynamic:wmme_dev.obj
 0002:00005290       _stream_set_cap            00434290 f   pjmedia-audiodev-i386-win32-vc8-debug-dynamic:wmme_dev.obj
 0002:000053d0       _stream_start              004343d0 f   pjmedia-audiodev-i386-win32-vc8-debug-dynamic:wmme_dev.obj
 0002:000054c0       _stream_stop               004344c0 f   pjmedia-audiodev-i386-win32-vc8-debug-dynamic:wmme_dev.obj
 0002:000055f0       _stream_destroy            004345f0 f   pjmedia-audiodev-i386-win32-vc8-debug-dynamic:wmme_dev.obj
 0002:000058b0       _build_dev_info            004348b0 f   pjmedia-audiodev-i386-win32-vc8-debug-dynamic:wmme_dev.obj
 0002:00005b60       _get_dev_names             00434b60 f   pjmedia-audiodev-i386-win32-vc8-debug-dynamic:wmme_dev.obj
 0002:00005b80       _get_fmt_name              00434b80 f   pjmedia-audiodev-i386-win32-vc8-debug-dynamic:wmme_dev.obj
 0002:00005bf0       _init_capture_stream       00434bf0 f   pjmedia-audiodev-i386-win32-vc8-debug-dynamic:wmme_dev.obj
 0002:00005f40       _init_player_stream        00434f40 f   pjmedia-audiodev-i386-win32-vc8-debug-dynamic:wmme_dev.obj
 0002:000062d0       _init_waveformatex         004352d0 f   pjmedia-audiodev-i386-win32-vc8-debug-dynamic:wmme_dev.obj
 0002:00006490       _pj_bzero                  00435490 f   pjmedia-audiodev-i386-win32-vc8-debug-dynamic:wmme_dev.obj
 0002:000064c0       _pj_memcpy                 004354c0 f   pjmedia-audiodev-i386-win32-vc8-debug-dynamic:wmme_dev.obj
 0002:000064f0       _pj_memset                 004354f0 f   pjmedia-audiodev-i386-win32-vc8-debug-dynamic:wmme_dev.obj
 0002:00006520       _pj_pool_zalloc            00435520 f   pjmedia-audiodev-i386-win32-vc8-debug-dynamic:wmme_dev.obj
 0002:00006550       _pjmedia_format_init_audio 00435550 f   pjmedia-audiodev-i386-win32-vc8-debug-dynamic:wmme_dev.obj
 0002:000065d0       _pjmedia_frame_ext_append_subframe 004355d0 f   pjmedia-audiodev-i386-win32-vc8-debug-dynamic:wmme_dev.obj
 0002:000066b0       _pjmedia_frame_ext_copy_payload 004356b0 f   pjmedia-audiodev-i386-win32-vc8-debug-dynamic:wmme_dev.obj
 0002:00006770       _pjmedia_frame_ext_get_subframe 00435770 f   pjmedia-audiodev-i386-win32-vc8-debug-dynamic:wmme_dev.obj
 0002:00006880       _wmme_dev_thread           00435880 f   pjmedia-audiodev-i386-win32-vc8-debug-dynamic:wmme_dev.obj
 0002:000071f0       _pj_bzero                  004361f0 f   pjmedia-i386-win32-vc8-debug-dynamic:port.obj
 0002:00007220       _pjmedia_format_init_audio 00436220 f   pjmedia-i386-win32-vc8-debug-dynamic:port.obj
 0002:00007640       _good_number               00436640 f   pjmedia-i386-win32-vc8-debug-dynamic:endpoint.obj
 0002:00007710       _init_sdp_media            00436710 f   pjmedia-i386-win32-vc8-debug-dynamic:endpoint.obj
 0002:000079e0       _pj_bzero                  004369e0 f   pjmedia-i386-win32-vc8-debug-dynamic:endpoint.obj
 0002:00007a10       _pj_list_init              00436a10 f   pjmedia-i386-win32-vc8-debug-dynamic:endpoint.obj
 0002:00007a40       _pj_list_push_back         00436a40 f   pjmedia-i386-win32-vc8-debug-dynamic:endpoint.obj
 0002:00007a70       _pj_pool_zalloc            00436a70 f   pjmedia-i386-win32-vc8-debug-dynamic:endpoint.obj
 0002:00009450       _worker_proc               00438450 f   pjmedia-i386-win32-vc8-debug-dynamic:endpoint.obj
 0002:000094b0       _PJMEDIA_AFD_SPF           004384b0 f   pjmedia-i386-win32-vc8-debug-dynamic:sound_port.obj
 0002:000094f0       _PJMEDIA_SPF               004384f0 f   pjmedia-i386-win32-vc8-debug-dynamic:sound_port.obj
 0002:00009530       _pj_bzero                  00438530 f   pjmedia-i386-win32-vc8-debug-dynamic:sound_port.obj
 0002:00009560       _pj_memcpy                 00438560 f   pjmedia-i386-win32-vc8-debug-dynamic:sound_port.obj
 0002:00009590       _pj_pool_zalloc            00438590 f   pjmedia-i386-win32-vc8-debug-dynamic:sound_port.obj
 0002:0000a370       _play_cb                   00439370 f   pjmedia-i386-win32-vc8-debug-dynamic:sound_port.obj
 0002:0000a620       _play_cb_ext               00439620 f   pjmedia-i386-win32-vc8-debug-dynamic:sound_port.obj
 0002:0000a6b0       _rec_cb                    004396b0 f   pjmedia-i386-win32-vc8-debug-dynamic:sound_port.obj
 0002:0000a790       _rec_cb_ext                00439790 f   pjmedia-i386-win32-vc8-debug-dynamic:sound_port.obj
 0002:0000a810       _start_sound_device        00439810 f   pjmedia-i386-win32-vc8-debug-dynamic:sound_port.obj
 0002:0000ab90       _stop_sound_device         00439b90 f   pjmedia-i386-win32-vc8-debug-dynamic:sound_port.obj
 0002:0000ac20       _PJMEDIA_AFD_AVG_FSZ       00439c20 f   pjmedia-i386-win32-vc8-debug-dynamic:stereo_port.obj
 0002:0000ac50       _PJMEDIA_AFD_SPF           00439c50 f   pjmedia-i386-win32-vc8-debug-dynamic:stereo_port.obj
 0002:0000ac90       _PJMEDIA_FSZ               00439c90 f   pjmedia-i386-win32-vc8-debug-dynamic:stereo_port.obj
 0002:0000acc0       _PJMEDIA_PIA_AVG_FSZ       00439cc0 f   pjmedia-i386-win32-vc8-debug-dynamic:stereo_port.obj
 0002:0000ad30       _PJMEDIA_PIA_BITS          00439d30 f   pjmedia-i386-win32-vc8-debug-dynamic:stereo_port.obj
 0002:0000ad90       _PJMEDIA_PIA_CCNT          00439d90 f   pjmedia-i386-win32-vc8-debug-dynamic:stereo_port.obj
 0002:0000adf0       _PJMEDIA_PIA_SPF           00439df0 f   pjmedia-i386-win32-vc8-debug-dynamic:stereo_port.obj
 0002:0000ae60       _PJMEDIA_PIA_SRATE         00439e60 f   pjmedia-i386-win32-vc8-debug-dynamic:stereo_port.obj
 0002:0000aec0       _PJMEDIA_SPF               00439ec0 f   pjmedia-i386-win32-vc8-debug-dynamic:stereo_port.obj
 0002:0000af00       _pj_bzero                  00439f00 f   pjmedia-i386-win32-vc8-debug-dynamic:stereo_port.obj
 0002:0000af30       _pj_memcpy                 00439f30 f   pjmedia-i386-win32-vc8-debug-dynamic:stereo_port.obj
 0002:0000af60       _pj_pool_zalloc            00439f60 f   pjmedia-i386-win32-vc8-debug-dynamic:stereo_port.obj
 0002:0000af90       _pjmedia_convert_channel_1ton 00439f90 f   pjmedia-i386-win32-vc8-debug-dynamic:stereo_port.obj
 0002:0000b0d0       _pjmedia_convert_channel_nto1 0043a0d0 f   pjmedia-i386-win32-vc8-debug-dynamic:stereo_port.obj
 0002:0000b5a0       _stereo_destroy            0043a5a0 f   pjmedia-i386-win32-vc8-debug-dynamic:stereo_port.obj
 0002:0000b5f0       _stereo_get_frame          0043a5f0 f   pjmedia-i386-win32-vc8-debug-dynamic:stereo_port.obj
 0002:0000b820       _stereo_put_frame          0043a820 f   pjmedia-i386-win32-vc8-debug-dynamic:stereo_port.obj
 0002:0000b990       _create_file_port          0043a990 f   pjmedia-i386-win32-vc8-debug-dynamic:wav_player.obj
 0002:0000ba30       _file_get_frame            0043aa30 f   pjmedia-i386-win32-vc8-debug-dynamic:wav_player.obj
 0002:0000c000       _file_on_destroy           0043b000 f   pjmedia-i386-win32-vc8-debug-dynamic:wav_player.obj
 0002:0000c070       _fill_buffer               0043b070 f   pjmedia-i386-win32-vc8-debug-dynamic:wav_player.obj
 0002:0000c2f0       _pj_bzero                  0043b2f0 f   pjmedia-i386-win32-vc8-debug-dynamic:wav_player.obj
 0002:0000c320       _pj_memcpy                 0043b320 f   pjmedia-i386-win32-vc8-debug-dynamic:wav_player.obj
 0002:0000c350       _pj_memset                 0043b350 f   pjmedia-i386-win32-vc8-debug-dynamic:wav_player.obj
 0002:0000c380       _pj_pool_zalloc            0043b380 f   pjmedia-i386-win32-vc8-debug-dynamic:wav_player.obj
 0002:0000d1e0       _PJMEDIA_AFD_AVG_FSZ       0043c1e0 f   pjmedia-i386-win32-vc8-debug-dynamic:wav_writer.obj
 0002:0000d210       _PJMEDIA_FSZ               0043c210 f   pjmedia-i386-win32-vc8-debug-dynamic:wav_writer.obj
 0002:0000d240       _PJMEDIA_PIA_AVG_FSZ       0043c240 f   pjmedia-i386-win32-vc8-debug-dynamic:wav_writer.obj
 0002:0000d2b0       _PJMEDIA_PIA_SRATE         0043c2b0 f   pjmedia-i386-win32-vc8-debug-dynamic:wav_writer.obj
 0002:0000d310       _file_get_frame            0043c310 f   pjmedia-i386-win32-vc8-debug-dynamic:wav_writer.obj
 0002:0000d330       _file_on_destroy           0043c330 f   pjmedia-i386-win32-vc8-debug-dynamic:wav_writer.obj
 0002:0000d5e0       _file_put_frame            0043c5e0 f   pjmedia-i386-win32-vc8-debug-dynamic:wav_writer.obj
 0002:0000d870       _flush_buffer              0043c870 f   pjmedia-i386-win32-vc8-debug-dynamic:wav_writer.obj
 0002:0000d8d0       _pj_bzero                  0043c8d0 f   pjmedia-i386-win32-vc8-debug-dynamic:wav_writer.obj
 0002:0000d900       _pj_memcpy                 0043c900 f   pjmedia-i386-win32-vc8-debug-dynamic:wav_writer.obj
 0002:0000d930       _pj_pool_zalloc            0043c930 f   pjmedia-i386-win32-vc8-debug-dynamic:wav_writer.obj
 0002:0000e0c0       _get_cap_pointer           0043d0c0 f   pjmedia-i386-win32-vc8-debug-dynamic:audiodev.obj
 0002:0000e270       $LN20                      0043d270     pjmedia-i386-win32-vc8-debug-dynamic:audiodev.obj
 0002:0000e288       $LN19                      0043d288     pjmedia-i386-win32-vc8-debug-dynamic:audiodev.obj
 0002:0000e310       _lookup_dev                0043d310 f   pjmedia-i386-win32-vc8-debug-dynamic:audiodev.obj
 0002:0000e4c0       _make_global_index         0043d4c0 f   pjmedia-i386-win32-vc8-debug-dynamic:audiodev.obj
 0002:0000e5d0       _pj_bzero                  0043d5d0 f   pjmedia-i386-win32-vc8-debug-dynamic:audiodev.obj
 0002:0000e600       _pj_memcpy                 0043d600 f   pjmedia-i386-win32-vc8-debug-dynamic:audiodev.obj
 0002:0000f6e0       _pj_memcpy                 0043e6e0 f   pjmedia-i386-win32-vc8-debug-dynamic:format.obj
 0002:0000f7b0       _pj_bzero                  0043e7b0 f   pjmedia-i386-win32-vc8-debug-dynamic:codec.obj
 0002:0000f7e0       _pj_list_init              0043e7e0 f   pjmedia-i386-win32-vc8-debug-dynamic:codec.obj
 0002:0000f810       _pj_list_push_back         0043e810 f   pjmedia-i386-win32-vc8-debug-dynamic:codec.obj
 0002:0000f840       _pj_memcpy                 0043e840 f   pjmedia-i386-win32-vc8-debug-dynamic:codec.obj
 0002:0000f870       _pj_pool_zalloc            0043e870 f   pjmedia-i386-win32-vc8-debug-dynamic:codec.obj
 0002:00010ec0       _sort_codecs               0043fec0 f   pjmedia-i386-win32-vc8-debug-dynamic:codec.obj
 0002:00010fd0       _swap_codec                0043ffd0 f   pjmedia-i386-win32-vc8-debug-dynamic:codec.obj
 0002:00011070       _apply_media_direction     00440070 f   pjmedia-i386-win32-vc8-debug-dynamic:sdp.obj
 0002:000112e0       _init_sdp_parser           004402e0 f   pjmedia-i386-win32-vc8-debug-dynamic:sdp.obj
 0002:000113c0       _on_scanner_error          004403c0 f   pjmedia-i386-win32-vc8-debug-dynamic:sdp.obj
 0002:000113e0       _parse_attr                004403e0 f   pjmedia-i386-win32-vc8-debug-dynamic:sdp.obj
 0002:00011550       _parse_bandwidth_info      00440550 f   pjmedia-i386-win32-vc8-debug-dynamic:sdp.obj
 0002:000115f0       _parse_connection_info     004405f0 f   pjmedia-i386-win32-vc8-debug-dynamic:sdp.obj
 0002:000116a0       _parse_generic_line        004406a0 f   pjmedia-i386-win32-vc8-debug-dynamic:sdp.obj
 0002:00011720       _parse_media               00440720 f   pjmedia-i386-win32-vc8-debug-dynamic:sdp.obj
 0002:00011960       _parse_origin              00440960 f   pjmedia-i386-win32-vc8-debug-dynamic:sdp.obj
 0002:00011ae0       _parse_time                00440ae0 f   pjmedia-i386-win32-vc8-debug-dynamic:sdp.obj
 0002:00011bc0       _parse_version             00440bc0 f   pjmedia-i386-win32-vc8-debug-dynamic:sdp.obj
 0002:00011c40       _pj_bzero                  00440c40 f   pjmedia-i386-win32-vc8-debug-dynamic:sdp.obj
 0002:00011c70       _pj_isdigit                00440c70 f   pjmedia-i386-win32-vc8-debug-dynamic:sdp.obj
 0002:00011ca0       _pj_memcpy                 00440ca0 f   pjmedia-i386-win32-vc8-debug-dynamic:sdp.obj
 0002:00011cd0       _pj_pool_zalloc            00440cd0 f   pjmedia-i386-win32-vc8-debug-dynamic:sdp.obj
 0002:00011d00       _pj_scan_get_col           00440d00 f   pjmedia-i386-win32-vc8-debug-dynamic:sdp.obj
 0002:00011d30       _pj_scan_is_eof            00440d30 f   pjmedia-i386-win32-vc8-debug-dynamic:sdp.obj
 0002:00011d70       _pj_strset                 00440d70 f   pjmedia-i386-win32-vc8-debug-dynamic:sdp.obj
 0002:00013f08       $LN73                      00442f08     pjmedia-i386-win32-vc8-debug-dynamic:sdp.obj
 0002:00013f30       $LN72                      00442f30     pjmedia-i386-win32-vc8-debug-dynamic:sdp.obj
 0002:00014d50       _print_attr                00443d50 f   pjmedia-i386-win32-vc8-debug-dynamic:sdp.obj
 0002:00014e60       _print_bandw               00443e60 f   pjmedia-i386-win32-vc8-debug-dynamic:sdp.obj
 0002:00014f50       _print_connection_info     00443f50 f   pjmedia-i386-win32-vc8-debug-dynamic:sdp.obj
 0002:00014fd0       _print_media_desc          00443fd0 f   pjmedia-i386-win32-vc8-debug-dynamic:sdp.obj
 0002:00015310       _print_session             00444310 f   pjmedia-i386-win32-vc8-debug-dynamic:sdp.obj
 0002:00015840       _validate_sdp_conn         00444840 f   pjmedia-i386-win32-vc8-debug-dynamic:sdp.obj
 0002:00015b00       _clock_calc_next_tick      00444b00 f   pjmedia-i386-win32-vc8-debug-dynamic:clock_thread.obj
 0002:00015b90       _clock_thread              00444b90 f   pjmedia-i386-win32-vc8-debug-dynamic:clock_thread.obj
 0002:00015d50       _pj_add_timestamp32        00444d50 f   pjmedia-i386-win32-vc8-debug-dynamic:clock_thread.obj
 0002:00015d80       _pj_memcpy                 00444d80 f   pjmedia-i386-win32-vc8-debug-dynamic:clock_thread.obj
 0002:00015db0       _pj_set_timestamp32        00444db0 f   pjmedia-i386-win32-vc8-debug-dynamic:clock_thread.obj
 0002:000168f0       _pj_bzero                  004458f0 f   pjmedia-i386-win32-vc8-debug-dynamic:echo_common.obj
 0002:00016920       _pj_list_empty             00445920 f   pjmedia-i386-win32-vc8-debug-dynamic:echo_common.obj
 0002:00016960       _pj_list_init              00445960 f   pjmedia-i386-win32-vc8-debug-dynamic:echo_common.obj
 0002:00016990       _pj_list_push_back         00445990 f   pjmedia-i386-win32-vc8-debug-dynamic:echo_common.obj
 0002:000169c0       _pj_memcpy                 004459c0 f   pjmedia-i386-win32-vc8-debug-dynamic:echo_common.obj
 0002:000169f0       _pj_pool_zalloc            004459f0 f   pjmedia-i386-win32-vc8-debug-dynamic:echo_common.obj
 0002:00016a20       _pjmedia_copy_samples      00445a20 f   pjmedia-i386-win32-vc8-debug-dynamic:echo_common.obj
 0002:00017290       _pjmedia_zero_samples      00446290 f   pjmedia-i386-win32-vc8-debug-dynamic:echo_common.obj
 0002:00017320       _wave_hdr_swap_bytes       00446320 f   pjmedia-i386-win32-vc8-debug-dynamic:wave.obj
 0002:00017340       _transport_get_info        00446340 f   pjmedia-i386-win32-vc8-debug-dynamic:transport_srtp.obj
 0002:00017580       _transport_detach          00446580 f   pjmedia-i386-win32-vc8-debug-dynamic:transport_srtp.obj
 0002:00017680       _transport_send_rtp        00446680 f   pjmedia-i386-win32-vc8-debug-dynamic:transport_srtp.obj
 0002:000177d0       _transport_send_rtcp       004467d0 f   pjmedia-i386-win32-vc8-debug-dynamic:transport_srtp.obj
 0002:00017810       _transport_send_rtcp2      00446810 f   pjmedia-i386-win32-vc8-debug-dynamic:transport_srtp.obj
 0002:00017980       _transport_media_create    00446980 f   pjmedia-i386-win32-vc8-debug-dynamic:transport_srtp.obj
 0002:00017cb0       _transport_encode_sdp      00446cb0 f   pjmedia-i386-win32-vc8-debug-dynamic:transport_srtp.obj
 0002:00018050       _transport_media_start     00447050 f   pjmedia-i386-win32-vc8-debug-dynamic:transport_srtp.obj
 0002:000182c0       _transport_media_stop      004472c0 f   pjmedia-i386-win32-vc8-debug-dynamic:transport_srtp.obj
 0002:000183e0       _transport_simulate_lost   004473e0 f   pjmedia-i386-win32-vc8-debug-dynamic:transport_srtp.obj
 0002:00018460       _transport_destroy         00447460 f   pjmedia-i386-win32-vc8-debug-dynamic:transport_srtp.obj
 0002:000185a0       _transport_attach2         004475a0 f   pjmedia-i386-win32-vc8-debug-dynamic:transport_srtp.obj
 0002:000187e0       _sdes_media_create         004477e0 f   pjmedia-i386-win32-vc8-debug-dynamic:transport_srtp.obj
 0002:000188d0       _sdes_encode_sdp           004478d0 f   pjmedia-i386-win32-vc8-debug-dynamic:transport_srtp.obj
 0002:00019290       _sdes_media_start          00448290 f   pjmedia-i386-win32-vc8-debug-dynamic:transport_srtp.obj
 0002:000197a0       _sdes_media_stop           004487a0 f   pjmedia-i386-win32-vc8-debug-dynamic:transport_srtp.obj
 0002:000197c0       _fill_local_crypto         004487c0 f   pjmedia-i386-win32-vc8-debug-dynamic:transport_srtp.obj
 0002:00019920       _generate_crypto_attr_value 00448920 f   pjmedia-i386-win32-vc8-debug-dynamic:transport_srtp.obj
 0002:00019d70       _get_crypto_idx            00448d70 f   pjmedia-i386-win32-vc8-debug-dynamic:transport_srtp.obj
 0002:00019e50       _parse_attr_crypto         00448e50 f   pjmedia-i386-win32-vc8-debug-dynamic:transport_srtp.obj
 0002:0001a230       _pj_bzero                  00449230 f   pjmedia-i386-win32-vc8-debug-dynamic:transport_srtp.obj
 0002:0001a260       _pj_isdigit                00449260 f   pjmedia-i386-win32-vc8-debug-dynamic:transport_srtp.obj
 0002:0001a290       _pj_memcpy                 00449290 f   pjmedia-i386-win32-vc8-debug-dynamic:transport_srtp.obj
 0002:0001a2c0       _pj_memmove                004492c0 f   pjmedia-i386-win32-vc8-debug-dynamic:transport_srtp.obj
 0002:0001a2f0       _pj_pool_zalloc            004492f0 f   pjmedia-i386-win32-vc8-debug-dynamic:transport_srtp.obj
 0002:0001a320       _pj_strset                 00449320 f   pjmedia-i386-win32-vc8-debug-dynamic:transport_srtp.obj
 0002:0001a350       _pjmedia_srtp_deinit_lib   00449350 f   pjmedia-i386-win32-vc8-debug-dynamic:transport_srtp.obj
 0002:0001a6c0       _pjmedia_transport_attach2 004496c0 f   pjmedia-i386-win32-vc8-debug-dynamic:transport_srtp.obj
 0002:0001a750       _pjmedia_transport_close   00449750 f   pjmedia-i386-win32-vc8-debug-dynamic:transport_srtp.obj
 0002:0001a7a0       _pjmedia_transport_detach  004497a0 f   pjmedia-i386-win32-vc8-debug-dynamic:transport_srtp.obj
 0002:0001a7d0       _pjmedia_transport_encode_sdp 004497d0 f   pjmedia-i386-win32-vc8-debug-dynamic:transport_srtp.obj
 0002:0001a810       _pjmedia_transport_get_info 00449810 f   pjmedia-i386-win32-vc8-debug-dynamic:transport_srtp.obj
 0002:0001a870       _pjmedia_transport_media_create 00449870 f   pjmedia-i386-win32-vc8-debug-dynamic:transport_srtp.obj
 0002:0001a8b0       _pjmedia_transport_media_start 004498b0 f   pjmedia-i386-win32-vc8-debug-dynamic:transport_srtp.obj
 0002:0001a8f0       _pjmedia_transport_media_stop 004498f0 f   pjmedia-i386-win32-vc8-debug-dynamic:transport_srtp.obj
 0002:0001a920       _pjmedia_transport_send_rtcp2 00449920 f   pjmedia-i386-win32-vc8-debug-dynamic:transport_srtp.obj
 0002:0001a960       _pjmedia_transport_send_rtp 00449960 f   pjmedia-i386-win32-vc8-debug-dynamic:transport_srtp.obj
 0002:0001a9a0       _pjmedia_transport_simulate_lost 004499a0 f   pjmedia-i386-win32-vc8-debug-dynamic:transport_srtp.obj
 0002:0001be70       _sdes_create               0044ae70 f   pjmedia-i386-win32-vc8-debug-dynamic:transport_srtp.obj
 0002:0001bf40       _srtp_crypto_cmp           0044af40 f   pjmedia-i386-win32-vc8-debug-dynamic:transport_srtp.obj
 0002:0001bfd0       _srtp_crypto_empty         0044afd0 f   pjmedia-i386-win32-vc8-debug-dynamic:transport_srtp.obj
 0002:0001c020       _srtp_rtcp_cb              0044b020 f   pjmedia-i386-win32-vc8-debug-dynamic:transport_srtp.obj
 0002:0001c1e0       _srtp_rtp_cb               0044b1e0 f   pjmedia-i386-win32-vc8-debug-dynamic:transport_srtp.obj
 0002:0001c700       _start_srtp                0044b700 f   pjmedia-i386-win32-vc8-debug-dynamic:transport_srtp.obj
 0002:0001c8e0       _FABS                      0044b8e0 f   pjmedia-i386-win32-vc8-debug-dynamic:echo_suppress.obj
 0002:0001c930       _amplify_frame             0044b930 f   pjmedia-i386-win32-vc8-debug-dynamic:echo_suppress.obj
 0002:0001d3b0       _echo_supp_set_state       0044c3b0 f   pjmedia-i386-win32-vc8-debug-dynamic:echo_suppress.obj
 0002:0001d4f0       _echo_supp_update          0044c4f0 f   pjmedia-i386-win32-vc8-debug-dynamic:echo_suppress.obj
 0002:0001e1b0       _pj_bzero                  0044d1b0 f   pjmedia-i386-win32-vc8-debug-dynamic:echo_suppress.obj
 0002:0001e1e0       _pj_pool_zalloc            0044d1e0 f   pjmedia-i386-win32-vc8-debug-dynamic:echo_suppress.obj
 0002:0001e210       _pj_memcpy                 0044d210 f   pjmedia-i386-win32-vc8-debug-dynamic:echo_speex.obj
 0002:0001e240       _pj_pool_zalloc            0044d240 f   pjmedia-i386-win32-vc8-debug-dynamic:echo_speex.obj
 0002:0001e270       _pjmedia_copy_samples      0044d270 f   pjmedia-i386-win32-vc8-debug-dynamic:echo_speex.obj
 0002:0001e850       _pj_bzero                  0044d850 f   pjmedia-i386-win32-vc8-debug-dynamic:delaybuf.obj
 0002:0001e880       _pj_memcpy                 0044d880 f   pjmedia-i386-win32-vc8-debug-dynamic:delaybuf.obj
 0002:0001e8b0       _pj_pool_zalloc            0044d8b0 f   pjmedia-i386-win32-vc8-debug-dynamic:delaybuf.obj
 0002:0001e8e0       _pjmedia_circ_buf_adv_read_ptr 0044d8e0 f   pjmedia-i386-win32-vc8-debug-dynamic:delaybuf.obj
 0002:0001e980       _pjmedia_circ_buf_adv_write_ptr 0044d980 f   pjmedia-i386-win32-vc8-debug-dynamic:delaybuf.obj
 0002:0001e9d0       _pjmedia_circ_buf_create   0044d9d0 f   pjmedia-i386-win32-vc8-debug-dynamic:delaybuf.obj
 0002:0001ea50       _pjmedia_circ_buf_get_len  0044da50 f   pjmedia-i386-win32-vc8-debug-dynamic:delaybuf.obj
 0002:0001ea70       _pjmedia_circ_buf_get_read_regions 0044da70 f   pjmedia-i386-win32-vc8-debug-dynamic:delaybuf.obj
 0002:0001eb30       _pjmedia_circ_buf_get_write_regions 0044db30 f   pjmedia-i386-win32-vc8-debug-dynamic:delaybuf.obj
 0002:0001ec30       _pjmedia_circ_buf_read     0044dc30 f   pjmedia-i386-win32-vc8-debug-dynamic:delaybuf.obj
 0002:0001ed00       _pjmedia_circ_buf_reset    0044dd00 f   pjmedia-i386-win32-vc8-debug-dynamic:delaybuf.obj
 0002:0001ed30       _pjmedia_circ_buf_set_len  0044dd30 f   pjmedia-i386-win32-vc8-debug-dynamic:delaybuf.obj
 0002:0001ed50       _pjmedia_circ_buf_write    0044dd50 f   pjmedia-i386-win32-vc8-debug-dynamic:delaybuf.obj
 0002:0001ee20       _pjmedia_copy_samples      0044de20 f   pjmedia-i386-win32-vc8-debug-dynamic:delaybuf.obj
 0002:0001f780       _pjmedia_zero_samples      0044e780 f   pjmedia-i386-win32-vc8-debug-dynamic:delaybuf.obj
 0002:0001f7b0       _shrink_buffer             0044e7b0 f   pjmedia-i386-win32-vc8-debug-dynamic:delaybuf.obj
 0002:0001f8e0       _update                    0044e8e0 f   pjmedia-i386-win32-vc8-debug-dynamic:delaybuf.obj
 0002:0001faf0       _pj_pool_zalloc            0044eaf0 f   pjmedia-i386-win32-vc8-debug-dynamic:silencedet.obj
 0002:000203b0       _compress                  0044f3b0 f   pjmedia-i386-win32-vc8-debug-dynamic:wsola.obj
 0002:00020580       _create_win                0044f580 f   pjmedia-i386-win32-vc8-debug-dynamic:wsola.obj
 0002:00020690       _expand                    0044f690 f   pjmedia-i386-win32-vc8-debug-dynamic:wsola.obj
 0002:000208b0       _fade_in                   0044f8b0 f   pjmedia-i386-win32-vc8-debug-dynamic:wsola.obj
 0002:000209c0       _find_pitch                0044f9c0 f   pjmedia-i386-win32-vc8-debug-dynamic:wsola.obj
 0002:00020c80       _overlapp_add              0044fc80 f   pjmedia-i386-win32-vc8-debug-dynamic:wsola.obj
 0002:00020d20       _overlapp_add_simple       0044fd20 f   pjmedia-i386-win32-vc8-debug-dynamic:wsola.obj
 0002:00020e10       _pj_bzero                  0044fe10 f   pjmedia-i386-win32-vc8-debug-dynamic:wsola.obj
 0002:00020e40       _pj_memcpy                 0044fe40 f   pjmedia-i386-win32-vc8-debug-dynamic:wsola.obj
 0002:00020e70       _pj_memmove                0044fe70 f   pjmedia-i386-win32-vc8-debug-dynamic:wsola.obj
 0002:00020ea0       _pj_pool_zalloc            0044fea0 f   pjmedia-i386-win32-vc8-debug-dynamic:wsola.obj
 0002:00020ed0       _pjmedia_circ_buf_adv_read_ptr 0044fed0 f   pjmedia-i386-win32-vc8-debug-dynamic:wsola.obj
 0002:00020f70       _pjmedia_circ_buf_adv_write_ptr 0044ff70 f   pjmedia-i386-win32-vc8-debug-dynamic:wsola.obj
 0002:00020fc0       _pjmedia_circ_buf_copy     0044ffc0 f   pjmedia-i386-win32-vc8-debug-dynamic:wsola.obj
 0002:000210c0       _pjmedia_circ_buf_create   004500c0 f   pjmedia-i386-win32-vc8-debug-dynamic:wsola.obj
 0002:00021140       _pjmedia_circ_buf_get_len  00450140 f   pjmedia-i386-win32-vc8-debug-dynamic:wsola.obj
 0002:00021160       _pjmedia_circ_buf_get_read_regions 00450160 f   pjmedia-i386-win32-vc8-debug-dynamic:wsola.obj
 0002:00021220       _pjmedia_circ_buf_get_write_regions 00450220 f   pjmedia-i386-win32-vc8-debug-dynamic:wsola.obj
 0002:00021320       _pjmedia_circ_buf_pack_buffer 00450320 f   pjmedia-i386-win32-vc8-debug-dynamic:wsola.obj
 0002:00021490       _pjmedia_circ_buf_reset    00450490 f   pjmedia-i386-win32-vc8-debug-dynamic:wsola.obj
 0002:000214c0       _pjmedia_circ_buf_set_len  004504c0 f   pjmedia-i386-win32-vc8-debug-dynamic:wsola.obj
 0002:000214e0       _pjmedia_circ_buf_write    004504e0 f   pjmedia-i386-win32-vc8-debug-dynamic:wsola.obj
 0002:000215b0       _pjmedia_copy_samples      004505b0 f   pjmedia-i386-win32-vc8-debug-dynamic:wsola.obj
 0002:000215e0       _pjmedia_move_samples      004505e0 f   pjmedia-i386-win32-vc8-debug-dynamic:wsola.obj
 0002:000227a0       _pjmedia_zero_samples      004517a0 f   pjmedia-i386-win32-vc8-debug-dynamic:wsola.obj
 0002:000227d0       _wsola_fade_out            004517d0 f   pjmedia-i386-win32-vc8-debug-dynamic:wsola.obj
 0002:00022980       __getopt_initialize        00451980 f   pjlib-util-i386-win32-vc8-debug-dynamic:getopt.obj
 0002:00022a60       __getopt_internal          00451a60 f   pjlib-util-i386-win32-vc8-debug-dynamic:getopt.obj
 0002:00023790       _exchange                  00452790 f   pjlib-util-i386-win32-vc8-debug-dynamic:getopt.obj
 0002:00023940       _my_index                  00452940 f   pjlib-util-i386-win32-vc8-debug-dynamic:getopt.obj
 0002:00023a10       _pj_bzero                  00452a10 f   pjlib-util-i386-win32-vc8-debug-dynamic:scanner.obj
 0002:00023fa0       _pj_cis_match              00452fa0 f   pjlib-util-i386-win32-vc8-debug-dynamic:scanner.obj
 0002:00023fe0       _pj_hex_digit_to_val       00452fe0 f   pjlib-util-i386-win32-vc8-debug-dynamic:scanner.obj
 0002:00024040       _pj_isxdigit               00453040 f   pjlib-util-i386-win32-vc8-debug-dynamic:scanner.obj
 0002:00024070       _pj_memmove                00453070 f   pjlib-util-i386-win32-vc8-debug-dynamic:scanner.obj
 0002:000252a0       _pj_scan_syntax_err        004542a0 f   pjlib-util-i386-win32-vc8-debug-dynamic:scanner.obj
 0002:000252d0       _pj_strset                 004542d0 f   pjlib-util-i386-win32-vc8-debug-dynamic:scanner.obj
 0002:00025300       _pj_strset3                00454300 f   pjlib-util-i386-win32-vc8-debug-dynamic:scanner.obj
 0002:00025330       _base256_char              00454330 f   pjlib-util-i386-win32-vc8-debug-dynamic:base64.obj
 0002:000253f0       _base256to64               004543f0 f   pjlib-util-i386-win32-vc8-debug-dynamic:base64.obj
 0002:00025ad0       _init_mutex                00454ad0 f   pjlib-i386-win32-vc8-debug-dynamic:os_core_win32.obj
 0002:00025bb0       _os_attr_to_pj_color       00454bb0 f   pjlib-i386-win32-vc8-debug-dynamic:os_core_win32.obj
 0002:00026010       _pj_bzero                  00455010 f   pjlib-i386-win32-vc8-debug-dynamic:os_core_win32.obj
 0002:00026040       _pj_color_to_os_attr       00455040 f   pjlib-i386-win32-vc8-debug-dynamic:os_core_win32.obj
 0002:00026780       _pj_event_wait_for         00455780 f   pjlib-i386-win32-vc8-debug-dynamic:os_core_win32.obj
 0002:000279f0       _pj_sem_wait_for           004569f0 f   pjlib-i386-win32-vc8-debug-dynamic:os_core_win32.obj
 0002:00027c90       _pj_strlen                 00456c90 f   pjlib-i386-win32-vc8-debug-dynamic:os_core_win32.obj
 0002:00028bb0       _thread_main@4             00457bb0 f   pjlib-i386-win32-vc8-debug-dynamic:os_core_win32.obj
 0002:00028ca0       _invoke_log                00457ca0 f   pjlib-i386-win32-vc8-debug-dynamic:errno.obj
 0002:00028cf0       _pj_bzero                  00457cf0 f   pjlib-i386-win32-vc8-debug-dynamic:errno.obj
 0002:00028d60       _pj_memcpy                 00457d60 f   pjlib-i386-win32-vc8-debug-dynamic:errno.obj
 0002:00028f70       _pj_perror_imp             00457f70 f   pjlib-i386-win32-vc8-debug-dynamic:errno.obj
 0002:00029480       _pjlib_error               00458480 f   pjlib-i386-win32-vc8-debug-dynamic:errno.obj
 0002:00029590       _pj_bzero                  00458590 f   pjlib-i386-win32-vc8-debug-dynamic:pool.obj
 0002:000295c0       _pj_list_init              004585c0 f   pjlib-i386-win32-vc8-debug-dynamic:pool.obj
 0002:000298e0       _pj_pool_create_block      004588e0 f   pjlib-i386-win32-vc8-debug-dynamic:pool.obj
 0002:00029e40       _reset_pool                00458e40 f   pjlib-i386-win32-vc8-debug-dynamic:pool.obj
 0002:00029f30       _cpool_create_pool         00458f30 f   pjlib-i386-win32-vc8-debug-dynamic:pool_caching.obj
 0002:0002a190       _cpool_dump_status         00459190 f   pjlib-i386-win32-vc8-debug-dynamic:pool_caching.obj
 0002:0002a3a0       _cpool_on_block_alloc      004593a0 f   pjlib-i386-win32-vc8-debug-dynamic:pool_caching.obj
 0002:0002a400       _cpool_on_block_free       00459400 f   pjlib-i386-win32-vc8-debug-dynamic:pool_caching.obj
 0002:0002a430       _cpool_release_pool        00459430 f   pjlib-i386-win32-vc8-debug-dynamic:pool_caching.obj
 0002:0002a630       _pj_bzero                  00459630 f   pjlib-i386-win32-vc8-debug-dynamic:pool_caching.obj
 0002:0002a920       _pj_list_empty             00459920 f   pjlib-i386-win32-vc8-debug-dynamic:pool_caching.obj
 0002:0002a960       _pj_list_init              00459960 f   pjlib-i386-win32-vc8-debug-dynamic:pool_caching.obj
 0002:0002a990       _pj_memcpy                 00459990 f   pjlib-i386-win32-vc8-debug-dynamic:pool_caching.obj
 0002:0002a9c0       _is_logging_suspended      004599c0 f   pjlib-i386-win32-vc8-debug-dynamic:log.obj
 0002:0002aa40       _log_get_indent            00459a40 f   pjlib-i386-win32-vc8-debug-dynamic:log.obj
 0002:0002aa80       _log_get_raw_indent        00459a80 f   pjlib-i386-win32-vc8-debug-dynamic:log.obj
 0002:0002aab0       _log_set_indent            00459ab0 f   pjlib-i386-win32-vc8-debug-dynamic:log.obj
 0002:0002aaf0       _logging_shutdown          00459af0 f   pjlib-i386-win32-vc8-debug-dynamic:log.obj
 0002:0002b5dc       $LN13                      0045a5dc     pjlib-i386-win32-vc8-debug-dynamic:log.obj
 0002:0002b7dc       $LN15                      0045a7dc     pjlib-i386-win32-vc8-debug-dynamic:log.obj
 0002:0002b800       $LN14                      0045a800     pjlib-i386-win32-vc8-debug-dynamic:log.obj
 0002:0002b8f0       _pj_memset                 0045a8f0 f   pjlib-i386-win32-vc8-debug-dynamic:log.obj
 0002:0002b920       _resume_logging            0045a920 f   pjlib-i386-win32-vc8-debug-dynamic:log.obj
 0002:0002b980       _suspend_logging           0045a980 f   pjlib-i386-win32-vc8-debug-dynamic:log.obj
 0002:0002b9d0       _default_block_alloc       0045a9d0 f   pjlib-i386-win32-vc8-debug-dynamic:pool_policy_malloc.obj
 0002:0002ba80       _default_block_free        0045aa80 f   pjlib-i386-win32-vc8-debug-dynamic:pool_policy_malloc.obj
 0002:0002baf0       _default_pool_callback     0045aaf0 f   pjlib-i386-win32-vc8-debug-dynamic:pool_policy_malloc.obj
 0002:0002bca0       _pj_hex_digit_to_val       0045aca0 f   pjlib-i386-win32-vc8-debug-dynamic:string.obj
 0002:0002bd00       _pj_isdigit                0045ad00 f   pjlib-i386-win32-vc8-debug-dynamic:string.obj
 0002:0002bd30       _pj_isspace                0045ad30 f   pjlib-i386-win32-vc8-debug-dynamic:string.obj
 0002:0002bd60       _pj_isxdigit               0045ad60 f   pjlib-i386-win32-vc8-debug-dynamic:string.obj
 0002:0002bd90       _pj_memchr                 0045ad90 f   pjlib-i386-win32-vc8-debug-dynamic:string.obj
 0002:0002bdc0       _pj_memcmp                 0045adc0 f   pjlib-i386-win32-vc8-debug-dynamic:string.obj
 0002:0002bdf0       _pj_memcpy                 0045adf0 f   pjlib-i386-win32-vc8-debug-dynamic:string.obj
 0002:0002db60       _pj_val_to_hex_digit       0045cb60 f   pjlib-i386-win32-vc8-debug-dynamic:string.obj
 0002:0002dc50       _pj_memcpy                 0045cc50 f   pjlib-i386-win32-vc8-debug-dynamic:os_error_win32.obj
 0002:0002e040       _pj_bzero                  0045d040 f   pjlib-i386-win32-vc8-debug-dynamic:sock_common.obj
 0002:0002f150       _pj_isdigit                0045e150 f   pjlib-i386-win32-vc8-debug-dynamic:sock_common.obj
 0002:0002f180       _pj_memcmp                 0045e180 f   pjlib-i386-win32-vc8-debug-dynamic:sock_common.obj
 0002:0002f1b0       _pj_memcpy                 0045e1b0 f   pjlib-i386-win32-vc8-debug-dynamic:sock_common.obj
 0002:00030b20       _pj_strchr                 0045fb20 f   pjlib-i386-win32-vc8-debug-dynamic:sock_common.obj
 0002:00030b70       _get_base_time             0045fb70 f   pjlib-i386-win32-vc8-debug-dynamic:os_time_win32.obj
 0002:00030c40       _pj_bzero                  0045fc40 f   pjlib-i386-win32-vc8-debug-dynamic:os_time_win32.obj
 0002:00030f80       _pj_link_node              0045ff80 f   pjlib-i386-win32-vc8-debug-dynamic:list.obj
 0002:00030fb0       _pj_list_empty             0045ffb0 f   pjlib-i386-win32-vc8-debug-dynamic:list.obj
 0002:000310a0       _pj_list_init              004600a0 f   pjlib-i386-win32-vc8-debug-dynamic:list.obj
 0002:00031380       _decrement_counter         00460380 f   pjlib-i386-win32-vc8-debug-dynamic:ioqueue_select.obj
 0002:000314e0       _increment_counter         004604e0 f   pjlib-i386-win32-vc8-debug-dynamic:ioqueue_select.obj
 0002:00031550       _ioqueue_add_to_set        00460550 f   pjlib-i386-win32-vc8-debug-dynamic:ioqueue_select.obj
 0002:00031630       _ioqueue_destroy           00460630 f   pjlib-i386-win32-vc8-debug-dynamic:ioqueue_select.obj
 0002:00032130       _ioqueue_init              00461130 f   pjlib-i386-win32-vc8-debug-dynamic:ioqueue_select.obj
 0002:00032170       _ioqueue_init_key          00461170 f   pjlib-i386-win32-vc8-debug-dynamic:ioqueue_select.obj
 0002:00032310       _ioqueue_remove_from_set   00461310 f   pjlib-i386-win32-vc8-debug-dynamic:ioqueue_select.obj
 0002:000323f0       _key_has_pending_accept    004613f0 f   pjlib-i386-win32-vc8-debug-dynamic:ioqueue_select.obj
 0002:00032440       _key_has_pending_connect   00461440 f   pjlib-i386-win32-vc8-debug-dynamic:ioqueue_select.obj
 0002:00032460       _key_has_pending_read      00461460 f   pjlib-i386-win32-vc8-debug-dynamic:ioqueue_select.obj
 0002:000324b0       _key_has_pending_write     004614b0 f   pjlib-i386-win32-vc8-debug-dynamic:ioqueue_select.obj
 0002:00032500       _pj_bzero                  00461500 f   pjlib-i386-win32-vc8-debug-dynamic:ioqueue_select.obj
 0002:00033440       $LN41                      00462440     pjlib-i386-win32-vc8-debug-dynamic:ioqueue_select.obj
 0002:00034930       _pj_list_empty             00463930 f   pjlib-i386-win32-vc8-debug-dynamic:ioqueue_select.obj
 0002:00034970       _pj_list_init              00463970 f   pjlib-i386-win32-vc8-debug-dynamic:ioqueue_select.obj
 0002:000349a0       _pj_list_push_back         004639a0 f   pjlib-i386-win32-vc8-debug-dynamic:ioqueue_select.obj
 0002:000349d0       _pj_memcpy                 004639d0 f   pjlib-i386-win32-vc8-debug-dynamic:ioqueue_select.obj
 0002:00034a00       _rescan_fdset              00463a00 f   pjlib-i386-win32-vc8-debug-dynamic:ioqueue_select.obj
 0002:00034a20       _scan_closing_keys         00463a20 f   pjlib-i386-win32-vc8-debug-dynamic:ioqueue_select.obj
 0002:00034b40       _pj_bzero                  00463b40 f   pjlib-i386-win32-vc8-debug-dynamic:sock_bsd.obj
 0002:000352c0       _pj_memcpy                 004642c0 f   pjlib-i386-win32-vc8-debug-dynamic:sock_bsd.obj
 0002:00036250       _create_file@28            00465250 f   pjlib-i386-win32-vc8-debug-dynamic:file_access_win32.obj
 0002:000362a0       _file_time_to_time_val     004652a0 f   pjlib-i386-win32-vc8-debug-dynamic:file_access_win32.obj
 0002:00036430       _get_file_size             00465430 f   pjlib-i386-win32-vc8-debug-dynamic:file_access_win32.obj
 0002:00036500       _pj_bzero                  00465500 f   pjlib-i386-win32-vc8-debug-dynamic:file_access_win32.obj
 0002:00037120       _set_file_pointer          00466120 f   pjlib-i386-win32-vc8-debug-dynamic:file_io_win32.obj
 0002:00037390       _pj_memmove                00466390 f   pjlib-i386-win32-vc8-debug-dynamic:array.obj
 0002:000373c0       _exception_cleanup         004663c0 f   pjlib-i386-win32-vc8-debug-dynamic:except.obj
 0002:000377c0       _null_op                   004667c0 f   pjlib-i386-win32-vc8-debug-dynamic:lock.obj
 0002:000377e0       _create_mutex_lock         004667e0 f   pjlib-i386-win32-vc8-debug-dynamic:lock.obj
 0002:000378d0       _grp_lock_acquire          004668d0 f   pjlib-i386-win32-vc8-debug-dynamic:lock.obj
 0002:00037990       _grp_lock_add_handler      00466990 f   pjlib-i386-win32-vc8-debug-dynamic:lock.obj
 0002:00037a30       _grp_lock_add_ref          00466a30 f   pjlib-i386-win32-vc8-debug-dynamic:lock.obj
 0002:00037a60       _grp_lock_dec_ref          00466a60 f   pjlib-i386-win32-vc8-debug-dynamic:lock.obj
 0002:00037ae0       _grp_lock_destroy          00466ae0 f   pjlib-i386-win32-vc8-debug-dynamic:lock.obj
 0002:00037c20       _grp_lock_release          00466c20 f   pjlib-i386-win32-vc8-debug-dynamic:lock.obj
 0002:00037ca0       _grp_lock_set_owner_thread 00466ca0 f   pjlib-i386-win32-vc8-debug-dynamic:lock.obj
 0002:00037d30       _grp_lock_tryacquire       00466d30 f   pjlib-i386-win32-vc8-debug-dynamic:lock.obj
 0002:00037e30       _grp_lock_unset_owner_thread 00466e30 f   pjlib-i386-win32-vc8-debug-dynamic:lock.obj
 0002:00037ef0       _pj_bzero                  00466ef0 f   pjlib-i386-win32-vc8-debug-dynamic:lock.obj
 0002:00038690       _pj_list_init              00467690 f   pjlib-i386-win32-vc8-debug-dynamic:lock.obj
 0002:000386c0       _pj_list_push_back         004676c0 f   pjlib-i386-win32-vc8-debug-dynamic:lock.obj
 0002:00038a70       _pj_memcpy                 00467a70 f   pjlib-i386-win32-vc8-debug-dynamic:lock.obj
 0002:00038aa0       _pj_pool_zalloc            00467aa0 f   pjlib-i386-win32-vc8-debug-dynamic:lock.obj
 0002:00038bf0       _elapsed_msec              00467bf0 f   pjlib-i386-win32-vc8-debug-dynamic:os_timestamp_common.obj
 0002:00038ca0       _elapsed_usec              00467ca0 f   pjlib-i386-win32-vc8-debug-dynamic:os_timestamp_common.obj
 0002:00038d50       _get_elapsed               00467d50 f   pjlib-i386-win32-vc8-debug-dynamic:os_timestamp_common.obj
 0002:00039080       _pj_set_timestamp32        00468080 f   pjlib-i386-win32-vc8-debug-dynamic:os_timestamp_common.obj
 0002:00039130       _platform_rand             00468130 f   pjlib-i386-win32-vc8-debug-dynamic:rand.obj
 0002:00039170       _guid_to_str               00468170 f   pjlib-i386-win32-vc8-debug-dynamic:guid_win32.obj
 0002:00039250       _hex2digit                 00468250 f   pjlib-i386-win32-vc8-debug-dynamic:guid_win32.obj
 0002:00039a80       _pool_buf_cleanup          00468a80 f   pjlib-i386-win32-vc8-debug-dynamic:pool_buf.obj
 0002:00039ae0       _pool_buf_initialize       00468ae0 f   pjlib-i386-win32-vc8-debug-dynamic:pool_buf.obj
 0002:00039b30       _stack_alloc               00468b30 f   pjlib-i386-win32-vc8-debug-dynamic:pool_buf.obj
 0002:00039c60       _term_restore_color        00468c60 f   pjlib-i386-win32-vc8-debug-dynamic:log_writer_stdout.obj
 0002:00039c90       _term_set_color            00468c90 f   pjlib-i386-win32-vc8-debug-dynamic:log_writer_stdout.obj
 0002:00039cc0       _GetIpHlpApiProc           00468cc0 f   pjlib-i386-win32-vc8-debug-dynamic:ip_helper_win32.obj
 0002:00039d40       _MyGetAdapterAddresses     00468d40 f   pjlib-i386-win32-vc8-debug-dynamic:ip_helper_win32.obj
 0002:00039db0       _MyGetIfEntry              00468db0 f   pjlib-i386-win32-vc8-debug-dynamic:ip_helper_win32.obj
 0002:00039e10       _MyGetIpAddrTable          00468e10 f   pjlib-i386-win32-vc8-debug-dynamic:ip_helper_win32.obj
 0002:00039e70       _MyGetIpForwardTable       00468e70 f   pjlib-i386-win32-vc8-debug-dynamic:ip_helper_win32.obj
 0002:00039ed0       _enum_ipv4_interface       00468ed0 f   pjlib-i386-win32-vc8-debug-dynamic:ip_helper_win32.obj
 0002:0003a2a0       _enum_ipv4_ipv6_interface  004692a0 f   pjlib-i386-win32-vc8-debug-dynamic:ip_helper_win32.obj
 0002:0003a670       _pj_bzero                  00469670 f   pjlib-i386-win32-vc8-debug-dynamic:ip_helper_win32.obj
 0002:0003aba0       _pj_memcpy                 00469ba0 f   pjlib-i386-win32-vc8-debug-dynamic:ip_helper_win32.obj
 0002:0003abd0       _unload_iphlp_module       00469bd0 f   pjlib-i386-win32-vc8-debug-dynamic:ip_helper_win32.obj
 0002:0003ac40       _pj_bzero                  00469c40 f   pjlib-i386-win32-vc8-debug-dynamic:addr_resolv_sock.obj
 0002:0003b000       _pj_memcpy                 0046a000 f   pjlib-i386-win32-vc8-debug-dynamic:addr_resolv_sock.obj
 0002:0003b600       _filter_dc_notch16         0046a600 f   libspeex-i386-win32-vc8-debug-dynamic:mdf.obj
 0002:0003b770       _mdf_adjust_prop           0046a770 f   libspeex-i386-win32-vc8-debug-dynamic:mdf.obj
 0002:0003b950       _mdf_inner_prod            0046a950 f   libspeex-i386-win32-vc8-debug-dynamic:mdf.obj
 0002:0003ba30       _power_spectrum            0046aa30 f   libspeex-i386-win32-vc8-debug-dynamic:mdf.obj
 0002:0003bb30       _spectral_mul_accum        0046ab30 f   libspeex-i386-win32-vc8-debug-dynamic:mdf.obj
 0002:0003bd30       _speex_alloc               0046ad30 f   libspeex-i386-win32-vc8-debug-dynamic:mdf.obj
 0002:0003ee50       _speex_free                0046de50 f   libspeex-i386-win32-vc8-debug-dynamic:mdf.obj
 0002:0003ee80       _weighted_spectral_mul_conj 0046de80 f   libspeex-i386-win32-vc8-debug-dynamic:mdf.obj
 0002:0003f050       _compute_gain_floor        0046e050 f   libspeex-i386-win32-vc8-debug-dynamic:preprocess.obj
 0002:0003f1b0       _conj_window               0046e1b0 f   libspeex-i386-win32-vc8-debug-dynamic:preprocess.obj
 0002:0003f3c0       _hypergeom_gain            0046e3c0 f   libspeex-i386-win32-vc8-debug-dynamic:preprocess.obj
 0002:0003f530       _preprocess_analysis       0046e530 f   libspeex-i386-win32-vc8-debug-dynamic:preprocess.obj
 0002:0003f810       _qcurve                    0046e810 f   libspeex-i386-win32-vc8-debug-dynamic:preprocess.obj
 0002:0003f870       _speex_alloc               0046e870 f   libspeex-i386-win32-vc8-debug-dynamic:preprocess.obj
 0002:0003f8a0       _speex_compute_agc         0046e8a0 f   libspeex-i386-win32-vc8-debug-dynamic:preprocess.obj
 0002:0003fd10       _speex_free                0046ed10 f   libspeex-i386-win32-vc8-debug-dynamic:preprocess.obj
 0002:000404b4       $LN85                      0046f4b4     libspeex-i386-win32-vc8-debug-dynamic:preprocess.obj
 0002:00042cd0       _update_noise_prob         00471cd0 f   libspeex-i386-win32-vc8-debug-dynamic:preprocess.obj
 0002:00043190       _speex_alloc               00472190 f   libspeex-i386-win32-vc8-debug-dynamic:fftwrap.obj
 0002:000431c0       _speex_free                004721c0 f   libspeex-i386-win32-vc8-debug-dynamic:fftwrap.obj
 0002:00044030       _speex_alloc               00473030 f   libspeex-i386-win32-vc8-debug-dynamic:filterbank.obj
 0002:00044060       _speex_free                00473060 f   libspeex-i386-win32-vc8-debug-dynamic:filterbank.obj
 0002:00044090       _dradb2                    00473090 f   libspeex-i386-win32-vc8-debug-dynamic:smallft.obj
 0002:00044450       _dradb3                    00473450 f   libspeex-i386-win32-vc8-debug-dynamic:smallft.obj
 0002:00044950       _dradb4                    00473950 f   libspeex-i386-win32-vc8-debug-dynamic:smallft.obj
 0002:00045130       _dradbg                    00474130 f   libspeex-i386-win32-vc8-debug-dynamic:smallft.obj
 0002:000464e0       _dradf2                    004754e0 f   libspeex-i386-win32-vc8-debug-dynamic:smallft.obj
 0002:00046890       _dradf4                    00475890 f   libspeex-i386-win32-vc8-debug-dynamic:smallft.obj
 0002:00047010       _dradfg                    00476010 f   libspeex-i386-win32-vc8-debug-dynamic:smallft.obj
 0002:00048380       _drftb1                    00477380 f   libspeex-i386-win32-vc8-debug-dynamic:smallft.obj
 0002:00048730       _drftf1                    00477730 f   libspeex-i386-win32-vc8-debug-dynamic:smallft.obj
 0002:00048a50       _drfti1                    00477a50 f   libspeex-i386-win32-vc8-debug-dynamic:smallft.obj
 0002:00048d80       _fdrffti                   00477d80 f   libspeex-i386-win32-vc8-debug-dynamic:smallft.obj
 0002:00048dc0       _speex_alloc               00477dc0 f   libspeex-i386-win32-vc8-debug-dynamic:smallft.obj
 0002:00048df0       _speex_free                00477df0 f   libspeex-i386-win32-vc8-debug-dynamic:smallft.obj
 0002:00049054       $LN10                      00478054     libsrtp-i386-win32-vc8-debug-dynamic:srtp.obj
 0002:00049100       _base_key_length           00478100 f   libsrtp-i386-win32-vc8-debug-dynamic:srtp.obj
 0002:00049154       $LN9                       00478154     libsrtp-i386-win32-vc8-debug-dynamic:srtp.obj
 0002:00049190       _be64_to_cpu               00478190 f   libsrtp-i386-win32-vc8-debug-dynamic:srtp.obj
 0002:00049380       _srtp_calc_aead_iv         00478380 f   libsrtp-i386-win32-vc8-debug-dynamic:srtp.obj
 0002:000495b0       _srtp_calc_aead_iv_srtcp   004785b0 f   libsrtp-i386-win32-vc8-debug-dynamic:srtp.obj
 0002:00049e20       $LN10                      00478e20     libsrtp-i386-win32-vc8-debug-dynamic:srtp.obj
 0002:00049e50       _srtp_estimate_index       00478e50 f   libsrtp-i386-win32-vc8-debug-dynamic:srtp.obj
 0002:00049f90       _srtp_get_est_pkt_index    00478f90 f   libsrtp-i386-win32-vc8-debug-dynamic:srtp.obj
 0002:0004a730       _srtp_kdf_clear            00479730 f   libsrtp-i386-win32-vc8-debug-dynamic:srtp.obj
 0002:0004a780       _srtp_kdf_generate         00479780 f   libsrtp-i386-win32-vc8-debug-dynamic:srtp.obj
 0002:0004a880       _srtp_kdf_init             00479880 f   libsrtp-i386-win32-vc8-debug-dynamic:srtp.obj
 0002:0004a970       _srtp_process_header_encryption 00479970 f   libsrtp-i386-win32-vc8-debug-dynamic:srtp.obj
 0002:0004ae40       $LN11                      00479e40     libsrtp-i386-win32-vc8-debug-dynamic:srtp.obj
 0002:0004aee0       $LN11                      00479ee0     libsrtp-i386-win32-vc8-debug-dynamic:srtp.obj
 0002:0004af60       _srtp_protect_aead         00479f60 f   libsrtp-i386-win32-vc8-debug-dynamic:srtp.obj
 0002:0004b430       _srtp_protect_extension_header 0047a430 f   libsrtp-i386-win32-vc8-debug-dynamic:srtp.obj
 0002:0004beb0       _srtp_protect_rtcp_aead    0047aeb0 f   libsrtp-i386-win32-vc8-debug-dynamic:srtp.obj
 0002:0004d620       _srtp_stream_free          0047c620 f   libsrtp-i386-win32-vc8-debug-dynamic:srtp.obj
 0002:0004e970       _srtp_unprotect_aead       0047d970 f   libsrtp-i386-win32-vc8-debug-dynamic:srtp.obj
 0002:0004f8e0       _srtp_unprotect_rtcp_aead  0047e8e0 f   libsrtp-i386-win32-vc8-debug-dynamic:srtp.obj
 0002:00050730       _srtp_validate_rtp_header  0047f730 f   libsrtp-i386-win32-vc8-debug-dynamic:srtp.obj
 0002:00050880       _update_stream             0047f880 f   libsrtp-i386-win32-vc8-debug-dynamic:srtp.obj
 0002:00050a10       _update_template_streams   0047fa10 f   libsrtp-i386-win32-vc8-debug-dynamic:srtp.obj
 0002:00052900       _srtp_cipher_rand          00481900 f   libsrtp-i386-win32-vc8-debug-dynamic:cipher.obj
 0002:00054490       _srtp_crypto_kernel_do_load_cipher_type 00483490 f   libsrtp-i386-win32-vc8-debug-dynamic:crypto_kernel.obj
 0002:00054e90       _srtcp_packet_get_ekt_roc  00483e90 f   libsrtp-i386-win32-vc8-debug-dynamic:ekt.obj
 0002:00054ec0       _srtcp_packet_get_ekt_spi  00483ec0 f   libsrtp-i386-win32-vc8-debug-dynamic:ekt.obj
 0002:00054ef0       _srtcp_packet_get_emk_location 00483ef0 f   libsrtp-i386-win32-vc8-debug-dynamic:ekt.obj
 0002:00055ad0       _srtp_null_cipher_alloc    00484ad0 f   libsrtp-i386-win32-vc8-debug-dynamic:null_cipher.obj
 0002:00055b90       _srtp_null_cipher_dealloc  00484b90 f   libsrtp-i386-win32-vc8-debug-dynamic:null_cipher.obj
 0002:00055bd0       _srtp_null_cipher_init     00484bd0 f   libsrtp-i386-win32-vc8-debug-dynamic:null_cipher.obj
 0002:00055c10       _srtp_null_cipher_set_iv   00484c10 f   libsrtp-i386-win32-vc8-debug-dynamic:null_cipher.obj
 0002:00055c30       _srtp_null_cipher_encrypt  00484c30 f   libsrtp-i386-win32-vc8-debug-dynamic:null_cipher.obj
 0002:00055c50       _srtp_aes_icm_alloc        00484c50 f   libsrtp-i386-win32-vc8-debug-dynamic:aes_icm.obj
 0002:00055dc0       _srtp_aes_icm_dealloc      00484dc0 f   libsrtp-i386-win32-vc8-debug-dynamic:aes_icm.obj
 0002:00055e30       _srtp_aes_icm_context_init 00484e30 f   libsrtp-i386-win32-vc8-debug-dynamic:aes_icm.obj
 0002:00056120       _srtp_aes_icm_set_iv       00485120 f   libsrtp-i386-win32-vc8-debug-dynamic:aes_icm.obj
 0002:000562c0       _srtp_aes_icm_encrypt      004852c0 f   libsrtp-i386-win32-vc8-debug-dynamic:aes_icm.obj
 0002:00056920       _srtp_aes_icm_advance      00485920 f   libsrtp-i386-win32-vc8-debug-dynamic:aes_icm.obj
 0002:00056ac0       _srtp_null_auth_alloc      00485ac0 f   libsrtp-i386-win32-vc8-debug-dynamic:null_auth.obj
 0002:00056bb0       _srtp_null_auth_dealloc    00485bb0 f   libsrtp-i386-win32-vc8-debug-dynamic:null_auth.obj
 0002:00056bf0       _srtp_null_auth_init       00485bf0 f   libsrtp-i386-win32-vc8-debug-dynamic:null_auth.obj
 0002:00056c10       _srtp_null_auth_compute    00485c10 f   libsrtp-i386-win32-vc8-debug-dynamic:null_auth.obj
 0002:00056c30       _srtp_null_auth_update     00485c30 f   libsrtp-i386-win32-vc8-debug-dynamic:null_auth.obj
 0002:00056c50       _srtp_null_auth_start      00485c50 f   libsrtp-i386-win32-vc8-debug-dynamic:null_auth.obj
 0002:00056c70       _srtp_hmac_alloc           00485c70 f   libsrtp-i386-win32-vc8-debug-dynamic:hmac.obj
 0002:00056d80       _srtp_hmac_dealloc         00485d80 f   libsrtp-i386-win32-vc8-debug-dynamic:hmac.obj
 0002:00056dc0       _srtp_hmac_init            00485dc0 f   libsrtp-i386-win32-vc8-debug-dynamic:hmac.obj
 0002:00056f20       _srtp_hmac_start           00485f20 f   libsrtp-i386-win32-vc8-debug-dynamic:hmac.obj
 0002:00056f60       _srtp_hmac_update          00485f60 f   libsrtp-i386-win32-vc8-debug-dynamic:hmac.obj
 0002:00056fe0       _srtp_hmac_compute         00485fe0 f   libsrtp-i386-win32-vc8-debug-dynamic:hmac.obj
 0002:00057170       _aes_128_expand_encryption_key 00486170 f   libsrtp-i386-win32-vc8-debug-dynamic:aes.obj
 0002:00057450       _aes_256_expand_encryption_key 00486450 f   libsrtp-i386-win32-vc8-debug-dynamic:aes.obj
 0002:00057860       _aes_final_round           00486860 f   libsrtp-i386-win32-vc8-debug-dynamic:aes.obj
 0002:00057be0       _aes_inv_final_round       00486be0 f   libsrtp-i386-win32-vc8-debug-dynamic:aes.obj
 0002:00057f60       _aes_inv_round             00486f60 f   libsrtp-i386-win32-vc8-debug-dynamic:aes.obj
 0002:000581e0       _aes_round                 004871e0 f   libsrtp-i386-win32-vc8-debug-dynamic:aes.obj
 0002:0005ac18       $LN55                      00489c18     libsrtp-i386-win32-vc8-debug-dynamic:sha1.obj
 0002:0005b1e0       ?pre_c_initialization@@YAHXZ 0048a1e0 f   MSVCRTD:exe_main.obj
 0002:0005b2c0       ?post_pgo_initialization@@YAHXZ 0048a2c0 f   MSVCRTD:exe_main.obj
 0002:0005b2d0       ?pre_cpp_initialization@@YAXXZ 0048a2d0 f   MSVCRTD:exe_main.obj
 0002:0005b2f0       ?__scrt_common_main@@YAHXZ 0048a2f0 f   MSVCRTD:exe_main.obj
 0002:0005b310       ?__scrt_common_main_seh@@YAHXZ 0048a310 f   MSVCRTD:exe_main.obj
 0002:0005b5e0       ?invoke_main@@YAHXZ        0048a5e0 f   MSVCRTD:exe_main.obj
 0002:0005baa0       $$000000                   0048aaa0     MSVCRTD:ulldiv.obj
 0002:0005bb30       $$000000                   0048ab30     MSVCRTD:llmul.obj
 0002:0005bb80       $$000000                   0048ab80     MSVCRTD:lldiv.obj
 0002:0005bc60       $$000000                   0048ac60     MSVCRTD:chkstk.obj
 0002:0005bca0       $$000000                   0048aca0     MSVCRTD:llshl.obj
 0002:0005bcd0       $$000000                   0048acd0     MSVCRTD:llshr.obj
 0002:0005bd00       $$000000                   0048ad00     MSVCRTD:ftol3.obj
 0002:0005c160       $$000000                   0048b160     MSVCRTD:ftol2.obj
 0002:0005c250       $$000000                   0048b250     MSVCRTD:ullshr.obj
 0002:0005c300       ?find_pe_section@@YAPAU_IMAGE_SECTION_HEADER@@QAEI@Z 0048b300 f   MSVCRTD:utility.obj
 0002:0005c3b0       ?is_potentially_valid_image_base@@YA_NQAX@Z 0048b3b0 f   MSVCRTD:utility.obj
 0002:0005caf0       ___get_entropy             0048baf0 f   MSVCRTD:gs_support.obj
 0003:00000104       ?pre_cpp_initializer@@3P6AXXZA 00490104     MSVCRTD:exe_main.obj
 0003:00000410       ?pre_c_initializer@@3P6AHXZA 00490410     MSVCRTD:exe_main.obj
 0003:00000514       ?post_pgo_initializer@@3P6AHXZA 00490514     MSVCRTD:exe_main.obj
 0003:00000c00       _err_str                   00490c00     pjmedia-audiodev-i386-win32-vc8-debug-dynamic:errno.obj
 0003:00001578       _STR_IN                    00491578     pjmedia-i386-win32-vc8-debug-dynamic:endpoint.obj
 0003:00001580       _STR_IP4                   00491580     pjmedia-i386-win32-vc8-debug-dynamic:endpoint.obj
 0003:00001588       _STR_IP6                   00491588     pjmedia-i386-win32-vc8-debug-dynamic:endpoint.obj
 0003:00001590       _STR_RTP_AVP               00491590     pjmedia-i386-win32-vc8-debug-dynamic:endpoint.obj
 0003:00001598       _STR_SDP_NAME              00491598     pjmedia-i386-win32-vc8-debug-dynamic:endpoint.obj
 0003:000015a0       _STR_SENDRECV              004915a0     pjmedia-i386-win32-vc8-debug-dynamic:endpoint.obj
 0003:00004500       _err_str                   00494500     pjmedia-i386-win32-vc8-debug-dynamic:errno.obj
 0003:000108f8       _ID_RTP_AVP                004a08f8     pjmedia-i386-win32-vc8-debug-dynamic:transport_srtp.obj
 0003:00010900       _ID_RTP_SAVP               004a0900     pjmedia-i386-win32-vc8-debug-dynamic:transport_srtp.obj
 0003:00010908       _ID_CRYPTO                 004a0908     pjmedia-i386-win32-vc8-debug-dynamic:transport_srtp.obj
 0003:00012698       _base64_char               004a2698     pjlib-util-i386-win32-vc8-debug-dynamic:base64.obj
 0003:00013220       _err_str                   004a3220     pjlib-i386-win32-vc8-debug-dynamic:errno.obj
 0003:00013f60       _gaErrorList               004a3f60     pjlib-i386-win32-vc8-debug-dynamic:os_error_win32.obj
 0003:00016d38       _MIN_LEAK                  004a6d38     libspeex-i386-win32-vc8-debug-dynamic:mdf.obj
 0003:00016d3c       _VAR1_SMOOTH               004a6d3c     libspeex-i386-win32-vc8-debug-dynamic:mdf.obj
 0003:00016d40       _VAR2_SMOOTH               004a6d40     libspeex-i386-win32-vc8-debug-dynamic:mdf.obj
 0003:00016d44       _VAR1_UPDATE               004a6d44     libspeex-i386-win32-vc8-debug-dynamic:mdf.obj
 0003:00016d48       _VAR2_UPDATE               004a6d48     libspeex-i386-win32-vc8-debug-dynamic:mdf.obj
 0003:00016d4c       _VAR_BACKTRACK             004a6d4c     libspeex-i386-win32-vc8-debug-dynamic:mdf.obj
 0003:00017038       ?table@?1??hypergeom_gain@@9@9 004a7038     libspeex-i386-win32-vc8-debug-dynamic:preprocess.obj
 0003:00017f6c       _srtp_null_cipher_description 004a7f6c     libsrtp-i386-win32-vc8-debug-dynamic:null_cipher.obj
 0003:00017f78       _srtp_null_cipher_test_0   004a7f78     libsrtp-i386-win32-vc8-debug-dynamic:null_cipher.obj
 0003:000180a0       _srtp_aes_icm_128_description 004a80a0     libsrtp-i386-win32-vc8-debug-dynamic:aes_icm.obj
 0003:000180c0       _srtp_aes_icm_256_description 004a80c0     libsrtp-i386-win32-vc8-debug-dynamic:aes_icm.obj
 0003:000180e0       _srtp_aes_icm_128_test_case_0_key 004a80e0     libsrtp-i386-win32-vc8-debug-dynamic:aes_icm.obj
 0003:00018100       _srtp_aes_icm_128_test_case_0_plaintext 004a8100     libsrtp-i386-win32-vc8-debug-dynamic:aes_icm.obj
 0003:00018120       _srtp_aes_icm_128_test_case_0_ciphertext 004a8120     libsrtp-i386-win32-vc8-debug-dynamic:aes_icm.obj
 0003:00018140       _srtp_aes_icm_128_test_case_0 004a8140     libsrtp-i386-win32-vc8-debug-dynamic:aes_icm.obj
 0003:0001816c       _srtp_aes_icm_256_test_case_0_key 004a816c     libsrtp-i386-win32-vc8-debug-dynamic:aes_icm.obj
 0003:0001819c       _srtp_aes_icm_256_test_case_0_plaintext 004a819c     libsrtp-i386-win32-vc8-debug-dynamic:aes_icm.obj
 0003:000181bc       _srtp_aes_icm_256_test_case_0_ciphertext 004a81bc     libsrtp-i386-win32-vc8-debug-dynamic:aes_icm.obj
 0003:000181dc       _srtp_aes_icm_256_test_case_0 004a81dc     libsrtp-i386-win32-vc8-debug-dynamic:aes_icm.obj
 0003:00018308       _srtp_null_auth_test_case_0 004a8308     libsrtp-i386-win32-vc8-debug-dynamic:null_auth.obj
 0003:00018324       _srtp_null_auth_description 004a8324     libsrtp-i386-win32-vc8-debug-dynamic:null_auth.obj
 0003:000183fc       _srtp_hmac_test_case_0_key 004a83fc     libsrtp-i386-win32-vc8-debug-dynamic:hmac.obj
 0003:00018410       _srtp_hmac_test_case_0_data 004a8410     libsrtp-i386-win32-vc8-debug-dynamic:hmac.obj
 0003:00018418       _srtp_hmac_test_case_0_tag 004a8418     libsrtp-i386-win32-vc8-debug-dynamic:hmac.obj
 0003:0001842c       _srtp_hmac_test_case_0     004a842c     libsrtp-i386-win32-vc8-debug-dynamic:hmac.obj
 0003:00018448       _srtp_hmac_description     004a8448     libsrtp-i386-win32-vc8-debug-dynamic:hmac.obj
 0003:00018510       _T0                        004a8510     libsrtp-i386-win32-vc8-debug-dynamic:aes.obj
 0003:00018910       _T1                        004a8910     libsrtp-i386-win32-vc8-debug-dynamic:aes.obj
 0003:00018d10       _T2                        004a8d10     libsrtp-i386-win32-vc8-debug-dynamic:aes.obj
 0003:00019110       _T3                        004a9110     libsrtp-i386-win32-vc8-debug-dynamic:aes.obj
 0003:00019510       _U0                        004a9510     libsrtp-i386-win32-vc8-debug-dynamic:aes.obj
 0003:00019910       _U1                        004a9910     libsrtp-i386-win32-vc8-debug-dynamic:aes.obj
 0003:00019d10       _U2                        004a9d10     libsrtp-i386-win32-vc8-debug-dynamic:aes.obj
 0003:0001a110       _U3                        004aa110     libsrtp-i386-win32-vc8-debug-dynamic:aes.obj
 0003:0001a510       _aes_sbox                  004aa510     libsrtp-i386-win32-vc8-debug-dynamic:aes.obj
 0003:0001a610       _aes_inv_sbox              004aa610     libsrtp-i386-win32-vc8-debug-dynamic:aes.obj
 0003:0001aeac       _GS_ExceptionPointers      004aaeac     MSVCRTD:gs_report.obj
 0003:0001aec0       _Int32ToUInt32             004aaec0     MSVCRTD:ftol3.obj
 0003:0001aec8       _DP2to32                   004aaec8     MSVCRTD:ftol3.obj
 0003:0001aed0       _MantissaMask              004aaed0     MSVCRTD:ftol3.obj
 0003:0001aed8       _IntegerBit                004aaed8     MSVCRTD:ftol3.obj
 0003:0001aee0       _SignBit64                 004aaee0     MSVCRTD:ftol3.obj
 0003:0001aee8       _MinFP64                   004aaee8     MSVCRTD:ftol3.obj
 0003:0001aef0       _MinInt64                  004aaef0     MSVCRTD:ftol3.obj
 0003:0001aef8       _MaxInt64                  004aaef8     MSVCRTD:ftol3.obj
 0003:0001af00       _MaxUInt64                 004aaf00     MSVCRTD:ftol3.obj
 0003:0001af08       _MaxFP32                   004aaf08     MSVCRTD:ftol3.obj
 0003:0001af10       _MinFP32                   004aaf10     MSVCRTD:ftol3.obj
 0003:0001af18       _MinSubInexact             004aaf18     MSVCRTD:ftol3.obj
 0003:0001af20       _FpExcptTable              004aaf20     MSVCRTD:ftol3.obj
 0003:0001af30       _i1075                     004aaf30     MSVCRTD:ftol3.obj
 0003:0001af34       _i1087                     004aaf34     MSVCRTD:ftol3.obj
 0003:0001af38       _x0800                     004aaf38     MSVCRTD:ftol3.obj
 0003:0001af3c       _x17FF                     004aaf3c     MSVCRTD:ftol3.obj
 0003:0001af40       _CWMask                    004aaf40     MSVCRTD:ftol3.obj
 0003:0001baa0       __sehtable$?__scrt_common_main_seh@@YAHXZ 004abaa0     MSVCRTD:exe_main.obj
 0003:0001bac0       __sehtable$___scrt_is_nonwritable_in_current_image 004abac0     MSVCRTD:utility.obj
 0004:00000000       $SG24675                   004ac000     stereotest.obj
 0004:00000288       $SG11868                   004ac288     stereotest.obj
 0004:000002f4       $SG24574                   004ac2f4     stereotest.obj
 0004:00000308       $SG11869                   004ac308     stereotest.obj
 0004:000003b8       $SG11876                   004ac3b8     stereotest.obj
 0004:00000424       $SG24622                   004ac424     stereotest.obj
 0004:00000428       $SG11877                   004ac428     stereotest.obj
 0004:000004d8       $SG11884                   004ac4d8     stereotest.obj
 0004:00000544       $SG24630                   004ac544     stereotest.obj
 0004:00000548       $SG11885                   004ac548     stereotest.obj
 0004:000005f8       $SG24624                   004ac5f8     stereotest.obj
 0004:00000600       $SG24626                   004ac600     stereotest.obj
 0004:00000608       $SG24628                   004ac608     stereotest.obj
 0004:00000610       $SG24631                   004ac610     stereotest.obj
 0004:0000061c       $SG24635                   004ac61c     stereotest.obj
 0004:00000640       $SG24639                   004ac640     stereotest.obj
 0004:00000664       $SG24643                   004ac664     stereotest.obj
 0004:00000684       $SG24647                   004ac684     stereotest.obj
 0004:000006a8       $SG24651                   004ac6a8     stereotest.obj
 0004:000006d0       $SG24654                   004ac6d0     stereotest.obj
 0004:000006ec       $SG24673                   004ac6ec     stereotest.obj
 0004:0000071c       _desc                      004ac71c     stereotest.obj
 0004:00000720       $SG24735                   004ac720     stereotest.obj
 0004:00000728       $SG24737                   004ac728     stereotest.obj
 0004:00000734       $SG24739                   004ac734     stereotest.obj
 0004:00000740       $SG24741                   004ac740     stereotest.obj
 0004:00000778       $SG24742                   004ac778     stereotest.obj
 0004:000007a4       $SG24743                   004ac7a4     stereotest.obj
 0004:000007ac       $SG24746                   004ac7ac     stereotest.obj
 0004:000007cc       $SG24747                   004ac7cc     stereotest.obj
 0004:000007dc       $SG24751                   004ac7dc     stereotest.obj
 0004:000007f0       $SG24753                   004ac7f0     stereotest.obj
 0004:00000808       $SG24754                   004ac808     stereotest.obj
 0004:00000818       $SG24757                   004ac818     stereotest.obj
 0004:0000083c       $SG24758                   004ac83c     stereotest.obj
 0004:0000084c       $SG24760                   004ac84c     stereotest.obj
 0004:00000864       $SG24761                   004ac864     stereotest.obj
 0004:00000874       $SG24763                   004ac874     stereotest.obj
 0004:000008ac       $SG24764                   004ac8ac     stereotest.obj
 0004:000008d8       $SG24765                   004ac8d8     stereotest.obj
 0004:000008dc       $SG24769                   004ac8dc     stereotest.obj
 0004:000008f0       $SG24770                   004ac8f0     stereotest.obj
 0004:00000900       $SG24772                   004ac900     stereotest.obj
 0004:0000091c       $SG24773                   004ac91c     stereotest.obj
 0004:0000092c       $SG24777                   004ac92c     stereotest.obj
 0004:0000094c       $SG24778                   004ac94c     stereotest.obj
 0004:0000095c       $SG24780                   004ac95c     stereotest.obj
 0004:0000097c       $SG24781                   004ac97c     stereotest.obj
 0004:0000098c       $SG24783                   004ac98c     stereotest.obj
 0004:000009a0       $SG24784                   004ac9a0     stereotest.obj
 0004:000009b0       $SG24786                   004ac9b0     stereotest.obj
 0004:000009cc       $SG24787                   004ac9cc     stereotest.obj
 0004:000009dc       $SG24791                   004ac9dc     stereotest.obj
 0004:000009fc       $SG24792                   004ac9fc     stereotest.obj
 0004:00000a0c       $SG24794                   004aca0c     stereotest.obj
 0004:00000a2c       $SG24795                   004aca2c     stereotest.obj
 0004:00000a3c       $SG24796                   004aca3c     stereotest.obj
 0004:00000a4c       $SG24797                   004aca4c     stereotest.obj
 0004:00000a54       $SG24798                   004aca54     stereotest.obj
 0004:00000a60       $SG24799                   004aca60     stereotest.obj
 0004:00000a6c       $SG24800                   004aca6c     stereotest.obj
 0004:00000a8c       $SG24801                   004aca8c     stereotest.obj
 0004:00000aac       $SG24803                   004acaac     stereotest.obj
 0004:00000acc       $SG24805                   004acacc     stereotest.obj
 0004:00000af8       $SG24807                   004acaf8     stereotest.obj
 0004:00000b30       $SG24808                   004acb30     stereotest.obj
 0004:00000b5c       $SG24810                   004acb5c     stereotest.obj
 0004:00000b94       $SG24811                   004acb94     stereotest.obj
 0004:00000e1c       _factory_op                004ace1c     pjmedia-audiodev-i386-win32-vc8-debug-dynamic:wmme_dev.obj
 0004:00000e38       _stream_op                 004ace38     pjmedia-audiodev-i386-win32-vc8-debug-dynamic:wmme_dev.obj
 0004:00000f50       _cap_infos                 004acf50     pjmedia-i386-win32-vc8-debug-dynamic:audiodev.obj
 0004:000010a0       _echo_supp_op              004ad0a0     pjmedia-i386-win32-vc8-debug-dynamic:echo_common.obj
 0004:000010bc       _speex_aec_op              004ad0bc     pjmedia-i386-win32-vc8-debug-dynamic:echo_common.obj
 0004:000010e8       _crypto_suites             004ad0e8     pjmedia-i386-win32-vc8-debug-dynamic:transport_srtp.obj
 0004:000011c4       _transport_srtp_op         004ad1c4     pjmedia-i386-win32-vc8-debug-dynamic:transport_srtp.obj
 0004:000011f8       ?liberr@?1??get_libsrtp_errstr@@9@9 004ad1f8     pjmedia-i386-win32-vc8-debug-dynamic:transport_srtp.obj
 0004:0000125c       _sdes_op                   004ad25c     pjmedia-i386-win32-vc8-debug-dynamic:transport_srtp.obj
 0004:000013cc       _thread_tls_id             004ad3cc     pjlib-i386-win32-vc8-debug-dynamic:os_core_win32.obj
 0004:000014c8       _pool_sizes                004ad4c8     pjlib-i386-win32-vc8-debug-dynamic:pool_caching.obj
 0004:00001524       _pj_log_max_level          004ad524     pjlib-i386-win32-vc8-debug-dynamic:log.obj
 0004:00001528       _thread_suspended_tls_id   004ad528     pjlib-i386-win32-vc8-debug-dynamic:log.obj
 0004:0000152c       _thread_indent_tls_id      004ad52c     pjlib-i386-win32-vc8-debug-dynamic:log.obj
 0004:00001530       _log_writer                004ad530     pjlib-i386-win32-vc8-debug-dynamic:log.obj
 0004:00001534       _log_decor                 004ad534     pjlib-i386-win32-vc8-debug-dynamic:log.obj
 0004:00001538       _PJ_LOG_COLOR_0            004ad538     pjlib-i386-win32-vc8-debug-dynamic:log.obj
 0004:0000153c       _PJ_LOG_COLOR_1            004ad53c     pjlib-i386-win32-vc8-debug-dynamic:log.obj
 0004:00001540       _PJ_LOG_COLOR_2            004ad540     pjlib-i386-win32-vc8-debug-dynamic:log.obj
 0004:00001544       _PJ_LOG_COLOR_3            004ad544     pjlib-i386-win32-vc8-debug-dynamic:log.obj
 0004:00001548       _PJ_LOG_COLOR_4            004ad548     pjlib-i386-win32-vc8-debug-dynamic:log.obj
 0004:0000154c       _PJ_LOG_COLOR_5            004ad54c     pjlib-i386-win32-vc8-debug-dynamic:log.obj
 0004:00001550       _PJ_LOG_COLOR_6            004ad550     pjlib-i386-win32-vc8-debug-dynamic:log.obj
 0004:00001554       _PJ_LOG_COLOR_77           004ad554     pjlib-i386-win32-vc8-debug-dynamic:log.obj
 0004:00001558       ?ltexts@?2??pj_log@@9@9    004ad558     pjlib-i386-win32-vc8-debug-dynamic:log.obj
 0004:00001574       ?wdays@?3??pj_log@@9@9     004ad574     pjlib-i386-win32-vc8-debug-dynamic:log.obj
 0004:00001700       _thread_local_id           004ad700     pjlib-i386-win32-vc8-debug-dynamic:except.obj
 0004:00001714       _mutex_lock_template       004ad714     pjlib-i386-win32-vc8-debug-dynamic:lock.obj
 0004:00001728       _null_lock_template        004ad728     pjlib-i386-win32-vc8-debug-dynamic:lock.obj
 0004:0000173c       _sem_lock_template         004ad73c     pjlib-i386-win32-vc8-debug-dynamic:lock.obj
 0004:00001798       ?hex@?1??hex2digit@@9@9    004ad798     pjlib-i386-win32-vc8-debug-dynamic:guid_win32.obj
 0004:000017b4       _id                        004ad7b4     pjlib-i386-win32-vc8-debug-dynamic:config.obj
 0004:000017bc       _tls                       004ad7bc     pjlib-i386-win32-vc8-debug-dynamic:pool_buf.obj
 0004:000017f8       ?ntryh@?1??drfti1@@9@9     004ad7f8     libspeex-i386-win32-vc8-debug-dynamic:smallft.obj
 0004:00001808       ?tpi@?1??drfti1@@9@9       004ad808     libspeex-i386-win32-vc8-debug-dynamic:smallft.obj
 0004:0000180c       ?hsqt2@?1??dradf4@@9@9     004ad80c     libspeex-i386-win32-vc8-debug-dynamic:smallft.obj
 0004:00001810       ?tpi@?1??dradfg@@9@9       004ad810     libspeex-i386-win32-vc8-debug-dynamic:smallft.obj
 0004:00001814       ?taur@?1??dradb3@@9@9      004ad814     libspeex-i386-win32-vc8-debug-dynamic:smallft.obj
 0004:00001818       ?taui@?1??dradb3@@9@9      004ad818     libspeex-i386-win32-vc8-debug-dynamic:smallft.obj
 0004:0000181c       ?sqrt2@?1??dradb4@@9@9     004ad81c     libspeex-i386-win32-vc8-debug-dynamic:smallft.obj
 0004:00001820       ?tpi@?1??dradbg@@9@9       004ad820     libspeex-i386-win32-vc8-debug-dynamic:smallft.obj
 0004:00001834       _srtp_event_handler        004ad834     libsrtp-i386-win32-vc8-debug-dynamic:srtp.obj
 0004:00002000       $SG24802                   004ae000     stereotest.obj
 0004:00002004       ?name@?1??get_fmt_name@@9@9 004ae004     pjmedia-audiodev-i386-win32-vc8-debug-dynamic:wmme_dev.obj
 0004:0000200c       ?rec_cnt@?1??wmme_dev_thread@@9@9 004ae00c     pjmedia-audiodev-i386-win32-vc8-debug-dynamic:wmme_dev.obj
 0004:00002010       ?play_cnt@?1??wmme_dev_thread@@9@9 004ae010     pjmedia-audiodev-i386-win32-vc8-debug-dynamic:wmme_dev.obj
 0004:00002018       _aud_subsys                004ae018     pjmedia-i386-win32-vc8-debug-dynamic:audiodev.obj
 0004:000025e0       _is_initialized            004ae5e0     pjmedia-i386-win32-vc8-debug-dynamic:sdp.obj
 0004:000025e8       _cis_buf                   004ae5e8     pjmedia-i386-win32-vc8-debug-dynamic:sdp.obj
 0004:000029ec       _cs_digit                  004ae9ec     pjmedia-i386-win32-vc8-debug-dynamic:sdp.obj
 0004:000029f4       _cs_token                  004ae9f4     pjmedia-i386-win32-vc8-debug-dynamic:sdp.obj
 0004:00002ad0       ?msg@?3??get_libsrtp_errstr@@9@9 004aead0     pjmedia-i386-win32-vc8-debug-dynamic:transport_srtp.obj
 0004:00002af0       _libsrtp_initialized       004aeaf0     pjmedia-i386-win32-vc8-debug-dynamic:transport_srtp.obj
 0004:00002b00       ___getopt_initialized      004aeb00     pjlib-util-i386-win32-vc8-debug-dynamic:getopt.obj
 0004:00002b04       _nextchar                  004aeb04     pjlib-util-i386-win32-vc8-debug-dynamic:getopt.obj
 0004:00002b08       _ordering                  004aeb08     pjlib-util-i386-win32-vc8-debug-dynamic:getopt.obj
 0004:00002b0c       _posixly_correct           004aeb0c     pjlib-util-i386-win32-vc8-debug-dynamic:getopt.obj
 0004:00002b10       _first_nonopt              004aeb10     pjlib-util-i386-win32-vc8-debug-dynamic:getopt.obj
 0004:00002b14       _last_nonopt               004aeb14     pjlib-util-i386-win32-vc8-debug-dynamic:getopt.obj
 0004:00002b20       _initialized               004aeb20     pjlib-i386-win32-vc8-debug-dynamic:os_core_win32.obj
 0004:00002b24       _atexit_count              004aeb24     pjlib-i386-win32-vc8-debug-dynamic:os_core_win32.obj
 0004:00002b28       _main_thread               004aeb28     pjlib-i386-win32-vc8-debug-dynamic:os_core_win32.obj
 0004:00002c28       _critical_section_mutex    004aec28     pjlib-i386-win32-vc8-debug-dynamic:os_core_win32.obj
 0004:00002c68       _atexit_func               004aec68     pjlib-i386-win32-vc8-debug-dynamic:os_core_win32.obj
 0004:00002d48       _err_msg_hnd_cnt           004aed48     pjlib-i386-win32-vc8-debug-dynamic:errno.obj
 0004:00002d50       _err_msg_hnd               004aed50     pjlib-i386-win32-vc8-debug-dynamic:errno.obj
 0004:00002de4       _g_last_thread             004aede4     pjlib-i386-win32-vc8-debug-dynamic:log.obj
 0004:00002de8       _base_time                 004aede8     pjlib-i386-win32-vc8-debug-dynamic:os_time_win32.obj
 0004:00002df8       ?buf@?1??pj_gethostname@@9@9 004aedf8     pjlib-i386-win32-vc8-debug-dynamic:sock_bsd.obj
 0004:00002e78       ?hostname@?1??pj_gethostname@@9@9 004aee78     pjlib-i386-win32-vc8-debug-dynamic:sock_bsd.obj
 0004:00002ea0       _exception_id_names        004aeea0     pjlib-i386-win32-vc8-debug-dynamic:except.obj
 0004:00002ee0       ?unknown_name@?1??pj_exception_id_name@@9@9 004aeee0     pjlib-i386-win32-vc8-debug-dynamic:except.obj
 0004:00002f14       _stack_based_factory       004aef14     pjlib-i386-win32-vc8-debug-dynamic:pool_buf.obj
 0004:00002f38       _is_initialized            004aef38     pjlib-i386-win32-vc8-debug-dynamic:pool_buf.obj
 0004:00002f44       _s_hDLL                    004aef44     pjlib-i386-win32-vc8-debug-dynamic:ip_helper_win32.obj
 0004:00002f48       _s_pfnGetIpAddrTable       004aef48     pjlib-i386-win32-vc8-debug-dynamic:ip_helper_win32.obj
 0004:00002f4c       _s_pfnGetAdapterAddresses  004aef4c     pjlib-i386-win32-vc8-debug-dynamic:ip_helper_win32.obj
 0004:00002f50       _s_pfnGetIpForwardTable    004aef50     pjlib-i386-win32-vc8-debug-dynamic:ip_helper_win32.obj
 0004:00002f54       _s_pfnGetIfEntry           004aef54     pjlib-i386-win32-vc8-debug-dynamic:ip_helper_win32.obj
 0004:00002f5c       _srtp_log_handler          004aef5c     libsrtp-i386-win32-vc8-debug-dynamic:srtp.obj
 0004:00002f60       _srtp_log_handler_data     004aef60     libsrtp-i386-win32-vc8-debug-dynamic:srtp.obj
 0004:00002f80       _srtp_aes_icm_128_test_case_0_nonce 004aef80     libsrtp-i386-win32-vc8-debug-dynamic:aes_icm.obj
 0004:00002f90       _srtp_aes_icm_256_test_case_0_nonce 004aef90     libsrtp-i386-win32-vc8-debug-dynamic:aes_icm.obj
 0004:00002fa8       _GS_ExceptionRecord        004aefa8     MSVCRTD:gs_report.obj
 0004:00002ff8       _GS_ContextRecord          004aeff8     MSVCRTD:gs_report.obj
 0004:0000336c       ?is_initialized_as_dll@@3_NA 004af36c     MSVCRTD:utility.obj
 0004:0000336d       ?module_local_atexit_table_initialized@@3_NA 004af36d     MSVCRTD:utility.obj
 0004:00003370       ?module_local_atexit_table@@3U_onexit_table_t@@A 004af370     MSVCRTD:utility.obj
 0004:0000337c       ?module_local_at_quick_exit_table@@3U_onexit_table_t@@A 004af37c     MSVCRTD:utility.obj
 0005:000009c4       .idata$6                   004b09c4     ole32:ole32.dll
 0005:00000a14       .idata$6                   004b0a14     ws2_32:WS2_32.dll
 0005:00000be0       .idata$6                   004b0be0     winmm:WINMM.dll
 0005:0000106e       .idata$6                   004b106e     kernel32:KERNEL32.dll
 0005:00001108       .idata$6                   004b1108     vcruntimed:VCRUNTIME140D.dll
 0005:0000149a       .idata$6                   004b149a     ucrtd:ucrtbased.dll
